ARM GAS  C:\Users\arist\AppData\Local\Temp\ccp82oC3.s 			page 1


   1              		.cpu cortex-m0
   2              		.arch armv6s-m
   3              		.fpu softvfp
   4              		.eabi_attribute 20, 1
   5              		.eabi_attribute 21, 1
   6              		.eabi_attribute 23, 3
   7              		.eabi_attribute 24, 1
   8              		.eabi_attribute 25, 1
   9              		.eabi_attribute 26, 1
  10              		.eabi_attribute 30, 1
  11              		.eabi_attribute 34, 0
  12              		.eabi_attribute 18, 4
  13              		.file	"GEVA.c"
  14              		.text
  15              	.Ltext0:
  16              		.cfi_sections	.debug_frame
  17              		.file 1 "Core/Src/GEVA.c"
  18              		.section	.text.set_mode,"ax",%progbits
  19              		.align	1
  20              		.global	set_mode
  21              		.syntax unified
  22              		.code	16
  23              		.thumb_func
  25              	set_mode:
  26              	.LVL0:
  27              	.LFB1:
   1:Core/Src/GEVA.c **** #include <string.h>
   2:Core/Src/GEVA.c **** #include "GEVA.h"
   3:Core/Src/GEVA.c **** #include "GEVA_font.h"
   4:Core/Src/GEVA.c **** 
   5:Core/Src/GEVA.c **** /*
   6:Core/Src/GEVA.c **** * TO-DO : better error handling
   7:Core/Src/GEVA.c **** */
   8:Core/Src/GEVA.c **** 
   9:Core/Src/GEVA.c **** //internal function
  10:Core/Src/GEVA.c **** uint8_t byte_col_cnt(uint8_t size_x);
  11:Core/Src/GEVA.c **** uint16_t buffer_byte_cnt(video_buffer* buf);
  12:Core/Src/GEVA.c **** uint16_t get_buffer_index(uint8_t pos_x, uint8_t pos_y, uint8_t row_byte_cnt);
  13:Core/Src/GEVA.c **** uint8_t* normalize_pos(uint8_t pos_x, uint8_t pos_y, video_buffer* buf);
  14:Core/Src/GEVA.c **** uint16_t* rotate_char(uint16_t *chr, video_buffer* buf);
  15:Core/Src/GEVA.c **** uint8_t calculate_y(uint8_t x, uint8_t x0, uint8_t x1, uint8_t y0, uint8_t y1);
  16:Core/Src/GEVA.c **** uint8_t modulo(int8_t n);
  17:Core/Src/GEVA.c **** uint16_t reverse_byte(uint16_t b);
  18:Core/Src/GEVA.c **** 
  19:Core/Src/GEVA.c **** uint8_t update_LINE(data_container* c, video_buffer* buf);
  20:Core/Src/GEVA.c **** uint8_t update_COL(data_container* c, video_buffer* buf);
  21:Core/Src/GEVA.c **** uint8_t update_BAR(data_container* c, video_buffer* buf);
  22:Core/Src/GEVA.c **** uint8_t update_SCATTER(data_container* c, video_buffer* buf);
  23:Core/Src/GEVA.c **** uint8_t update_XY(data_container* c, video_buffer* buf);
  24:Core/Src/GEVA.c **** 
  25:Core/Src/GEVA.c **** /*Initialize buffer memory
  26:Core/Src/GEVA.c **** * return error code
  27:Core/Src/GEVA.c **** * error code list:
  28:Core/Src/GEVA.c **** * 1 error allocating memory
  29:Core/Src/GEVA.c **** */
  30:Core/Src/GEVA.c **** uint8_t init_buf(video_buffer *buf, uint8_t size_x, uint8_t size_y) {
  31:Core/Src/GEVA.c ****     uint8_t error = 0;
ARM GAS  C:\Users\arist\AppData\Local\Temp\ccp82oC3.s 			page 2


  32:Core/Src/GEVA.c ****     buf->size_x = size_x;
  33:Core/Src/GEVA.c ****     buf->size_y = size_y;
  34:Core/Src/GEVA.c ****     buf->byte_col_cnt = byte_col_cnt(size_x);
  35:Core/Src/GEVA.c ****     buf->byte_buffer_cnt = buffer_byte_cnt(buf);
  36:Core/Src/GEVA.c ****     buf->vid_buf = (uint8_t *)malloc(buf->byte_buffer_cnt);
  37:Core/Src/GEVA.c ****     
  38:Core/Src/GEVA.c ****     /*initialize default pointer values*/
  39:Core/Src/GEVA.c ****     buf->origin[0] = 0;
  40:Core/Src/GEVA.c ****     buf->origin[1] = 0;
  41:Core/Src/GEVA.c ****     buf->r_matrix[0] = 0;
  42:Core/Src/GEVA.c ****     buf->r_matrix[1] = 0;
  43:Core/Src/GEVA.c ****     buf->r_matrix[2] = 0;
  44:Core/Src/GEVA.c ****     buf->r_matrix[3] = 0;
  45:Core/Src/GEVA.c **** 
  46:Core/Src/GEVA.c ****     clr_buffer(buf);
  47:Core/Src/GEVA.c ****     set_mode(NORMAL, buf);
  48:Core/Src/GEVA.c ****     set_orientation(LANDSCAPE, buf);
  49:Core/Src/GEVA.c ****     return error;
  50:Core/Src/GEVA.c **** }
  51:Core/Src/GEVA.c **** 
  52:Core/Src/GEVA.c **** /* Set buffer mode between NORMAL and INVERTED and adjust buffer accordingly*/
  53:Core/Src/GEVA.c **** void set_mode(enum mode mode, video_buffer *buf) {
  28              		.loc 1 53 50 view -0
  29              		.cfi_startproc
  30              		@ args = 0, pretend = 0, frame = 0
  31              		@ frame_needed = 0, uses_anonymous_args = 0
  32              		@ link register save eliminated.
  54:Core/Src/GEVA.c ****     
  55:Core/Src/GEVA.c ****     buf->mode = mode;
  33              		.loc 1 55 5 view .LVU1
  34              		.loc 1 55 15 is_stmt 0 view .LVU2
  35 0000 0873     		strb	r0, [r1, #12]
  56:Core/Src/GEVA.c **** 
  57:Core/Src/GEVA.c ****     if (mode) {
  36              		.loc 1 57 5 is_stmt 1 view .LVU3
  37              		.loc 1 57 8 is_stmt 0 view .LVU4
  38 0002 0028     		cmp	r0, #0
  39 0004 0AD1     		bne	.L5
  40              	.LVL1:
  41              	.L1:
  58:Core/Src/GEVA.c ****         for (uint16_t i = 0; i < buf->byte_buffer_cnt; i++) {
  59:Core/Src/GEVA.c ****             buf->vid_buf[i] = ~buf->vid_buf[i];
  60:Core/Src/GEVA.c ****         }
  61:Core/Src/GEVA.c ****     }
  62:Core/Src/GEVA.c **** }
  42              		.loc 1 62 1 view .LVU5
  43              		@ sp needed
  44 0006 7047     		bx	lr
  45              	.LVL2:
  46              	.L4:
  47              	.LBB2:
  59:Core/Src/GEVA.c ****         }
  48              		.loc 1 59 13 is_stmt 1 discriminator 3 view .LVU6
  59:Core/Src/GEVA.c ****         }
  49              		.loc 1 59 35 is_stmt 0 discriminator 3 view .LVU7
  50 0008 4868     		ldr	r0, [r1, #4]
  59:Core/Src/GEVA.c ****         }
ARM GAS  C:\Users\arist\AppData\Local\Temp\ccp82oC3.s 			page 3


  51              		.loc 1 59 44 discriminator 3 view .LVU8
  52 000a C25C     		ldrb	r2, [r0, r3]
  59:Core/Src/GEVA.c ****         }
  53              		.loc 1 59 29 discriminator 3 view .LVU9
  54 000c D243     		mvns	r2, r2
  55 000e C254     		strb	r2, [r0, r3]
  58:Core/Src/GEVA.c ****         for (uint16_t i = 0; i < buf->byte_buffer_cnt; i++) {
  56              		.loc 1 58 57 is_stmt 1 discriminator 3 view .LVU10
  57 0010 0133     		adds	r3, r3, #1
  58              	.LVL3:
  58:Core/Src/GEVA.c ****         for (uint16_t i = 0; i < buf->byte_buffer_cnt; i++) {
  59              		.loc 1 58 57 is_stmt 0 discriminator 3 view .LVU11
  60 0012 9BB2     		uxth	r3, r3
  61              	.LVL4:
  62              	.L2:
  58:Core/Src/GEVA.c ****         for (uint16_t i = 0; i < buf->byte_buffer_cnt; i++) {
  63              		.loc 1 58 32 is_stmt 1 discriminator 1 view .LVU12
  58:Core/Src/GEVA.c ****         for (uint16_t i = 0; i < buf->byte_buffer_cnt; i++) {
  64              		.loc 1 58 37 is_stmt 0 discriminator 1 view .LVU13
  65 0014 4A89     		ldrh	r2, [r1, #10]
  58:Core/Src/GEVA.c ****         for (uint16_t i = 0; i < buf->byte_buffer_cnt; i++) {
  66              		.loc 1 58 32 discriminator 1 view .LVU14
  67 0016 9A42     		cmp	r2, r3
  68 0018 F6D8     		bhi	.L4
  69 001a F4E7     		b	.L1
  70              	.LVL5:
  71              	.L5:
  58:Core/Src/GEVA.c ****         for (uint16_t i = 0; i < buf->byte_buffer_cnt; i++) {
  72              		.loc 1 58 23 view .LVU15
  73 001c 0023     		movs	r3, #0
  74 001e F9E7     		b	.L2
  75              	.LBE2:
  76              		.cfi_endproc
  77              	.LFE1:
  79              		.section	.text.set_orientation,"ax",%progbits
  80              		.align	1
  81              		.global	set_orientation
  82              		.syntax unified
  83              		.code	16
  84              		.thumb_func
  86              	set_orientation:
  87              	.LVL6:
  88              	.LFB2:
  63:Core/Src/GEVA.c **** 
  64:Core/Src/GEVA.c **** /* Adjust rotation matrix according to orientation */
  65:Core/Src/GEVA.c **** void set_orientation(enum orientation o, video_buffer* buf) {
  89              		.loc 1 65 61 is_stmt 1 view -0
  90              		.cfi_startproc
  91              		@ args = 0, pretend = 0, frame = 0
  92              		@ frame_needed = 0, uses_anonymous_args = 0
  93              		@ link register save eliminated.
  66:Core/Src/GEVA.c ****     
  67:Core/Src/GEVA.c ****     buf->orient = o;
  94              		.loc 1 67 5 view .LVU17
  95              		.loc 1 67 17 is_stmt 0 view .LVU18
  96 0000 4873     		strb	r0, [r1, #13]
  68:Core/Src/GEVA.c ****     switch (o) {
ARM GAS  C:\Users\arist\AppData\Local\Temp\ccp82oC3.s 			page 4


  97              		.loc 1 68 5 is_stmt 1 view .LVU19
  98 0002 0228     		cmp	r0, #2
  99 0004 28D0     		beq	.L7
 100 0006 10D8     		bhi	.L8
 101 0008 0028     		cmp	r0, #0
 102 000a 1CD0     		beq	.L9
 103 000c 0128     		cmp	r0, #1
 104 000e 2FD1     		bne	.L11
  69:Core/Src/GEVA.c **** 
  70:Core/Src/GEVA.c ****     case LANDSCAPE:
  71:Core/Src/GEVA.c ****         buf->origin[X] = 0;
  72:Core/Src/GEVA.c ****         buf->origin[Y] = 0;
  73:Core/Src/GEVA.c ****         buf->r_matrix[_A] = 1;
  74:Core/Src/GEVA.c ****         buf->r_matrix[_B] = 0;
  75:Core/Src/GEVA.c ****         buf->r_matrix[_C] = 0;
  76:Core/Src/GEVA.c ****         buf->r_matrix[_D] = 1;
  77:Core/Src/GEVA.c **** 
  78:Core/Src/GEVA.c ****         break;
  79:Core/Src/GEVA.c ****     case PORTRAIT:
  80:Core/Src/GEVA.c ****         buf->origin[X] = buf->size_x-1;
  81:Core/Src/GEVA.c ****         buf->origin[Y] = 0;
  82:Core/Src/GEVA.c ****         buf->r_matrix[_A] = 0;
  83:Core/Src/GEVA.c ****         buf->r_matrix[_B] = -1;
  84:Core/Src/GEVA.c ****         buf->r_matrix[_C] = 1;
  85:Core/Src/GEVA.c ****         buf->r_matrix[_D] = 0;
  86:Core/Src/GEVA.c ****         break;
  87:Core/Src/GEVA.c ****     case LANDSCAPE_INVERTED:
  88:Core/Src/GEVA.c ****         buf->origin[X] = buf->size_x-1;
 105              		.loc 1 88 9 view .LVU20
 106              		.loc 1 88 29 is_stmt 0 view .LVU21
 107 0010 0B78     		ldrb	r3, [r1]
 108              		.loc 1 88 37 view .LVU22
 109 0012 013B     		subs	r3, r3, #1
 110              		.loc 1 88 24 view .LVU23
 111 0014 8B73     		strb	r3, [r1, #14]
  89:Core/Src/GEVA.c ****         buf->origin[Y] = buf->size_y-1;
 112              		.loc 1 89 9 is_stmt 1 view .LVU24
 113              		.loc 1 89 29 is_stmt 0 view .LVU25
 114 0016 4B78     		ldrb	r3, [r1, #1]
 115              		.loc 1 89 37 view .LVU26
 116 0018 013B     		subs	r3, r3, #1
 117              		.loc 1 89 24 view .LVU27
 118 001a CB73     		strb	r3, [r1, #15]
  90:Core/Src/GEVA.c ****         buf->r_matrix[_A] = -1;
 119              		.loc 1 90 9 is_stmt 1 view .LVU28
 120              		.loc 1 90 27 is_stmt 0 view .LVU29
 121 001c FF23     		movs	r3, #255
 122 001e 0B74     		strb	r3, [r1, #16]
  91:Core/Src/GEVA.c ****         buf->r_matrix[_B] = 0;
 123              		.loc 1 91 9 is_stmt 1 view .LVU30
 124              		.loc 1 91 27 is_stmt 0 view .LVU31
 125 0020 0022     		movs	r2, #0
 126 0022 4A74     		strb	r2, [r1, #17]
  92:Core/Src/GEVA.c ****         buf->r_matrix[_C] = 0;
 127              		.loc 1 92 9 is_stmt 1 view .LVU32
 128              		.loc 1 92 27 is_stmt 0 view .LVU33
 129 0024 8A74     		strb	r2, [r1, #18]
ARM GAS  C:\Users\arist\AppData\Local\Temp\ccp82oC3.s 			page 5


  93:Core/Src/GEVA.c ****         buf->r_matrix[_D] = -1;
 130              		.loc 1 93 9 is_stmt 1 view .LVU34
 131              		.loc 1 93 27 is_stmt 0 view .LVU35
 132 0026 CB74     		strb	r3, [r1, #19]
  94:Core/Src/GEVA.c ****         break;
 133              		.loc 1 94 9 is_stmt 1 view .LVU36
 134 0028 15E0     		b	.L6
 135              	.L8:
  68:Core/Src/GEVA.c **** 
 136              		.loc 1 68 5 is_stmt 0 view .LVU37
 137 002a 0328     		cmp	r0, #3
 138 002c 20D1     		bne	.L11
  95:Core/Src/GEVA.c ****     case PORTRAIT_INVERTED:
  96:Core/Src/GEVA.c ****         buf->origin[X] = 0;
 139              		.loc 1 96 9 is_stmt 1 view .LVU38
 140              		.loc 1 96 24 is_stmt 0 view .LVU39
 141 002e 0023     		movs	r3, #0
 142 0030 8B73     		strb	r3, [r1, #14]
  97:Core/Src/GEVA.c ****         buf->origin[Y] = buf->size_y-1;
 143              		.loc 1 97 9 is_stmt 1 view .LVU40
 144              		.loc 1 97 29 is_stmt 0 view .LVU41
 145 0032 4A78     		ldrb	r2, [r1, #1]
 146              		.loc 1 97 37 view .LVU42
 147 0034 013A     		subs	r2, r2, #1
 148              		.loc 1 97 24 view .LVU43
 149 0036 CA73     		strb	r2, [r1, #15]
  98:Core/Src/GEVA.c ****         buf->r_matrix[_A] = 0;
 150              		.loc 1 98 9 is_stmt 1 view .LVU44
 151              		.loc 1 98 27 is_stmt 0 view .LVU45
 152 0038 0B74     		strb	r3, [r1, #16]
  99:Core/Src/GEVA.c ****         buf->r_matrix[_B] = 1;
 153              		.loc 1 99 9 is_stmt 1 view .LVU46
 154              		.loc 1 99 27 is_stmt 0 view .LVU47
 155 003a 0122     		movs	r2, #1
 156 003c 4A74     		strb	r2, [r1, #17]
 100:Core/Src/GEVA.c ****         buf->r_matrix[_C] = -1;
 157              		.loc 1 100 9 is_stmt 1 view .LVU48
 158              		.loc 1 100 27 is_stmt 0 view .LVU49
 159 003e FE32     		adds	r2, r2, #254
 160 0040 8A74     		strb	r2, [r1, #18]
 101:Core/Src/GEVA.c ****         buf->r_matrix[_D] = 0;
 161              		.loc 1 101 9 is_stmt 1 view .LVU50
 162              		.loc 1 101 27 is_stmt 0 view .LVU51
 163 0042 CB74     		strb	r3, [r1, #19]
 102:Core/Src/GEVA.c ****         break;
 164              		.loc 1 102 9 is_stmt 1 view .LVU52
 165 0044 07E0     		b	.L6
 166              	.L9:
  71:Core/Src/GEVA.c ****         buf->origin[Y] = 0;
 167              		.loc 1 71 9 view .LVU53
  71:Core/Src/GEVA.c ****         buf->origin[Y] = 0;
 168              		.loc 1 71 24 is_stmt 0 view .LVU54
 169 0046 0023     		movs	r3, #0
 170 0048 8B73     		strb	r3, [r1, #14]
  72:Core/Src/GEVA.c ****         buf->r_matrix[_A] = 1;
 171              		.loc 1 72 9 is_stmt 1 view .LVU55
  72:Core/Src/GEVA.c ****         buf->r_matrix[_A] = 1;
ARM GAS  C:\Users\arist\AppData\Local\Temp\ccp82oC3.s 			page 6


 172              		.loc 1 72 24 is_stmt 0 view .LVU56
 173 004a CB73     		strb	r3, [r1, #15]
  73:Core/Src/GEVA.c ****         buf->r_matrix[_B] = 0;
 174              		.loc 1 73 9 is_stmt 1 view .LVU57
  73:Core/Src/GEVA.c ****         buf->r_matrix[_B] = 0;
 175              		.loc 1 73 27 is_stmt 0 view .LVU58
 176 004c 0122     		movs	r2, #1
 177 004e 0A74     		strb	r2, [r1, #16]
  74:Core/Src/GEVA.c ****         buf->r_matrix[_C] = 0;
 178              		.loc 1 74 9 is_stmt 1 view .LVU59
  74:Core/Src/GEVA.c ****         buf->r_matrix[_C] = 0;
 179              		.loc 1 74 27 is_stmt 0 view .LVU60
 180 0050 4B74     		strb	r3, [r1, #17]
  75:Core/Src/GEVA.c ****         buf->r_matrix[_D] = 1;
 181              		.loc 1 75 9 is_stmt 1 view .LVU61
  75:Core/Src/GEVA.c ****         buf->r_matrix[_D] = 1;
 182              		.loc 1 75 27 is_stmt 0 view .LVU62
 183 0052 8B74     		strb	r3, [r1, #18]
  76:Core/Src/GEVA.c **** 
 184              		.loc 1 76 9 is_stmt 1 view .LVU63
  76:Core/Src/GEVA.c **** 
 185              		.loc 1 76 27 is_stmt 0 view .LVU64
 186 0054 CA74     		strb	r2, [r1, #19]
  78:Core/Src/GEVA.c ****     case PORTRAIT:
 187              		.loc 1 78 9 is_stmt 1 view .LVU65
 188              	.L6:
 103:Core/Src/GEVA.c ****     default:
 104:Core/Src/GEVA.c ****         buf->origin[X] = 0;
 105:Core/Src/GEVA.c ****         buf->origin[Y] = 0;
 106:Core/Src/GEVA.c ****         buf->r_matrix[_A] = 1;
 107:Core/Src/GEVA.c ****         buf->r_matrix[_B] = 0;
 108:Core/Src/GEVA.c ****         buf->r_matrix[_C] = 0;
 109:Core/Src/GEVA.c ****         buf->r_matrix[_D] = 1;
 110:Core/Src/GEVA.c ****         break;
 111:Core/Src/GEVA.c ****     }
 112:Core/Src/GEVA.c **** }
 189              		.loc 1 112 1 is_stmt 0 view .LVU66
 190              		@ sp needed
 191 0056 7047     		bx	lr
 192              	.L7:
  80:Core/Src/GEVA.c ****         buf->origin[Y] = 0;
 193              		.loc 1 80 9 is_stmt 1 view .LVU67
  80:Core/Src/GEVA.c ****         buf->origin[Y] = 0;
 194              		.loc 1 80 29 is_stmt 0 view .LVU68
 195 0058 0B78     		ldrb	r3, [r1]
  80:Core/Src/GEVA.c ****         buf->origin[Y] = 0;
 196              		.loc 1 80 37 view .LVU69
 197 005a 013B     		subs	r3, r3, #1
  80:Core/Src/GEVA.c ****         buf->origin[Y] = 0;
 198              		.loc 1 80 24 view .LVU70
 199 005c 8B73     		strb	r3, [r1, #14]
  81:Core/Src/GEVA.c ****         buf->r_matrix[_A] = 0;
 200              		.loc 1 81 9 is_stmt 1 view .LVU71
  81:Core/Src/GEVA.c ****         buf->r_matrix[_A] = 0;
 201              		.loc 1 81 24 is_stmt 0 view .LVU72
 202 005e 0023     		movs	r3, #0
 203 0060 CB73     		strb	r3, [r1, #15]
ARM GAS  C:\Users\arist\AppData\Local\Temp\ccp82oC3.s 			page 7


  82:Core/Src/GEVA.c ****         buf->r_matrix[_B] = -1;
 204              		.loc 1 82 9 is_stmt 1 view .LVU73
  82:Core/Src/GEVA.c ****         buf->r_matrix[_B] = -1;
 205              		.loc 1 82 27 is_stmt 0 view .LVU74
 206 0062 0B74     		strb	r3, [r1, #16]
  83:Core/Src/GEVA.c ****         buf->r_matrix[_C] = 1;
 207              		.loc 1 83 9 is_stmt 1 view .LVU75
  83:Core/Src/GEVA.c ****         buf->r_matrix[_C] = 1;
 208              		.loc 1 83 27 is_stmt 0 view .LVU76
 209 0064 FF22     		movs	r2, #255
 210 0066 4A74     		strb	r2, [r1, #17]
  84:Core/Src/GEVA.c ****         buf->r_matrix[_D] = 0;
 211              		.loc 1 84 9 is_stmt 1 view .LVU77
  84:Core/Src/GEVA.c ****         buf->r_matrix[_D] = 0;
 212              		.loc 1 84 27 is_stmt 0 view .LVU78
 213 0068 FE3A     		subs	r2, r2, #254
 214 006a 8A74     		strb	r2, [r1, #18]
  85:Core/Src/GEVA.c ****         break;
 215              		.loc 1 85 9 is_stmt 1 view .LVU79
  85:Core/Src/GEVA.c ****         break;
 216              		.loc 1 85 27 is_stmt 0 view .LVU80
 217 006c CB74     		strb	r3, [r1, #19]
  86:Core/Src/GEVA.c ****     case LANDSCAPE_INVERTED:
 218              		.loc 1 86 9 is_stmt 1 view .LVU81
 219 006e F2E7     		b	.L6
 220              	.L11:
 104:Core/Src/GEVA.c ****         buf->origin[Y] = 0;
 221              		.loc 1 104 9 view .LVU82
 104:Core/Src/GEVA.c ****         buf->origin[Y] = 0;
 222              		.loc 1 104 24 is_stmt 0 view .LVU83
 223 0070 0023     		movs	r3, #0
 224 0072 8B73     		strb	r3, [r1, #14]
 105:Core/Src/GEVA.c ****         buf->r_matrix[_A] = 1;
 225              		.loc 1 105 9 is_stmt 1 view .LVU84
 105:Core/Src/GEVA.c ****         buf->r_matrix[_A] = 1;
 226              		.loc 1 105 24 is_stmt 0 view .LVU85
 227 0074 CB73     		strb	r3, [r1, #15]
 106:Core/Src/GEVA.c ****         buf->r_matrix[_B] = 0;
 228              		.loc 1 106 9 is_stmt 1 view .LVU86
 106:Core/Src/GEVA.c ****         buf->r_matrix[_B] = 0;
 229              		.loc 1 106 27 is_stmt 0 view .LVU87
 230 0076 0122     		movs	r2, #1
 231 0078 0A74     		strb	r2, [r1, #16]
 107:Core/Src/GEVA.c ****         buf->r_matrix[_C] = 0;
 232              		.loc 1 107 9 is_stmt 1 view .LVU88
 107:Core/Src/GEVA.c ****         buf->r_matrix[_C] = 0;
 233              		.loc 1 107 27 is_stmt 0 view .LVU89
 234 007a 4B74     		strb	r3, [r1, #17]
 108:Core/Src/GEVA.c ****         buf->r_matrix[_D] = 1;
 235              		.loc 1 108 9 is_stmt 1 view .LVU90
 108:Core/Src/GEVA.c ****         buf->r_matrix[_D] = 1;
 236              		.loc 1 108 27 is_stmt 0 view .LVU91
 237 007c 8B74     		strb	r3, [r1, #18]
 109:Core/Src/GEVA.c ****         break;
 238              		.loc 1 109 9 is_stmt 1 view .LVU92
 109:Core/Src/GEVA.c ****         break;
 239              		.loc 1 109 27 is_stmt 0 view .LVU93
ARM GAS  C:\Users\arist\AppData\Local\Temp\ccp82oC3.s 			page 8


 240 007e CA74     		strb	r2, [r1, #19]
 110:Core/Src/GEVA.c ****     }
 241              		.loc 1 110 9 is_stmt 1 view .LVU94
 242              		.loc 1 112 1 is_stmt 0 view .LVU95
 243 0080 E9E7     		b	.L6
 244              		.cfi_endproc
 245              	.LFE2:
 247              		.section	.text.clr_buffer,"ax",%progbits
 248              		.align	1
 249              		.global	clr_buffer
 250              		.syntax unified
 251              		.code	16
 252              		.thumb_func
 254              	clr_buffer:
 255              	.LVL7:
 256              	.LFB3:
 113:Core/Src/GEVA.c **** 
 114:Core/Src/GEVA.c **** /* ===========================================GRAPHIC FUNCTIONS====================================
 115:Core/Src/GEVA.c **** 
 116:Core/Src/GEVA.c **** /*Reset buffer to default value according to MODE*/
 117:Core/Src/GEVA.c **** 
 118:Core/Src/GEVA.c **** uint8_t clr_buffer(video_buffer* buf) {
 257              		.loc 1 118 39 is_stmt 1 view -0
 258              		.cfi_startproc
 259              		@ args = 0, pretend = 0, frame = 0
 260              		@ frame_needed = 0, uses_anonymous_args = 0
 261              		.loc 1 118 39 is_stmt 0 view .LVU97
 262 0000 10B5     		push	{r4, lr}
 263              		.cfi_def_cfa_offset 8
 264              		.cfi_offset 4, -8
 265              		.cfi_offset 14, -4
 266 0002 0300     		movs	r3, r0
 119:Core/Src/GEVA.c ****     
 120:Core/Src/GEVA.c ****     uint8_t def = (buf->mode == NORMAL) ? 0x00 : 0xff;
 267              		.loc 1 120 5 is_stmt 1 view .LVU98
 268              		.loc 1 120 23 is_stmt 0 view .LVU99
 269 0004 017B     		ldrb	r1, [r0, #12]
 270              		.loc 1 120 13 view .LVU100
 271 0006 0029     		cmp	r1, #0
 272 0008 00D0     		beq	.L15
 273 000a FF21     		movs	r1, #255
 274              	.L15:
 275              	.LVL8:
 121:Core/Src/GEVA.c ****     uint8_t error = 1;
 276              		.loc 1 121 5 is_stmt 1 discriminator 4 view .LVU101
 122:Core/Src/GEVA.c ****     if (buf->vid_buf != NULL) {
 277              		.loc 1 122 5 discriminator 4 view .LVU102
 278              		.loc 1 122 12 is_stmt 0 discriminator 4 view .LVU103
 279 000c 5868     		ldr	r0, [r3, #4]
 280              	.LVL9:
 281              		.loc 1 122 8 discriminator 4 view .LVU104
 282 000e 0028     		cmp	r0, #0
 283 0010 04D0     		beq	.L18
 123:Core/Src/GEVA.c ****         memset(buf->vid_buf, def, buf->byte_buffer_cnt);
 284              		.loc 1 123 9 is_stmt 1 view .LVU105
 285              		.loc 1 123 38 is_stmt 0 view .LVU106
 286 0012 5A89     		ldrh	r2, [r3, #10]
ARM GAS  C:\Users\arist\AppData\Local\Temp\ccp82oC3.s 			page 9


 287              		.loc 1 123 9 view .LVU107
 288 0014 FFF7FEFF 		bl	memset
 289              	.LVL10:
 124:Core/Src/GEVA.c ****         error = 0;
 290              		.loc 1 124 9 is_stmt 1 view .LVU108
 291              		.loc 1 124 15 is_stmt 0 view .LVU109
 292 0018 0020     		movs	r0, #0
 293              	.LVL11:
 294              	.L16:
 125:Core/Src/GEVA.c ****     }
 126:Core/Src/GEVA.c ****     return error;
 295              		.loc 1 126 5 is_stmt 1 view .LVU110
 127:Core/Src/GEVA.c **** }
 296              		.loc 1 127 1 is_stmt 0 view .LVU111
 297              		@ sp needed
 298 001a 10BD     		pop	{r4, pc}
 299              	.LVL12:
 300              	.L18:
 121:Core/Src/GEVA.c ****     if (buf->vid_buf != NULL) {
 301              		.loc 1 121 13 view .LVU112
 302 001c 0120     		movs	r0, #1
 303 001e FCE7     		b	.L16
 304              		.cfi_endproc
 305              	.LFE3:
 307              		.section	.text.byte_col_cnt,"ax",%progbits
 308              		.align	1
 309              		.global	byte_col_cnt
 310              		.syntax unified
 311              		.code	16
 312              		.thumb_func
 314              	byte_col_cnt:
 315              	.LVL13:
 316              	.LFB14:
 128:Core/Src/GEVA.c **** 
 129:Core/Src/GEVA.c **** /* Draw pixel black or white in a specific location on the screen
 130:Core/Src/GEVA.c ****  * return error code
 131:Core/Src/GEVA.c ****  * error code list:
 132:Core/Src/GEVA.c ****  * 4 point out of scope
 133:Core/Src/GEVA.c ****  */
 134:Core/Src/GEVA.c **** uint8_t put_pixel(uint8_t pos_x, uint8_t pos_y, enum color color, video_buffer* buf) {
 135:Core/Src/GEVA.c **** 
 136:Core/Src/GEVA.c ****     uint8_t error = 0;
 137:Core/Src/GEVA.c ****     uint8_t *n_pos = normalize_pos(pos_x, pos_y, buf);
 138:Core/Src/GEVA.c **** 
 139:Core/Src/GEVA.c ****     if ((n_pos[Y] < 0) || (n_pos[Y] > buf->size_y - 1) || (n_pos[X] < 0) || (n_pos[X] > buf->size_x
 140:Core/Src/GEVA.c ****         error = 4;
 141:Core/Src/GEVA.c ****     else {
 142:Core/Src/GEVA.c ****         if (buf->mode & color)
 143:Core/Src/GEVA.c ****             color = CLEAR_C;
 144:Core/Src/GEVA.c ****         else if (buf->mode & ~color)
 145:Core/Src/GEVA.c ****             color = SET_C;
 146:Core/Src/GEVA.c **** 
 147:Core/Src/GEVA.c ****         if (!color)
 148:Core/Src/GEVA.c ****             buf->vid_buf[get_buffer_index(n_pos[X], (buf->size_y - n_pos[Y] - 1), buf->byte_col_cnt
 149:Core/Src/GEVA.c ****         else
 150:Core/Src/GEVA.c ****             buf->vid_buf[get_buffer_index(n_pos[X], (buf->size_y - n_pos[Y] - 1), buf->byte_col_cnt
 151:Core/Src/GEVA.c ****     }
ARM GAS  C:\Users\arist\AppData\Local\Temp\ccp82oC3.s 			page 10


 152:Core/Src/GEVA.c ****     free(n_pos);
 153:Core/Src/GEVA.c ****     return error;
 154:Core/Src/GEVA.c **** }
 155:Core/Src/GEVA.c **** 
 156:Core/Src/GEVA.c **** 
 157:Core/Src/GEVA.c **** /* Draw line between to points
 158:Core/Src/GEVA.c ****  * return error code
 159:Core/Src/GEVA.c ****  * error code list:
 160:Core/Src/GEVA.c ****  * 4 point out of scope
 161:Core/Src/GEVA.c **** */
 162:Core/Src/GEVA.c **** uint8_t put_line(uint8_t pos_x1, uint8_t pos_y1, uint8_t pos_x2, uint8_t pos_y2, video_buffer* buf)
 163:Core/Src/GEVA.c **** 
 164:Core/Src/GEVA.c ****     uint8_t error = 0;
 165:Core/Src/GEVA.c ****     uint8_t firstx = 0;
 166:Core/Src/GEVA.c ****     uint8_t lastx = 0;
 167:Core/Src/GEVA.c ****     uint8_t firsty = 0;
 168:Core/Src/GEVA.c ****     uint8_t lasty = 0;
 169:Core/Src/GEVA.c **** 
 170:Core/Src/GEVA.c ****     if (pos_x1 == pos_x2) { //vertical line
 171:Core/Src/GEVA.c **** 
 172:Core/Src/GEVA.c ****         uint8_t line_lenght = 0;
 173:Core/Src/GEVA.c **** 
 174:Core/Src/GEVA.c ****         if (pos_y1 > pos_y2) {
 175:Core/Src/GEVA.c ****             line_lenght = (pos_y1 - pos_y2) + 1;
 176:Core/Src/GEVA.c ****             firsty = pos_y2;
 177:Core/Src/GEVA.c ****         }
 178:Core/Src/GEVA.c ****         else {
 179:Core/Src/GEVA.c ****             line_lenght = (pos_y2 - pos_y1) + 1;
 180:Core/Src/GEVA.c ****             firsty = pos_y1;
 181:Core/Src/GEVA.c ****         }
 182:Core/Src/GEVA.c ****         for (uint8_t i = 0; i < line_lenght; i++) {
 183:Core/Src/GEVA.c ****             error = put_pixel(pos_x1, firsty + i, SET_C, buf);
 184:Core/Src/GEVA.c ****         }
 185:Core/Src/GEVA.c ****     }
 186:Core/Src/GEVA.c ****     else {
 187:Core/Src/GEVA.c ****         if (pos_x1 > pos_x2) {
 188:Core/Src/GEVA.c ****             firstx = pos_x2;
 189:Core/Src/GEVA.c ****             lastx = pos_x1;
 190:Core/Src/GEVA.c ****             firsty = pos_y2;
 191:Core/Src/GEVA.c ****             lasty = pos_y1;
 192:Core/Src/GEVA.c ****         }
 193:Core/Src/GEVA.c ****         else {
 194:Core/Src/GEVA.c ****             firstx = pos_x1;
 195:Core/Src/GEVA.c ****             lastx = pos_x2;
 196:Core/Src/GEVA.c ****             firsty = pos_y1;
 197:Core/Src/GEVA.c ****             lasty = pos_y2;
 198:Core/Src/GEVA.c ****         }
 199:Core/Src/GEVA.c **** 
 200:Core/Src/GEVA.c ****         int8_t slope_addendum = (firsty > lasty) ? -1 : 1;
 201:Core/Src/GEVA.c **** 
 202:Core/Src/GEVA.c ****         uint8_t y = firsty;
 203:Core/Src/GEVA.c ****         uint8_t nexty = 0;
 204:Core/Src/GEVA.c ****         int8_t y_todrw = 0;
 205:Core/Src/GEVA.c ****         uint8_t fill_y = 0;
 206:Core/Src/GEVA.c **** 
 207:Core/Src/GEVA.c ****         for (uint8_t x = firstx; x < lastx + 1; x++) {
 208:Core/Src/GEVA.c **** 
ARM GAS  C:\Users\arist\AppData\Local\Temp\ccp82oC3.s 			page 11


 209:Core/Src/GEVA.c ****             y = calculate_y(x, firstx, lastx, firsty, lasty);
 210:Core/Src/GEVA.c ****             nexty = calculate_y(x + 1, firstx, lastx, firsty, lasty);
 211:Core/Src/GEVA.c ****             fill_y = 0;
 212:Core/Src/GEVA.c **** 
 213:Core/Src/GEVA.c ****             do { 
 214:Core/Src/GEVA.c ****                y_todrw = y + (slope_addendum * fill_y);
 215:Core/Src/GEVA.c ****               
 216:Core/Src/GEVA.c ****                if (y_todrw < 0)
 217:Core/Src/GEVA.c ****                    y_todrw = 0;
 218:Core/Src/GEVA.c **** 
 219:Core/Src/GEVA.c ****                error = put_pixel(x, y_todrw, SET_C, buf);
 220:Core/Src/GEVA.c ****                fill_y++;
 221:Core/Src/GEVA.c **** 
 222:Core/Src/GEVA.c ****                if (y_todrw == pos_y2 && pos_y1 != pos_y2)
 223:Core/Src/GEVA.c ****                    return error;
 224:Core/Src/GEVA.c **** 
 225:Core/Src/GEVA.c ****             } while ( fill_y < modulo(y - nexty));
 226:Core/Src/GEVA.c ****         }
 227:Core/Src/GEVA.c ****     }
 228:Core/Src/GEVA.c ****     return error;
 229:Core/Src/GEVA.c **** }
 230:Core/Src/GEVA.c **** 
 231:Core/Src/GEVA.c **** 
 232:Core/Src/GEVA.c **** /* Clear part of the display buffer memory
 233:Core/Src/GEVA.c ****  * return error code
 234:Core/Src/GEVA.c ****  * error code list:
 235:Core/Src/GEVA.c ****  * 
 236:Core/Src/GEVA.c ****  * 2 dimension mismatch
 237:Core/Src/GEVA.c ****  * 
 238:Core/Src/GEVA.c ****  * 4 starting point out of scope
 239:Core/Src/GEVA.c **** */
 240:Core/Src/GEVA.c **** uint8_t clear_sector(uint8_t pos_x, uint8_t pos_y, uint8_t width, uint8_t height, video_buffer* buf
 241:Core/Src/GEVA.c **** 
 242:Core/Src/GEVA.c ****     uint8_t error = 0;
 243:Core/Src/GEVA.c ****     uint8_t startx_ptr = 0; // pos_x;
 244:Core/Src/GEVA.c ****     uint8_t starty_ptr = 0; // pos_y;
 245:Core/Src/GEVA.c ****     uint8_t endx_ptr = 0;   //pos_x + width;
 246:Core/Src/GEVA.c ****     uint8_t endy_ptr = 0;   // pos_y + height;
 247:Core/Src/GEVA.c ****     uint8_t n_width = 0;    //normalized width
 248:Core/Src/GEVA.c ****     uint8_t* n_pos_ptr = normalize_pos(pos_x, pos_y, buf);
 249:Core/Src/GEVA.c ****     
 250:Core/Src/GEVA.c ****     switch (buf->orient) {
 251:Core/Src/GEVA.c **** 
 252:Core/Src/GEVA.c ****     case LANDSCAPE:
 253:Core/Src/GEVA.c ****         n_width = width;
 254:Core/Src/GEVA.c ****         startx_ptr = n_pos_ptr[X];
 255:Core/Src/GEVA.c ****         starty_ptr = n_pos_ptr[Y];
 256:Core/Src/GEVA.c ****         endx_ptr = startx_ptr + width;
 257:Core/Src/GEVA.c ****         endy_ptr = starty_ptr + height;
 258:Core/Src/GEVA.c ****         break;
 259:Core/Src/GEVA.c **** 
 260:Core/Src/GEVA.c ****     case LANDSCAPE_INVERTED:
 261:Core/Src/GEVA.c ****         n_width = width;
 262:Core/Src/GEVA.c ****         startx_ptr = n_pos_ptr[X] - width + 1;
 263:Core/Src/GEVA.c ****         starty_ptr = n_pos_ptr[Y] - height + 1;
 264:Core/Src/GEVA.c ****         endx_ptr = n_pos_ptr[X] + 1;
 265:Core/Src/GEVA.c ****         endy_ptr = n_pos_ptr[Y] + 1;
ARM GAS  C:\Users\arist\AppData\Local\Temp\ccp82oC3.s 			page 12


 266:Core/Src/GEVA.c ****         break;
 267:Core/Src/GEVA.c **** 
 268:Core/Src/GEVA.c ****     case PORTRAIT:
 269:Core/Src/GEVA.c ****         n_width = height;
 270:Core/Src/GEVA.c ****         startx_ptr = n_pos_ptr[X] - height + 1;
 271:Core/Src/GEVA.c ****         starty_ptr = n_pos_ptr[Y];
 272:Core/Src/GEVA.c ****         endx_ptr = n_pos_ptr[X] + 1;
 273:Core/Src/GEVA.c ****         endy_ptr = starty_ptr + width;
 274:Core/Src/GEVA.c ****         break;
 275:Core/Src/GEVA.c **** 
 276:Core/Src/GEVA.c ****     case PORTRAIT_INVERTED:
 277:Core/Src/GEVA.c ****         startx_ptr = n_pos_ptr[X];
 278:Core/Src/GEVA.c ****         starty_ptr = n_pos_ptr[Y] - width + 1;
 279:Core/Src/GEVA.c ****         endx_ptr = startx_ptr + height;
 280:Core/Src/GEVA.c ****         endy_ptr = n_pos_ptr[Y] + 1;
 281:Core/Src/GEVA.c ****         break;
 282:Core/Src/GEVA.c **** 
 283:Core/Src/GEVA.c ****     default:
 284:Core/Src/GEVA.c ****         break;
 285:Core/Src/GEVA.c ****     }
 286:Core/Src/GEVA.c **** 
 287:Core/Src/GEVA.c ****     if (pos_x >= buf->size_x || pos_x < 0 || pos_y >= buf->size_y || pos_y < 0)
 288:Core/Src/GEVA.c ****         return 4;
 289:Core/Src/GEVA.c **** 
 290:Core/Src/GEVA.c ****     if (pos_y + height > buf->size_y || pos_x + width > buf->size_x)
 291:Core/Src/GEVA.c ****         error = 2;
 292:Core/Src/GEVA.c **** 
 293:Core/Src/GEVA.c ****     else {
 294:Core/Src/GEVA.c **** 
 295:Core/Src/GEVA.c ****         uint16_t start_byte_ptr = get_buffer_index(startx_ptr, buf->size_y - 1 - starty_ptr, buf->b
 296:Core/Src/GEVA.c ****         uint16_t buffer_byte_ptr = start_byte_ptr;
 297:Core/Src/GEVA.c ****         int16_t initial_shift = modulo(endx_ptr - startx_ptr);
 298:Core/Src/GEVA.c ****         int16_t to_shift = initial_shift;
 299:Core/Src/GEVA.c **** 
 300:Core/Src/GEVA.c ****         for (uint8_t row_clrd = 0; row_clrd < modulo(endy_ptr - starty_ptr); row_clrd++)
 301:Core/Src/GEVA.c ****         {
 302:Core/Src/GEVA.c ****             buffer_byte_ptr = start_byte_ptr - (buf->byte_col_cnt * row_clrd);
 303:Core/Src/GEVA.c ****             to_shift = initial_shift;
 304:Core/Src/GEVA.c **** 
 305:Core/Src/GEVA.c ****             if ( (startx_ptr % 8) + n_width > 7) {  // when multiple bytes are needed
 306:Core/Src/GEVA.c ****                 to_shift -= (8 - (startx_ptr % 8));
 307:Core/Src/GEVA.c ****                 
 308:Core/Src/GEVA.c ****                 if(buf->mode == NORMAL)
 309:Core/Src/GEVA.c ****                     buf->vid_buf[buffer_byte_ptr] &= 0xff << (8 - (startx_ptr % 8));
 310:Core/Src/GEVA.c ****                 else 
 311:Core/Src/GEVA.c ****                     buf->vid_buf[buffer_byte_ptr] |= 0xff >> (startx_ptr % 8);
 312:Core/Src/GEVA.c ****                 
 313:Core/Src/GEVA.c ****                 buffer_byte_ptr++;
 314:Core/Src/GEVA.c ****                 
 315:Core/Src/GEVA.c ****                 while (to_shift > 8) {
 316:Core/Src/GEVA.c ****                     if(buf->mode == NORMAL)
 317:Core/Src/GEVA.c ****                         buf->vid_buf[buffer_byte_ptr] = 0x00;
 318:Core/Src/GEVA.c ****                     else 
 319:Core/Src/GEVA.c ****                         buf->vid_buf[buffer_byte_ptr] = 0xff;
 320:Core/Src/GEVA.c ****                         
 321:Core/Src/GEVA.c ****                     buffer_byte_ptr++;
 322:Core/Src/GEVA.c ****                     to_shift -= 8;
ARM GAS  C:\Users\arist\AppData\Local\Temp\ccp82oC3.s 			page 13


 323:Core/Src/GEVA.c ****                 }
 324:Core/Src/GEVA.c **** 
 325:Core/Src/GEVA.c ****                 if(buf->mode == NORMAL)
 326:Core/Src/GEVA.c ****                     buf->vid_buf[buffer_byte_ptr] &= 0xff >> to_shift;
 327:Core/Src/GEVA.c ****                 else 
 328:Core/Src/GEVA.c ****                     buf->vid_buf[buffer_byte_ptr] |= 0xff << (8 - (endx_ptr % 8));
 329:Core/Src/GEVA.c ****             }
 330:Core/Src/GEVA.c ****             else { // can do clear operation on a single byte because of sector dimensions
 331:Core/Src/GEVA.c ****                 if(buf->mode == NORMAL)
 332:Core/Src/GEVA.c ****                     buf->vid_buf[buffer_byte_ptr] &= ~((0xff >> startx_ptr % 8) & (0xff << (8 - (en
 333:Core/Src/GEVA.c ****                 else 
 334:Core/Src/GEVA.c ****                     buf->vid_buf[buffer_byte_ptr] |= (0xff >> startx_ptr % 8) & (0xff << (8 - (endx
 335:Core/Src/GEVA.c ****             }
 336:Core/Src/GEVA.c ****         }
 337:Core/Src/GEVA.c ****     }
 338:Core/Src/GEVA.c ****     free(n_pos_ptr);
 339:Core/Src/GEVA.c ****     return error;
 340:Core/Src/GEVA.c **** }
 341:Core/Src/GEVA.c **** 
 342:Core/Src/GEVA.c **** /*put character on screen
 343:Core/Src/GEVA.c ****  * return error code
 344:Core/Src/GEVA.c ****  * error code list:
 345:Core/Src/GEVA.c ****  * 
 346:Core/Src/GEVA.c ****  * 2 dimension mismatch
 347:Core/Src/GEVA.c ****  * 
 348:Core/Src/GEVA.c ****  * 4 starting point out of scope
 349:Core/Src/GEVA.c ****  * note: each letter needs a square of 7x7 pixels clear on the display (because of rotation) befor 
 350:Core/Src/GEVA.c **** */
 351:Core/Src/GEVA.c **** uint8_t put_char(uint8_t pos_x, uint8_t pos_y, uint8_t chr, enum fonts_size ff, video_buffer* buf) 
 352:Core/Src/GEVA.c ****     
 353:Core/Src/GEVA.c ****     uint8_t error = 0;
 354:Core/Src/GEVA.c ****     uint8_t* n_pos; 
 355:Core/Src/GEVA.c ****     uint16_t* c;
 356:Core/Src/GEVA.c **** 
 357:Core/Src/GEVA.c ****     switch(ff){ //font selection
 358:Core/Src/GEVA.c ****         case SMALL:
 359:Core/Src/GEVA.c ****             font_height = C_HEIGHT_S;
 360:Core/Src/GEVA.c ****             font_width = C_WIDTH_S;
 361:Core/Src/GEVA.c ****             c = font_s[chr];
 362:Core/Src/GEVA.c ****         break;
 363:Core/Src/GEVA.c ****         case MEDIUM:
 364:Core/Src/GEVA.c ****             font_height = C_HEIGHT_M;
 365:Core/Src/GEVA.c ****             font_width = C_WIDTH_M;
 366:Core/Src/GEVA.c ****             c = font_m[chr];
 367:Core/Src/GEVA.c ****         break; 
 368:Core/Src/GEVA.c ****         
 369:Core/Src/GEVA.c ****         case LARGE:
 370:Core/Src/GEVA.c ****         break; 
 371:Core/Src/GEVA.c **** 
 372:Core/Src/GEVA.c ****         default:
 373:Core/Src/GEVA.c ****             font_height = C_HEIGHT_S;
 374:Core/Src/GEVA.c ****             font_width = C_WIDTH_S;
 375:Core/Src/GEVA.c ****             c = font_s[chr];
 376:Core/Src/GEVA.c ****         break;
 377:Core/Src/GEVA.c ****     }
 378:Core/Src/GEVA.c **** /*
 379:Core/Src/GEVA.c ****     switch (buf->orient) {
ARM GAS  C:\Users\arist\AppData\Local\Temp\ccp82oC3.s 			page 14


 380:Core/Src/GEVA.c ****         case LANDSCAPE:
 381:Core/Src/GEVA.c ****             n_pos = normalize_pos(pos_x, pos_y, buf); 
 382:Core/Src/GEVA.c ****            break;
 383:Core/Src/GEVA.c **** 
 384:Core/Src/GEVA.c ****         case LANDSCAPE_INVERTED:
 385:Core/Src/GEVA.c ****             n_pos = normalize_pos(pos_x + font_width - 1, pos_y + font_height - 1, buf);
 386:Core/Src/GEVA.c ****                break;
 387:Core/Src/GEVA.c **** 
 388:Core/Src/GEVA.c ****         case PORTRAIT:
 389:Core/Src/GEVA.c ****             n_pos = normalize_pos(pos_x, pos_y + font_height, buf);
 390:Core/Src/GEVA.c ****             break;
 391:Core/Src/GEVA.c **** 
 392:Core/Src/GEVA.c ****         case PORTRAIT_INVERTED:
 393:Core/Src/GEVA.c ****             n_pos = normalize_pos(pos_x + font_height - 1, pos_y, buf);
 394:Core/Src/GEVA.c ****             break;
 395:Core/Src/GEVA.c **** 
 396:Core/Src/GEVA.c ****         default:
 397:Core/Src/GEVA.c ****             n_pos = normalize_pos(pos_x, pos_y, buf);
 398:Core/Src/GEVA.c ****             break;
 399:Core/Src/GEVA.c ****         }
 400:Core/Src/GEVA.c **** */
 401:Core/Src/GEVA.c ****     if (n_pos[X] >= buf->size_x || n_pos[X] < 0 || n_pos[Y] >= buf->size_y || n_pos[Y] < 0)
 402:Core/Src/GEVA.c ****         error = 4;
 403:Core/Src/GEVA.c ****     else if (n_pos[Y] + font_height > buf->size_y || n_pos[X] + font_width > buf->size_x)
 404:Core/Src/GEVA.c ****         error = 2;
 405:Core/Src/GEVA.c ****     else {
 406:Core/Src/GEVA.c ****         c = rotate_char(c, buf);
 407:Core/Src/GEVA.c ****             
 408:Core/Src/GEVA.c ****         uint16_t start_byte_ptr = get_buffer_index(n_pos[X], buf->size_y - 1 - n_pos[Y], buf->byte_
 409:Core/Src/GEVA.c ****         uint16_t buffer_byte_ptr = start_byte_ptr;
 410:Core/Src/GEVA.c ****         uint16_t temp = 0;
 411:Core/Src/GEVA.c ****         uint8_t shifter_a = n_pos[X] % 8;
 412:Core/Src/GEVA.c ****     
 413:Core/Src/GEVA.c ****         for (uint8_t i = 0; i < font_height; i++) {
 414:Core/Src/GEVA.c ****             buffer_byte_ptr = start_byte_ptr - (buf->byte_col_cnt * i);
 415:Core/Src/GEVA.c ****             temp = c[font_height - 1 - i] >> shifter_a;
 416:Core/Src/GEVA.c ****             buf->vid_buf[buffer_byte_ptr] |= (uint8_t)(temp >> 8);
 417:Core/Src/GEVA.c ****             buf->vid_buf[buffer_byte_ptr + 1] |= (uint8_t)temp; 
 418:Core/Src/GEVA.c ****             
 419:Core/Src/GEVA.c ****             if (shifter_a != 0){
 420:Core/Src/GEVA.c ****                     temp = c[font_height - i - 1];
 421:Core/Src/GEVA.c ****                     buf->vid_buf[buffer_byte_ptr + 2] |= (uint8_t)temp << (8 - shifter_a);
 422:Core/Src/GEVA.c ****                 }
 423:Core/Src/GEVA.c ****         }
 424:Core/Src/GEVA.c ****     } 
 425:Core/Src/GEVA.c ****     
 426:Core/Src/GEVA.c ****    // free(n_pos);
 427:Core/Src/GEVA.c ****     return error;
 428:Core/Src/GEVA.c **** }
 429:Core/Src/GEVA.c **** 
 430:Core/Src/GEVA.c **** /*put character string on screen
 431:Core/Src/GEVA.c ****  * return error code
 432:Core/Src/GEVA.c ****  * error code list:
 433:Core/Src/GEVA.c ****  * 1 empty string
 434:Core/Src/GEVA.c ****  * 2 dimension mismatch
 435:Core/Src/GEVA.c ****  *
 436:Core/Src/GEVA.c ****  * 4 starting point out of scope
ARM GAS  C:\Users\arist\AppData\Local\Temp\ccp82oC3.s 			page 15


 437:Core/Src/GEVA.c **** */
 438:Core/Src/GEVA.c **** uint8_t put_string(uint8_t pos_x, uint8_t pos_y, uint8_t* chr, enum fonts_size ff, video_buffer* bu
 439:Core/Src/GEVA.c ****     
 440:Core/Src/GEVA.c ****     uint8_t error = 1;
 441:Core/Src/GEVA.c ****     uint8_t i = 0;
 442:Core/Src/GEVA.c ****     uint8_t y_offset = pos_y;
 443:Core/Src/GEVA.c ****     uint8_t x_offset = pos_x;    
 444:Core/Src/GEVA.c **** 
 445:Core/Src/GEVA.c ****     if (chr != NULL) {
 446:Core/Src/GEVA.c ****         
 447:Core/Src/GEVA.c ****         while(i < strlen(chr)) {
 448:Core/Src/GEVA.c **** 
 449:Core/Src/GEVA.c ****             if (chr[i] == '\r')
 450:Core/Src/GEVA.c ****                 x_offset = pos_x;
 451:Core/Src/GEVA.c ****             else if (chr[i] == '\n')
 452:Core/Src/GEVA.c ****                 y_offset = y_offset - 1 - font_height;
 453:Core/Src/GEVA.c ****             else {
 454:Core/Src/GEVA.c ****                 error = put_char(x_offset, y_offset, chr[i], ff, buf);
 455:Core/Src/GEVA.c ****                 if (error != 0)
 456:Core/Src/GEVA.c ****                     break;
 457:Core/Src/GEVA.c ****                 x_offset += font_width + 1;
 458:Core/Src/GEVA.c ****             
 459:Core/Src/GEVA.c ****             }
 460:Core/Src/GEVA.c ****             i++;
 461:Core/Src/GEVA.c ****         }
 462:Core/Src/GEVA.c ****     }
 463:Core/Src/GEVA.c ****     return error;
 464:Core/Src/GEVA.c **** }
 465:Core/Src/GEVA.c **** 
 466:Core/Src/GEVA.c **** /* Load vbc file smaller than display size to buffer memory
 467:Core/Src/GEVA.c ****  * return error code
 468:Core/Src/GEVA.c ****  * error code list:
 469:Core/Src/GEVA.c ****  * 1 wrong file type
 470:Core/Src/GEVA.c ****  * 2 dimension mismatch
 471:Core/Src/GEVA.c ****  * 3 body bytes count mismatch
 472:Core/Src/GEVA.c ****  * 4 starting point out of scope
 473:Core/Src/GEVA.c ****  * note: starting position (x,y)  referenced to LANDSCAPE and rappresents lower left corner of the 
 474:Core/Src/GEVA.c **** */
 475:Core/Src/GEVA.c **** uint8_t put_vbc(vbc_file file, uint8_t x, uint8_t y, video_buffer* buf) {
 476:Core/Src/GEVA.c ****     uint8_t error = 0;
 477:Core/Src/GEVA.c ****     uint16_t vbc_body_byte = (((uint16_t)file.header.byte_cnt_h) << 8 | file.header.byte_cnt_l) - 5
 478:Core/Src/GEVA.c **** 
 479:Core/Src/GEVA.c ****     if (x > buf->size_x || x < 0 || y > buf->size_y || y < 0)
 480:Core/Src/GEVA.c ****         return 4;
 481:Core/Src/GEVA.c **** 
 482:Core/Src/GEVA.c ****     if (file.header.id != 0xA7)
 483:Core/Src/GEVA.c ****         error = 1;
 484:Core/Src/GEVA.c ****     else if (y + file.header.height > buf->size_y || x + file.header.width > buf->size_x)
 485:Core/Src/GEVA.c ****         error = 2;
 486:Core/Src/GEVA.c ****     else if (vbc_body_byte > buf->byte_buffer_cnt - get_buffer_index(x, y, buf->byte_col_cnt))
 487:Core/Src/GEVA.c ****         error = 3;
 488:Core/Src/GEVA.c ****     else if (vbc_body_byte == buf->byte_buffer_cnt) {
 489:Core/Src/GEVA.c ****         buf->vid_buf = file.body;
 490:Core/Src/GEVA.c ****     }
 491:Core/Src/GEVA.c ****     else {
 492:Core/Src/GEVA.c ****         uint8_t byte_width = (file.header.width % 8 == 0) ? file.header.width / 8 : file.header.wid
 493:Core/Src/GEVA.c ****         uint16_t start_byte_ptr = get_buffer_index(x, buf->size_y - 1 - y, buf->byte_col_cnt);
ARM GAS  C:\Users\arist\AppData\Local\Temp\ccp82oC3.s 			page 16


 494:Core/Src/GEVA.c ****         uint16_t buffer_byte_ptr = start_byte_ptr;
 495:Core/Src/GEVA.c **** 
 496:Core/Src/GEVA.c ****         for (uint8_t row = 0; row < file.header.height - 1; row++) {
 497:Core/Src/GEVA.c ****             buffer_byte_ptr = start_byte_ptr - (buf->byte_col_cnt * row);
 498:Core/Src/GEVA.c ****             memmove(&buf->vid_buf[buffer_byte_ptr], &file.body[((file.header.height - 1) * byte_wid
 499:Core/Src/GEVA.c ****         }
 500:Core/Src/GEVA.c ****     }
 501:Core/Src/GEVA.c ****     return error;
 502:Core/Src/GEVA.c **** }
 503:Core/Src/GEVA.c **** 
 504:Core/Src/GEVA.c **** 
 505:Core/Src/GEVA.c **** /* ================================================SHAPES==========================================
 506:Core/Src/GEVA.c **** 
 507:Core/Src/GEVA.c **** /* Draw circle at specific location on the screen with specified radius
 508:Core/Src/GEVA.c ****  * return error code
 509:Core/Src/GEVA.c ****  * error code list:
 510:Core/Src/GEVA.c ****  * 4 point out of scope
 511:Core/Src/GEVA.c **** */
 512:Core/Src/GEVA.c **** uint8_t put_circle(uint8_t o_x, uint8_t o_y, uint8_t r, video_buffer* buf) {
 513:Core/Src/GEVA.c **** 
 514:Core/Src/GEVA.c ****     uint8_t error = 0;
 515:Core/Src/GEVA.c ****     uint16_t s = 0;
 516:Core/Src/GEVA.c ****     uint16_t rsqr = r * r;
 517:Core/Src/GEVA.c ****     
 518:Core/Src/GEVA.c ****     for (int16_t y = -r; y <= r; y++) {
 519:Core/Src/GEVA.c ****         for (int16_t x = -r; x <= r; x++) {
 520:Core/Src/GEVA.c ****             s = x * x + y * y;
 521:Core/Src/GEVA.c ****             if (s >= rsqr - r && s <= rsqr + r) {
 522:Core/Src/GEVA.c ****                 error = put_pixel(o_x + x, o_y + y, SET_C, buf);
 523:Core/Src/GEVA.c ****                // if (error)
 524:Core/Src/GEVA.c ****                 //    return error;
 525:Core/Src/GEVA.c ****             }
 526:Core/Src/GEVA.c ****         }
 527:Core/Src/GEVA.c ****     }
 528:Core/Src/GEVA.c ****     return error;
 529:Core/Src/GEVA.c **** }
 530:Core/Src/GEVA.c **** 
 531:Core/Src/GEVA.c **** /* Draw rectangular shape at specific location on the screen with specified height and width
 532:Core/Src/GEVA.c ****  * return error code
 533:Core/Src/GEVA.c ****  * error code list:
 534:Core/Src/GEVA.c ****  * 4 point out of scope
 535:Core/Src/GEVA.c ****  * note: the starting point of the shape is in the lower left corner
 536:Core/Src/GEVA.c **** */
 537:Core/Src/GEVA.c **** uint8_t put_rect(uint8_t o_x,uint8_t o_y, uint8_t width, uint8_t height, video_buffer* buf){
 538:Core/Src/GEVA.c ****     uint8_t error = 0;
 539:Core/Src/GEVA.c ****     error = put_line(o_x, o_y, o_x + width, o_y, buf);
 540:Core/Src/GEVA.c ****     error = put_line(o_x + width, o_y, o_x + width, o_y + height, buf);
 541:Core/Src/GEVA.c ****     error = put_line(o_x, o_y + height, o_x + width, o_y + height, buf);
 542:Core/Src/GEVA.c ****     error = put_line(o_x, o_y, o_x, o_y + height, buf);
 543:Core/Src/GEVA.c ****     return error;
 544:Core/Src/GEVA.c **** }
 545:Core/Src/GEVA.c **** 
 546:Core/Src/GEVA.c **** /* Draw triangle shape with specified vertices
 547:Core/Src/GEVA.c ****  * return error code
 548:Core/Src/GEVA.c ****  * error code list:
 549:Core/Src/GEVA.c ****  * 4 point out of scope
 550:Core/Src/GEVA.c **** */
ARM GAS  C:\Users\arist\AppData\Local\Temp\ccp82oC3.s 			page 17


 551:Core/Src/GEVA.c **** uint8_t put_triangle(uint8_t a_x, uint8_t a_y, uint8_t b_x, uint8_t b_y, uint8_t c_x, uint8_t c_y, 
 552:Core/Src/GEVA.c ****     uint8_t error = 0;
 553:Core/Src/GEVA.c ****     error = put_line(a_x, a_y, b_x, b_y, buf);
 554:Core/Src/GEVA.c ****     error = put_line(a_x, a_y, c_x, c_y, buf);
 555:Core/Src/GEVA.c ****     error = put_line(b_x, b_y, c_x, c_y, buf);
 556:Core/Src/GEVA.c ****     return error;
 557:Core/Src/GEVA.c **** }
 558:Core/Src/GEVA.c **** 
 559:Core/Src/GEVA.c **** /* ========================================DATA VISUALIZATION======================================
 560:Core/Src/GEVA.c **** 
 561:Core/Src/GEVA.c **** uint8_t update_chart(float new_data, data_container* c, video_buffer* buf){
 562:Core/Src/GEVA.c ****     uint8_t error = 0;
 563:Core/Src/GEVA.c ****     c->data = new_data;
 564:Core/Src/GEVA.c **** 
 565:Core/Src/GEVA.c ****     switch (c->type) {
 566:Core/Src/GEVA.c ****     case COL:
 567:Core/Src/GEVA.c ****         error = update_COL(c,buf);
 568:Core/Src/GEVA.c ****         break;
 569:Core/Src/GEVA.c ****     case XY: //when calling update_XY new data is ignored: changing of data_container.xy_entry stru
 570:Core/Src/GEVA.c ****         error = update_XY(c, buf);
 571:Core/Src/GEVA.c ****         break;
 572:Core/Src/GEVA.c ****     case BAR:
 573:Core/Src/GEVA.c ****         error = update_BAR(c, buf);
 574:Core/Src/GEVA.c ****         break;
 575:Core/Src/GEVA.c ****     case LINE:
 576:Core/Src/GEVA.c ****         error = update_LINE(c,buf);
 577:Core/Src/GEVA.c ****         break;
 578:Core/Src/GEVA.c ****     case SCATTER:
 579:Core/Src/GEVA.c ****         error = update_SCATTER(c, buf);
 580:Core/Src/GEVA.c ****         break;
 581:Core/Src/GEVA.c ****     default:
 582:Core/Src/GEVA.c ****         break;
 583:Core/Src/GEVA.c **** 
 584:Core/Src/GEVA.c ****     }
 585:Core/Src/GEVA.c ****     return error;
 586:Core/Src/GEVA.c **** }
 587:Core/Src/GEVA.c **** 
 588:Core/Src/GEVA.c **** /* ===========================================INTERNAL FUNCTIONS===================================
 589:Core/Src/GEVA.c **** 
 590:Core/Src/GEVA.c **** /* Calculate the number of columns in number of bytes needed for the video buffer*/
 591:Core/Src/GEVA.c **** uint8_t byte_col_cnt(uint8_t size_x) {
 317              		.loc 1 591 38 is_stmt 1 view -0
 318              		.cfi_startproc
 319              		@ args = 0, pretend = 0, frame = 0
 320              		@ frame_needed = 0, uses_anonymous_args = 0
 321              		@ link register save eliminated.
 322              		.loc 1 591 38 is_stmt 0 view .LVU114
 323 0000 0300     		movs	r3, r0
 592:Core/Src/GEVA.c **** 
 593:Core/Src/GEVA.c ****     uint8_t col_n = (size_x / 8);
 324              		.loc 1 593 5 is_stmt 1 view .LVU115
 325              		.loc 1 593 13 is_stmt 0 view .LVU116
 326 0002 C008     		lsrs	r0, r0, #3
 327              	.LVL14:
 594:Core/Src/GEVA.c **** 
 595:Core/Src/GEVA.c ****     if (size_x % 8)
 328              		.loc 1 595 5 is_stmt 1 view .LVU117
ARM GAS  C:\Users\arist\AppData\Local\Temp\ccp82oC3.s 			page 18


 329              		.loc 1 595 8 is_stmt 0 view .LVU118
 330 0004 5B07     		lsls	r3, r3, #29
 331 0006 00D0     		beq	.L20
 596:Core/Src/GEVA.c ****         col_n++;
 332              		.loc 1 596 9 is_stmt 1 view .LVU119
 333              		.loc 1 596 14 is_stmt 0 view .LVU120
 334 0008 0130     		adds	r0, r0, #1
 335              	.LVL15:
 336              	.L20:
 597:Core/Src/GEVA.c **** 
 598:Core/Src/GEVA.c ****     return col_n;
 337              		.loc 1 598 5 is_stmt 1 view .LVU121
 599:Core/Src/GEVA.c **** }
 338              		.loc 1 599 1 is_stmt 0 view .LVU122
 339              		@ sp needed
 340 000a 7047     		bx	lr
 341              		.cfi_endproc
 342              	.LFE14:
 344              		.section	.text.buffer_byte_cnt,"ax",%progbits
 345              		.align	1
 346              		.global	buffer_byte_cnt
 347              		.syntax unified
 348              		.code	16
 349              		.thumb_func
 351              	buffer_byte_cnt:
 352              	.LVL16:
 353              	.LFB15:
 600:Core/Src/GEVA.c **** 
 601:Core/Src/GEVA.c **** /* Calculate the total number of bytes needed for the video buffer*/
 602:Core/Src/GEVA.c **** uint16_t buffer_byte_cnt(video_buffer* buf) {
 354              		.loc 1 602 45 is_stmt 1 view -0
 355              		.cfi_startproc
 356              		@ args = 0, pretend = 0, frame = 0
 357              		@ frame_needed = 0, uses_anonymous_args = 0
 358              		@ link register save eliminated.
 603:Core/Src/GEVA.c ****     
 604:Core/Src/GEVA.c ****     return buf->size_y * buf->byte_col_cnt;
 359              		.loc 1 604 5 view .LVU124
 360              		.loc 1 604 15 is_stmt 0 view .LVU125
 361 0000 4378     		ldrb	r3, [r0, #1]
 362              		.loc 1 604 29 view .LVU126
 363 0002 007A     		ldrb	r0, [r0, #8]
 364              	.LVL17:
 365              		.loc 1 604 24 view .LVU127
 366 0004 5843     		muls	r0, r3
 605:Core/Src/GEVA.c **** }
 367              		.loc 1 605 1 view .LVU128
 368              		@ sp needed
 369 0006 7047     		bx	lr
 370              		.cfi_endproc
 371              	.LFE15:
 373              		.section	.text.init_buf,"ax",%progbits
 374              		.align	1
 375              		.global	init_buf
 376              		.syntax unified
 377              		.code	16
 378              		.thumb_func
ARM GAS  C:\Users\arist\AppData\Local\Temp\ccp82oC3.s 			page 19


 380              	init_buf:
 381              	.LVL18:
 382              	.LFB0:
  30:Core/Src/GEVA.c ****     uint8_t error = 0;
 383              		.loc 1 30 69 is_stmt 1 view -0
 384              		.cfi_startproc
 385              		@ args = 0, pretend = 0, frame = 0
 386              		@ frame_needed = 0, uses_anonymous_args = 0
  30:Core/Src/GEVA.c ****     uint8_t error = 0;
 387              		.loc 1 30 69 is_stmt 0 view .LVU130
 388 0000 10B5     		push	{r4, lr}
 389              		.cfi_def_cfa_offset 8
 390              		.cfi_offset 4, -8
 391              		.cfi_offset 14, -4
 392 0002 0400     		movs	r4, r0
 393 0004 0800     		movs	r0, r1
 394              	.LVL19:
  31:Core/Src/GEVA.c ****     buf->size_x = size_x;
 395              		.loc 1 31 5 is_stmt 1 view .LVU131
  32:Core/Src/GEVA.c ****     buf->size_y = size_y;
 396              		.loc 1 32 5 view .LVU132
  32:Core/Src/GEVA.c ****     buf->size_y = size_y;
 397              		.loc 1 32 17 is_stmt 0 view .LVU133
 398 0006 2170     		strb	r1, [r4]
  33:Core/Src/GEVA.c ****     buf->byte_col_cnt = byte_col_cnt(size_x);
 399              		.loc 1 33 5 is_stmt 1 view .LVU134
  33:Core/Src/GEVA.c ****     buf->byte_col_cnt = byte_col_cnt(size_x);
 400              		.loc 1 33 17 is_stmt 0 view .LVU135
 401 0008 6270     		strb	r2, [r4, #1]
  34:Core/Src/GEVA.c ****     buf->byte_buffer_cnt = buffer_byte_cnt(buf);
 402              		.loc 1 34 5 is_stmt 1 view .LVU136
  34:Core/Src/GEVA.c ****     buf->byte_buffer_cnt = buffer_byte_cnt(buf);
 403              		.loc 1 34 25 is_stmt 0 view .LVU137
 404 000a FFF7FEFF 		bl	byte_col_cnt
 405              	.LVL20:
  34:Core/Src/GEVA.c ****     buf->byte_buffer_cnt = buffer_byte_cnt(buf);
 406              		.loc 1 34 23 view .LVU138
 407 000e 2072     		strb	r0, [r4, #8]
  35:Core/Src/GEVA.c ****     buf->vid_buf = (uint8_t *)malloc(buf->byte_buffer_cnt);
 408              		.loc 1 35 5 is_stmt 1 view .LVU139
  35:Core/Src/GEVA.c ****     buf->vid_buf = (uint8_t *)malloc(buf->byte_buffer_cnt);
 409              		.loc 1 35 28 is_stmt 0 view .LVU140
 410 0010 2000     		movs	r0, r4
 411 0012 FFF7FEFF 		bl	buffer_byte_cnt
 412              	.LVL21:
  35:Core/Src/GEVA.c ****     buf->vid_buf = (uint8_t *)malloc(buf->byte_buffer_cnt);
 413              		.loc 1 35 26 view .LVU141
 414 0016 6081     		strh	r0, [r4, #10]
  36:Core/Src/GEVA.c ****     
 415              		.loc 1 36 5 is_stmt 1 view .LVU142
  36:Core/Src/GEVA.c ****     
 416              		.loc 1 36 31 is_stmt 0 view .LVU143
 417 0018 FFF7FEFF 		bl	malloc
 418              	.LVL22:
  36:Core/Src/GEVA.c ****     
 419              		.loc 1 36 18 view .LVU144
 420 001c 6060     		str	r0, [r4, #4]
ARM GAS  C:\Users\arist\AppData\Local\Temp\ccp82oC3.s 			page 20


  39:Core/Src/GEVA.c ****     buf->origin[1] = 0;
 421              		.loc 1 39 5 is_stmt 1 view .LVU145
  39:Core/Src/GEVA.c ****     buf->origin[1] = 0;
 422              		.loc 1 39 20 is_stmt 0 view .LVU146
 423 001e 0023     		movs	r3, #0
 424 0020 A373     		strb	r3, [r4, #14]
  40:Core/Src/GEVA.c ****     buf->r_matrix[0] = 0;
 425              		.loc 1 40 5 is_stmt 1 view .LVU147
  40:Core/Src/GEVA.c ****     buf->r_matrix[0] = 0;
 426              		.loc 1 40 20 is_stmt 0 view .LVU148
 427 0022 E373     		strb	r3, [r4, #15]
  41:Core/Src/GEVA.c ****     buf->r_matrix[1] = 0;
 428              		.loc 1 41 5 is_stmt 1 view .LVU149
  41:Core/Src/GEVA.c ****     buf->r_matrix[1] = 0;
 429              		.loc 1 41 22 is_stmt 0 view .LVU150
 430 0024 2374     		strb	r3, [r4, #16]
  42:Core/Src/GEVA.c ****     buf->r_matrix[2] = 0;
 431              		.loc 1 42 5 is_stmt 1 view .LVU151
  42:Core/Src/GEVA.c ****     buf->r_matrix[2] = 0;
 432              		.loc 1 42 22 is_stmt 0 view .LVU152
 433 0026 6374     		strb	r3, [r4, #17]
  43:Core/Src/GEVA.c ****     buf->r_matrix[3] = 0;
 434              		.loc 1 43 5 is_stmt 1 view .LVU153
  43:Core/Src/GEVA.c ****     buf->r_matrix[3] = 0;
 435              		.loc 1 43 22 is_stmt 0 view .LVU154
 436 0028 A374     		strb	r3, [r4, #18]
  44:Core/Src/GEVA.c **** 
 437              		.loc 1 44 5 is_stmt 1 view .LVU155
  44:Core/Src/GEVA.c **** 
 438              		.loc 1 44 22 is_stmt 0 view .LVU156
 439 002a E374     		strb	r3, [r4, #19]
  46:Core/Src/GEVA.c ****     set_mode(NORMAL, buf);
 440              		.loc 1 46 5 is_stmt 1 view .LVU157
 441 002c 2000     		movs	r0, r4
 442 002e FFF7FEFF 		bl	clr_buffer
 443              	.LVL23:
  47:Core/Src/GEVA.c ****     set_orientation(LANDSCAPE, buf);
 444              		.loc 1 47 5 view .LVU158
 445 0032 2100     		movs	r1, r4
 446 0034 0020     		movs	r0, #0
 447 0036 FFF7FEFF 		bl	set_mode
 448              	.LVL24:
  48:Core/Src/GEVA.c ****     return error;
 449              		.loc 1 48 5 view .LVU159
 450 003a 2100     		movs	r1, r4
 451 003c 0020     		movs	r0, #0
 452 003e FFF7FEFF 		bl	set_orientation
 453              	.LVL25:
  49:Core/Src/GEVA.c **** }
 454              		.loc 1 49 5 view .LVU160
  50:Core/Src/GEVA.c **** 
 455              		.loc 1 50 1 is_stmt 0 view .LVU161
 456 0042 0020     		movs	r0, #0
 457              		@ sp needed
 458              	.LVL26:
  50:Core/Src/GEVA.c **** 
 459              		.loc 1 50 1 view .LVU162
ARM GAS  C:\Users\arist\AppData\Local\Temp\ccp82oC3.s 			page 21


 460 0044 10BD     		pop	{r4, pc}
 461              		.cfi_endproc
 462              	.LFE0:
 464              		.section	.text.get_buffer_index,"ax",%progbits
 465              		.align	1
 466              		.global	get_buffer_index
 467              		.syntax unified
 468              		.code	16
 469              		.thumb_func
 471              	get_buffer_index:
 472              	.LVL27:
 473              	.LFB16:
 606:Core/Src/GEVA.c **** 
 607:Core/Src/GEVA.c **** /* Set the video buffer index to address for  x & y position in the video matrix  
 608:Core/Src/GEVA.c ****  * Sanity check before calling
 609:Core/Src/GEVA.c **** */
 610:Core/Src/GEVA.c **** uint16_t get_buffer_index(uint8_t pos_x, uint8_t pos_y, uint8_t col_byte_cnt){
 474              		.loc 1 610 78 is_stmt 1 view -0
 475              		.cfi_startproc
 476              		@ args = 0, pretend = 0, frame = 0
 477              		@ frame_needed = 0, uses_anonymous_args = 0
 478              		@ link register save eliminated.
 611:Core/Src/GEVA.c **** 
 612:Core/Src/GEVA.c ****     return (col_byte_cnt * pos_y) + (uint8_t)(pos_x / 8);
 479              		.loc 1 612 5 view .LVU164
 480              		.loc 1 612 26 is_stmt 0 view .LVU165
 481 0000 5143     		muls	r1, r2
 482              	.LVL28:
 483              		.loc 1 612 37 view .LVU166
 484 0002 C008     		lsrs	r0, r0, #3
 485              	.LVL29:
 486              		.loc 1 612 35 view .LVU167
 487 0004 0818     		adds	r0, r1, r0
 488 0006 80B2     		uxth	r0, r0
 613:Core/Src/GEVA.c **** 
 614:Core/Src/GEVA.c **** }
 489              		.loc 1 614 1 view .LVU168
 490              		@ sp needed
 491 0008 7047     		bx	lr
 492              		.cfi_endproc
 493              	.LFE16:
 495              		.section	.text.put_vbc,"ax",%progbits
 496              		.align	1
 497              		.global	put_vbc
 498              		.syntax unified
 499              		.code	16
 500              		.thumb_func
 502              	put_vbc:
 503              	.LVL30:
 504              	.LFB9:
 475:Core/Src/GEVA.c ****     uint8_t error = 0;
 505              		.loc 1 475 73 is_stmt 1 view -0
 506              		.cfi_startproc
 507              		@ args = 8, pretend = 0, frame = 16
 508              		@ frame_needed = 0, uses_anonymous_args = 0
 475:Core/Src/GEVA.c ****     uint8_t error = 0;
 509              		.loc 1 475 73 is_stmt 0 view .LVU170
ARM GAS  C:\Users\arist\AppData\Local\Temp\ccp82oC3.s 			page 22


 510 0000 F0B5     		push	{r4, r5, r6, r7, lr}
 511              		.cfi_def_cfa_offset 20
 512              		.cfi_offset 4, -20
 513              		.cfi_offset 5, -16
 514              		.cfi_offset 6, -12
 515              		.cfi_offset 7, -8
 516              		.cfi_offset 14, -4
 517 0002 DE46     		mov	lr, fp
 518 0004 5746     		mov	r7, r10
 519 0006 4E46     		mov	r6, r9
 520 0008 4546     		mov	r5, r8
 521 000a E0B5     		push	{r5, r6, r7, lr}
 522              		.cfi_def_cfa_offset 36
 523              		.cfi_offset 8, -36
 524              		.cfi_offset 9, -32
 525              		.cfi_offset 10, -28
 526              		.cfi_offset 11, -24
 527 000c 85B0     		sub	sp, sp, #20
 528              		.cfi_def_cfa_offset 56
 529 000e 01AC     		add	r4, sp, #4
 530 0010 0190     		str	r0, [sp, #4]
 531 0012 0291     		str	r1, [sp, #8]
 532 0014 0392     		str	r2, [sp, #12]
 533 0016 1D00     		movs	r5, r3
 534 0018 0EAB     		add	r3, sp, #56
 535              	.LVL31:
 475:Core/Src/GEVA.c ****     uint8_t error = 0;
 536              		.loc 1 475 73 view .LVU171
 537 001a 1F78     		ldrb	r7, [r3]
 538 001c 0F9E     		ldr	r6, [sp, #60]
 476:Core/Src/GEVA.c ****     uint16_t vbc_body_byte = (((uint16_t)file.header.byte_cnt_h) << 8 | file.header.byte_cnt_l) - 5
 539              		.loc 1 476 5 is_stmt 1 view .LVU172
 540              	.LVL32:
 477:Core/Src/GEVA.c **** 
 541              		.loc 1 477 5 view .LVU173
 477:Core/Src/GEVA.c **** 
 542              		.loc 1 477 53 is_stmt 0 view .LVU174
 543 001e E378     		ldrb	r3, [r4, #3]
 544              	.LVL33:
 477:Core/Src/GEVA.c **** 
 545              		.loc 1 477 66 view .LVU175
 546 0020 1B02     		lsls	r3, r3, #8
 477:Core/Src/GEVA.c **** 
 547              		.loc 1 477 84 view .LVU176
 548 0022 2479     		ldrb	r4, [r4, #4]
 477:Core/Src/GEVA.c **** 
 549              		.loc 1 477 71 view .LVU177
 550 0024 1C43     		orrs	r4, r3
 477:Core/Src/GEVA.c **** 
 551              		.loc 1 477 14 view .LVU178
 552 0026 053C     		subs	r4, r4, #5
 553 0028 A4B2     		uxth	r4, r4
 554              	.LVL34:
 479:Core/Src/GEVA.c ****         return 4;
 555              		.loc 1 479 5 is_stmt 1 view .LVU179
 479:Core/Src/GEVA.c ****         return 4;
 556              		.loc 1 479 16 is_stmt 0 view .LVU180
ARM GAS  C:\Users\arist\AppData\Local\Temp\ccp82oC3.s 			page 23


 557 002a 3378     		ldrb	r3, [r6]
 479:Core/Src/GEVA.c ****         return 4;
 558              		.loc 1 479 8 view .LVU181
 559 002c AB42     		cmp	r3, r5
 560 002e 5AD3     		bcc	.L32
 479:Core/Src/GEVA.c ****         return 4;
 561              		.loc 1 479 44 discriminator 1 view .LVU182
 562 0030 7278     		ldrb	r2, [r6, #1]
 563 0032 9046     		mov	r8, r2
 479:Core/Src/GEVA.c ****         return 4;
 564              		.loc 1 479 53 discriminator 1 view .LVU183
 565 0034 BA42     		cmp	r2, r7
 566 0036 58D3     		bcc	.L33
 482:Core/Src/GEVA.c ****         error = 1;
 567              		.loc 1 482 5 is_stmt 1 view .LVU184
 482:Core/Src/GEVA.c ****         error = 1;
 568              		.loc 1 482 20 is_stmt 0 view .LVU185
 569 0038 01AA     		add	r2, sp, #4
 570 003a 1278     		ldrb	r2, [r2]
 482:Core/Src/GEVA.c ****         error = 1;
 571              		.loc 1 482 8 view .LVU186
 572 003c A72A     		cmp	r2, #167
 573 003e 07D0     		beq	.L38
 483:Core/Src/GEVA.c ****     else if (y + file.header.height > buf->size_y || x + file.header.width > buf->size_x)
 574              		.loc 1 483 15 view .LVU187
 575 0040 0120     		movs	r0, #1
 576              	.LVL35:
 577              	.L26:
 502:Core/Src/GEVA.c **** 
 578              		.loc 1 502 1 view .LVU188
 579 0042 05B0     		add	sp, sp, #20
 580              		@ sp needed
 581 0044 F0BC     		pop	{r4, r5, r6, r7}
 582 0046 BB46     		mov	fp, r7
 583 0048 B246     		mov	r10, r6
 584 004a A946     		mov	r9, r5
 585 004c A046     		mov	r8, r4
 586 004e F0BD     		pop	{r4, r5, r6, r7, pc}
 587              	.LVL36:
 588              	.L38:
 484:Core/Src/GEVA.c ****         error = 2;
 589              		.loc 1 484 10 is_stmt 1 view .LVU189
 484:Core/Src/GEVA.c ****         error = 2;
 590              		.loc 1 484 29 is_stmt 0 view .LVU190
 591 0050 01AA     		add	r2, sp, #4
 592 0052 9278     		ldrb	r2, [r2, #2]
 593 0054 9246     		mov	r10, r2
 484:Core/Src/GEVA.c ****         error = 2;
 594              		.loc 1 484 16 view .LVU191
 595 0056 BA18     		adds	r2, r7, r2
 484:Core/Src/GEVA.c ****         error = 2;
 596              		.loc 1 484 13 view .LVU192
 597 0058 4245     		cmp	r2, r8
 598 005a 48DC     		bgt	.L35
 484:Core/Src/GEVA.c ****         error = 2;
 599              		.loc 1 484 69 discriminator 1 view .LVU193
 600 005c 01AA     		add	r2, sp, #4
ARM GAS  C:\Users\arist\AppData\Local\Temp\ccp82oC3.s 			page 24


 601 005e 5278     		ldrb	r2, [r2, #1]
 602 0060 9146     		mov	r9, r2
 484:Core/Src/GEVA.c ****         error = 2;
 603              		.loc 1 484 56 discriminator 1 view .LVU194
 604 0062 AA18     		adds	r2, r5, r2
 484:Core/Src/GEVA.c ****         error = 2;
 605              		.loc 1 484 51 discriminator 1 view .LVU195
 606 0064 9A42     		cmp	r2, r3
 607 0066 44DC     		bgt	.L36
 486:Core/Src/GEVA.c ****         error = 3;
 608              		.loc 1 486 10 is_stmt 1 view .LVU196
 486:Core/Src/GEVA.c ****         error = 3;
 609              		.loc 1 486 33 is_stmt 0 view .LVU197
 610 0068 7389     		ldrh	r3, [r6, #10]
 611 006a 9B46     		mov	fp, r3
 486:Core/Src/GEVA.c ****         error = 3;
 612              		.loc 1 486 53 view .LVU198
 613 006c 337A     		ldrb	r3, [r6, #8]
 614 006e 0093     		str	r3, [sp]
 615 0070 1A00     		movs	r2, r3
 616 0072 3900     		movs	r1, r7
 617 0074 2800     		movs	r0, r5
 618 0076 FFF7FEFF 		bl	get_buffer_index
 619              	.LVL37:
 486:Core/Src/GEVA.c ****         error = 3;
 620              		.loc 1 486 51 view .LVU199
 621 007a 5B46     		mov	r3, fp
 622 007c 181A     		subs	r0, r3, r0
 486:Core/Src/GEVA.c ****         error = 3;
 623              		.loc 1 486 13 view .LVU200
 624 007e 8442     		cmp	r4, r0
 625 0080 39DC     		bgt	.L37
 488:Core/Src/GEVA.c ****         buf->vid_buf = file.body;
 626              		.loc 1 488 10 is_stmt 1 view .LVU201
 488:Core/Src/GEVA.c ****         buf->vid_buf = file.body;
 627              		.loc 1 488 13 is_stmt 0 view .LVU202
 628 0082 A345     		cmp	fp, r4
 629 0084 10D0     		beq	.L39
 630              	.LBB3:
 492:Core/Src/GEVA.c ****         uint16_t start_byte_ptr = get_buffer_index(x, buf->size_y - 1 - y, buf->byte_col_cnt);
 631              		.loc 1 492 9 is_stmt 1 view .LVU203
 492:Core/Src/GEVA.c ****         uint16_t start_byte_ptr = get_buffer_index(x, buf->size_y - 1 - y, buf->byte_col_cnt);
 632              		.loc 1 492 17 is_stmt 0 view .LVU204
 633 0086 4B46     		mov	r3, r9
 634 0088 5B07     		lsls	r3, r3, #29
 635 008a 11D1     		bne	.L28
 492:Core/Src/GEVA.c ****         uint16_t start_byte_ptr = get_buffer_index(x, buf->size_y - 1 - y, buf->byte_col_cnt);
 636              		.loc 1 492 17 discriminator 1 view .LVU205
 637 008c 4B46     		mov	r3, r9
 638 008e DC08     		lsrs	r4, r3, #3
 639              	.LVL38:
 640              	.L29:
 493:Core/Src/GEVA.c ****         uint16_t buffer_byte_ptr = start_byte_ptr;
 641              		.loc 1 493 9 is_stmt 1 discriminator 4 view .LVU206
 493:Core/Src/GEVA.c ****         uint16_t buffer_byte_ptr = start_byte_ptr;
 642              		.loc 1 493 71 is_stmt 0 discriminator 4 view .LVU207
 643 0090 4346     		mov	r3, r8
ARM GAS  C:\Users\arist\AppData\Local\Temp\ccp82oC3.s 			page 25


 644 0092 D91B     		subs	r1, r3, r7
 645 0094 C9B2     		uxtb	r1, r1
 493:Core/Src/GEVA.c ****         uint16_t buffer_byte_ptr = start_byte_ptr;
 646              		.loc 1 493 35 discriminator 4 view .LVU208
 647 0096 0139     		subs	r1, r1, #1
 648 0098 C9B2     		uxtb	r1, r1
 649 009a 009A     		ldr	r2, [sp]
 650 009c 2800     		movs	r0, r5
 651 009e FFF7FEFF 		bl	get_buffer_index
 652              	.LVL39:
 653 00a2 0700     		movs	r7, r0
 654              	.LVL40:
 494:Core/Src/GEVA.c **** 
 655              		.loc 1 494 9 is_stmt 1 discriminator 4 view .LVU209
 496:Core/Src/GEVA.c ****             buffer_byte_ptr = start_byte_ptr - (buf->byte_col_cnt * row);
 656              		.loc 1 496 9 discriminator 4 view .LVU210
 657              	.LBB4:
 496:Core/Src/GEVA.c ****             buffer_byte_ptr = start_byte_ptr - (buf->byte_col_cnt * row);
 658              		.loc 1 496 14 discriminator 4 view .LVU211
 496:Core/Src/GEVA.c ****             buffer_byte_ptr = start_byte_ptr - (buf->byte_col_cnt * row);
 659              		.loc 1 496 22 is_stmt 0 discriminator 4 view .LVU212
 660 00a4 0025     		movs	r5, #0
 496:Core/Src/GEVA.c ****             buffer_byte_ptr = start_byte_ptr - (buf->byte_col_cnt * row);
 661              		.loc 1 496 9 discriminator 4 view .LVU213
 662 00a6 18E0     		b	.L30
 663              	.LVL41:
 664              	.L39:
 496:Core/Src/GEVA.c ****             buffer_byte_ptr = start_byte_ptr - (buf->byte_col_cnt * row);
 665              		.loc 1 496 9 discriminator 4 view .LVU214
 666              	.LBE4:
 667              	.LBE3:
 489:Core/Src/GEVA.c ****     }
 668              		.loc 1 489 9 is_stmt 1 view .LVU215
 489:Core/Src/GEVA.c ****     }
 669              		.loc 1 489 28 is_stmt 0 view .LVU216
 670 00a8 039B     		ldr	r3, [sp, #12]
 489:Core/Src/GEVA.c ****     }
 671              		.loc 1 489 22 view .LVU217
 672 00aa 7360     		str	r3, [r6, #4]
 476:Core/Src/GEVA.c ****     uint16_t vbc_body_byte = (((uint16_t)file.header.byte_cnt_h) << 8 | file.header.byte_cnt_l) - 5
 673              		.loc 1 476 13 view .LVU218
 674 00ac 0020     		movs	r0, #0
 675 00ae C8E7     		b	.L26
 676              	.L28:
 677              	.LBB7:
 492:Core/Src/GEVA.c ****         uint16_t start_byte_ptr = get_buffer_index(x, buf->size_y - 1 - y, buf->byte_col_cnt);
 678              		.loc 1 492 107 discriminator 2 view .LVU219
 679 00b0 4B46     		mov	r3, r9
 680 00b2 DC08     		lsrs	r4, r3, #3
 681              	.LVL42:
 492:Core/Src/GEVA.c ****         uint16_t start_byte_ptr = get_buffer_index(x, buf->size_y - 1 - y, buf->byte_col_cnt);
 682              		.loc 1 492 17 discriminator 2 view .LVU220
 683 00b4 0134     		adds	r4, r4, #1
 684 00b6 EBE7     		b	.L29
 685              	.LVL43:
 686              	.L31:
 687              	.LBB5:
ARM GAS  C:\Users\arist\AppData\Local\Temp\ccp82oC3.s 			page 26


 497:Core/Src/GEVA.c ****             memmove(&buf->vid_buf[buffer_byte_ptr], &file.body[((file.header.height - 1) * byte_wid
 688              		.loc 1 497 13 is_stmt 1 discriminator 3 view .LVU221
 497:Core/Src/GEVA.c ****             memmove(&buf->vid_buf[buffer_byte_ptr], &file.body[((file.header.height - 1) * byte_wid
 689              		.loc 1 497 52 is_stmt 0 discriminator 3 view .LVU222
 690 00b8 337A     		ldrb	r3, [r6, #8]
 497:Core/Src/GEVA.c ****             memmove(&buf->vid_buf[buffer_byte_ptr], &file.body[((file.header.height - 1) * byte_wid
 691              		.loc 1 497 67 discriminator 3 view .LVU223
 692 00ba 6B43     		muls	r3, r5
 497:Core/Src/GEVA.c ****             memmove(&buf->vid_buf[buffer_byte_ptr], &file.body[((file.header.height - 1) * byte_wid
 693              		.loc 1 497 29 discriminator 3 view .LVU224
 694 00bc FB1A     		subs	r3, r7, r3
 695 00be 9BB2     		uxth	r3, r3
 696              	.LVL44:
 498:Core/Src/GEVA.c ****         }
 697              		.loc 1 498 13 is_stmt 1 discriminator 3 view .LVU225
 498:Core/Src/GEVA.c ****         }
 698              		.loc 1 498 25 is_stmt 0 discriminator 3 view .LVU226
 699 00c0 7068     		ldr	r0, [r6, #4]
 498:Core/Src/GEVA.c ****         }
 700              		.loc 1 498 21 discriminator 3 view .LVU227
 701 00c2 C018     		adds	r0, r0, r3
 498:Core/Src/GEVA.c ****         }
 702              		.loc 1 498 58 discriminator 3 view .LVU228
 703 00c4 0399     		ldr	r1, [sp, #12]
 498:Core/Src/GEVA.c ****         }
 704              		.loc 1 498 90 discriminator 3 view .LVU229
 705 00c6 6243     		muls	r2, r4
 498:Core/Src/GEVA.c ****         }
 706              		.loc 1 498 110 discriminator 3 view .LVU230
 707 00c8 2B00     		movs	r3, r5
 708              	.LVL45:
 498:Core/Src/GEVA.c ****         }
 709              		.loc 1 498 110 discriminator 3 view .LVU231
 710 00ca 6343     		muls	r3, r4
 711              	.LVL46:
 498:Core/Src/GEVA.c ****         }
 712              		.loc 1 498 104 discriminator 3 view .LVU232
 713 00cc D21A     		subs	r2, r2, r3
 498:Core/Src/GEVA.c ****         }
 714              		.loc 1 498 53 discriminator 3 view .LVU233
 715 00ce 8918     		adds	r1, r1, r2
 498:Core/Src/GEVA.c ****         }
 716              		.loc 1 498 13 discriminator 3 view .LVU234
 717 00d0 2200     		movs	r2, r4
 718 00d2 FFF7FEFF 		bl	memmove
 719              	.LVL47:
 496:Core/Src/GEVA.c ****             buffer_byte_ptr = start_byte_ptr - (buf->byte_col_cnt * row);
 720              		.loc 1 496 64 is_stmt 1 discriminator 3 view .LVU235
 721 00d6 0135     		adds	r5, r5, #1
 722              	.LVL48:
 496:Core/Src/GEVA.c ****             buffer_byte_ptr = start_byte_ptr - (buf->byte_col_cnt * row);
 723              		.loc 1 496 64 is_stmt 0 discriminator 3 view .LVU236
 724 00d8 EDB2     		uxtb	r5, r5
 725              	.LVL49:
 726              	.L30:
 496:Core/Src/GEVA.c ****             buffer_byte_ptr = start_byte_ptr - (buf->byte_col_cnt * row);
 727              		.loc 1 496 35 is_stmt 1 discriminator 1 view .LVU237
ARM GAS  C:\Users\arist\AppData\Local\Temp\ccp82oC3.s 			page 27


 496:Core/Src/GEVA.c ****             buffer_byte_ptr = start_byte_ptr - (buf->byte_col_cnt * row);
 728              		.loc 1 496 56 is_stmt 0 discriminator 1 view .LVU238
 729 00da 5346     		mov	r3, r10
 730 00dc 5A1E     		subs	r2, r3, #1
 496:Core/Src/GEVA.c ****             buffer_byte_ptr = start_byte_ptr - (buf->byte_col_cnt * row);
 731              		.loc 1 496 35 discriminator 1 view .LVU239
 732 00de 9542     		cmp	r5, r2
 733 00e0 EADB     		blt	.L31
 734              	.LBE5:
 735              	.LBE7:
 476:Core/Src/GEVA.c ****     uint16_t vbc_body_byte = (((uint16_t)file.header.byte_cnt_h) << 8 | file.header.byte_cnt_l) - 5
 736              		.loc 1 476 13 view .LVU240
 737 00e2 0020     		movs	r0, #0
 738              	.LBB8:
 739              	.LBB6:
 740 00e4 ADE7     		b	.L26
 741              	.LVL50:
 742              	.L32:
 476:Core/Src/GEVA.c ****     uint16_t vbc_body_byte = (((uint16_t)file.header.byte_cnt_h) << 8 | file.header.byte_cnt_l) - 5
 743              		.loc 1 476 13 view .LVU241
 744              	.LBE6:
 745              	.LBE8:
 480:Core/Src/GEVA.c **** 
 746              		.loc 1 480 16 view .LVU242
 747 00e6 0420     		movs	r0, #4
 748 00e8 ABE7     		b	.L26
 749              	.L33:
 750 00ea 0420     		movs	r0, #4
 751 00ec A9E7     		b	.L26
 752              	.L35:
 485:Core/Src/GEVA.c ****     else if (vbc_body_byte > buf->byte_buffer_cnt - get_buffer_index(x, y, buf->byte_col_cnt))
 753              		.loc 1 485 15 view .LVU243
 754 00ee 0220     		movs	r0, #2
 755 00f0 A7E7     		b	.L26
 756              	.L36:
 757 00f2 0220     		movs	r0, #2
 758 00f4 A5E7     		b	.L26
 759              	.L37:
 487:Core/Src/GEVA.c ****     else if (vbc_body_byte == buf->byte_buffer_cnt) {
 760              		.loc 1 487 15 view .LVU244
 761 00f6 0320     		movs	r0, #3
 762 00f8 A3E7     		b	.L26
 763              		.cfi_endproc
 764              	.LFE9:
 766              		.section	.text.normalize_pos,"ax",%progbits
 767              		.align	1
 768              		.global	normalize_pos
 769              		.syntax unified
 770              		.code	16
 771              		.thumb_func
 773              	normalize_pos:
 774              	.LVL51:
 775              	.LFB17:
 615:Core/Src/GEVA.c **** 
 616:Core/Src/GEVA.c **** /* Normalize orientation operation.  
 617:Core/Src/GEVA.c ****  * Project coordinates in LANDSCAPE coordinates
 618:Core/Src/GEVA.c **** */
ARM GAS  C:\Users\arist\AppData\Local\Temp\ccp82oC3.s 			page 28


 619:Core/Src/GEVA.c **** uint8_t * normalize_pos(uint8_t pos_x, uint8_t pos_y, video_buffer* buf) {
 776              		.loc 1 619 74 is_stmt 1 view -0
 777              		.cfi_startproc
 778              		@ args = 0, pretend = 0, frame = 0
 779              		@ frame_needed = 0, uses_anonymous_args = 0
 780              		.loc 1 619 74 is_stmt 0 view .LVU246
 781 0000 70B5     		push	{r4, r5, r6, lr}
 782              		.cfi_def_cfa_offset 16
 783              		.cfi_offset 4, -16
 784              		.cfi_offset 5, -12
 785              		.cfi_offset 6, -8
 786              		.cfi_offset 14, -4
 787 0002 0500     		movs	r5, r0
 788 0004 0E00     		movs	r6, r1
 789 0006 1400     		movs	r4, r2
 620:Core/Src/GEVA.c **** 
 621:Core/Src/GEVA.c ****     uint8_t *pos = (uint8_t*)malloc(2);
 790              		.loc 1 621 5 is_stmt 1 view .LVU247
 791              		.loc 1 621 30 is_stmt 0 view .LVU248
 792 0008 0220     		movs	r0, #2
 793              	.LVL52:
 794              		.loc 1 621 30 view .LVU249
 795 000a FFF7FEFF 		bl	malloc
 796              	.LVL53:
 622:Core/Src/GEVA.c ****     pos[0] = buf->origin[X] + (pos_x * buf->r_matrix[_A]) + (pos_y * buf->r_matrix[_B]);
 797              		.loc 1 622 5 is_stmt 1 view .LVU250
 798              		.loc 1 622 25 is_stmt 0 view .LVU251
 799 000e A27B     		ldrb	r2, [r4, #14]
 800              		.loc 1 622 83 view .LVU252
 801 0010 1123     		movs	r3, #17
 802 0012 E356     		ldrsb	r3, [r4, r3]
 803              		.loc 1 622 53 view .LVU253
 804 0014 1021     		movs	r1, #16
 805 0016 6156     		ldrsb	r1, [r4, r1]
 806              		.loc 1 622 59 view .LVU254
 807 0018 7343     		muls	r3, r6
 808 001a 6943     		muls	r1, r5
 809 001c 5B18     		adds	r3, r3, r1
 810 001e D318     		adds	r3, r2, r3
 811              		.loc 1 622 12 view .LVU255
 812 0020 0370     		strb	r3, [r0]
 623:Core/Src/GEVA.c ****     pos[1] = buf->origin[Y] + (pos_x * buf->r_matrix[_C]) + (pos_y * buf->r_matrix[_D]);
 813              		.loc 1 623 5 is_stmt 1 view .LVU256
 814              		.loc 1 623 25 is_stmt 0 view .LVU257
 815 0022 E37B     		ldrb	r3, [r4, #15]
 816              		.loc 1 623 83 view .LVU258
 817 0024 1321     		movs	r1, #19
 818 0026 6156     		ldrsb	r1, [r4, r1]
 819              		.loc 1 623 53 view .LVU259
 820 0028 1222     		movs	r2, #18
 821 002a A256     		ldrsb	r2, [r4, r2]
 822              		.loc 1 623 59 view .LVU260
 823 002c 7143     		muls	r1, r6
 824 002e 6A43     		muls	r2, r5
 825 0030 8918     		adds	r1, r1, r2
 826 0032 5B18     		adds	r3, r3, r1
 827              		.loc 1 623 12 view .LVU261
ARM GAS  C:\Users\arist\AppData\Local\Temp\ccp82oC3.s 			page 29


 828 0034 4370     		strb	r3, [r0, #1]
 624:Core/Src/GEVA.c ****     
 625:Core/Src/GEVA.c ****     return pos;
 829              		.loc 1 625 5 is_stmt 1 view .LVU262
 626:Core/Src/GEVA.c **** }
 830              		.loc 1 626 1 is_stmt 0 view .LVU263
 831              		@ sp needed
 832              	.LVL54:
 833              		.loc 1 626 1 view .LVU264
 834 0036 70BD     		pop	{r4, r5, r6, pc}
 835              		.cfi_endproc
 836              	.LFE17:
 838              		.section	.text.put_pixel,"ax",%progbits
 839              		.align	1
 840              		.global	put_pixel
 841              		.syntax unified
 842              		.code	16
 843              		.thumb_func
 845              	put_pixel:
 846              	.LVL55:
 847              	.LFB4:
 134:Core/Src/GEVA.c **** 
 848              		.loc 1 134 86 is_stmt 1 view -0
 849              		.cfi_startproc
 850              		@ args = 0, pretend = 0, frame = 0
 851              		@ frame_needed = 0, uses_anonymous_args = 0
 134:Core/Src/GEVA.c **** 
 852              		.loc 1 134 86 is_stmt 0 view .LVU266
 853 0000 F0B5     		push	{r4, r5, r6, r7, lr}
 854              		.cfi_def_cfa_offset 20
 855              		.cfi_offset 4, -20
 856              		.cfi_offset 5, -16
 857              		.cfi_offset 6, -12
 858              		.cfi_offset 7, -8
 859              		.cfi_offset 14, -4
 860 0002 C646     		mov	lr, r8
 861 0004 00B5     		push	{lr}
 862              		.cfi_def_cfa_offset 24
 863              		.cfi_offset 8, -24
 864 0006 9046     		mov	r8, r2
 865 0008 1C00     		movs	r4, r3
 136:Core/Src/GEVA.c ****     uint8_t *n_pos = normalize_pos(pos_x, pos_y, buf);
 866              		.loc 1 136 5 is_stmt 1 view .LVU267
 867              	.LVL56:
 137:Core/Src/GEVA.c **** 
 868              		.loc 1 137 5 view .LVU268
 137:Core/Src/GEVA.c **** 
 869              		.loc 1 137 22 is_stmt 0 view .LVU269
 870 000a 1A00     		movs	r2, r3
 871              	.LVL57:
 137:Core/Src/GEVA.c **** 
 872              		.loc 1 137 22 view .LVU270
 873 000c FFF7FEFF 		bl	normalize_pos
 874              	.LVL58:
 137:Core/Src/GEVA.c **** 
 875              		.loc 1 137 22 view .LVU271
 876 0010 0500     		movs	r5, r0
ARM GAS  C:\Users\arist\AppData\Local\Temp\ccp82oC3.s 			page 30


 877              	.LVL59:
 139:Core/Src/GEVA.c ****         error = 4;
 878              		.loc 1 139 5 is_stmt 1 view .LVU272
 139:Core/Src/GEVA.c ****         error = 4;
 879              		.loc 1 139 42 is_stmt 0 view .LVU273
 880 0012 6378     		ldrb	r3, [r4, #1]
 139:Core/Src/GEVA.c ****         error = 4;
 881              		.loc 1 139 33 view .LVU274
 882 0014 4278     		ldrb	r2, [r0, #1]
 139:Core/Src/GEVA.c ****         error = 4;
 883              		.loc 1 139 8 view .LVU275
 884 0016 9342     		cmp	r3, r2
 885 0018 35D9     		bls	.L45
 139:Core/Src/GEVA.c ****         error = 4;
 886              		.loc 1 139 92 discriminator 1 view .LVU276
 887 001a 2178     		ldrb	r1, [r4]
 139:Core/Src/GEVA.c ****         error = 4;
 888              		.loc 1 139 83 discriminator 1 view .LVU277
 889 001c 0678     		ldrb	r6, [r0]
 139:Core/Src/GEVA.c ****         error = 4;
 890              		.loc 1 139 74 discriminator 1 view .LVU278
 891 001e B142     		cmp	r1, r6
 892 0020 39D9     		bls	.L46
 142:Core/Src/GEVA.c ****             color = CLEAR_C;
 893              		.loc 1 142 9 is_stmt 1 view .LVU279
 142:Core/Src/GEVA.c ****             color = CLEAR_C;
 894              		.loc 1 142 16 is_stmt 0 view .LVU280
 895 0022 217B     		ldrb	r1, [r4, #12]
 142:Core/Src/GEVA.c ****             color = CLEAR_C;
 896              		.loc 1 142 13 view .LVU281
 897 0024 4746     		mov	r7, r8
 898 0026 0F40     		ands	r7, r1
 142:Core/Src/GEVA.c ****             color = CLEAR_C;
 899              		.loc 1 142 12 view .LVU282
 900 0028 4046     		mov	r0, r8
 901              	.LVL60:
 142:Core/Src/GEVA.c ****             color = CLEAR_C;
 902              		.loc 1 142 12 view .LVU283
 903 002a 0842     		tst	r0, r1
 904 002c 03D1     		bne	.L43
 144:Core/Src/GEVA.c ****             color = SET_C;
 905              		.loc 1 144 14 is_stmt 1 view .LVU284
 144:Core/Src/GEVA.c ****             color = SET_C;
 906              		.loc 1 144 28 is_stmt 0 view .LVU285
 907 002e 8143     		bics	r1, r0
 144:Core/Src/GEVA.c ****             color = SET_C;
 908              		.loc 1 144 17 view .LVU286
 909 0030 13D1     		bne	.L44
 910              	.LVL61:
 147:Core/Src/GEVA.c ****             buf->vid_buf[get_buffer_index(n_pos[X], (buf->size_y - n_pos[Y] - 1), buf->byte_col_cnt
 911              		.loc 1 147 9 is_stmt 1 view .LVU287
 147:Core/Src/GEVA.c ****             buf->vid_buf[get_buffer_index(n_pos[X], (buf->size_y - n_pos[Y] - 1), buf->byte_col_cnt
 912              		.loc 1 147 12 is_stmt 0 view .LVU288
 913 0032 0028     		cmp	r0, #0
 914 0034 11D1     		bne	.L44
 915              	.L43:
 148:Core/Src/GEVA.c ****         else
ARM GAS  C:\Users\arist\AppData\Local\Temp\ccp82oC3.s 			page 31


 916              		.loc 1 148 13 is_stmt 1 view .LVU289
 148:Core/Src/GEVA.c ****         else
 917              		.loc 1 148 16 is_stmt 0 view .LVU290
 918 0036 6768     		ldr	r7, [r4, #4]
 148:Core/Src/GEVA.c ****         else
 919              		.loc 1 148 66 view .LVU291
 920 0038 991A     		subs	r1, r3, r2
 921 003a C9B2     		uxtb	r1, r1
 148:Core/Src/GEVA.c ****         else
 922              		.loc 1 148 26 view .LVU292
 923 003c 227A     		ldrb	r2, [r4, #8]
 924 003e 0139     		subs	r1, r1, #1
 925 0040 C9B2     		uxtb	r1, r1
 926 0042 3000     		movs	r0, r6
 927 0044 FFF7FEFF 		bl	get_buffer_index
 928              	.LVL62:
 148:Core/Src/GEVA.c ****         else
 929              		.loc 1 148 25 view .LVU293
 930 0048 3B5C     		ldrb	r3, [r7, r0]
 148:Core/Src/GEVA.c ****         else
 931              		.loc 1 148 124 view .LVU294
 932 004a 0721     		movs	r1, #7
 933 004c 3140     		ands	r1, r6
 148:Core/Src/GEVA.c ****         else
 934              		.loc 1 148 111 view .LVU295
 935 004e 8022     		movs	r2, #128
 936 0050 0A41     		asrs	r2, r2, r1
 148:Core/Src/GEVA.c ****         else
 937              		.loc 1 148 103 view .LVU296
 938 0052 1343     		orrs	r3, r2
 939 0054 3B54     		strb	r3, [r7, r0]
 136:Core/Src/GEVA.c ****     uint8_t *n_pos = normalize_pos(pos_x, pos_y, buf);
 940              		.loc 1 136 13 view .LVU297
 941 0056 0027     		movs	r7, #0
 942 0058 16E0     		b	.L42
 943              	.L44:
 150:Core/Src/GEVA.c ****     }
 944              		.loc 1 150 13 is_stmt 1 view .LVU298
 150:Core/Src/GEVA.c ****     }
 945              		.loc 1 150 16 is_stmt 0 view .LVU299
 946 005a 6168     		ldr	r1, [r4, #4]
 947 005c 8846     		mov	r8, r1
 150:Core/Src/GEVA.c ****     }
 948              		.loc 1 150 66 view .LVU300
 949 005e 991A     		subs	r1, r3, r2
 950 0060 C9B2     		uxtb	r1, r1
 150:Core/Src/GEVA.c ****     }
 951              		.loc 1 150 26 view .LVU301
 952 0062 227A     		ldrb	r2, [r4, #8]
 953 0064 0139     		subs	r1, r1, #1
 954 0066 C9B2     		uxtb	r1, r1
 955 0068 3000     		movs	r0, r6
 956 006a FFF7FEFF 		bl	get_buffer_index
 957              	.LVL63:
 150:Core/Src/GEVA.c ****     }
 958              		.loc 1 150 25 view .LVU302
 959 006e 4346     		mov	r3, r8
ARM GAS  C:\Users\arist\AppData\Local\Temp\ccp82oC3.s 			page 32


 960 0070 195C     		ldrb	r1, [r3, r0]
 150:Core/Src/GEVA.c ****     }
 961              		.loc 1 150 126 view .LVU303
 962 0072 0722     		movs	r2, #7
 963 0074 3240     		ands	r2, r6
 150:Core/Src/GEVA.c ****     }
 964              		.loc 1 150 113 view .LVU304
 965 0076 8023     		movs	r3, #128
 966 0078 1341     		asrs	r3, r3, r2
 150:Core/Src/GEVA.c ****     }
 967              		.loc 1 150 103 view .LVU305
 968 007a DB43     		mvns	r3, r3
 969 007c 5BB2     		sxtb	r3, r3
 970 007e 0B40     		ands	r3, r1
 971 0080 4246     		mov	r2, r8
 972 0082 1354     		strb	r3, [r2, r0]
 973 0084 00E0     		b	.L42
 974              	.LVL64:
 975              	.L45:
 140:Core/Src/GEVA.c ****     else {
 976              		.loc 1 140 15 view .LVU306
 977 0086 0427     		movs	r7, #4
 978              	.LVL65:
 979              	.L42:
 152:Core/Src/GEVA.c ****     return error;
 980              		.loc 1 152 5 is_stmt 1 view .LVU307
 981 0088 2800     		movs	r0, r5
 982 008a FFF7FEFF 		bl	free
 983              	.LVL66:
 153:Core/Src/GEVA.c **** }
 984              		.loc 1 153 5 view .LVU308
 154:Core/Src/GEVA.c **** 
 985              		.loc 1 154 1 is_stmt 0 view .LVU309
 986 008e 3800     		movs	r0, r7
 987              		@ sp needed
 988              	.LVL67:
 989              	.LVL68:
 990              	.LVL69:
 154:Core/Src/GEVA.c **** 
 991              		.loc 1 154 1 view .LVU310
 992 0090 80BC     		pop	{r7}
 993 0092 B846     		mov	r8, r7
 994 0094 F0BD     		pop	{r4, r5, r6, r7, pc}
 995              	.LVL70:
 996              	.L46:
 140:Core/Src/GEVA.c ****     else {
 997              		.loc 1 140 15 view .LVU311
 998 0096 0427     		movs	r7, #4
 999 0098 F6E7     		b	.L42
 1000              		.cfi_endproc
 1001              	.LFE4:
 1003              		.section	.text.put_circle,"ax",%progbits
 1004              		.align	1
 1005              		.global	put_circle
 1006              		.syntax unified
 1007              		.code	16
 1008              		.thumb_func
ARM GAS  C:\Users\arist\AppData\Local\Temp\ccp82oC3.s 			page 33


 1010              	put_circle:
 1011              	.LVL71:
 1012              	.LFB10:
 512:Core/Src/GEVA.c **** 
 1013              		.loc 1 512 76 is_stmt 1 view -0
 1014              		.cfi_startproc
 1015              		@ args = 0, pretend = 0, frame = 8
 1016              		@ frame_needed = 0, uses_anonymous_args = 0
 512:Core/Src/GEVA.c **** 
 1017              		.loc 1 512 76 is_stmt 0 view .LVU313
 1018 0000 F0B5     		push	{r4, r5, r6, r7, lr}
 1019              		.cfi_def_cfa_offset 20
 1020              		.cfi_offset 4, -20
 1021              		.cfi_offset 5, -16
 1022              		.cfi_offset 6, -12
 1023              		.cfi_offset 7, -8
 1024              		.cfi_offset 14, -4
 1025 0002 DE46     		mov	lr, fp
 1026 0004 5746     		mov	r7, r10
 1027 0006 4E46     		mov	r6, r9
 1028 0008 4546     		mov	r5, r8
 1029 000a E0B5     		push	{r5, r6, r7, lr}
 1030              		.cfi_def_cfa_offset 36
 1031              		.cfi_offset 8, -36
 1032              		.cfi_offset 9, -32
 1033              		.cfi_offset 10, -28
 1034              		.cfi_offset 11, -24
 1035 000c 83B0     		sub	sp, sp, #12
 1036              		.cfi_def_cfa_offset 48
 1037 000e 8346     		mov	fp, r0
 1038 0010 8846     		mov	r8, r1
 1039 0012 1500     		movs	r5, r2
 1040 0014 9946     		mov	r9, r3
 514:Core/Src/GEVA.c ****     uint16_t s = 0;
 1041              		.loc 1 514 5 is_stmt 1 view .LVU314
 1042              	.LVL72:
 515:Core/Src/GEVA.c ****     uint16_t rsqr = r * r;
 1043              		.loc 1 515 5 view .LVU315
 516:Core/Src/GEVA.c ****     
 1044              		.loc 1 516 5 view .LVU316
 516:Core/Src/GEVA.c ****     
 1045              		.loc 1 516 14 is_stmt 0 view .LVU317
 1046 0016 1700     		movs	r7, r2
 1047 0018 5743     		muls	r7, r2
 1048              	.LVL73:
 518:Core/Src/GEVA.c ****         for (int16_t x = -r; x <= r; x++) {
 1049              		.loc 1 518 5 is_stmt 1 view .LVU318
 1050              	.LBB9:
 518:Core/Src/GEVA.c ****         for (int16_t x = -r; x <= r; x++) {
 1051              		.loc 1 518 10 view .LVU319
 518:Core/Src/GEVA.c ****         for (int16_t x = -r; x <= r; x++) {
 1052              		.loc 1 518 18 is_stmt 0 view .LVU320
 1053 001a 5342     		rsbs	r3, r2, #0
 1054              	.LVL74:
 518:Core/Src/GEVA.c ****         for (int16_t x = -r; x <= r; x++) {
 1055              		.loc 1 518 18 view .LVU321
 1056 001c 19B2     		sxth	r1, r3
ARM GAS  C:\Users\arist\AppData\Local\Temp\ccp82oC3.s 			page 34


 1057              	.LVL75:
 518:Core/Src/GEVA.c ****         for (int16_t x = -r; x <= r; x++) {
 1058              		.loc 1 518 18 view .LVU322
 1059 001e 0091     		str	r1, [sp]
 1060              	.LBE9:
 514:Core/Src/GEVA.c ****     uint16_t s = 0;
 1061              		.loc 1 514 13 view .LVU323
 1062 0020 0020     		movs	r0, #0
 1063              	.LVL76:
 514:Core/Src/GEVA.c ****     uint16_t s = 0;
 1064              		.loc 1 514 13 view .LVU324
 1065 0022 0191     		str	r1, [sp, #4]
 1066 0024 DA46     		mov	r10, fp
 1067              	.LBB12:
 518:Core/Src/GEVA.c ****         for (int16_t x = -r; x <= r; x++) {
 1068              		.loc 1 518 5 view .LVU325
 1069 0026 21E0     		b	.L48
 1070              	.LVL77:
 1071              	.L49:
 1072              	.LBB10:
 519:Core/Src/GEVA.c ****             s = x * x + y * y;
 1073              		.loc 1 519 39 is_stmt 1 discriminator 2 view .LVU326
 1074 0028 0136     		adds	r6, r6, #1
 1075              	.LVL78:
 519:Core/Src/GEVA.c ****             s = x * x + y * y;
 1076              		.loc 1 519 39 is_stmt 0 discriminator 2 view .LVU327
 1077 002a 33B2     		sxth	r3, r6
 1078              	.LVL79:
 1079              	.L51:
 519:Core/Src/GEVA.c ****             s = x * x + y * y;
 1080              		.loc 1 519 32 is_stmt 1 discriminator 1 view .LVU328
 1081 002c A342     		cmp	r3, r4
 1082 002e 19DC     		bgt	.L53
 520:Core/Src/GEVA.c ****             if (s >= rsqr - r && s <= rsqr + r) {
 1083              		.loc 1 520 13 view .LVU329
 520:Core/Src/GEVA.c ****             if (s >= rsqr - r && s <= rsqr + r) {
 1084              		.loc 1 520 19 is_stmt 0 view .LVU330
 1085 0030 9EB2     		uxth	r6, r3
 1086 0032 3200     		movs	r2, r6
 1087 0034 7243     		muls	r2, r6
 1088 0036 92B2     		uxth	r2, r2
 520:Core/Src/GEVA.c ****             if (s >= rsqr - r && s <= rsqr + r) {
 1089              		.loc 1 520 27 view .LVU331
 1090 0038 6946     		mov	r1, sp
 1091 003a 0988     		ldrh	r1, [r1]
 1092 003c 4943     		muls	r1, r1
 1093 003e 89B2     		uxth	r1, r1
 520:Core/Src/GEVA.c ****             if (s >= rsqr - r && s <= rsqr + r) {
 1094              		.loc 1 520 15 view .LVU332
 1095 0040 5218     		adds	r2, r2, r1
 1096 0042 92B2     		uxth	r2, r2
 1097              	.LVL80:
 521:Core/Src/GEVA.c ****                 error = put_pixel(o_x + x, o_y + y, SET_C, buf);
 1098              		.loc 1 521 13 is_stmt 1 view .LVU333
 521:Core/Src/GEVA.c ****                 error = put_pixel(o_x + x, o_y + y, SET_C, buf);
 1099              		.loc 1 521 27 is_stmt 0 view .LVU334
 1100 0044 791B     		subs	r1, r7, r5
ARM GAS  C:\Users\arist\AppData\Local\Temp\ccp82oC3.s 			page 35


 521:Core/Src/GEVA.c ****                 error = put_pixel(o_x + x, o_y + y, SET_C, buf);
 1101              		.loc 1 521 16 view .LVU335
 1102 0046 8A42     		cmp	r2, r1
 1103 0048 EEDB     		blt	.L49
 521:Core/Src/GEVA.c ****                 error = put_pixel(o_x + x, o_y + y, SET_C, buf);
 1104              		.loc 1 521 44 discriminator 1 view .LVU336
 1105 004a 7919     		adds	r1, r7, r5
 521:Core/Src/GEVA.c ****                 error = put_pixel(o_x + x, o_y + y, SET_C, buf);
 1106              		.loc 1 521 31 discriminator 1 view .LVU337
 1107 004c 8A42     		cmp	r2, r1
 1108 004e EBDC     		bgt	.L49
 522:Core/Src/GEVA.c ****                // if (error)
 1109              		.loc 1 522 17 is_stmt 1 view .LVU338
 522:Core/Src/GEVA.c ****                // if (error)
 1110              		.loc 1 522 25 is_stmt 0 view .LVU339
 1111 0050 0099     		ldr	r1, [sp]
 1112 0052 4144     		add	r1, r1, r8
 1113 0054 C9B2     		uxtb	r1, r1
 1114 0056 5344     		add	r3, r3, r10
 1115              	.LVL81:
 522:Core/Src/GEVA.c ****                // if (error)
 1116              		.loc 1 522 25 view .LVU340
 1117 0058 D8B2     		uxtb	r0, r3
 1118              	.LVL82:
 522:Core/Src/GEVA.c ****                // if (error)
 1119              		.loc 1 522 25 view .LVU341
 1120 005a 4B46     		mov	r3, r9
 1121 005c 0122     		movs	r2, #1
 1122              	.LVL83:
 522:Core/Src/GEVA.c ****                // if (error)
 1123              		.loc 1 522 25 view .LVU342
 1124 005e FFF7FEFF 		bl	put_pixel
 1125              	.LVL84:
 522:Core/Src/GEVA.c ****                // if (error)
 1126              		.loc 1 522 25 view .LVU343
 1127 0062 E1E7     		b	.L49
 1128              	.LVL85:
 1129              	.L53:
 522:Core/Src/GEVA.c ****                // if (error)
 1130              		.loc 1 522 25 view .LVU344
 1131              	.LBE10:
 518:Core/Src/GEVA.c ****         for (int16_t x = -r; x <= r; x++) {
 1132              		.loc 1 518 35 is_stmt 1 discriminator 2 view .LVU345
 1133 0064 009E     		ldr	r6, [sp]
 1134 0066 0136     		adds	r6, r6, #1
 1135 0068 33B2     		sxth	r3, r6
 1136              	.LVL86:
 518:Core/Src/GEVA.c ****         for (int16_t x = -r; x <= r; x++) {
 1137              		.loc 1 518 35 is_stmt 0 discriminator 2 view .LVU346
 1138 006a 0093     		str	r3, [sp]
 1139              	.LVL87:
 1140              	.L48:
 518:Core/Src/GEVA.c ****         for (int16_t x = -r; x <= r; x++) {
 1141              		.loc 1 518 28 is_stmt 1 discriminator 1 view .LVU347
 1142 006c 2C00     		movs	r4, r5
 1143 006e 009B     		ldr	r3, [sp]
 1144 0070 AB42     		cmp	r3, r5
ARM GAS  C:\Users\arist\AppData\Local\Temp\ccp82oC3.s 			page 36


 1145 0072 01DC     		bgt	.L54
 1146              	.LBB11:
 519:Core/Src/GEVA.c ****             s = x * x + y * y;
 1147              		.loc 1 519 22 is_stmt 0 view .LVU348
 1148 0074 019B     		ldr	r3, [sp, #4]
 1149 0076 D9E7     		b	.L51
 1150              	.L54:
 1151              	.LBE11:
 1152              	.LBE12:
 528:Core/Src/GEVA.c **** }
 1153              		.loc 1 528 5 is_stmt 1 view .LVU349
 529:Core/Src/GEVA.c **** 
 1154              		.loc 1 529 1 is_stmt 0 view .LVU350
 1155 0078 03B0     		add	sp, sp, #12
 1156              	.LVL88:
 529:Core/Src/GEVA.c **** 
 1157              		.loc 1 529 1 view .LVU351
 1158              		@ sp needed
 1159              	.LVL89:
 1160              	.LVL90:
 529:Core/Src/GEVA.c **** 
 1161              		.loc 1 529 1 view .LVU352
 1162 007a F0BC     		pop	{r4, r5, r6, r7}
 1163 007c BB46     		mov	fp, r7
 1164 007e B246     		mov	r10, r6
 1165 0080 A946     		mov	r9, r5
 1166 0082 A046     		mov	r8, r4
 1167 0084 F0BD     		pop	{r4, r5, r6, r7, pc}
 1168              		.cfi_endproc
 1169              	.LFE10:
 1171              		.section	.text.reverse_byte,"ax",%progbits
 1172              		.align	1
 1173              		.global	reverse_byte
 1174              		.syntax unified
 1175              		.code	16
 1176              		.thumb_func
 1178              	reverse_byte:
 1179              	.LVL91:
 1180              	.LFB19:
 627:Core/Src/GEVA.c **** 
 628:Core/Src/GEVA.c **** /* 
 629:Core/Src/GEVA.c ****  * Generates new normalized character from font.h character 
 630:Core/Src/GEVA.c **** */
 631:Core/Src/GEVA.c **** uint16_t* rotate_char(uint16_t *chr, video_buffer* buf) {
 632:Core/Src/GEVA.c ****     
 633:Core/Src/GEVA.c ****     uint16_t *new_chr = (uint16_t *)malloc(font_height);
 634:Core/Src/GEVA.c ****     
 635:Core/Src/GEVA.c ****     for (uint8_t i = 0; i < font_height; i++)
 636:Core/Src/GEVA.c ****             new_chr[i]=0;
 637:Core/Src/GEVA.c ****             
 638:Core/Src/GEVA.c ****     uint16_t* nc_ptr = new_chr;
 639:Core/Src/GEVA.c ****     uint16_t bit = 0;
 640:Core/Src/GEVA.c ****     
 641:Core/Src/GEVA.c ****     switch (buf->orient) {
 642:Core/Src/GEVA.c ****    
 643:Core/Src/GEVA.c ****     case LANDSCAPE :
 644:Core/Src/GEVA.c ****         nc_ptr = chr;
ARM GAS  C:\Users\arist\AppData\Local\Temp\ccp82oC3.s 			page 37


 645:Core/Src/GEVA.c ****         break;
 646:Core/Src/GEVA.c ****     
 647:Core/Src/GEVA.c ****     case LANDSCAPE_INVERTED:
 648:Core/Src/GEVA.c **** 
 649:Core/Src/GEVA.c ****         for (uint8_t i = 0; i < font_height; i++) {
 650:Core/Src/GEVA.c ****             new_chr[i] = reverse_byte(chr[font_height - 1 - i] >> (16 - font_width)) ;
 651:Core/Src/GEVA.c ****         }
 652:Core/Src/GEVA.c ****         break;
 653:Core/Src/GEVA.c **** 
 654:Core/Src/GEVA.c ****     case PORTRAIT:
 655:Core/Src/GEVA.c **** 
 656:Core/Src/GEVA.c ****         for (uint8_t i = 0; i < font_height; i++) {
 657:Core/Src/GEVA.c ****             for (uint8_t j = 0; j < font_height; j++) {
 658:Core/Src/GEVA.c ****                 bit = (chr[font_height - 1 - i] & (0x8000 >> j)) << j;
 659:Core/Src/GEVA.c ****                 new_chr[font_height - 1  - j] |= bit >> (font_height - i);    
 660:Core/Src/GEVA.c ****                 bit = 0;
 661:Core/Src/GEVA.c ****             }
 662:Core/Src/GEVA.c ****         }
 663:Core/Src/GEVA.c ****         break;
 664:Core/Src/GEVA.c ****    
 665:Core/Src/GEVA.c ****     case PORTRAIT_INVERTED:
 666:Core/Src/GEVA.c **** 
 667:Core/Src/GEVA.c ****         for (uint8_t i = 0; i < font_height; i++) {
 668:Core/Src/GEVA.c ****             for (uint8_t j = 0; j < font_height; j++) {
 669:Core/Src/GEVA.c ****                 bit = (chr[font_height - 1 - i] & (0x8000 >> j)) << j;
 670:Core/Src/GEVA.c ****                 new_chr[j] |= (bit >> i);
 671:Core/Src/GEVA.c ****                 bit = 0;
 672:Core/Src/GEVA.c ****             }
 673:Core/Src/GEVA.c ****         }
 674:Core/Src/GEVA.c ****         break;
 675:Core/Src/GEVA.c ****     
 676:Core/Src/GEVA.c ****     default:
 677:Core/Src/GEVA.c ****         nc_ptr = chr;
 678:Core/Src/GEVA.c ****         break;
 679:Core/Src/GEVA.c ****     }
 680:Core/Src/GEVA.c ****     return nc_ptr;
 681:Core/Src/GEVA.c **** }
 682:Core/Src/GEVA.c **** 
 683:Core/Src/GEVA.c **** uint16_t reverse_byte(uint16_t b) {
 1181              		.loc 1 683 35 is_stmt 1 view -0
 1182              		.cfi_startproc
 1183              		@ args = 0, pretend = 0, frame = 0
 1184              		@ frame_needed = 0, uses_anonymous_args = 0
 1185              		@ link register save eliminated.
 684:Core/Src/GEVA.c **** 
 685:Core/Src/GEVA.c ****     b = ((b >> 1) & 0x5555) | ((b & 0x5555) << 1);
 1186              		.loc 1 685 5 view .LVU354
 1187              		.loc 1 685 19 is_stmt 0 view .LVU355
 1188 0000 4208     		lsrs	r2, r0, #1
 1189              		.loc 1 685 45 view .LVU356
 1190 0002 4000     		lsls	r0, r0, #1
 1191              	.LVL92:
 1192              		.loc 1 685 45 view .LVU357
 1193 0004 0E4B     		ldr	r3, .L56
 1194 0006 1840     		ands	r0, r3
 1195 0008 00B2     		sxth	r0, r0
 1196              		.loc 1 685 7 view .LVU358
ARM GAS  C:\Users\arist\AppData\Local\Temp\ccp82oC3.s 			page 38


 1197 000a 0E4B     		ldr	r3, .L56+4
 1198 000c 1A40     		ands	r2, r3
 1199 000e 0243     		orrs	r2, r0
 1200 0010 92B2     		uxth	r2, r2
 1201              	.LVL93:
 686:Core/Src/GEVA.c ****     b = ((b >> 2) & 0x3333) | ((b & 0x3333) << 2);
 1202              		.loc 1 686 5 is_stmt 1 view .LVU359
 1203              		.loc 1 686 19 is_stmt 0 view .LVU360
 1204 0012 9308     		lsrs	r3, r2, #2
 1205              		.loc 1 686 45 view .LVU361
 1206 0014 9200     		lsls	r2, r2, #2
 1207              	.LVL94:
 1208              		.loc 1 686 45 view .LVU362
 1209 0016 0C49     		ldr	r1, .L56+8
 1210 0018 0A40     		ands	r2, r1
 1211 001a 12B2     		sxth	r2, r2
 1212              		.loc 1 686 7 view .LVU363
 1213 001c 0B49     		ldr	r1, .L56+12
 1214 001e 0B40     		ands	r3, r1
 1215 0020 1343     		orrs	r3, r2
 1216 0022 9BB2     		uxth	r3, r3
 1217              	.LVL95:
 687:Core/Src/GEVA.c ****     b = ((b >> 4) & 0x0f0f) | ((b & 0x0f0f) << 4);
 1218              		.loc 1 687 5 is_stmt 1 view .LVU364
 1219              		.loc 1 687 19 is_stmt 0 view .LVU365
 1220 0024 1A09     		lsrs	r2, r3, #4
 1221              		.loc 1 687 45 view .LVU366
 1222 0026 1B01     		lsls	r3, r3, #4
 1223              	.LVL96:
 1224              		.loc 1 687 45 view .LVU367
 1225 0028 0949     		ldr	r1, .L56+16
 1226 002a 0B40     		ands	r3, r1
 1227 002c 1BB2     		sxth	r3, r3
 1228              		.loc 1 687 7 view .LVU368
 1229 002e 0949     		ldr	r1, .L56+20
 1230 0030 0A40     		ands	r2, r1
 1231 0032 1343     		orrs	r3, r2
 1232 0034 9BB2     		uxth	r3, r3
 1233              	.LVL97:
 688:Core/Src/GEVA.c ****     b = ((b >> 8) & 0x00ff) | ((b & 0x00ff) << 8);
 1234              		.loc 1 688 5 is_stmt 1 view .LVU369
 1235              		.loc 1 688 29 is_stmt 0 view .LVU370
 1236 0036 180A     		lsrs	r0, r3, #8
 1237              		.loc 1 688 45 view .LVU371
 1238 0038 1B02     		lsls	r3, r3, #8
 1239              	.LVL98:
 1240              		.loc 1 688 7 view .LVU372
 1241 003a 1843     		orrs	r0, r3
 1242 003c 80B2     		uxth	r0, r0
 1243              	.LVL99:
 689:Core/Src/GEVA.c **** 
 690:Core/Src/GEVA.c ****     return b;
 1244              		.loc 1 690 5 is_stmt 1 view .LVU373
 691:Core/Src/GEVA.c **** }
 1245              		.loc 1 691 1 is_stmt 0 view .LVU374
 1246              		@ sp needed
 1247 003e 7047     		bx	lr
ARM GAS  C:\Users\arist\AppData\Local\Temp\ccp82oC3.s 			page 39


 1248              	.L57:
 1249              		.align	2
 1250              	.L56:
 1251 0040 AAAAFFFF 		.word	-21846
 1252 0044 55550000 		.word	21845
 1253 0048 CCCCFFFF 		.word	-13108
 1254 004c 33330000 		.word	13107
 1255 0050 F0F0FFFF 		.word	-3856
 1256 0054 0F0F0000 		.word	3855
 1257              		.cfi_endproc
 1258              	.LFE19:
 1260              		.section	.text.rotate_char,"ax",%progbits
 1261              		.align	1
 1262              		.global	rotate_char
 1263              		.syntax unified
 1264              		.code	16
 1265              		.thumb_func
 1267              	rotate_char:
 1268              	.LVL100:
 1269              	.LFB18:
 631:Core/Src/GEVA.c ****     
 1270              		.loc 1 631 57 is_stmt 1 view -0
 1271              		.cfi_startproc
 1272              		@ args = 0, pretend = 0, frame = 0
 1273              		@ frame_needed = 0, uses_anonymous_args = 0
 631:Core/Src/GEVA.c ****     
 1274              		.loc 1 631 57 is_stmt 0 view .LVU376
 1275 0000 F0B5     		push	{r4, r5, r6, r7, lr}
 1276              		.cfi_def_cfa_offset 20
 1277              		.cfi_offset 4, -20
 1278              		.cfi_offset 5, -16
 1279              		.cfi_offset 6, -12
 1280              		.cfi_offset 7, -8
 1281              		.cfi_offset 14, -4
 1282 0002 C646     		mov	lr, r8
 1283 0004 00B5     		push	{lr}
 1284              		.cfi_def_cfa_offset 24
 1285              		.cfi_offset 8, -24
 1286 0006 0600     		movs	r6, r0
 1287 0008 0F00     		movs	r7, r1
 633:Core/Src/GEVA.c ****     
 1288              		.loc 1 633 5 is_stmt 1 view .LVU377
 633:Core/Src/GEVA.c ****     
 1289              		.loc 1 633 37 is_stmt 0 view .LVU378
 1290 000a 384B     		ldr	r3, .L75
 1291 000c 1C78     		ldrb	r4, [r3]
 1292 000e 2000     		movs	r0, r4
 1293              	.LVL101:
 633:Core/Src/GEVA.c ****     
 1294              		.loc 1 633 37 view .LVU379
 1295 0010 FFF7FEFF 		bl	malloc
 1296              	.LVL102:
 633:Core/Src/GEVA.c ****     
 1297              		.loc 1 633 37 view .LVU380
 1298 0014 0500     		movs	r5, r0
 1299              	.LVL103:
 635:Core/Src/GEVA.c ****             new_chr[i]=0;
ARM GAS  C:\Users\arist\AppData\Local\Temp\ccp82oC3.s 			page 40


 1300              		.loc 1 635 5 is_stmt 1 view .LVU381
 1301              	.LBB13:
 635:Core/Src/GEVA.c ****             new_chr[i]=0;
 1302              		.loc 1 635 10 view .LVU382
 635:Core/Src/GEVA.c ****             new_chr[i]=0;
 1303              		.loc 1 635 18 is_stmt 0 view .LVU383
 1304 0016 0023     		movs	r3, #0
 635:Core/Src/GEVA.c ****             new_chr[i]=0;
 1305              		.loc 1 635 5 view .LVU384
 1306 0018 05E0     		b	.L59
 1307              	.LVL104:
 1308              	.L60:
 636:Core/Src/GEVA.c ****             
 1309              		.loc 1 636 13 is_stmt 1 discriminator 3 view .LVU385
 636:Core/Src/GEVA.c ****             
 1310              		.loc 1 636 20 is_stmt 0 discriminator 3 view .LVU386
 1311 001a 5A00     		lsls	r2, r3, #1
 1312 001c AA18     		adds	r2, r5, r2
 636:Core/Src/GEVA.c ****             
 1313              		.loc 1 636 23 discriminator 3 view .LVU387
 1314 001e 0021     		movs	r1, #0
 1315 0020 1180     		strh	r1, [r2]
 635:Core/Src/GEVA.c ****             new_chr[i]=0;
 1316              		.loc 1 635 43 is_stmt 1 discriminator 3 view .LVU388
 1317 0022 0133     		adds	r3, r3, #1
 1318              	.LVL105:
 635:Core/Src/GEVA.c ****             new_chr[i]=0;
 1319              		.loc 1 635 43 is_stmt 0 discriminator 3 view .LVU389
 1320 0024 DBB2     		uxtb	r3, r3
 1321              	.LVL106:
 1322              	.L59:
 635:Core/Src/GEVA.c ****             new_chr[i]=0;
 1323              		.loc 1 635 27 is_stmt 1 discriminator 1 view .LVU390
 1324 0026 9C42     		cmp	r4, r3
 1325 0028 F7D8     		bhi	.L60
 1326              	.LBE13:
 638:Core/Src/GEVA.c ****     uint16_t bit = 0;
 1327              		.loc 1 638 5 view .LVU391
 1328              	.LVL107:
 639:Core/Src/GEVA.c ****     
 1329              		.loc 1 639 5 view .LVU392
 641:Core/Src/GEVA.c ****    
 1330              		.loc 1 641 5 view .LVU393
 641:Core/Src/GEVA.c ****    
 1331              		.loc 1 641 16 is_stmt 0 view .LVU394
 1332 002a 7B7B     		ldrb	r3, [r7, #13]
 1333              	.LVL108:
 641:Core/Src/GEVA.c ****    
 1334              		.loc 1 641 5 view .LVU395
 1335 002c 022B     		cmp	r3, #2
 1336 002e 3ED0     		beq	.L70
 1337 0030 032B     		cmp	r3, #3
 1338 0032 58D0     		beq	.L71
 1339 0034 012B     		cmp	r3, #1
 1340 0036 1AD0     		beq	.L72
 1341 0038 3500     		movs	r5, r6
 1342              	.LVL109:
ARM GAS  C:\Users\arist\AppData\Local\Temp\ccp82oC3.s 			page 41


 1343              	.L58:
 681:Core/Src/GEVA.c **** 
 1344              		.loc 1 681 1 view .LVU396
 1345 003a 2800     		movs	r0, r5
 1346              		@ sp needed
 1347              	.LVL110:
 681:Core/Src/GEVA.c **** 
 1348              		.loc 1 681 1 view .LVU397
 1349 003c 80BC     		pop	{r7}
 1350 003e B846     		mov	r8, r7
 1351 0040 F0BD     		pop	{r4, r5, r6, r7, pc}
 1352              	.LVL111:
 1353              	.L65:
 1354              	.LBB14:
 650:Core/Src/GEVA.c ****         }
 1355              		.loc 1 650 13 is_stmt 1 discriminator 3 view .LVU398
 650:Core/Src/GEVA.c ****         }
 1356              		.loc 1 650 55 is_stmt 0 discriminator 3 view .LVU399
 1357 0042 631E     		subs	r3, r4, #1
 650:Core/Src/GEVA.c ****         }
 1358              		.loc 1 650 59 discriminator 3 view .LVU400
 1359 0044 DB1B     		subs	r3, r3, r7
 650:Core/Src/GEVA.c ****         }
 1360              		.loc 1 650 42 discriminator 3 view .LVU401
 1361 0046 5B00     		lsls	r3, r3, #1
 1362 0048 985B     		ldrh	r0, [r3, r6]
 650:Core/Src/GEVA.c ****         }
 1363              		.loc 1 650 71 discriminator 3 view .LVU402
 1364 004a 294B     		ldr	r3, .L75+4
 1365 004c 1A78     		ldrb	r2, [r3]
 1366 004e 1023     		movs	r3, #16
 1367 0050 9B1A     		subs	r3, r3, r2
 650:Core/Src/GEVA.c ****         }
 1368              		.loc 1 650 64 discriminator 3 view .LVU403
 1369 0052 1841     		asrs	r0, r0, r3
 650:Core/Src/GEVA.c ****         }
 1370              		.loc 1 650 20 discriminator 3 view .LVU404
 1371 0054 7B00     		lsls	r3, r7, #1
 1372 0056 9846     		mov	r8, r3
 1373 0058 A844     		add	r8, r8, r5
 650:Core/Src/GEVA.c ****         }
 1374              		.loc 1 650 26 discriminator 3 view .LVU405
 1375 005a 80B2     		uxth	r0, r0
 1376 005c FFF7FEFF 		bl	reverse_byte
 1377              	.LVL112:
 650:Core/Src/GEVA.c ****         }
 1378              		.loc 1 650 24 discriminator 3 view .LVU406
 1379 0060 4346     		mov	r3, r8
 1380 0062 1880     		strh	r0, [r3]
 649:Core/Src/GEVA.c ****             new_chr[i] = reverse_byte(chr[font_height - 1 - i] >> (16 - font_width)) ;
 1381              		.loc 1 649 47 is_stmt 1 discriminator 3 view .LVU407
 1382 0064 0137     		adds	r7, r7, #1
 1383              	.LVL113:
 649:Core/Src/GEVA.c ****             new_chr[i] = reverse_byte(chr[font_height - 1 - i] >> (16 - font_width)) ;
 1384              		.loc 1 649 47 is_stmt 0 discriminator 3 view .LVU408
 1385 0066 FFB2     		uxtb	r7, r7
 1386              	.LVL114:
ARM GAS  C:\Users\arist\AppData\Local\Temp\ccp82oC3.s 			page 42


 1387              	.L63:
 649:Core/Src/GEVA.c ****             new_chr[i] = reverse_byte(chr[font_height - 1 - i] >> (16 - font_width)) ;
 1388              		.loc 1 649 31 is_stmt 1 discriminator 1 view .LVU409
 1389 0068 BC42     		cmp	r4, r7
 1390 006a EAD8     		bhi	.L65
 1391 006c E5E7     		b	.L58
 1392              	.LVL115:
 1393              	.L72:
 649:Core/Src/GEVA.c ****             new_chr[i] = reverse_byte(chr[font_height - 1 - i] >> (16 - font_width)) ;
 1394              		.loc 1 649 31 is_stmt 0 discriminator 1 view .LVU410
 1395              	.LBE14:
 641:Core/Src/GEVA.c ****    
 1396              		.loc 1 641 5 view .LVU411
 1397 006e 0027     		movs	r7, #0
 1398              	.LVL116:
 641:Core/Src/GEVA.c ****    
 1399              		.loc 1 641 5 view .LVU412
 1400 0070 FAE7     		b	.L63
 1401              	.LVL117:
 1402              	.L66:
 1403              	.LBB15:
 1404              	.LBB16:
 658:Core/Src/GEVA.c ****                 new_chr[font_height - 1  - j] |= bit >> (font_height - i);    
 1405              		.loc 1 658 17 is_stmt 1 discriminator 3 view .LVU413
 658:Core/Src/GEVA.c ****                 new_chr[font_height - 1  - j] |= bit >> (font_height - i);    
 1406              		.loc 1 658 40 is_stmt 0 discriminator 3 view .LVU414
 1407 0072 671E     		subs	r7, r4, #1
 658:Core/Src/GEVA.c ****                 new_chr[font_height - 1  - j] |= bit >> (font_height - i);    
 1408              		.loc 1 658 44 discriminator 3 view .LVU415
 1409 0074 3B1A     		subs	r3, r7, r0
 658:Core/Src/GEVA.c ****                 new_chr[font_height - 1  - j] |= bit >> (font_height - i);    
 1410              		.loc 1 658 27 discriminator 3 view .LVU416
 1411 0076 5B00     		lsls	r3, r3, #1
 1412 0078 995B     		ldrh	r1, [r3, r6]
 658:Core/Src/GEVA.c ****                 new_chr[font_height - 1  - j] |= bit >> (font_height - i);    
 1413              		.loc 1 658 59 discriminator 3 view .LVU417
 1414 007a 8023     		movs	r3, #128
 1415 007c 1B02     		lsls	r3, r3, #8
 1416 007e 1341     		asrs	r3, r3, r2
 658:Core/Src/GEVA.c ****                 new_chr[font_height - 1  - j] |= bit >> (font_height - i);    
 1417              		.loc 1 658 49 discriminator 3 view .LVU418
 1418 0080 0B40     		ands	r3, r1
 658:Core/Src/GEVA.c ****                 new_chr[font_height - 1  - j] |= bit >> (font_height - i);    
 1419              		.loc 1 658 66 discriminator 3 view .LVU419
 1420 0082 9340     		lsls	r3, r3, r2
 1421              	.LVL118:
 659:Core/Src/GEVA.c ****                 bit = 0;
 1422              		.loc 1 659 17 is_stmt 1 discriminator 3 view .LVU420
 659:Core/Src/GEVA.c ****                 bit = 0;
 1423              		.loc 1 659 24 is_stmt 0 discriminator 3 view .LVU421
 1424 0084 BF1A     		subs	r7, r7, r2
 1425 0086 7F00     		lsls	r7, r7, #1
 1426 0088 E95B     		ldrh	r1, [r5, r7]
 1427 008a 8C46     		mov	ip, r1
 659:Core/Src/GEVA.c ****                 bit = 0;
 1428              		.loc 1 659 70 discriminator 3 view .LVU422
 1429 008c 211A     		subs	r1, r4, r0
ARM GAS  C:\Users\arist\AppData\Local\Temp\ccp82oC3.s 			page 43


 659:Core/Src/GEVA.c ****                 bit = 0;
 1430              		.loc 1 659 54 discriminator 3 view .LVU423
 1431 008e 1B04     		lsls	r3, r3, #16
 1432              	.LVL119:
 659:Core/Src/GEVA.c ****                 bit = 0;
 1433              		.loc 1 659 54 discriminator 3 view .LVU424
 1434 0090 1B0C     		lsrs	r3, r3, #16
 1435 0092 0B41     		asrs	r3, r3, r1
 659:Core/Src/GEVA.c ****                 bit = 0;
 1436              		.loc 1 659 47 discriminator 3 view .LVU425
 1437 0094 6146     		mov	r1, ip
 1438 0096 0B43     		orrs	r3, r1
 1439 0098 EB53     		strh	r3, [r5, r7]
 1440              	.LVL120:
 660:Core/Src/GEVA.c ****             }
 1441              		.loc 1 660 17 is_stmt 1 discriminator 3 view .LVU426
 657:Core/Src/GEVA.c ****                 bit = (chr[font_height - 1 - i] & (0x8000 >> j)) << j;
 1442              		.loc 1 657 51 discriminator 3 view .LVU427
 1443 009a 0132     		adds	r2, r2, #1
 1444              	.LVL121:
 657:Core/Src/GEVA.c ****                 bit = (chr[font_height - 1 - i] & (0x8000 >> j)) << j;
 1445              		.loc 1 657 51 is_stmt 0 discriminator 3 view .LVU428
 1446 009c D2B2     		uxtb	r2, r2
 1447              	.LVL122:
 1448              	.L67:
 657:Core/Src/GEVA.c ****                 bit = (chr[font_height - 1 - i] & (0x8000 >> j)) << j;
 1449              		.loc 1 657 35 is_stmt 1 discriminator 1 view .LVU429
 1450 009e 9442     		cmp	r4, r2
 1451 00a0 E7D8     		bhi	.L66
 1452              	.LBE16:
 656:Core/Src/GEVA.c ****             for (uint8_t j = 0; j < font_height; j++) {
 1453              		.loc 1 656 47 discriminator 2 view .LVU430
 1454 00a2 0130     		adds	r0, r0, #1
 1455              	.LVL123:
 656:Core/Src/GEVA.c ****             for (uint8_t j = 0; j < font_height; j++) {
 1456              		.loc 1 656 47 is_stmt 0 discriminator 2 view .LVU431
 1457 00a4 C0B2     		uxtb	r0, r0
 1458              	.LVL124:
 1459              	.L61:
 656:Core/Src/GEVA.c ****             for (uint8_t j = 0; j < font_height; j++) {
 1460              		.loc 1 656 31 is_stmt 1 discriminator 1 view .LVU432
 1461 00a6 8442     		cmp	r4, r0
 1462 00a8 C7D9     		bls	.L58
 1463              	.LBB17:
 657:Core/Src/GEVA.c ****                 bit = (chr[font_height - 1 - i] & (0x8000 >> j)) << j;
 1464              		.loc 1 657 26 is_stmt 0 view .LVU433
 1465 00aa 0022     		movs	r2, #0
 1466 00ac F7E7     		b	.L67
 1467              	.LVL125:
 1468              	.L70:
 657:Core/Src/GEVA.c ****                 bit = (chr[font_height - 1 - i] & (0x8000 >> j)) << j;
 1469              		.loc 1 657 26 view .LVU434
 1470              	.LBE17:
 1471              	.LBE15:
 641:Core/Src/GEVA.c ****    
 1472              		.loc 1 641 5 view .LVU435
 1473 00ae 0020     		movs	r0, #0
ARM GAS  C:\Users\arist\AppData\Local\Temp\ccp82oC3.s 			page 44


 1474              	.LVL126:
 641:Core/Src/GEVA.c ****    
 1475              		.loc 1 641 5 view .LVU436
 1476 00b0 F9E7     		b	.L61
 1477              	.LVL127:
 1478              	.L68:
 1479              	.LBB18:
 1480              	.LBB19:
 669:Core/Src/GEVA.c ****                 new_chr[j] |= (bit >> i);
 1481              		.loc 1 669 17 is_stmt 1 discriminator 3 view .LVU437
 669:Core/Src/GEVA.c ****                 new_chr[j] |= (bit >> i);
 1482              		.loc 1 669 40 is_stmt 0 discriminator 3 view .LVU438
 1483 00b2 631E     		subs	r3, r4, #1
 669:Core/Src/GEVA.c ****                 new_chr[j] |= (bit >> i);
 1484              		.loc 1 669 44 discriminator 3 view .LVU439
 1485 00b4 5B1A     		subs	r3, r3, r1
 669:Core/Src/GEVA.c ****                 new_chr[j] |= (bit >> i);
 1486              		.loc 1 669 27 discriminator 3 view .LVU440
 1487 00b6 5B00     		lsls	r3, r3, #1
 1488 00b8 985B     		ldrh	r0, [r3, r6]
 669:Core/Src/GEVA.c ****                 new_chr[j] |= (bit >> i);
 1489              		.loc 1 669 59 discriminator 3 view .LVU441
 1490 00ba 8023     		movs	r3, #128
 1491 00bc 1B02     		lsls	r3, r3, #8
 1492 00be 1341     		asrs	r3, r3, r2
 669:Core/Src/GEVA.c ****                 new_chr[j] |= (bit >> i);
 1493              		.loc 1 669 49 discriminator 3 view .LVU442
 1494 00c0 0340     		ands	r3, r0
 669:Core/Src/GEVA.c ****                 new_chr[j] |= (bit >> i);
 1495              		.loc 1 669 66 discriminator 3 view .LVU443
 1496 00c2 9340     		lsls	r3, r3, r2
 1497              	.LVL128:
 670:Core/Src/GEVA.c ****                 bit = 0;
 1498              		.loc 1 670 17 is_stmt 1 discriminator 3 view .LVU444
 670:Core/Src/GEVA.c ****                 bit = 0;
 1499              		.loc 1 670 24 is_stmt 0 discriminator 3 view .LVU445
 1500 00c4 5700     		lsls	r7, r2, #1
 1501 00c6 E85B     		ldrh	r0, [r5, r7]
 670:Core/Src/GEVA.c ****                 bit = 0;
 1502              		.loc 1 670 36 discriminator 3 view .LVU446
 1503 00c8 1B04     		lsls	r3, r3, #16
 1504              	.LVL129:
 670:Core/Src/GEVA.c ****                 bit = 0;
 1505              		.loc 1 670 36 discriminator 3 view .LVU447
 1506 00ca 1B0C     		lsrs	r3, r3, #16
 1507 00cc 0B41     		asrs	r3, r3, r1
 670:Core/Src/GEVA.c ****                 bit = 0;
 1508              		.loc 1 670 28 discriminator 3 view .LVU448
 1509 00ce 0343     		orrs	r3, r0
 1510 00d0 EB53     		strh	r3, [r5, r7]
 1511              	.LVL130:
 671:Core/Src/GEVA.c ****             }
 1512              		.loc 1 671 17 is_stmt 1 discriminator 3 view .LVU449
 668:Core/Src/GEVA.c ****                 bit = (chr[font_height - 1 - i] & (0x8000 >> j)) << j;
 1513              		.loc 1 668 51 discriminator 3 view .LVU450
 1514 00d2 0132     		adds	r2, r2, #1
 1515              	.LVL131:
ARM GAS  C:\Users\arist\AppData\Local\Temp\ccp82oC3.s 			page 45


 668:Core/Src/GEVA.c ****                 bit = (chr[font_height - 1 - i] & (0x8000 >> j)) << j;
 1516              		.loc 1 668 51 is_stmt 0 discriminator 3 view .LVU451
 1517 00d4 D2B2     		uxtb	r2, r2
 1518              	.LVL132:
 1519              	.L69:
 668:Core/Src/GEVA.c ****                 bit = (chr[font_height - 1 - i] & (0x8000 >> j)) << j;
 1520              		.loc 1 668 35 is_stmt 1 discriminator 1 view .LVU452
 1521 00d6 9442     		cmp	r4, r2
 1522 00d8 EBD8     		bhi	.L68
 1523              	.LBE19:
 667:Core/Src/GEVA.c ****             for (uint8_t j = 0; j < font_height; j++) {
 1524              		.loc 1 667 47 discriminator 2 view .LVU453
 1525 00da 0131     		adds	r1, r1, #1
 1526              	.LVL133:
 667:Core/Src/GEVA.c ****             for (uint8_t j = 0; j < font_height; j++) {
 1527              		.loc 1 667 47 is_stmt 0 discriminator 2 view .LVU454
 1528 00dc C9B2     		uxtb	r1, r1
 1529              	.LVL134:
 1530              	.L62:
 667:Core/Src/GEVA.c ****             for (uint8_t j = 0; j < font_height; j++) {
 1531              		.loc 1 667 31 is_stmt 1 discriminator 1 view .LVU455
 1532 00de 8C42     		cmp	r4, r1
 1533 00e0 ABD9     		bls	.L58
 1534              	.LBB20:
 668:Core/Src/GEVA.c ****                 bit = (chr[font_height - 1 - i] & (0x8000 >> j)) << j;
 1535              		.loc 1 668 26 is_stmt 0 view .LVU456
 1536 00e2 0022     		movs	r2, #0
 1537 00e4 F7E7     		b	.L69
 1538              	.LVL135:
 1539              	.L71:
 668:Core/Src/GEVA.c ****                 bit = (chr[font_height - 1 - i] & (0x8000 >> j)) << j;
 1540              		.loc 1 668 26 view .LVU457
 1541              	.LBE20:
 1542              	.LBE18:
 641:Core/Src/GEVA.c ****    
 1543              		.loc 1 641 5 view .LVU458
 1544 00e6 0021     		movs	r1, #0
 1545 00e8 F9E7     		b	.L62
 1546              	.L76:
 1547 00ea C046     		.align	2
 1548              	.L75:
 1549 00ec 00000000 		.word	font_height
 1550 00f0 00000000 		.word	font_width
 1551              		.cfi_endproc
 1552              	.LFE18:
 1554              		.section	.text.put_char,"ax",%progbits
 1555              		.align	1
 1556              		.global	put_char
 1557              		.syntax unified
 1558              		.code	16
 1559              		.thumb_func
 1561              	put_char:
 1562              	.LVL136:
 1563              	.LFB7:
 351:Core/Src/GEVA.c ****     
 1564              		.loc 1 351 100 is_stmt 1 view -0
 1565              		.cfi_startproc
ARM GAS  C:\Users\arist\AppData\Local\Temp\ccp82oC3.s 			page 46


 1566              		@ args = 4, pretend = 0, frame = 0
 1567              		@ frame_needed = 0, uses_anonymous_args = 0
 351:Core/Src/GEVA.c ****     
 1568              		.loc 1 351 100 is_stmt 0 view .LVU460
 1569 0000 F0B5     		push	{r4, r5, r6, r7, lr}
 1570              		.cfi_def_cfa_offset 20
 1571              		.cfi_offset 4, -20
 1572              		.cfi_offset 5, -16
 1573              		.cfi_offset 6, -12
 1574              		.cfi_offset 7, -8
 1575              		.cfi_offset 14, -4
 1576 0002 D646     		mov	lr, r10
 1577 0004 4F46     		mov	r7, r9
 1578 0006 4646     		mov	r6, r8
 1579 0008 C0B5     		push	{r6, r7, lr}
 1580              		.cfi_def_cfa_offset 32
 1581              		.cfi_offset 8, -32
 1582              		.cfi_offset 9, -28
 1583              		.cfi_offset 10, -24
 1584 000a 089C     		ldr	r4, [sp, #32]
 353:Core/Src/GEVA.c ****     uint8_t* n_pos; 
 1585              		.loc 1 353 5 is_stmt 1 view .LVU461
 1586              	.LVL137:
 354:Core/Src/GEVA.c ****     uint16_t* c;
 1587              		.loc 1 354 5 view .LVU462
 355:Core/Src/GEVA.c **** 
 1588              		.loc 1 355 5 view .LVU463
 357:Core/Src/GEVA.c ****         case SMALL:
 1589              		.loc 1 357 5 view .LVU464
 1590 000c 012B     		cmp	r3, #1
 1591 000e 30D0     		beq	.L78
 1592 0010 022B     		cmp	r3, #2
 1593 0012 18D0     		beq	.L79
 1594 0014 002B     		cmp	r3, #0
 1595 0016 0BD0     		beq	.L89
 373:Core/Src/GEVA.c ****             font_width = C_WIDTH_S;
 1596              		.loc 1 373 13 view .LVU465
 373:Core/Src/GEVA.c ****             font_width = C_WIDTH_S;
 1597              		.loc 1 373 25 is_stmt 0 view .LVU466
 1598 0018 494B     		ldr	r3, .L92
 1599              	.LVL138:
 373:Core/Src/GEVA.c ****             font_width = C_WIDTH_S;
 1600              		.loc 1 373 25 view .LVU467
 1601 001a 0721     		movs	r1, #7
 1602              	.LVL139:
 373:Core/Src/GEVA.c ****             font_width = C_WIDTH_S;
 1603              		.loc 1 373 25 view .LVU468
 1604 001c 1970     		strb	r1, [r3]
 374:Core/Src/GEVA.c ****             c = font_s[chr];
 1605              		.loc 1 374 13 is_stmt 1 view .LVU469
 374:Core/Src/GEVA.c ****             c = font_s[chr];
 1606              		.loc 1 374 24 is_stmt 0 view .LVU470
 1607 001e 494B     		ldr	r3, .L92+4
 1608 0020 0239     		subs	r1, r1, #2
 1609 0022 1970     		strb	r1, [r3]
 375:Core/Src/GEVA.c ****         break;
 1610              		.loc 1 375 13 is_stmt 1 view .LVU471
ARM GAS  C:\Users\arist\AppData\Local\Temp\ccp82oC3.s 			page 47


 375:Core/Src/GEVA.c ****         break;
 1611              		.loc 1 375 15 is_stmt 0 view .LVU472
 1612 0024 D000     		lsls	r0, r2, #3
 1613              	.LVL140:
 375:Core/Src/GEVA.c ****         break;
 1614              		.loc 1 375 15 view .LVU473
 1615 0026 801A     		subs	r0, r0, r2
 1616 0028 4000     		lsls	r0, r0, #1
 1617 002a 474B     		ldr	r3, .L92+8
 1618 002c C018     		adds	r0, r0, r3
 1619              	.LVL141:
 376:Core/Src/GEVA.c ****     }
 1620              		.loc 1 376 9 is_stmt 1 view .LVU474
 1621 002e 0AE0     		b	.L79
 1622              	.LVL142:
 1623              	.L89:
 359:Core/Src/GEVA.c ****             font_width = C_WIDTH_S;
 1624              		.loc 1 359 13 view .LVU475
 359:Core/Src/GEVA.c ****             font_width = C_WIDTH_S;
 1625              		.loc 1 359 25 is_stmt 0 view .LVU476
 1626 0030 434B     		ldr	r3, .L92
 1627              	.LVL143:
 359:Core/Src/GEVA.c ****             font_width = C_WIDTH_S;
 1628              		.loc 1 359 25 view .LVU477
 1629 0032 0721     		movs	r1, #7
 1630              	.LVL144:
 359:Core/Src/GEVA.c ****             font_width = C_WIDTH_S;
 1631              		.loc 1 359 25 view .LVU478
 1632 0034 1970     		strb	r1, [r3]
 360:Core/Src/GEVA.c ****             c = font_s[chr];
 1633              		.loc 1 360 13 is_stmt 1 view .LVU479
 360:Core/Src/GEVA.c ****             c = font_s[chr];
 1634              		.loc 1 360 24 is_stmt 0 view .LVU480
 1635 0036 434B     		ldr	r3, .L92+4
 1636 0038 0239     		subs	r1, r1, #2
 1637 003a 1970     		strb	r1, [r3]
 361:Core/Src/GEVA.c ****         break;
 1638              		.loc 1 361 13 is_stmt 1 view .LVU481
 361:Core/Src/GEVA.c ****         break;
 1639              		.loc 1 361 15 is_stmt 0 view .LVU482
 1640 003c D000     		lsls	r0, r2, #3
 1641              	.LVL145:
 361:Core/Src/GEVA.c ****         break;
 1642              		.loc 1 361 15 view .LVU483
 1643 003e 801A     		subs	r0, r0, r2
 1644 0040 4000     		lsls	r0, r0, #1
 1645 0042 414B     		ldr	r3, .L92+8
 1646 0044 C018     		adds	r0, r0, r3
 1647              	.LVL146:
 362:Core/Src/GEVA.c ****         case MEDIUM:
 1648              		.loc 1 362 9 is_stmt 1 view .LVU484
 1649              	.L79:
 401:Core/Src/GEVA.c ****         error = 4;
 1650              		.loc 1 401 5 view .LVU485
 401:Core/Src/GEVA.c ****         error = 4;
 1651              		.loc 1 401 14 is_stmt 0 view .LVU486
 1652 0046 0023     		movs	r3, #0
ARM GAS  C:\Users\arist\AppData\Local\Temp\ccp82oC3.s 			page 48


 1653 0048 1978     		ldrb	r1, [r3]
 401:Core/Src/GEVA.c ****         error = 4;
 1654              		.loc 1 401 24 view .LVU487
 1655 004a 2278     		ldrb	r2, [r4]
 1656              	.LVL147:
 401:Core/Src/GEVA.c ****         error = 4;
 1657              		.loc 1 401 8 view .LVU488
 1658 004c 9142     		cmp	r1, r2
 1659 004e 6DD2     		bcs	.L85
 401:Core/Src/GEVA.c ****         error = 4;
 1660              		.loc 1 401 57 discriminator 1 view .LVU489
 1661 0050 5D78     		ldrb	r5, [r3, #1]
 401:Core/Src/GEVA.c ****         error = 4;
 1662              		.loc 1 401 67 discriminator 1 view .LVU490
 1663 0052 6378     		ldrb	r3, [r4, #1]
 401:Core/Src/GEVA.c ****         error = 4;
 1664              		.loc 1 401 76 discriminator 1 view .LVU491
 1665 0054 9D42     		cmp	r5, r3
 1666 0056 00D3     		bcc	.LCB1521
 1667 0058 6EE0     		b	.L86	@long jump
 1668              	.LCB1521:
 403:Core/Src/GEVA.c ****         error = 2;
 1669              		.loc 1 403 10 is_stmt 1 view .LVU492
 403:Core/Src/GEVA.c ****         error = 2;
 1670              		.loc 1 403 23 is_stmt 0 view .LVU493
 1671 005a 394E     		ldr	r6, .L92
 1672 005c 3678     		ldrb	r6, [r6]
 1673 005e 7519     		adds	r5, r6, r5
 403:Core/Src/GEVA.c ****         error = 2;
 1674              		.loc 1 403 13 view .LVU494
 1675 0060 9D42     		cmp	r5, r3
 1676 0062 6BDC     		bgt	.L87
 403:Core/Src/GEVA.c ****         error = 2;
 1677              		.loc 1 403 63 discriminator 1 view .LVU495
 1678 0064 374B     		ldr	r3, .L92+4
 1679 0066 1B78     		ldrb	r3, [r3]
 1680 0068 5B18     		adds	r3, r3, r1
 403:Core/Src/GEVA.c ****         error = 2;
 1681              		.loc 1 403 51 discriminator 1 view .LVU496
 1682 006a 9342     		cmp	r3, r2
 1683 006c 0DDD     		ble	.L90
 404:Core/Src/GEVA.c ****     else {
 1684              		.loc 1 404 15 view .LVU497
 1685 006e 0220     		movs	r0, #2
 1686              	.LVL148:
 404:Core/Src/GEVA.c ****     else {
 1687              		.loc 1 404 15 view .LVU498
 1688 0070 5DE0     		b	.L81
 1689              	.LVL149:
 1690              	.L78:
 364:Core/Src/GEVA.c ****             font_width = C_WIDTH_M;
 1691              		.loc 1 364 13 is_stmt 1 view .LVU499
 364:Core/Src/GEVA.c ****             font_width = C_WIDTH_M;
 1692              		.loc 1 364 25 is_stmt 0 view .LVU500
 1693 0072 334B     		ldr	r3, .L92
 1694              	.LVL150:
 364:Core/Src/GEVA.c ****             font_width = C_WIDTH_M;
ARM GAS  C:\Users\arist\AppData\Local\Temp\ccp82oC3.s 			page 49


 1695              		.loc 1 364 25 view .LVU501
 1696 0074 0E21     		movs	r1, #14
 1697              	.LVL151:
 364:Core/Src/GEVA.c ****             font_width = C_WIDTH_M;
 1698              		.loc 1 364 25 view .LVU502
 1699 0076 1970     		strb	r1, [r3]
 365:Core/Src/GEVA.c ****             c = font_m[chr];
 1700              		.loc 1 365 13 is_stmt 1 view .LVU503
 365:Core/Src/GEVA.c ****             c = font_m[chr];
 1701              		.loc 1 365 24 is_stmt 0 view .LVU504
 1702 0078 324B     		ldr	r3, .L92+4
 1703 007a 0439     		subs	r1, r1, #4
 1704 007c 1970     		strb	r1, [r3]
 366:Core/Src/GEVA.c ****         break; 
 1705              		.loc 1 366 13 is_stmt 1 view .LVU505
 366:Core/Src/GEVA.c ****         break; 
 1706              		.loc 1 366 15 is_stmt 0 view .LVU506
 1707 007e D000     		lsls	r0, r2, #3
 1708              	.LVL152:
 366:Core/Src/GEVA.c ****         break; 
 1709              		.loc 1 366 15 view .LVU507
 1710 0080 801A     		subs	r0, r0, r2
 1711 0082 8000     		lsls	r0, r0, #2
 1712 0084 314B     		ldr	r3, .L92+12
 1713 0086 C018     		adds	r0, r0, r3
 1714              	.LVL153:
 367:Core/Src/GEVA.c ****         
 1715              		.loc 1 367 9 is_stmt 1 view .LVU508
 1716 0088 DDE7     		b	.L79
 1717              	.LVL154:
 1718              	.L90:
 1719              	.LBB21:
 406:Core/Src/GEVA.c ****             
 1720              		.loc 1 406 9 view .LVU509
 406:Core/Src/GEVA.c ****             
 1721              		.loc 1 406 13 is_stmt 0 view .LVU510
 1722 008a 2100     		movs	r1, r4
 1723 008c FFF7FEFF 		bl	rotate_char
 1724              	.LVL155:
 406:Core/Src/GEVA.c ****             
 1725              		.loc 1 406 13 view .LVU511
 1726 0090 8246     		mov	r10, r0
 1727              	.LVL156:
 408:Core/Src/GEVA.c ****         uint16_t buffer_byte_ptr = start_byte_ptr;
 1728              		.loc 1 408 9 is_stmt 1 view .LVU512
 408:Core/Src/GEVA.c ****         uint16_t buffer_byte_ptr = start_byte_ptr;
 1729              		.loc 1 408 35 is_stmt 0 view .LVU513
 1730 0092 0023     		movs	r3, #0
 1731 0094 1F78     		ldrb	r7, [r3]
 408:Core/Src/GEVA.c ****         uint16_t buffer_byte_ptr = start_byte_ptr;
 1732              		.loc 1 408 65 view .LVU514
 1733 0096 6178     		ldrb	r1, [r4, #1]
 408:Core/Src/GEVA.c ****         uint16_t buffer_byte_ptr = start_byte_ptr;
 1734              		.loc 1 408 85 view .LVU515
 1735 0098 5B78     		ldrb	r3, [r3, #1]
 408:Core/Src/GEVA.c ****         uint16_t buffer_byte_ptr = start_byte_ptr;
 1736              		.loc 1 408 78 view .LVU516
ARM GAS  C:\Users\arist\AppData\Local\Temp\ccp82oC3.s 			page 50


 1737 009a C91A     		subs	r1, r1, r3
 1738 009c C9B2     		uxtb	r1, r1
 408:Core/Src/GEVA.c ****         uint16_t buffer_byte_ptr = start_byte_ptr;
 1739              		.loc 1 408 35 view .LVU517
 1740 009e 227A     		ldrb	r2, [r4, #8]
 1741 00a0 0139     		subs	r1, r1, #1
 1742 00a2 C9B2     		uxtb	r1, r1
 1743 00a4 3800     		movs	r0, r7
 1744              	.LVL157:
 408:Core/Src/GEVA.c ****         uint16_t buffer_byte_ptr = start_byte_ptr;
 1745              		.loc 1 408 35 view .LVU518
 1746 00a6 FFF7FEFF 		bl	get_buffer_index
 1747              	.LVL158:
 1748 00aa 8146     		mov	r9, r0
 1749              	.LVL159:
 409:Core/Src/GEVA.c ****         uint16_t temp = 0;
 1750              		.loc 1 409 9 is_stmt 1 view .LVU519
 410:Core/Src/GEVA.c ****         uint8_t shifter_a = n_pos[X] % 8;
 1751              		.loc 1 410 9 view .LVU520
 411:Core/Src/GEVA.c ****     
 1752              		.loc 1 411 9 view .LVU521
 411:Core/Src/GEVA.c ****     
 1753              		.loc 1 411 17 is_stmt 0 view .LVU522
 1754 00ac 0726     		movs	r6, #7
 1755 00ae 3E40     		ands	r6, r7
 1756              	.LVL160:
 413:Core/Src/GEVA.c ****             buffer_byte_ptr = start_byte_ptr - (buf->byte_col_cnt * i);
 1757              		.loc 1 413 9 is_stmt 1 view .LVU523
 1758              	.LBB22:
 413:Core/Src/GEVA.c ****             buffer_byte_ptr = start_byte_ptr - (buf->byte_col_cnt * i);
 1759              		.loc 1 413 14 view .LVU524
 413:Core/Src/GEVA.c ****             buffer_byte_ptr = start_byte_ptr - (buf->byte_col_cnt * i);
 1760              		.loc 1 413 22 is_stmt 0 view .LVU525
 1761 00b0 0021     		movs	r1, #0
 413:Core/Src/GEVA.c ****             buffer_byte_ptr = start_byte_ptr - (buf->byte_col_cnt * i);
 1762              		.loc 1 413 9 view .LVU526
 1763 00b2 01E0     		b	.L82
 1764              	.LVL161:
 1765              	.L83:
 413:Core/Src/GEVA.c ****             buffer_byte_ptr = start_byte_ptr - (buf->byte_col_cnt * i);
 1766              		.loc 1 413 47 is_stmt 1 discriminator 2 view .LVU527
 1767 00b4 0131     		adds	r1, r1, #1
 1768              	.LVL162:
 413:Core/Src/GEVA.c ****             buffer_byte_ptr = start_byte_ptr - (buf->byte_col_cnt * i);
 1769              		.loc 1 413 47 is_stmt 0 discriminator 2 view .LVU528
 1770 00b6 C9B2     		uxtb	r1, r1
 1771              	.LVL163:
 1772              	.L82:
 413:Core/Src/GEVA.c ****             buffer_byte_ptr = start_byte_ptr - (buf->byte_col_cnt * i);
 1773              		.loc 1 413 31 is_stmt 1 discriminator 1 view .LVU529
 1774 00b8 214B     		ldr	r3, .L92
 1775 00ba 1A78     		ldrb	r2, [r3]
 1776 00bc 8A42     		cmp	r2, r1
 1777 00be 33D9     		bls	.L91
 414:Core/Src/GEVA.c ****             temp = c[font_height - 1 - i] >> shifter_a;
 1778              		.loc 1 414 13 view .LVU530
 414:Core/Src/GEVA.c ****             temp = c[font_height - 1 - i] >> shifter_a;
ARM GAS  C:\Users\arist\AppData\Local\Temp\ccp82oC3.s 			page 51


 1779              		.loc 1 414 52 is_stmt 0 view .LVU531
 1780 00c0 237A     		ldrb	r3, [r4, #8]
 414:Core/Src/GEVA.c ****             temp = c[font_height - 1 - i] >> shifter_a;
 1781              		.loc 1 414 67 view .LVU532
 1782 00c2 4B43     		muls	r3, r1
 414:Core/Src/GEVA.c ****             temp = c[font_height - 1 - i] >> shifter_a;
 1783              		.loc 1 414 29 view .LVU533
 1784 00c4 4846     		mov	r0, r9
 1785 00c6 C31A     		subs	r3, r0, r3
 1786 00c8 9BB2     		uxth	r3, r3
 1787              	.LVL164:
 415:Core/Src/GEVA.c ****             buf->vid_buf[buffer_byte_ptr] |= (uint8_t)(temp >> 8);
 1788              		.loc 1 415 13 is_stmt 1 view .LVU534
 415:Core/Src/GEVA.c ****             buf->vid_buf[buffer_byte_ptr] |= (uint8_t)(temp >> 8);
 1789              		.loc 1 415 34 is_stmt 0 view .LVU535
 1790 00ca 013A     		subs	r2, r2, #1
 415:Core/Src/GEVA.c ****             buf->vid_buf[buffer_byte_ptr] |= (uint8_t)(temp >> 8);
 1791              		.loc 1 415 38 view .LVU536
 1792 00cc 521A     		subs	r2, r2, r1
 415:Core/Src/GEVA.c ****             buf->vid_buf[buffer_byte_ptr] |= (uint8_t)(temp >> 8);
 1793              		.loc 1 415 21 view .LVU537
 1794 00ce 5200     		lsls	r2, r2, #1
 1795 00d0 5046     		mov	r0, r10
 1796 00d2 125A     		ldrh	r2, [r2, r0]
 415:Core/Src/GEVA.c ****             buf->vid_buf[buffer_byte_ptr] |= (uint8_t)(temp >> 8);
 1797              		.loc 1 415 43 view .LVU538
 1798 00d4 3241     		asrs	r2, r2, r6
 415:Core/Src/GEVA.c ****             buf->vid_buf[buffer_byte_ptr] |= (uint8_t)(temp >> 8);
 1799              		.loc 1 415 18 view .LVU539
 1800 00d6 90B2     		uxth	r0, r2
 1801 00d8 8446     		mov	ip, r0
 1802              	.LVL165:
 416:Core/Src/GEVA.c ****             buf->vid_buf[buffer_byte_ptr + 1] |= (uint8_t)temp; 
 1803              		.loc 1 416 13 is_stmt 1 view .LVU540
 416:Core/Src/GEVA.c ****             buf->vid_buf[buffer_byte_ptr + 1] |= (uint8_t)temp; 
 1804              		.loc 1 416 16 is_stmt 0 view .LVU541
 1805 00da 6068     		ldr	r0, [r4, #4]
 416:Core/Src/GEVA.c ****             buf->vid_buf[buffer_byte_ptr + 1] |= (uint8_t)temp; 
 1806              		.loc 1 416 25 view .LVU542
 1807 00dc C75C     		ldrb	r7, [r0, r3]
 416:Core/Src/GEVA.c ****             buf->vid_buf[buffer_byte_ptr + 1] |= (uint8_t)temp; 
 1808              		.loc 1 416 46 view .LVU543
 1809 00de 6546     		mov	r5, ip
 1810 00e0 2D0A     		lsrs	r5, r5, #8
 416:Core/Src/GEVA.c ****             buf->vid_buf[buffer_byte_ptr + 1] |= (uint8_t)temp; 
 1811              		.loc 1 416 43 view .LVU544
 1812 00e2 2F43     		orrs	r7, r5
 1813 00e4 C754     		strb	r7, [r0, r3]
 417:Core/Src/GEVA.c ****             
 1814              		.loc 1 417 13 is_stmt 1 view .LVU545
 417:Core/Src/GEVA.c ****             
 1815              		.loc 1 417 16 is_stmt 0 view .LVU546
 1816 00e6 6068     		ldr	r0, [r4, #4]
 1817 00e8 8046     		mov	r8, r0
 417:Core/Src/GEVA.c ****             
 1818              		.loc 1 417 25 view .LVU547
 1819 00ea 581C     		adds	r0, r3, #1
ARM GAS  C:\Users\arist\AppData\Local\Temp\ccp82oC3.s 			page 52


 1820 00ec 4546     		mov	r5, r8
 1821 00ee 2F5C     		ldrb	r7, [r5, r0]
 417:Core/Src/GEVA.c ****             
 1822              		.loc 1 417 50 view .LVU548
 1823 00f0 D2B2     		uxtb	r2, r2
 417:Core/Src/GEVA.c ****             
 1824              		.loc 1 417 47 view .LVU549
 1825 00f2 3A43     		orrs	r2, r7
 1826 00f4 2A54     		strb	r2, [r5, r0]
 419:Core/Src/GEVA.c ****                     temp = c[font_height - i - 1];
 1827              		.loc 1 419 13 is_stmt 1 view .LVU550
 419:Core/Src/GEVA.c ****                     temp = c[font_height - i - 1];
 1828              		.loc 1 419 16 is_stmt 0 view .LVU551
 1829 00f6 002E     		cmp	r6, #0
 1830 00f8 DCD0     		beq	.L83
 420:Core/Src/GEVA.c ****                     buf->vid_buf[buffer_byte_ptr + 2] |= (uint8_t)temp << (8 - shifter_a);
 1831              		.loc 1 420 21 is_stmt 1 view .LVU552
 420:Core/Src/GEVA.c ****                     buf->vid_buf[buffer_byte_ptr + 2] |= (uint8_t)temp << (8 - shifter_a);
 1832              		.loc 1 420 42 is_stmt 0 view .LVU553
 1833 00fa 114A     		ldr	r2, .L92
 1834 00fc 1278     		ldrb	r2, [r2]
 1835 00fe 521A     		subs	r2, r2, r1
 420:Core/Src/GEVA.c ****                     buf->vid_buf[buffer_byte_ptr + 2] |= (uint8_t)temp << (8 - shifter_a);
 1836              		.loc 1 420 29 view .LVU554
 1837 0100 1348     		ldr	r0, .L92+16
 1838 0102 8446     		mov	ip, r0
 1839              	.LVL166:
 420:Core/Src/GEVA.c ****                     buf->vid_buf[buffer_byte_ptr + 2] |= (uint8_t)temp << (8 - shifter_a);
 1840              		.loc 1 420 29 view .LVU555
 1841 0104 6244     		add	r2, r2, ip
 1842 0106 5200     		lsls	r2, r2, #1
 1843              	.LVL167:
 421:Core/Src/GEVA.c ****                 }
 1844              		.loc 1 421 21 is_stmt 1 view .LVU556
 421:Core/Src/GEVA.c ****                 }
 1845              		.loc 1 421 24 is_stmt 0 view .LVU557
 1846 0108 6068     		ldr	r0, [r4, #4]
 1847 010a 8446     		mov	ip, r0
 421:Core/Src/GEVA.c ****                 }
 1848              		.loc 1 421 33 view .LVU558
 1849 010c 0233     		adds	r3, r3, #2
 1850              	.LVL168:
 421:Core/Src/GEVA.c ****                 }
 1851              		.loc 1 421 33 view .LVU559
 1852 010e 9846     		mov	r8, r3
 1853 0110 0300     		movs	r3, r0
 1854              	.LVL169:
 421:Core/Src/GEVA.c ****                 }
 1855              		.loc 1 421 33 view .LVU560
 1856 0112 4046     		mov	r0, r8
 1857 0114 1F5C     		ldrb	r7, [r3, r0]
 421:Core/Src/GEVA.c ****                 }
 1858              		.loc 1 421 58 view .LVU561
 1859 0116 5346     		mov	r3, r10
 1860 0118 9A5C     		ldrb	r2, [r3, r2]
 1861              	.LVL170:
 421:Core/Src/GEVA.c ****                 }
ARM GAS  C:\Users\arist\AppData\Local\Temp\ccp82oC3.s 			page 53


 1862              		.loc 1 421 78 view .LVU562
 1863 011a 0823     		movs	r3, #8
 1864 011c 9B1B     		subs	r3, r3, r6
 421:Core/Src/GEVA.c ****                 }
 1865              		.loc 1 421 72 view .LVU563
 1866 011e 9A40     		lsls	r2, r2, r3
 421:Core/Src/GEVA.c ****                 }
 1867              		.loc 1 421 55 view .LVU564
 1868 0120 3A43     		orrs	r2, r7
 1869 0122 6346     		mov	r3, ip
 1870 0124 1A54     		strb	r2, [r3, r0]
 1871              	.LVL171:
 421:Core/Src/GEVA.c ****                 }
 1872              		.loc 1 421 55 view .LVU565
 1873 0126 C5E7     		b	.L83
 1874              	.LVL172:
 1875              	.L91:
 421:Core/Src/GEVA.c ****                 }
 1876              		.loc 1 421 55 view .LVU566
 1877              	.LBE22:
 1878              	.LBE21:
 353:Core/Src/GEVA.c ****     uint8_t* n_pos; 
 1879              		.loc 1 353 13 view .LVU567
 1880 0128 0020     		movs	r0, #0
 1881              	.LBB24:
 1882              	.LBB23:
 1883 012a 00E0     		b	.L81
 1884              	.LVL173:
 1885              	.L85:
 353:Core/Src/GEVA.c ****     uint8_t* n_pos; 
 1886              		.loc 1 353 13 view .LVU568
 1887              	.LBE23:
 1888              	.LBE24:
 402:Core/Src/GEVA.c ****     else if (n_pos[Y] + font_height > buf->size_y || n_pos[X] + font_width > buf->size_x)
 1889              		.loc 1 402 15 view .LVU569
 1890 012c 0420     		movs	r0, #4
 1891              	.LVL174:
 1892              	.L81:
 427:Core/Src/GEVA.c **** }
 1893              		.loc 1 427 5 is_stmt 1 view .LVU570
 428:Core/Src/GEVA.c **** 
 1894              		.loc 1 428 1 is_stmt 0 view .LVU571
 1895              		@ sp needed
 1896 012e E0BC     		pop	{r5, r6, r7}
 1897 0130 BA46     		mov	r10, r7
 1898 0132 B146     		mov	r9, r6
 1899 0134 A846     		mov	r8, r5
 1900 0136 F0BD     		pop	{r4, r5, r6, r7, pc}
 1901              	.LVL175:
 1902              	.L86:
 402:Core/Src/GEVA.c ****     else if (n_pos[Y] + font_height > buf->size_y || n_pos[X] + font_width > buf->size_x)
 1903              		.loc 1 402 15 view .LVU572
 1904 0138 0420     		movs	r0, #4
 1905              	.LVL176:
 402:Core/Src/GEVA.c ****     else if (n_pos[Y] + font_height > buf->size_y || n_pos[X] + font_width > buf->size_x)
 1906              		.loc 1 402 15 view .LVU573
 1907 013a F8E7     		b	.L81
ARM GAS  C:\Users\arist\AppData\Local\Temp\ccp82oC3.s 			page 54


 1908              	.LVL177:
 1909              	.L87:
 404:Core/Src/GEVA.c ****     else {
 1910              		.loc 1 404 15 view .LVU574
 1911 013c 0220     		movs	r0, #2
 1912              	.LVL178:
 404:Core/Src/GEVA.c ****     else {
 1913              		.loc 1 404 15 view .LVU575
 1914 013e F6E7     		b	.L81
 1915              	.L93:
 1916              		.align	2
 1917              	.L92:
 1918 0140 00000000 		.word	font_height
 1919 0144 00000000 		.word	font_width
 1920 0148 00000000 		.word	font_s
 1921 014c 00000000 		.word	font_m
 1922 0150 FFFFFF7F 		.word	2147483647
 1923              		.cfi_endproc
 1924              	.LFE7:
 1926              		.section	.text.put_string,"ax",%progbits
 1927              		.align	1
 1928              		.global	put_string
 1929              		.syntax unified
 1930              		.code	16
 1931              		.thumb_func
 1933              	put_string:
 1934              	.LVL179:
 1935              	.LFB8:
 438:Core/Src/GEVA.c ****     
 1936              		.loc 1 438 103 is_stmt 1 view -0
 1937              		.cfi_startproc
 1938              		@ args = 4, pretend = 0, frame = 8
 1939              		@ frame_needed = 0, uses_anonymous_args = 0
 438:Core/Src/GEVA.c ****     
 1940              		.loc 1 438 103 is_stmt 0 view .LVU577
 1941 0000 F0B5     		push	{r4, r5, r6, r7, lr}
 1942              		.cfi_def_cfa_offset 20
 1943              		.cfi_offset 4, -20
 1944              		.cfi_offset 5, -16
 1945              		.cfi_offset 6, -12
 1946              		.cfi_offset 7, -8
 1947              		.cfi_offset 14, -4
 1948 0002 DE46     		mov	lr, fp
 1949 0004 5746     		mov	r7, r10
 1950 0006 80B5     		push	{r7, lr}
 1951              		.cfi_def_cfa_offset 28
 1952              		.cfi_offset 10, -28
 1953              		.cfi_offset 11, -24
 1954 0008 85B0     		sub	sp, sp, #20
 1955              		.cfi_def_cfa_offset 48
 1956 000a 0390     		str	r0, [sp, #12]
 1957 000c 8A46     		mov	r10, r1
 1958 000e 151E     		subs	r5, r2, #0
 1959 0010 9B46     		mov	fp, r3
 440:Core/Src/GEVA.c ****     uint8_t i = 0;
 1960              		.loc 1 440 5 is_stmt 1 view .LVU578
 1961              	.LVL180:
ARM GAS  C:\Users\arist\AppData\Local\Temp\ccp82oC3.s 			page 55


 441:Core/Src/GEVA.c ****     uint8_t y_offset = pos_y;
 1962              		.loc 1 441 5 view .LVU579
 442:Core/Src/GEVA.c ****     uint8_t x_offset = pos_x;    
 1963              		.loc 1 442 5 view .LVU580
 443:Core/Src/GEVA.c **** 
 1964              		.loc 1 443 5 view .LVU581
 445:Core/Src/GEVA.c ****         
 1965              		.loc 1 445 5 view .LVU582
 445:Core/Src/GEVA.c ****         
 1966              		.loc 1 445 8 is_stmt 0 view .LVU583
 1967 0012 03D0     		beq	.L102
 443:Core/Src/GEVA.c **** 
 1968              		.loc 1 443 13 view .LVU584
 1969 0014 039F     		ldr	r7, [sp, #12]
 441:Core/Src/GEVA.c ****     uint8_t y_offset = pos_y;
 1970              		.loc 1 441 13 view .LVU585
 1971 0016 0024     		movs	r4, #0
 440:Core/Src/GEVA.c ****     uint8_t i = 0;
 1972              		.loc 1 440 13 view .LVU586
 1973 0018 0126     		movs	r6, #1
 1974 001a 19E0     		b	.L95
 1975              	.L102:
 1976 001c 0126     		movs	r6, #1
 1977              	.LVL181:
 1978              	.L96:
 463:Core/Src/GEVA.c **** }
 1979              		.loc 1 463 5 is_stmt 1 view .LVU587
 464:Core/Src/GEVA.c **** 
 1980              		.loc 1 464 1 is_stmt 0 view .LVU588
 1981 001e 3000     		movs	r0, r6
 1982 0020 05B0     		add	sp, sp, #20
 1983              		@ sp needed
 1984              	.LVL182:
 1985              	.LVL183:
 1986              	.LVL184:
 464:Core/Src/GEVA.c **** 
 1987              		.loc 1 464 1 view .LVU589
 1988 0022 C0BC     		pop	{r6, r7}
 1989 0024 BB46     		mov	fp, r7
 1990 0026 B246     		mov	r10, r6
 1991 0028 F0BD     		pop	{r4, r5, r6, r7, pc}
 1992              	.LVL185:
 1993              	.L98:
 454:Core/Src/GEVA.c ****                 if (error != 0)
 1994              		.loc 1 454 17 is_stmt 1 view .LVU590
 454:Core/Src/GEVA.c ****                 if (error != 0)
 1995              		.loc 1 454 25 is_stmt 0 view .LVU591
 1996 002a 0C9B     		ldr	r3, [sp, #48]
 1997 002c 0093     		str	r3, [sp]
 1998 002e 5B46     		mov	r3, fp
 1999 0030 5146     		mov	r1, r10
 2000 0032 3800     		movs	r0, r7
 2001 0034 FFF7FEFF 		bl	put_char
 2002              	.LVL186:
 2003 0038 061E     		subs	r6, r0, #0
 2004              	.LVL187:
 455:Core/Src/GEVA.c ****                     break;
ARM GAS  C:\Users\arist\AppData\Local\Temp\ccp82oC3.s 			page 56


 2005              		.loc 1 455 17 is_stmt 1 view .LVU592
 455:Core/Src/GEVA.c ****                     break;
 2006              		.loc 1 455 20 is_stmt 0 view .LVU593
 2007 003a F0D1     		bne	.L96
 457:Core/Src/GEVA.c ****             
 2008              		.loc 1 457 17 is_stmt 1 view .LVU594
 457:Core/Src/GEVA.c ****             
 2009              		.loc 1 457 26 is_stmt 0 view .LVU595
 2010 003c 0E4B     		ldr	r3, .L103
 2011 003e 1B78     		ldrb	r3, [r3]
 2012 0040 FB18     		adds	r3, r7, r3
 2013 0042 DBB2     		uxtb	r3, r3
 2014 0044 0133     		adds	r3, r3, #1
 2015 0046 DFB2     		uxtb	r7, r3
 2016              	.LVL188:
 457:Core/Src/GEVA.c ****             
 2017              		.loc 1 457 26 view .LVU596
 2018 0048 00E0     		b	.L97
 2019              	.LVL189:
 2020              	.L101:
 450:Core/Src/GEVA.c ****             else if (chr[i] == '\n')
 2021              		.loc 1 450 26 view .LVU597
 2022 004a 039F     		ldr	r7, [sp, #12]
 2023              	.LVL190:
 2024              	.L97:
 460:Core/Src/GEVA.c ****         }
 2025              		.loc 1 460 13 is_stmt 1 view .LVU598
 460:Core/Src/GEVA.c ****         }
 2026              		.loc 1 460 14 is_stmt 0 view .LVU599
 2027 004c 0134     		adds	r4, r4, #1
 2028              	.LVL191:
 460:Core/Src/GEVA.c ****         }
 2029              		.loc 1 460 14 view .LVU600
 2030 004e E4B2     		uxtb	r4, r4
 2031              	.LVL192:
 2032              	.L95:
 447:Core/Src/GEVA.c **** 
 2033              		.loc 1 447 17 is_stmt 1 view .LVU601
 447:Core/Src/GEVA.c **** 
 2034              		.loc 1 447 19 is_stmt 0 view .LVU602
 2035 0050 2800     		movs	r0, r5
 2036 0052 FFF7FEFF 		bl	strlen
 2037              	.LVL193:
 447:Core/Src/GEVA.c **** 
 2038              		.loc 1 447 17 view .LVU603
 2039 0056 8442     		cmp	r4, r0
 2040 0058 E1D2     		bcs	.L96
 449:Core/Src/GEVA.c ****                 x_offset = pos_x;
 2041              		.loc 1 449 13 is_stmt 1 view .LVU604
 449:Core/Src/GEVA.c ****                 x_offset = pos_x;
 2042              		.loc 1 449 20 is_stmt 0 view .LVU605
 2043 005a 2A5D     		ldrb	r2, [r5, r4]
 449:Core/Src/GEVA.c ****                 x_offset = pos_x;
 2044              		.loc 1 449 16 view .LVU606
 2045 005c 0D2A     		cmp	r2, #13
 2046 005e F4D0     		beq	.L101
 451:Core/Src/GEVA.c ****                 y_offset = y_offset - 1 - font_height;
ARM GAS  C:\Users\arist\AppData\Local\Temp\ccp82oC3.s 			page 57


 2047              		.loc 1 451 18 is_stmt 1 view .LVU607
 451:Core/Src/GEVA.c ****                 y_offset = y_offset - 1 - font_height;
 2048              		.loc 1 451 21 is_stmt 0 view .LVU608
 2049 0060 0A2A     		cmp	r2, #10
 2050 0062 E2D1     		bne	.L98
 452:Core/Src/GEVA.c ****             else {
 2051              		.loc 1 452 17 is_stmt 1 view .LVU609
 452:Core/Src/GEVA.c ****             else {
 2052              		.loc 1 452 41 is_stmt 0 view .LVU610
 2053 0064 054B     		ldr	r3, .L103+4
 2054 0066 1B78     		ldrb	r3, [r3]
 2055 0068 5246     		mov	r2, r10
 2056 006a D31A     		subs	r3, r2, r3
 2057 006c DBB2     		uxtb	r3, r3
 452:Core/Src/GEVA.c ****             else {
 2058              		.loc 1 452 26 view .LVU611
 2059 006e 013B     		subs	r3, r3, #1
 2060 0070 DBB2     		uxtb	r3, r3
 2061 0072 9A46     		mov	r10, r3
 2062              	.LVL194:
 452:Core/Src/GEVA.c ****             else {
 2063              		.loc 1 452 26 view .LVU612
 2064 0074 EAE7     		b	.L97
 2065              	.L104:
 2066 0076 C046     		.align	2
 2067              	.L103:
 2068 0078 00000000 		.word	font_width
 2069 007c 00000000 		.word	font_height
 2070              		.cfi_endproc
 2071              	.LFE8:
 2073              		.section	.text.modulo,"ax",%progbits
 2074              		.align	1
 2075              		.global	modulo
 2076              		.syntax unified
 2077              		.code	16
 2078              		.thumb_func
 2080              	modulo:
 2081              	.LVL195:
 2082              	.LFB20:
 692:Core/Src/GEVA.c **** 
 693:Core/Src/GEVA.c **** 
 694:Core/Src/GEVA.c **** uint8_t modulo(int8_t n) {
 2083              		.loc 1 694 26 is_stmt 1 view -0
 2084              		.cfi_startproc
 2085              		@ args = 0, pretend = 0, frame = 0
 2086              		@ frame_needed = 0, uses_anonymous_args = 0
 2087              		@ link register save eliminated.
 695:Core/Src/GEVA.c ****     return (n > 0) ? n : -n;
 2088              		.loc 1 695 5 view .LVU614
 2089              		.loc 1 695 24 is_stmt 0 view .LVU615
 2090 0000 C317     		asrs	r3, r0, #31
 2091 0002 C018     		adds	r0, r0, r3
 2092              	.LVL196:
 2093              		.loc 1 695 24 view .LVU616
 2094 0004 5840     		eors	r0, r3
 2095 0006 C0B2     		uxtb	r0, r0
 696:Core/Src/GEVA.c **** }
ARM GAS  C:\Users\arist\AppData\Local\Temp\ccp82oC3.s 			page 58


 2096              		.loc 1 696 1 view .LVU617
 2097              		@ sp needed
 2098 0008 7047     		bx	lr
 2099              		.cfi_endproc
 2100              	.LFE20:
 2102              		.section	.text.clear_sector,"ax",%progbits
 2103              		.align	1
 2104              		.global	clear_sector
 2105              		.syntax unified
 2106              		.code	16
 2107              		.thumb_func
 2109              	clear_sector:
 2110              	.LVL197:
 2111              	.LFB6:
 240:Core/Src/GEVA.c **** 
 2112              		.loc 1 240 102 is_stmt 1 view -0
 2113              		.cfi_startproc
 2114              		@ args = 4, pretend = 0, frame = 24
 2115              		@ frame_needed = 0, uses_anonymous_args = 0
 240:Core/Src/GEVA.c **** 
 2116              		.loc 1 240 102 is_stmt 0 view .LVU619
 2117 0000 F0B5     		push	{r4, r5, r6, r7, lr}
 2118              		.cfi_def_cfa_offset 20
 2119              		.cfi_offset 4, -20
 2120              		.cfi_offset 5, -16
 2121              		.cfi_offset 6, -12
 2122              		.cfi_offset 7, -8
 2123              		.cfi_offset 14, -4
 2124 0002 DE46     		mov	lr, fp
 2125 0004 5746     		mov	r7, r10
 2126 0006 4E46     		mov	r6, r9
 2127 0008 4546     		mov	r5, r8
 2128 000a E0B5     		push	{r5, r6, r7, lr}
 2129              		.cfi_def_cfa_offset 36
 2130              		.cfi_offset 8, -36
 2131              		.cfi_offset 9, -32
 2132              		.cfi_offset 10, -28
 2133              		.cfi_offset 11, -24
 2134 000c 87B0     		sub	sp, sp, #28
 2135              		.cfi_def_cfa_offset 64
 2136 000e 0600     		movs	r6, r0
 2137 0010 0D00     		movs	r5, r1
 2138 0012 0392     		str	r2, [sp, #12]
 2139 0014 9A46     		mov	r10, r3
 2140 0016 109C     		ldr	r4, [sp, #64]
 242:Core/Src/GEVA.c ****     uint8_t startx_ptr = 0; // pos_x;
 2141              		.loc 1 242 5 is_stmt 1 view .LVU620
 2142              	.LVL198:
 243:Core/Src/GEVA.c ****     uint8_t starty_ptr = 0; // pos_y;
 2143              		.loc 1 243 5 view .LVU621
 244:Core/Src/GEVA.c ****     uint8_t endx_ptr = 0;   //pos_x + width;
 2144              		.loc 1 244 5 view .LVU622
 245:Core/Src/GEVA.c ****     uint8_t endy_ptr = 0;   // pos_y + height;
 2145              		.loc 1 245 5 view .LVU623
 246:Core/Src/GEVA.c ****     uint8_t n_width = 0;    //normalized width
 2146              		.loc 1 246 5 view .LVU624
 247:Core/Src/GEVA.c ****     uint8_t* n_pos_ptr = normalize_pos(pos_x, pos_y, buf);
ARM GAS  C:\Users\arist\AppData\Local\Temp\ccp82oC3.s 			page 59


 2147              		.loc 1 247 5 view .LVU625
 248:Core/Src/GEVA.c ****     
 2148              		.loc 1 248 5 view .LVU626
 248:Core/Src/GEVA.c ****     
 2149              		.loc 1 248 26 is_stmt 0 view .LVU627
 2150 0018 2200     		movs	r2, r4
 2151              	.LVL199:
 248:Core/Src/GEVA.c ****     
 2152              		.loc 1 248 26 view .LVU628
 2153 001a FFF7FEFF 		bl	normalize_pos
 2154              	.LVL200:
 248:Core/Src/GEVA.c ****     
 2155              		.loc 1 248 26 view .LVU629
 2156 001e 0190     		str	r0, [sp, #4]
 2157              	.LVL201:
 250:Core/Src/GEVA.c **** 
 2158              		.loc 1 250 5 is_stmt 1 view .LVU630
 250:Core/Src/GEVA.c **** 
 2159              		.loc 1 250 16 is_stmt 0 view .LVU631
 2160 0020 637B     		ldrb	r3, [r4, #13]
 250:Core/Src/GEVA.c **** 
 2161              		.loc 1 250 5 view .LVU632
 2162 0022 022B     		cmp	r3, #2
 2163 0024 72D0     		beq	.L107
 2164 0026 20D8     		bhi	.L108
 2165 0028 002B     		cmp	r3, #0
 2166 002a 61D0     		beq	.L109
 2167 002c 012B     		cmp	r3, #1
 2168 002e 15D1     		bne	.L131
 261:Core/Src/GEVA.c ****         startx_ptr = n_pos_ptr[X] - width + 1;
 2169              		.loc 1 261 9 is_stmt 1 view .LVU633
 2170              	.LVL202:
 262:Core/Src/GEVA.c ****         starty_ptr = n_pos_ptr[Y] - height + 1;
 2171              		.loc 1 262 9 view .LVU634
 262:Core/Src/GEVA.c ****         starty_ptr = n_pos_ptr[Y] - height + 1;
 2172              		.loc 1 262 31 is_stmt 0 view .LVU635
 2173 0030 019B     		ldr	r3, [sp, #4]
 2174 0032 1A78     		ldrb	r2, [r3]
 262:Core/Src/GEVA.c ****         starty_ptr = n_pos_ptr[Y] - height + 1;
 2175              		.loc 1 262 35 view .LVU636
 2176 0034 0398     		ldr	r0, [sp, #12]
 2177              	.LVL203:
 262:Core/Src/GEVA.c ****         starty_ptr = n_pos_ptr[Y] - height + 1;
 2178              		.loc 1 262 35 view .LVU637
 2179 0036 171A     		subs	r7, r2, r0
 2180 0038 FFB2     		uxtb	r7, r7
 262:Core/Src/GEVA.c ****         starty_ptr = n_pos_ptr[Y] - height + 1;
 2181              		.loc 1 262 20 view .LVU638
 2182 003a 0137     		adds	r7, r7, #1
 2183 003c FFB2     		uxtb	r7, r7
 2184              	.LVL204:
 263:Core/Src/GEVA.c ****         endx_ptr = n_pos_ptr[X] + 1;
 2185              		.loc 1 263 9 is_stmt 1 view .LVU639
 263:Core/Src/GEVA.c ****         endx_ptr = n_pos_ptr[X] + 1;
 2186              		.loc 1 263 31 is_stmt 0 view .LVU640
 2187 003e 5978     		ldrb	r1, [r3, #1]
 263:Core/Src/GEVA.c ****         endx_ptr = n_pos_ptr[X] + 1;
ARM GAS  C:\Users\arist\AppData\Local\Temp\ccp82oC3.s 			page 60


 2188              		.loc 1 263 35 view .LVU641
 2189 0040 5346     		mov	r3, r10
 2190              	.LVL205:
 263:Core/Src/GEVA.c ****         endx_ptr = n_pos_ptr[X] + 1;
 2191              		.loc 1 263 35 view .LVU642
 2192 0042 CB1A     		subs	r3, r1, r3
 2193 0044 DBB2     		uxtb	r3, r3
 263:Core/Src/GEVA.c ****         endx_ptr = n_pos_ptr[X] + 1;
 2194              		.loc 1 263 20 view .LVU643
 2195 0046 0133     		adds	r3, r3, #1
 2196 0048 DBB2     		uxtb	r3, r3
 2197 004a 9846     		mov	r8, r3
 2198              	.LVL206:
 264:Core/Src/GEVA.c ****         endy_ptr = n_pos_ptr[Y] + 1;
 2199              		.loc 1 264 9 is_stmt 1 view .LVU644
 264:Core/Src/GEVA.c ****         endy_ptr = n_pos_ptr[Y] + 1;
 2200              		.loc 1 264 18 is_stmt 0 view .LVU645
 2201 004c 0132     		adds	r2, r2, #1
 2202 004e D3B2     		uxtb	r3, r2
 2203 0050 9B46     		mov	fp, r3
 2204              	.LVL207:
 265:Core/Src/GEVA.c ****         break;
 2205              		.loc 1 265 9 is_stmt 1 view .LVU646
 265:Core/Src/GEVA.c ****         break;
 2206              		.loc 1 265 18 is_stmt 0 view .LVU647
 2207 0052 0131     		adds	r1, r1, #1
 2208 0054 CBB2     		uxtb	r3, r1
 2209 0056 9946     		mov	r9, r3
 2210              	.LVL208:
 266:Core/Src/GEVA.c **** 
 2211              		.loc 1 266 9 is_stmt 1 view .LVU648
 261:Core/Src/GEVA.c ****         startx_ptr = n_pos_ptr[X] - width + 1;
 2212              		.loc 1 261 17 is_stmt 0 view .LVU649
 2213 0058 0290     		str	r0, [sp, #8]
 266:Core/Src/GEVA.c **** 
 2214              		.loc 1 266 9 view .LVU650
 2215 005a 21E0     		b	.L111
 2216              	.LVL209:
 2217              	.L131:
 250:Core/Src/GEVA.c **** 
 2218              		.loc 1 250 5 view .LVU651
 2219 005c 0023     		movs	r3, #0
 2220 005e 0293     		str	r3, [sp, #8]
 2221 0060 1F00     		movs	r7, r3
 2222 0062 9946     		mov	r9, r3
 2223 0064 9B46     		mov	fp, r3
 2224 0066 9846     		mov	r8, r3
 2225 0068 1AE0     		b	.L111
 2226              	.L108:
 2227 006a 032B     		cmp	r3, #3
 2228 006c 12D1     		bne	.L132
 277:Core/Src/GEVA.c ****         starty_ptr = n_pos_ptr[Y] - width + 1;
 2229              		.loc 1 277 9 is_stmt 1 view .LVU652
 277:Core/Src/GEVA.c ****         starty_ptr = n_pos_ptr[Y] - width + 1;
 2230              		.loc 1 277 20 is_stmt 0 view .LVU653
 2231 006e 019B     		ldr	r3, [sp, #4]
 2232 0070 1F78     		ldrb	r7, [r3]
ARM GAS  C:\Users\arist\AppData\Local\Temp\ccp82oC3.s 			page 61


 2233              	.LVL210:
 278:Core/Src/GEVA.c ****         endx_ptr = startx_ptr + height;
 2234              		.loc 1 278 9 is_stmt 1 view .LVU654
 278:Core/Src/GEVA.c ****         endx_ptr = startx_ptr + height;
 2235              		.loc 1 278 31 is_stmt 0 view .LVU655
 2236 0072 5A78     		ldrb	r2, [r3, #1]
 278:Core/Src/GEVA.c ****         endx_ptr = startx_ptr + height;
 2237              		.loc 1 278 35 view .LVU656
 2238 0074 039B     		ldr	r3, [sp, #12]
 2239 0076 D31A     		subs	r3, r2, r3
 2240 0078 DBB2     		uxtb	r3, r3
 278:Core/Src/GEVA.c ****         endx_ptr = startx_ptr + height;
 2241              		.loc 1 278 20 view .LVU657
 2242 007a 0133     		adds	r3, r3, #1
 2243 007c DBB2     		uxtb	r3, r3
 2244 007e 9846     		mov	r8, r3
 2245              	.LVL211:
 279:Core/Src/GEVA.c ****         endy_ptr = n_pos_ptr[Y] + 1;
 2246              		.loc 1 279 9 is_stmt 1 view .LVU658
 279:Core/Src/GEVA.c ****         endy_ptr = n_pos_ptr[Y] + 1;
 2247              		.loc 1 279 18 is_stmt 0 view .LVU659
 2248 0080 5346     		mov	r3, r10
 2249 0082 FB18     		adds	r3, r7, r3
 2250 0084 DBB2     		uxtb	r3, r3
 2251 0086 9B46     		mov	fp, r3
 2252              	.LVL212:
 280:Core/Src/GEVA.c ****         break;
 2253              		.loc 1 280 9 is_stmt 1 view .LVU660
 280:Core/Src/GEVA.c ****         break;
 2254              		.loc 1 280 18 is_stmt 0 view .LVU661
 2255 0088 0132     		adds	r2, r2, #1
 2256 008a D3B2     		uxtb	r3, r2
 2257 008c 9946     		mov	r9, r3
 2258              	.LVL213:
 281:Core/Src/GEVA.c **** 
 2259              		.loc 1 281 9 is_stmt 1 view .LVU662
 247:Core/Src/GEVA.c ****     uint8_t* n_pos_ptr = normalize_pos(pos_x, pos_y, buf);
 2260              		.loc 1 247 13 is_stmt 0 view .LVU663
 2261 008e 0023     		movs	r3, #0
 2262 0090 0293     		str	r3, [sp, #8]
 281:Core/Src/GEVA.c **** 
 2263              		.loc 1 281 9 view .LVU664
 2264 0092 05E0     		b	.L111
 2265              	.LVL214:
 2266              	.L132:
 250:Core/Src/GEVA.c **** 
 2267              		.loc 1 250 5 view .LVU665
 2268 0094 0023     		movs	r3, #0
 2269 0096 0293     		str	r3, [sp, #8]
 2270 0098 9946     		mov	r9, r3
 2271 009a 9B46     		mov	fp, r3
 2272 009c 9846     		mov	r8, r3
 2273 009e 0027     		movs	r7, #0
 2274              	.LVL215:
 2275              	.L111:
 287:Core/Src/GEVA.c ****         return 4;
 2276              		.loc 1 287 5 is_stmt 1 view .LVU666
ARM GAS  C:\Users\arist\AppData\Local\Temp\ccp82oC3.s 			page 62


 287:Core/Src/GEVA.c ****         return 4;
 2277              		.loc 1 287 21 is_stmt 0 view .LVU667
 2278 00a0 2278     		ldrb	r2, [r4]
 287:Core/Src/GEVA.c ****         return 4;
 2279              		.loc 1 287 8 view .LVU668
 2280 00a2 B242     		cmp	r2, r6
 2281 00a4 00D8     		bhi	.LCB2143
 2282 00a6 DEE0     		b	.L127	@long jump
 2283              	.LCB2143:
 287:Core/Src/GEVA.c ****         return 4;
 2284              		.loc 1 287 58 discriminator 1 view .LVU669
 2285 00a8 6178     		ldrb	r1, [r4, #1]
 287:Core/Src/GEVA.c ****         return 4;
 2286              		.loc 1 287 67 discriminator 1 view .LVU670
 2287 00aa A942     		cmp	r1, r5
 2288 00ac 00D8     		bhi	.LCB2146
 2289 00ae DCE0     		b	.L128	@long jump
 2290              	.LCB2146:
 290:Core/Src/GEVA.c ****         error = 2;
 2291              		.loc 1 290 5 is_stmt 1 view .LVU671
 290:Core/Src/GEVA.c ****         error = 2;
 2292              		.loc 1 290 15 is_stmt 0 view .LVU672
 2293 00b0 5544     		add	r5, r5, r10
 290:Core/Src/GEVA.c ****         error = 2;
 2294              		.loc 1 290 8 view .LVU673
 2295 00b2 8D42     		cmp	r5, r1
 2296 00b4 00DD     		ble	.LCB2150
 2297 00b6 C8E0     		b	.L129	@long jump
 2298              	.LCB2150:
 290:Core/Src/GEVA.c ****         error = 2;
 2299              		.loc 1 290 47 discriminator 1 view .LVU674
 2300 00b8 039B     		ldr	r3, [sp, #12]
 2301 00ba 9C46     		mov	ip, r3
 2302 00bc 6644     		add	r6, r6, ip
 290:Core/Src/GEVA.c ****         error = 2;
 2303              		.loc 1 290 38 discriminator 1 view .LVU675
 2304 00be 9642     		cmp	r6, r2
 2305 00c0 00DD     		ble	.LCB2155
 2306 00c2 CEE0     		b	.L130	@long jump
 2307              	.LCB2155:
 2308              	.LBB25:
 295:Core/Src/GEVA.c ****         uint16_t buffer_byte_ptr = start_byte_ptr;
 2309              		.loc 1 295 9 is_stmt 1 view .LVU676
 295:Core/Src/GEVA.c ****         uint16_t buffer_byte_ptr = start_byte_ptr;
 2310              		.loc 1 295 80 is_stmt 0 view .LVU677
 2311 00c4 4346     		mov	r3, r8
 2312 00c6 C91A     		subs	r1, r1, r3
 2313 00c8 C9B2     		uxtb	r1, r1
 295:Core/Src/GEVA.c ****         uint16_t buffer_byte_ptr = start_byte_ptr;
 2314              		.loc 1 295 35 view .LVU678
 2315 00ca 227A     		ldrb	r2, [r4, #8]
 2316 00cc 0139     		subs	r1, r1, #1
 2317 00ce C9B2     		uxtb	r1, r1
 2318 00d0 3800     		movs	r0, r7
 2319 00d2 FFF7FEFF 		bl	get_buffer_index
 2320              	.LVL216:
 2321 00d6 0490     		str	r0, [sp, #16]
ARM GAS  C:\Users\arist\AppData\Local\Temp\ccp82oC3.s 			page 63


 2322              	.LVL217:
 296:Core/Src/GEVA.c ****         int16_t initial_shift = modulo(endx_ptr - startx_ptr);
 2323              		.loc 1 296 9 is_stmt 1 view .LVU679
 297:Core/Src/GEVA.c ****         int16_t to_shift = initial_shift;
 2324              		.loc 1 297 9 view .LVU680
 297:Core/Src/GEVA.c ****         int16_t to_shift = initial_shift;
 2325              		.loc 1 297 49 is_stmt 0 view .LVU681
 2326 00d8 5B46     		mov	r3, fp
 2327 00da D81B     		subs	r0, r3, r7
 297:Core/Src/GEVA.c ****         int16_t to_shift = initial_shift;
 2328              		.loc 1 297 33 view .LVU682
 2329 00dc 40B2     		sxtb	r0, r0
 2330 00de FFF7FEFF 		bl	modulo
 2331              	.LVL218:
 2332 00e2 0590     		str	r0, [sp, #20]
 2333              	.LVL219:
 298:Core/Src/GEVA.c **** 
 2334              		.loc 1 298 9 is_stmt 1 view .LVU683
 300:Core/Src/GEVA.c ****         {
 2335              		.loc 1 300 9 view .LVU684
 2336              	.LBB26:
 300:Core/Src/GEVA.c ****         {
 2337              		.loc 1 300 14 view .LVU685
 300:Core/Src/GEVA.c ****         {
 2338              		.loc 1 300 22 is_stmt 0 view .LVU686
 2339 00e4 0025     		movs	r5, #0
 2340 00e6 4346     		mov	r3, r8
 2341 00e8 0393     		str	r3, [sp, #12]
 2342 00ea B846     		mov	r8, r7
 2343              	.LVL220:
 300:Core/Src/GEVA.c ****         {
 2344              		.loc 1 300 22 view .LVU687
 2345 00ec 4F46     		mov	r7, r9
 2346              	.LVL221:
 300:Core/Src/GEVA.c ****         {
 2347              		.loc 1 300 9 view .LVU688
 2348 00ee 80E0     		b	.L115
 2349              	.LVL222:
 2350              	.L109:
 300:Core/Src/GEVA.c ****         {
 2351              		.loc 1 300 9 view .LVU689
 2352              	.LBE26:
 2353              	.LBE25:
 253:Core/Src/GEVA.c ****         startx_ptr = n_pos_ptr[X];
 2354              		.loc 1 253 9 is_stmt 1 view .LVU690
 254:Core/Src/GEVA.c ****         starty_ptr = n_pos_ptr[Y];
 2355              		.loc 1 254 9 view .LVU691
 254:Core/Src/GEVA.c ****         starty_ptr = n_pos_ptr[Y];
 2356              		.loc 1 254 20 is_stmt 0 view .LVU692
 2357 00f0 019B     		ldr	r3, [sp, #4]
 2358 00f2 1F78     		ldrb	r7, [r3]
 2359              	.LVL223:
 255:Core/Src/GEVA.c ****         endx_ptr = startx_ptr + width;
 2360              		.loc 1 255 9 is_stmt 1 view .LVU693
 255:Core/Src/GEVA.c ****         endx_ptr = startx_ptr + width;
 2361              		.loc 1 255 20 is_stmt 0 view .LVU694
 2362 00f4 5B78     		ldrb	r3, [r3, #1]
ARM GAS  C:\Users\arist\AppData\Local\Temp\ccp82oC3.s 			page 64


 2363 00f6 9846     		mov	r8, r3
 2364              	.LVL224:
 256:Core/Src/GEVA.c ****         endy_ptr = starty_ptr + height;
 2365              		.loc 1 256 9 is_stmt 1 view .LVU695
 256:Core/Src/GEVA.c ****         endy_ptr = starty_ptr + height;
 2366              		.loc 1 256 18 is_stmt 0 view .LVU696
 2367 00f8 039A     		ldr	r2, [sp, #12]
 2368 00fa D319     		adds	r3, r2, r7
 2369 00fc DBB2     		uxtb	r3, r3
 2370 00fe 9B46     		mov	fp, r3
 2371              	.LVL225:
 257:Core/Src/GEVA.c ****         break;
 2372              		.loc 1 257 9 is_stmt 1 view .LVU697
 257:Core/Src/GEVA.c ****         break;
 2373              		.loc 1 257 18 is_stmt 0 view .LVU698
 2374 0100 5346     		mov	r3, r10
 2375 0102 4344     		add	r3, r3, r8
 2376 0104 DBB2     		uxtb	r3, r3
 2377 0106 9946     		mov	r9, r3
 2378              	.LVL226:
 258:Core/Src/GEVA.c **** 
 2379              		.loc 1 258 9 is_stmt 1 view .LVU699
 253:Core/Src/GEVA.c ****         startx_ptr = n_pos_ptr[X];
 2380              		.loc 1 253 17 is_stmt 0 view .LVU700
 2381 0108 0292     		str	r2, [sp, #8]
 258:Core/Src/GEVA.c **** 
 2382              		.loc 1 258 9 view .LVU701
 2383 010a C9E7     		b	.L111
 2384              	.LVL227:
 2385              	.L107:
 269:Core/Src/GEVA.c ****         startx_ptr = n_pos_ptr[X] - height + 1;
 2386              		.loc 1 269 9 is_stmt 1 view .LVU702
 270:Core/Src/GEVA.c ****         starty_ptr = n_pos_ptr[Y];
 2387              		.loc 1 270 9 view .LVU703
 270:Core/Src/GEVA.c ****         starty_ptr = n_pos_ptr[Y];
 2388              		.loc 1 270 31 is_stmt 0 view .LVU704
 2389 010c 019A     		ldr	r2, [sp, #4]
 2390 010e 1378     		ldrb	r3, [r2]
 270:Core/Src/GEVA.c ****         starty_ptr = n_pos_ptr[Y];
 2391              		.loc 1 270 35 view .LVU705
 2392 0110 5146     		mov	r1, r10
 2393 0112 5F1A     		subs	r7, r3, r1
 2394 0114 FFB2     		uxtb	r7, r7
 270:Core/Src/GEVA.c ****         starty_ptr = n_pos_ptr[Y];
 2395              		.loc 1 270 20 view .LVU706
 2396 0116 0137     		adds	r7, r7, #1
 2397 0118 FFB2     		uxtb	r7, r7
 2398              	.LVL228:
 271:Core/Src/GEVA.c ****         endx_ptr = n_pos_ptr[X] + 1;
 2399              		.loc 1 271 9 is_stmt 1 view .LVU707
 271:Core/Src/GEVA.c ****         endx_ptr = n_pos_ptr[X] + 1;
 2400              		.loc 1 271 20 is_stmt 0 view .LVU708
 2401 011a 5278     		ldrb	r2, [r2, #1]
 2402 011c 9046     		mov	r8, r2
 2403              	.LVL229:
 272:Core/Src/GEVA.c ****         endy_ptr = starty_ptr + width;
 2404              		.loc 1 272 9 is_stmt 1 view .LVU709
ARM GAS  C:\Users\arist\AppData\Local\Temp\ccp82oC3.s 			page 65


 272:Core/Src/GEVA.c ****         endy_ptr = starty_ptr + width;
 2405              		.loc 1 272 18 is_stmt 0 view .LVU710
 2406 011e 0133     		adds	r3, r3, #1
 2407 0120 DBB2     		uxtb	r3, r3
 2408 0122 9B46     		mov	fp, r3
 2409              	.LVL230:
 273:Core/Src/GEVA.c ****         break;
 2410              		.loc 1 273 9 is_stmt 1 view .LVU711
 273:Core/Src/GEVA.c ****         break;
 2411              		.loc 1 273 18 is_stmt 0 view .LVU712
 2412 0124 039B     		ldr	r3, [sp, #12]
 2413 0126 4344     		add	r3, r3, r8
 2414 0128 DBB2     		uxtb	r3, r3
 2415 012a 9946     		mov	r9, r3
 2416              	.LVL231:
 274:Core/Src/GEVA.c **** 
 2417              		.loc 1 274 9 is_stmt 1 view .LVU713
 269:Core/Src/GEVA.c ****         startx_ptr = n_pos_ptr[X] - height + 1;
 2418              		.loc 1 269 17 is_stmt 0 view .LVU714
 2419 012c 0291     		str	r1, [sp, #8]
 274:Core/Src/GEVA.c **** 
 2420              		.loc 1 274 9 view .LVU715
 2421 012e B7E7     		b	.L111
 2422              	.LVL232:
 2423              	.L135:
 2424              	.LBB29:
 2425              	.LBB27:
 306:Core/Src/GEVA.c ****                 
 2426              		.loc 1 306 17 is_stmt 1 view .LVU716
 306:Core/Src/GEVA.c ****                 
 2427              		.loc 1 306 26 is_stmt 0 view .LVU717
 2428 0130 0599     		ldr	r1, [sp, #20]
 2429 0132 8918     		adds	r1, r1, r2
 2430 0134 0839     		subs	r1, r1, #8
 2431 0136 09B2     		sxth	r1, r1
 2432              	.LVL233:
 308:Core/Src/GEVA.c ****                     buf->vid_buf[buffer_byte_ptr] &= 0xff << (8 - (startx_ptr % 8));
 2433              		.loc 1 308 17 is_stmt 1 view .LVU718
 308:Core/Src/GEVA.c ****                     buf->vid_buf[buffer_byte_ptr] &= 0xff << (8 - (startx_ptr % 8));
 2434              		.loc 1 308 23 is_stmt 0 view .LVU719
 2435 0138 207B     		ldrb	r0, [r4, #12]
 308:Core/Src/GEVA.c ****                     buf->vid_buf[buffer_byte_ptr] &= 0xff << (8 - (startx_ptr % 8));
 2436              		.loc 1 308 19 view .LVU720
 2437 013a 0028     		cmp	r0, #0
 2438 013c 0FD1     		bne	.L117
 309:Core/Src/GEVA.c ****                 else 
 2439              		.loc 1 309 21 is_stmt 1 view .LVU721
 309:Core/Src/GEVA.c ****                 else 
 2440              		.loc 1 309 24 is_stmt 0 view .LVU722
 2441 013e 6068     		ldr	r0, [r4, #4]
 309:Core/Src/GEVA.c ****                 else 
 2442              		.loc 1 309 33 view .LVU723
 2443 0140 C65C     		ldrb	r6, [r0, r3]
 2444 0142 B446     		mov	ip, r6
 309:Core/Src/GEVA.c ****                 else 
 2445              		.loc 1 309 65 view .LVU724
 2446 0144 0826     		movs	r6, #8
ARM GAS  C:\Users\arist\AppData\Local\Temp\ccp82oC3.s 			page 66


 2447 0146 B21A     		subs	r2, r6, r2
 2448 0148 9146     		mov	r9, r2
 309:Core/Src/GEVA.c ****                 else 
 2449              		.loc 1 309 59 view .LVU725
 2450 014a FF22     		movs	r2, #255
 2451 014c 4E46     		mov	r6, r9
 2452 014e B240     		lsls	r2, r2, r6
 309:Core/Src/GEVA.c ****                 else 
 2453              		.loc 1 309 51 view .LVU726
 2454 0150 6646     		mov	r6, ip
 2455 0152 3240     		ands	r2, r6
 2456 0154 C254     		strb	r2, [r0, r3]
 2457              	.L118:
 313:Core/Src/GEVA.c ****                 
 2458              		.loc 1 313 17 is_stmt 1 view .LVU727
 313:Core/Src/GEVA.c ****                 
 2459              		.loc 1 313 32 is_stmt 0 view .LVU728
 2460 0156 0133     		adds	r3, r3, #1
 2461              	.LVL234:
 313:Core/Src/GEVA.c ****                 
 2462              		.loc 1 313 32 view .LVU729
 2463 0158 9BB2     		uxth	r3, r3
 2464              	.LVL235:
 315:Core/Src/GEVA.c ****                     if(buf->mode == NORMAL)
 2465              		.loc 1 315 17 is_stmt 1 view .LVU730
 2466 015a 039E     		ldr	r6, [sp, #12]
 315:Core/Src/GEVA.c ****                     if(buf->mode == NORMAL)
 2467              		.loc 1 315 23 is_stmt 0 view .LVU731
 2468 015c 0FE0     		b	.L119
 2469              	.L117:
 311:Core/Src/GEVA.c ****                 
 2470              		.loc 1 311 21 is_stmt 1 view .LVU732
 311:Core/Src/GEVA.c ****                 
 2471              		.loc 1 311 24 is_stmt 0 view .LVU733
 2472 015e 6068     		ldr	r0, [r4, #4]
 2473 0160 8146     		mov	r9, r0
 311:Core/Src/GEVA.c ****                 
 2474              		.loc 1 311 33 view .LVU734
 2475 0162 C05C     		ldrb	r0, [r0, r3]
 311:Core/Src/GEVA.c ****                 
 2476              		.loc 1 311 59 view .LVU735
 2477 0164 FF26     		movs	r6, #255
 2478 0166 1641     		asrs	r6, r6, r2
 311:Core/Src/GEVA.c ****                 
 2479              		.loc 1 311 51 view .LVU736
 2480 0168 3043     		orrs	r0, r6
 2481 016a 4A46     		mov	r2, r9
 2482 016c D054     		strb	r0, [r2, r3]
 2483 016e F2E7     		b	.L118
 2484              	.L120:
 319:Core/Src/GEVA.c ****                         
 2485              		.loc 1 319 25 is_stmt 1 view .LVU737
 319:Core/Src/GEVA.c ****                         
 2486              		.loc 1 319 28 is_stmt 0 view .LVU738
 2487 0170 6268     		ldr	r2, [r4, #4]
 319:Core/Src/GEVA.c ****                         
 2488              		.loc 1 319 55 view .LVU739
ARM GAS  C:\Users\arist\AppData\Local\Temp\ccp82oC3.s 			page 67


 2489 0172 FF20     		movs	r0, #255
 2490 0174 D054     		strb	r0, [r2, r3]
 2491              	.L121:
 321:Core/Src/GEVA.c ****                     to_shift -= 8;
 2492              		.loc 1 321 21 is_stmt 1 view .LVU740
 321:Core/Src/GEVA.c ****                     to_shift -= 8;
 2493              		.loc 1 321 36 is_stmt 0 view .LVU741
 2494 0176 0133     		adds	r3, r3, #1
 2495              	.LVL236:
 321:Core/Src/GEVA.c ****                     to_shift -= 8;
 2496              		.loc 1 321 36 view .LVU742
 2497 0178 9BB2     		uxth	r3, r3
 2498              	.LVL237:
 322:Core/Src/GEVA.c ****                 }
 2499              		.loc 1 322 21 is_stmt 1 view .LVU743
 322:Core/Src/GEVA.c ****                 }
 2500              		.loc 1 322 30 is_stmt 0 view .LVU744
 2501 017a 0839     		subs	r1, r1, #8
 2502              	.LVL238:
 322:Core/Src/GEVA.c ****                 }
 2503              		.loc 1 322 30 view .LVU745
 2504 017c 09B2     		sxth	r1, r1
 2505              	.LVL239:
 2506              	.L119:
 315:Core/Src/GEVA.c ****                     if(buf->mode == NORMAL)
 2507              		.loc 1 315 33 is_stmt 1 view .LVU746
 2508 017e 0829     		cmp	r1, #8
 2509 0180 07DD     		ble	.L133
 316:Core/Src/GEVA.c ****                         buf->vid_buf[buffer_byte_ptr] = 0x00;
 2510              		.loc 1 316 21 view .LVU747
 316:Core/Src/GEVA.c ****                         buf->vid_buf[buffer_byte_ptr] = 0x00;
 2511              		.loc 1 316 27 is_stmt 0 view .LVU748
 2512 0182 227B     		ldrb	r2, [r4, #12]
 316:Core/Src/GEVA.c ****                         buf->vid_buf[buffer_byte_ptr] = 0x00;
 2513              		.loc 1 316 23 view .LVU749
 2514 0184 002A     		cmp	r2, #0
 2515 0186 F3D1     		bne	.L120
 317:Core/Src/GEVA.c ****                     else 
 2516              		.loc 1 317 25 is_stmt 1 view .LVU750
 317:Core/Src/GEVA.c ****                     else 
 2517              		.loc 1 317 28 is_stmt 0 view .LVU751
 2518 0188 6268     		ldr	r2, [r4, #4]
 317:Core/Src/GEVA.c ****                     else 
 2519              		.loc 1 317 37 view .LVU752
 2520 018a D218     		adds	r2, r2, r3
 317:Core/Src/GEVA.c ****                     else 
 2521              		.loc 1 317 55 view .LVU753
 2522 018c 0020     		movs	r0, #0
 2523 018e 1070     		strb	r0, [r2]
 2524 0190 F1E7     		b	.L121
 2525              	.L133:
 325:Core/Src/GEVA.c ****                     buf->vid_buf[buffer_byte_ptr] &= 0xff >> to_shift;
 2526              		.loc 1 325 23 view .LVU754
 2527 0192 0396     		str	r6, [sp, #12]
 325:Core/Src/GEVA.c ****                     buf->vid_buf[buffer_byte_ptr] &= 0xff >> to_shift;
 2528              		.loc 1 325 17 is_stmt 1 view .LVU755
 325:Core/Src/GEVA.c ****                     buf->vid_buf[buffer_byte_ptr] &= 0xff >> to_shift;
ARM GAS  C:\Users\arist\AppData\Local\Temp\ccp82oC3.s 			page 68


 2529              		.loc 1 325 23 is_stmt 0 view .LVU756
 2530 0194 227B     		ldrb	r2, [r4, #12]
 325:Core/Src/GEVA.c ****                     buf->vid_buf[buffer_byte_ptr] &= 0xff >> to_shift;
 2531              		.loc 1 325 19 view .LVU757
 2532 0196 002A     		cmp	r2, #0
 2533 0198 08D1     		bne	.L123
 326:Core/Src/GEVA.c ****                 else 
 2534              		.loc 1 326 21 is_stmt 1 view .LVU758
 326:Core/Src/GEVA.c ****                 else 
 2535              		.loc 1 326 24 is_stmt 0 view .LVU759
 2536 019a 6068     		ldr	r0, [r4, #4]
 326:Core/Src/GEVA.c ****                 else 
 2537              		.loc 1 326 33 view .LVU760
 2538 019c C25C     		ldrb	r2, [r0, r3]
 2539 019e 9446     		mov	ip, r2
 326:Core/Src/GEVA.c ****                 else 
 2540              		.loc 1 326 59 view .LVU761
 2541 01a0 FF22     		movs	r2, #255
 2542 01a2 0A41     		asrs	r2, r2, r1
 326:Core/Src/GEVA.c ****                 else 
 2543              		.loc 1 326 51 view .LVU762
 2544 01a4 6146     		mov	r1, ip
 2545              	.LVL240:
 326:Core/Src/GEVA.c ****                 else 
 2546              		.loc 1 326 51 view .LVU763
 2547 01a6 0A40     		ands	r2, r1
 2548 01a8 C254     		strb	r2, [r0, r3]
 2549 01aa 20E0     		b	.L124
 2550              	.LVL241:
 2551              	.L123:
 328:Core/Src/GEVA.c ****             }
 2552              		.loc 1 328 21 is_stmt 1 view .LVU764
 328:Core/Src/GEVA.c ****             }
 2553              		.loc 1 328 24 is_stmt 0 view .LVU765
 2554 01ac 6068     		ldr	r0, [r4, #4]
 328:Core/Src/GEVA.c ****             }
 2555              		.loc 1 328 33 view .LVU766
 2556 01ae C25C     		ldrb	r2, [r0, r3]
 328:Core/Src/GEVA.c ****             }
 2557              		.loc 1 328 77 view .LVU767
 2558 01b0 0721     		movs	r1, #7
 2559              	.LVL242:
 328:Core/Src/GEVA.c ****             }
 2560              		.loc 1 328 77 view .LVU768
 2561 01b2 5E46     		mov	r6, fp
 2562 01b4 0E40     		ands	r6, r1
 328:Core/Src/GEVA.c ****             }
 2563              		.loc 1 328 65 view .LVU769
 2564 01b6 0131     		adds	r1, r1, #1
 2565 01b8 891B     		subs	r1, r1, r6
 2566 01ba 8C46     		mov	ip, r1
 328:Core/Src/GEVA.c ****             }
 2567              		.loc 1 328 59 view .LVU770
 2568 01bc FF21     		movs	r1, #255
 2569 01be 6646     		mov	r6, ip
 2570 01c0 B140     		lsls	r1, r1, r6
 328:Core/Src/GEVA.c ****             }
ARM GAS  C:\Users\arist\AppData\Local\Temp\ccp82oC3.s 			page 69


 2571              		.loc 1 328 51 view .LVU771
 2572 01c2 0A43     		orrs	r2, r1
 2573 01c4 C254     		strb	r2, [r0, r3]
 2574 01c6 12E0     		b	.L124
 2575              	.LVL243:
 2576              	.L125:
 334:Core/Src/GEVA.c ****             }
 2577              		.loc 1 334 21 is_stmt 1 view .LVU772
 334:Core/Src/GEVA.c ****             }
 2578              		.loc 1 334 24 is_stmt 0 view .LVU773
 2579 01c8 6168     		ldr	r1, [r4, #4]
 2580 01ca 8946     		mov	r9, r1
 334:Core/Src/GEVA.c ****             }
 2581              		.loc 1 334 33 view .LVU774
 2582 01cc C85C     		ldrb	r0, [r1, r3]
 334:Core/Src/GEVA.c ****             }
 2583              		.loc 1 334 60 view .LVU775
 2584 01ce FF21     		movs	r1, #255
 2585 01d0 0E00     		movs	r6, r1
 2586 01d2 1641     		asrs	r6, r6, r2
 2587 01d4 B246     		mov	r10, r6
 334:Core/Src/GEVA.c ****             }
 2588              		.loc 1 334 105 view .LVU776
 2589 01d6 0722     		movs	r2, #7
 2590 01d8 5E46     		mov	r6, fp
 2591 01da 1640     		ands	r6, r2
 334:Core/Src/GEVA.c ****             }
 2592              		.loc 1 334 93 view .LVU777
 2593 01dc 0132     		adds	r2, r2, #1
 2594 01de 921B     		subs	r2, r2, r6
 334:Core/Src/GEVA.c ****             }
 2595              		.loc 1 334 87 view .LVU778
 2596 01e0 9140     		lsls	r1, r1, r2
 334:Core/Src/GEVA.c ****             }
 2597              		.loc 1 334 79 view .LVU779
 2598 01e2 5246     		mov	r2, r10
 2599 01e4 1140     		ands	r1, r2
 2600 01e6 49B2     		sxtb	r1, r1
 334:Core/Src/GEVA.c ****             }
 2601              		.loc 1 334 51 view .LVU780
 2602 01e8 0843     		orrs	r0, r1
 2603 01ea 4A46     		mov	r2, r9
 2604 01ec D054     		strb	r0, [r2, r3]
 2605              	.LVL244:
 2606              	.L124:
 300:Core/Src/GEVA.c ****         {
 2607              		.loc 1 300 86 is_stmt 1 discriminator 2 view .LVU781
 2608 01ee 0135     		adds	r5, r5, #1
 2609              	.LVL245:
 300:Core/Src/GEVA.c ****         {
 2610              		.loc 1 300 86 is_stmt 0 discriminator 2 view .LVU782
 2611 01f0 EDB2     		uxtb	r5, r5
 2612              	.LVL246:
 2613              	.L115:
 300:Core/Src/GEVA.c ****         {
 2614              		.loc 1 300 45 is_stmt 1 discriminator 1 view .LVU783
 300:Core/Src/GEVA.c ****         {
ARM GAS  C:\Users\arist\AppData\Local\Temp\ccp82oC3.s 			page 70


 2615              		.loc 1 300 63 is_stmt 0 discriminator 1 view .LVU784
 2616 01f2 039B     		ldr	r3, [sp, #12]
 2617 01f4 F81A     		subs	r0, r7, r3
 300:Core/Src/GEVA.c ****         {
 2618              		.loc 1 300 47 discriminator 1 view .LVU785
 2619 01f6 40B2     		sxtb	r0, r0
 2620 01f8 FFF7FEFF 		bl	modulo
 2621              	.LVL247:
 300:Core/Src/GEVA.c ****         {
 2622              		.loc 1 300 45 discriminator 1 view .LVU786
 2623 01fc A842     		cmp	r0, r5
 2624 01fe 22D9     		bls	.L134
 302:Core/Src/GEVA.c ****             to_shift = initial_shift;
 2625              		.loc 1 302 13 is_stmt 1 view .LVU787
 302:Core/Src/GEVA.c ****             to_shift = initial_shift;
 2626              		.loc 1 302 52 is_stmt 0 view .LVU788
 2627 0200 237A     		ldrb	r3, [r4, #8]
 302:Core/Src/GEVA.c ****             to_shift = initial_shift;
 2628              		.loc 1 302 67 view .LVU789
 2629 0202 6B43     		muls	r3, r5
 302:Core/Src/GEVA.c ****             to_shift = initial_shift;
 2630              		.loc 1 302 29 view .LVU790
 2631 0204 049A     		ldr	r2, [sp, #16]
 2632 0206 D31A     		subs	r3, r2, r3
 2633 0208 9BB2     		uxth	r3, r3
 2634              	.LVL248:
 303:Core/Src/GEVA.c **** 
 2635              		.loc 1 303 13 is_stmt 1 view .LVU791
 305:Core/Src/GEVA.c ****                 to_shift -= (8 - (startx_ptr % 8));
 2636              		.loc 1 305 13 view .LVU792
 2637 020a 0722     		movs	r2, #7
 2638 020c 4146     		mov	r1, r8
 2639 020e 0A40     		ands	r2, r1
 305:Core/Src/GEVA.c ****                 to_shift -= (8 - (startx_ptr % 8));
 2640              		.loc 1 305 35 is_stmt 0 view .LVU793
 2641 0210 0299     		ldr	r1, [sp, #8]
 2642 0212 8918     		adds	r1, r1, r2
 305:Core/Src/GEVA.c ****                 to_shift -= (8 - (startx_ptr % 8));
 2643              		.loc 1 305 16 view .LVU794
 2644 0214 0729     		cmp	r1, #7
 2645 0216 8BDC     		bgt	.L135
 331:Core/Src/GEVA.c ****                     buf->vid_buf[buffer_byte_ptr] &= ~((0xff >> startx_ptr % 8) & (0xff << (8 - (en
 2646              		.loc 1 331 17 is_stmt 1 view .LVU795
 331:Core/Src/GEVA.c ****                     buf->vid_buf[buffer_byte_ptr] &= ~((0xff >> startx_ptr % 8) & (0xff << (8 - (en
 2647              		.loc 1 331 23 is_stmt 0 view .LVU796
 2648 0218 217B     		ldrb	r1, [r4, #12]
 331:Core/Src/GEVA.c ****                     buf->vid_buf[buffer_byte_ptr] &= ~((0xff >> startx_ptr % 8) & (0xff << (8 - (en
 2649              		.loc 1 331 19 view .LVU797
 2650 021a 0029     		cmp	r1, #0
 2651 021c D4D1     		bne	.L125
 332:Core/Src/GEVA.c ****                 else 
 2652              		.loc 1 332 21 is_stmt 1 view .LVU798
 332:Core/Src/GEVA.c ****                 else 
 2653              		.loc 1 332 24 is_stmt 0 view .LVU799
 2654 021e 6168     		ldr	r1, [r4, #4]
 2655 0220 8946     		mov	r9, r1
 332:Core/Src/GEVA.c ****                 else 
ARM GAS  C:\Users\arist\AppData\Local\Temp\ccp82oC3.s 			page 71


 2656              		.loc 1 332 33 view .LVU800
 2657 0222 C85C     		ldrb	r0, [r1, r3]
 332:Core/Src/GEVA.c ****                 else 
 2658              		.loc 1 332 62 view .LVU801
 2659 0224 FF21     		movs	r1, #255
 2660 0226 0E00     		movs	r6, r1
 2661 0228 1641     		asrs	r6, r6, r2
 2662 022a B246     		mov	r10, r6
 332:Core/Src/GEVA.c ****                 else 
 2663              		.loc 1 332 107 view .LVU802
 2664 022c 0722     		movs	r2, #7
 2665 022e 5E46     		mov	r6, fp
 2666 0230 1640     		ands	r6, r2
 332:Core/Src/GEVA.c ****                 else 
 2667              		.loc 1 332 95 view .LVU803
 2668 0232 0132     		adds	r2, r2, #1
 2669 0234 921B     		subs	r2, r2, r6
 332:Core/Src/GEVA.c ****                 else 
 2670              		.loc 1 332 89 view .LVU804
 2671 0236 9140     		lsls	r1, r1, r2
 332:Core/Src/GEVA.c ****                 else 
 2672              		.loc 1 332 81 view .LVU805
 2673 0238 5246     		mov	r2, r10
 2674 023a 1140     		ands	r1, r2
 2675 023c 49B2     		sxtb	r1, r1
 332:Core/Src/GEVA.c ****                 else 
 2676              		.loc 1 332 51 view .LVU806
 2677 023e 8843     		bics	r0, r1
 2678 0240 4A46     		mov	r2, r9
 2679 0242 D054     		strb	r0, [r2, r3]
 2680 0244 D3E7     		b	.L124
 2681              	.LVL249:
 2682              	.L134:
 332:Core/Src/GEVA.c ****                 else 
 2683              		.loc 1 332 51 view .LVU807
 2684              	.LBE27:
 2685              	.LBE29:
 242:Core/Src/GEVA.c ****     uint8_t startx_ptr = 0; // pos_x;
 2686              		.loc 1 242 13 view .LVU808
 2687 0246 0024     		movs	r4, #0
 2688              	.LBB30:
 2689              	.LBB28:
 2690 0248 00E0     		b	.L114
 2691              	.LVL250:
 2692              	.L129:
 242:Core/Src/GEVA.c ****     uint8_t startx_ptr = 0; // pos_x;
 2693              		.loc 1 242 13 view .LVU809
 2694              	.LBE28:
 2695              	.LBE30:
 291:Core/Src/GEVA.c **** 
 2696              		.loc 1 291 15 view .LVU810
 2697 024a 0224     		movs	r4, #2
 2698              	.LVL251:
 2699              	.L114:
 338:Core/Src/GEVA.c ****     return error;
 2700              		.loc 1 338 5 is_stmt 1 view .LVU811
 2701 024c 0198     		ldr	r0, [sp, #4]
ARM GAS  C:\Users\arist\AppData\Local\Temp\ccp82oC3.s 			page 72


 2702 024e FFF7FEFF 		bl	free
 2703              	.LVL252:
 339:Core/Src/GEVA.c **** }
 2704              		.loc 1 339 5 view .LVU812
 2705              	.L113:
 340:Core/Src/GEVA.c **** 
 2706              		.loc 1 340 1 is_stmt 0 view .LVU813
 2707 0252 2000     		movs	r0, r4
 2708 0254 07B0     		add	sp, sp, #28
 2709              		@ sp needed
 2710              	.LVL253:
 340:Core/Src/GEVA.c **** 
 2711              		.loc 1 340 1 view .LVU814
 2712 0256 F0BC     		pop	{r4, r5, r6, r7}
 2713 0258 BB46     		mov	fp, r7
 2714 025a B246     		mov	r10, r6
 2715 025c A946     		mov	r9, r5
 2716 025e A046     		mov	r8, r4
 2717 0260 F0BD     		pop	{r4, r5, r6, r7, pc}
 2718              	.LVL254:
 2719              	.L130:
 291:Core/Src/GEVA.c **** 
 2720              		.loc 1 291 15 view .LVU815
 2721 0262 0224     		movs	r4, #2
 2722 0264 F2E7     		b	.L114
 2723              	.L127:
 288:Core/Src/GEVA.c **** 
 2724              		.loc 1 288 16 view .LVU816
 2725 0266 0424     		movs	r4, #4
 2726 0268 F3E7     		b	.L113
 2727              	.L128:
 2728 026a 0424     		movs	r4, #4
 2729 026c F1E7     		b	.L113
 2730              		.cfi_endproc
 2731              	.LFE6:
 2733              		.global	__aeabi_idiv
 2734              		.section	.text.calculate_y,"ax",%progbits
 2735              		.align	1
 2736              		.global	calculate_y
 2737              		.syntax unified
 2738              		.code	16
 2739              		.thumb_func
 2741              	calculate_y:
 2742              	.LVL255:
 2743              	.LFB21:
 697:Core/Src/GEVA.c **** 
 698:Core/Src/GEVA.c **** uint8_t calculate_y(uint8_t x, uint8_t x0, uint8_t x1, uint8_t y0, uint8_t y1) {
 2744              		.loc 1 698 80 is_stmt 1 view -0
 2745              		.cfi_startproc
 2746              		@ args = 4, pretend = 0, frame = 0
 2747              		@ frame_needed = 0, uses_anonymous_args = 0
 2748              		.loc 1 698 80 is_stmt 0 view .LVU818
 2749 0000 70B5     		push	{r4, r5, r6, lr}
 2750              		.cfi_def_cfa_offset 16
 2751              		.cfi_offset 4, -16
 2752              		.cfi_offset 5, -12
 2753              		.cfi_offset 6, -8
ARM GAS  C:\Users\arist\AppData\Local\Temp\ccp82oC3.s 			page 73


 2754              		.cfi_offset 14, -4
 2755 0002 1C00     		movs	r4, r3
 2756 0004 04AB     		add	r3, sp, #16
 2757              	.LVL256:
 2758              		.loc 1 698 80 view .LVU819
 2759 0006 1B78     		ldrb	r3, [r3]
 2760              	.LVL257:
 699:Core/Src/GEVA.c ****     return ((x - x0) * (y1 - y0) / (x1 - x0)) + y0;
 2761              		.loc 1 699 5 is_stmt 1 view .LVU820
 2762              		.loc 1 699 16 is_stmt 0 view .LVU821
 2763 0008 451A     		subs	r5, r0, r1
 2764              		.loc 1 699 28 view .LVU822
 2765 000a 181B     		subs	r0, r3, r4
 2766              	.LVL258:
 2767              		.loc 1 699 22 view .LVU823
 2768 000c 6843     		muls	r0, r5
 2769              		.loc 1 699 40 view .LVU824
 2770 000e 511A     		subs	r1, r2, r1
 2771              	.LVL259:
 2772              		.loc 1 699 34 view .LVU825
 2773 0010 FFF7FEFF 		bl	__aeabi_idiv
 2774              	.LVL260:
 2775              		.loc 1 699 47 view .LVU826
 2776 0014 2018     		adds	r0, r4, r0
 2777 0016 C0B2     		uxtb	r0, r0
 700:Core/Src/GEVA.c **** }
 2778              		.loc 1 700 1 view .LVU827
 2779              		@ sp needed
 2780 0018 70BD     		pop	{r4, r5, r6, pc}
 2781              		.cfi_endproc
 2782              	.LFE21:
 2784              		.section	.text.put_line,"ax",%progbits
 2785              		.align	1
 2786              		.global	put_line
 2787              		.syntax unified
 2788              		.code	16
 2789              		.thumb_func
 2791              	put_line:
 2792              	.LVL261:
 2793              	.LFB5:
 162:Core/Src/GEVA.c **** 
 2794              		.loc 1 162 101 is_stmt 1 view -0
 2795              		.cfi_startproc
 2796              		@ args = 4, pretend = 0, frame = 32
 2797              		@ frame_needed = 0, uses_anonymous_args = 0
 162:Core/Src/GEVA.c **** 
 2798              		.loc 1 162 101 is_stmt 0 view .LVU829
 2799 0000 F0B5     		push	{r4, r5, r6, r7, lr}
 2800              		.cfi_def_cfa_offset 20
 2801              		.cfi_offset 4, -20
 2802              		.cfi_offset 5, -16
 2803              		.cfi_offset 6, -12
 2804              		.cfi_offset 7, -8
 2805              		.cfi_offset 14, -4
 2806 0002 DE46     		mov	lr, fp
 2807 0004 5746     		mov	r7, r10
 2808 0006 4E46     		mov	r6, r9
ARM GAS  C:\Users\arist\AppData\Local\Temp\ccp82oC3.s 			page 74


 2809 0008 4546     		mov	r5, r8
 2810 000a E0B5     		push	{r5, r6, r7, lr}
 2811              		.cfi_def_cfa_offset 36
 2812              		.cfi_offset 8, -36
 2813              		.cfi_offset 9, -32
 2814              		.cfi_offset 10, -28
 2815              		.cfi_offset 11, -24
 2816 000c 8BB0     		sub	sp, sp, #44
 2817              		.cfi_def_cfa_offset 80
 2818 000e 0790     		str	r0, [sp, #28]
 2819 0010 8A46     		mov	r10, r1
 2820 0012 1F00     		movs	r7, r3
 2821 0014 149B     		ldr	r3, [sp, #80]
 2822              	.LVL262:
 162:Core/Src/GEVA.c **** 
 2823              		.loc 1 162 101 view .LVU830
 2824 0016 9B46     		mov	fp, r3
 164:Core/Src/GEVA.c ****     uint8_t firstx = 0;
 2825              		.loc 1 164 5 is_stmt 1 view .LVU831
 2826              	.LVL263:
 165:Core/Src/GEVA.c ****     uint8_t lastx = 0;
 2827              		.loc 1 165 5 view .LVU832
 166:Core/Src/GEVA.c ****     uint8_t firsty = 0;
 2828              		.loc 1 166 5 view .LVU833
 167:Core/Src/GEVA.c ****     uint8_t lasty = 0;
 2829              		.loc 1 167 5 view .LVU834
 168:Core/Src/GEVA.c **** 
 2830              		.loc 1 168 5 view .LVU835
 170:Core/Src/GEVA.c **** 
 2831              		.loc 1 170 5 view .LVU836
 170:Core/Src/GEVA.c **** 
 2832              		.loc 1 170 8 is_stmt 0 view .LVU837
 2833 0018 9042     		cmp	r0, r2
 2834 001a 15D0     		beq	.L156
 2835              	.LBB31:
 187:Core/Src/GEVA.c ****             firstx = pos_x2;
 2836              		.loc 1 187 9 is_stmt 1 view .LVU838
 187:Core/Src/GEVA.c ****             firstx = pos_x2;
 2837              		.loc 1 187 12 is_stmt 0 view .LVU839
 2838 001c 079B     		ldr	r3, [sp, #28]
 2839 001e 9342     		cmp	r3, r2
 2840 0020 30D9     		bls	.L151
 191:Core/Src/GEVA.c ****         }
 2841              		.loc 1 191 19 view .LVU840
 2842 0022 0991     		str	r1, [sp, #36]
 190:Core/Src/GEVA.c ****             lasty = pos_y1;
 2843              		.loc 1 190 20 view .LVU841
 2844 0024 0697     		str	r7, [sp, #24]
 188:Core/Src/GEVA.c ****             lastx = pos_x1;
 2845              		.loc 1 188 20 view .LVU842
 2846 0026 0792     		str	r2, [sp, #28]
 189:Core/Src/GEVA.c ****             firsty = pos_y2;
 2847              		.loc 1 189 19 view .LVU843
 2848 0028 1A00     		movs	r2, r3
 2849              	.LVL264:
 2850              	.L144:
 200:Core/Src/GEVA.c **** 
ARM GAS  C:\Users\arist\AppData\Local\Temp\ccp82oC3.s 			page 75


 2851              		.loc 1 200 9 is_stmt 1 view .LVU844
 200:Core/Src/GEVA.c **** 
 2852              		.loc 1 200 16 is_stmt 0 view .LVU845
 2853 002a 069B     		ldr	r3, [sp, #24]
 2854 002c 0999     		ldr	r1, [sp, #36]
 2855              	.LVL265:
 200:Core/Src/GEVA.c **** 
 2856              		.loc 1 200 16 view .LVU846
 2857 002e 8B42     		cmp	r3, r1
 2858 0030 2BD9     		bls	.L152
 2859 0032 0123     		movs	r3, #1
 2860 0034 5B42     		rsbs	r3, r3, #0
 2861 0036 1800     		movs	r0, r3
 2862              	.LVL266:
 2863              	.L145:
 202:Core/Src/GEVA.c ****         uint8_t nexty = 0;
 2864              		.loc 1 202 9 is_stmt 1 discriminator 4 view .LVU847
 203:Core/Src/GEVA.c ****         int8_t y_todrw = 0;
 2865              		.loc 1 203 9 discriminator 4 view .LVU848
 204:Core/Src/GEVA.c ****         uint8_t fill_y = 0;
 2866              		.loc 1 204 9 discriminator 4 view .LVU849
 205:Core/Src/GEVA.c **** 
 2867              		.loc 1 205 9 discriminator 4 view .LVU850
 207:Core/Src/GEVA.c **** 
 2868              		.loc 1 207 9 discriminator 4 view .LVU851
 2869              	.LBB32:
 207:Core/Src/GEVA.c **** 
 2870              		.loc 1 207 14 discriminator 4 view .LVU852
 207:Core/Src/GEVA.c **** 
 2871              		.loc 1 207 22 is_stmt 0 discriminator 4 view .LVU853
 2872 0038 079B     		ldr	r3, [sp, #28]
 2873              	.LBE32:
 2874              	.LBE31:
 164:Core/Src/GEVA.c ****     uint8_t firstx = 0;
 2875              		.loc 1 164 13 discriminator 4 view .LVU854
 2876 003a 0021     		movs	r1, #0
 2877 003c 0393     		str	r3, [sp, #12]
 2878 003e 0491     		str	r1, [sp, #16]
 2879 0040 D046     		mov	r8, r10
 2880 0042 8246     		mov	r10, r0
 2881 0044 0592     		str	r2, [sp, #20]
 2882              	.LBB36:
 2883              	.LBB33:
 207:Core/Src/GEVA.c **** 
 2884              		.loc 1 207 9 discriminator 4 view .LVU855
 2885 0046 4AE0     		b	.L146
 2886              	.LVL267:
 2887              	.L156:
 207:Core/Src/GEVA.c **** 
 2888              		.loc 1 207 9 discriminator 4 view .LVU856
 2889              	.LBE33:
 2890              	.LBE36:
 2891              	.LBB37:
 172:Core/Src/GEVA.c **** 
 2892              		.loc 1 172 9 is_stmt 1 view .LVU857
 174:Core/Src/GEVA.c ****             line_lenght = (pos_y1 - pos_y2) + 1;
 2893              		.loc 1 174 9 view .LVU858
ARM GAS  C:\Users\arist\AppData\Local\Temp\ccp82oC3.s 			page 76


 174:Core/Src/GEVA.c ****             line_lenght = (pos_y1 - pos_y2) + 1;
 2894              		.loc 1 174 12 is_stmt 0 view .LVU859
 2895 0048 B942     		cmp	r1, r7
 2896 004a 13D9     		bls	.L139
 175:Core/Src/GEVA.c ****             firsty = pos_y2;
 2897              		.loc 1 175 13 is_stmt 1 view .LVU860
 175:Core/Src/GEVA.c ****             firsty = pos_y2;
 2898              		.loc 1 175 35 is_stmt 0 view .LVU861
 2899 004c CB1B     		subs	r3, r1, r7
 2900 004e DBB2     		uxtb	r3, r3
 175:Core/Src/GEVA.c ****             firsty = pos_y2;
 2901              		.loc 1 175 25 view .LVU862
 2902 0050 0133     		adds	r3, r3, #1
 2903 0052 DDB2     		uxtb	r5, r3
 2904              	.LVL268:
 176:Core/Src/GEVA.c ****         }
 2905              		.loc 1 176 13 is_stmt 1 view .LVU863
 2906              	.L140:
 182:Core/Src/GEVA.c ****             error = put_pixel(pos_x1, firsty + i, SET_C, buf);
 2907              		.loc 1 182 9 view .LVU864
 2908              	.LBB38:
 182:Core/Src/GEVA.c ****             error = put_pixel(pos_x1, firsty + i, SET_C, buf);
 2909              		.loc 1 182 14 view .LVU865
 182:Core/Src/GEVA.c ****             error = put_pixel(pos_x1, firsty + i, SET_C, buf);
 2910              		.loc 1 182 22 is_stmt 0 view .LVU866
 2911 0054 0024     		movs	r4, #0
 2912              	.LBE38:
 2913              	.LBE37:
 164:Core/Src/GEVA.c ****     uint8_t firstx = 0;
 2914              		.loc 1 164 13 view .LVU867
 2915 0056 0021     		movs	r1, #0
 2916              	.LVL269:
 164:Core/Src/GEVA.c ****     uint8_t firstx = 0;
 2917              		.loc 1 164 13 view .LVU868
 2918 0058 0800     		movs	r0, r1
 2919              	.LVL270:
 164:Core/Src/GEVA.c ****     uint8_t firstx = 0;
 2920              		.loc 1 164 13 view .LVU869
 2921 005a 079E     		ldr	r6, [sp, #28]
 2922              	.LVL271:
 2923              	.L141:
 2924              	.LBB41:
 2925              	.LBB39:
 182:Core/Src/GEVA.c ****             error = put_pixel(pos_x1, firsty + i, SET_C, buf);
 2926              		.loc 1 182 31 is_stmt 1 discriminator 1 view .LVU870
 2927 005c A542     		cmp	r5, r4
 2928 005e 0FD9     		bls	.L157
 183:Core/Src/GEVA.c ****         }
 2929              		.loc 1 183 13 discriminator 3 view .LVU871
 183:Core/Src/GEVA.c ****         }
 2930              		.loc 1 183 21 is_stmt 0 discriminator 3 view .LVU872
 2931 0060 3919     		adds	r1, r7, r4
 2932 0062 C9B2     		uxtb	r1, r1
 2933 0064 5B46     		mov	r3, fp
 2934 0066 0122     		movs	r2, #1
 2935 0068 3000     		movs	r0, r6
 2936              	.LVL272:
ARM GAS  C:\Users\arist\AppData\Local\Temp\ccp82oC3.s 			page 77


 183:Core/Src/GEVA.c ****         }
 2937              		.loc 1 183 21 discriminator 3 view .LVU873
 2938 006a FFF7FEFF 		bl	put_pixel
 2939              	.LVL273:
 182:Core/Src/GEVA.c ****             error = put_pixel(pos_x1, firsty + i, SET_C, buf);
 2940              		.loc 1 182 47 is_stmt 1 discriminator 3 view .LVU874
 2941 006e 0134     		adds	r4, r4, #1
 2942              	.LVL274:
 182:Core/Src/GEVA.c ****             error = put_pixel(pos_x1, firsty + i, SET_C, buf);
 2943              		.loc 1 182 47 is_stmt 0 discriminator 3 view .LVU875
 2944 0070 E4B2     		uxtb	r4, r4
 2945              	.LVL275:
 182:Core/Src/GEVA.c ****             error = put_pixel(pos_x1, firsty + i, SET_C, buf);
 2946              		.loc 1 182 47 discriminator 3 view .LVU876
 2947 0072 F3E7     		b	.L141
 2948              	.LVL276:
 2949              	.L139:
 182:Core/Src/GEVA.c ****             error = put_pixel(pos_x1, firsty + i, SET_C, buf);
 2950              		.loc 1 182 47 discriminator 3 view .LVU877
 2951              	.LBE39:
 179:Core/Src/GEVA.c ****             firsty = pos_y1;
 2952              		.loc 1 179 13 is_stmt 1 view .LVU878
 179:Core/Src/GEVA.c ****             firsty = pos_y1;
 2953              		.loc 1 179 35 is_stmt 0 view .LVU879
 2954 0074 7B1A     		subs	r3, r7, r1
 2955 0076 DBB2     		uxtb	r3, r3
 179:Core/Src/GEVA.c ****             firsty = pos_y1;
 2956              		.loc 1 179 25 view .LVU880
 2957 0078 0133     		adds	r3, r3, #1
 2958 007a DDB2     		uxtb	r5, r3
 2959              	.LVL277:
 180:Core/Src/GEVA.c ****         }
 2960              		.loc 1 180 13 is_stmt 1 view .LVU881
 180:Core/Src/GEVA.c ****         }
 2961              		.loc 1 180 20 is_stmt 0 view .LVU882
 2962 007c 0F00     		movs	r7, r1
 2963 007e E9E7     		b	.L140
 2964              	.LVL278:
 2965              	.L157:
 2966              	.LBB40:
 180:Core/Src/GEVA.c ****         }
 2967              		.loc 1 180 20 view .LVU883
 2968 0080 0100     		movs	r1, r0
 2969 0082 22E0     		b	.L143
 2970              	.LVL279:
 2971              	.L151:
 180:Core/Src/GEVA.c ****         }
 2972              		.loc 1 180 20 view .LVU884
 2973              	.LBE40:
 2974              	.LBE41:
 2975              	.LBB42:
 197:Core/Src/GEVA.c ****         }
 2976              		.loc 1 197 19 view .LVU885
 2977 0084 0997     		str	r7, [sp, #36]
 196:Core/Src/GEVA.c ****             lasty = pos_y2;
 2978              		.loc 1 196 20 view .LVU886
 2979 0086 0691     		str	r1, [sp, #24]
ARM GAS  C:\Users\arist\AppData\Local\Temp\ccp82oC3.s 			page 78


 2980 0088 CFE7     		b	.L144
 2981              	.LVL280:
 2982              	.L152:
 200:Core/Src/GEVA.c **** 
 2983              		.loc 1 200 16 view .LVU887
 2984 008a 0123     		movs	r3, #1
 2985 008c 1800     		movs	r0, r3
 2986              	.LVL281:
 200:Core/Src/GEVA.c **** 
 2987              		.loc 1 200 16 view .LVU888
 2988 008e D3E7     		b	.L145
 2989              	.LVL282:
 2990              	.L147:
 2991              	.LBB34:
 219:Core/Src/GEVA.c ****                fill_y++;
 2992              		.loc 1 219 16 is_stmt 1 view .LVU889
 219:Core/Src/GEVA.c ****                fill_y++;
 2993              		.loc 1 219 24 is_stmt 0 view .LVU890
 2994 0090 E9B2     		uxtb	r1, r5
 2995 0092 5B46     		mov	r3, fp
 2996 0094 0122     		movs	r2, #1
 2997 0096 0398     		ldr	r0, [sp, #12]
 2998 0098 FFF7FEFF 		bl	put_pixel
 2999              	.LVL283:
 3000 009c 0490     		str	r0, [sp, #16]
 3001              	.LVL284:
 220:Core/Src/GEVA.c **** 
 3002              		.loc 1 220 16 is_stmt 1 view .LVU891
 220:Core/Src/GEVA.c **** 
 3003              		.loc 1 220 22 is_stmt 0 view .LVU892
 3004 009e 0134     		adds	r4, r4, #1
 3005              	.LVL285:
 220:Core/Src/GEVA.c **** 
 3006              		.loc 1 220 22 view .LVU893
 3007 00a0 E4B2     		uxtb	r4, r4
 3008              	.LVL286:
 222:Core/Src/GEVA.c ****                    return error;
 3009              		.loc 1 222 16 is_stmt 1 view .LVU894
 222:Core/Src/GEVA.c ****                    return error;
 3010              		.loc 1 222 19 is_stmt 0 view .LVU895
 3011 00a2 BD42     		cmp	r5, r7
 3012 00a4 0ED0     		beq	.L158
 3013              	.L148:
 225:Core/Src/GEVA.c ****         }
 3014              		.loc 1 225 30 is_stmt 1 view .LVU896
 225:Core/Src/GEVA.c ****         }
 3015              		.loc 1 225 41 is_stmt 0 view .LVU897
 3016 00a6 4B46     		mov	r3, r9
 3017 00a8 F01A     		subs	r0, r6, r3
 3018              	.LVL287:
 225:Core/Src/GEVA.c ****         }
 3019              		.loc 1 225 32 view .LVU898
 3020 00aa 40B2     		sxtb	r0, r0
 3021 00ac FFF7FEFF 		bl	modulo
 3022              	.LVL288:
 225:Core/Src/GEVA.c ****         }
 3023              		.loc 1 225 30 view .LVU899
ARM GAS  C:\Users\arist\AppData\Local\Temp\ccp82oC3.s 			page 79


 3024 00b0 A042     		cmp	r0, r4
 3025 00b2 12D9     		bls	.L159
 3026              	.LVL289:
 3027              	.L149:
 213:Core/Src/GEVA.c ****                y_todrw = y + (slope_addendum * fill_y);
 3028              		.loc 1 213 13 is_stmt 1 view .LVU900
 214:Core/Src/GEVA.c ****               
 3029              		.loc 1 214 16 view .LVU901
 214:Core/Src/GEVA.c ****               
 3030              		.loc 1 214 28 is_stmt 0 view .LVU902
 3031 00b4 5346     		mov	r3, r10
 3032 00b6 6343     		muls	r3, r4
 3033 00b8 F318     		adds	r3, r6, r3
 214:Core/Src/GEVA.c ****               
 3034              		.loc 1 214 24 view .LVU903
 3035 00ba 5DB2     		sxtb	r5, r3
 3036              	.LVL290:
 216:Core/Src/GEVA.c ****                    y_todrw = 0;
 3037              		.loc 1 216 16 is_stmt 1 view .LVU904
 216:Core/Src/GEVA.c ****                    y_todrw = 0;
 3038              		.loc 1 216 19 is_stmt 0 view .LVU905
 3039 00bc 1B06     		lsls	r3, r3, #24
 3040 00be E7D5     		bpl	.L147
 217:Core/Src/GEVA.c **** 
 3041              		.loc 1 217 28 view .LVU906
 3042 00c0 0025     		movs	r5, #0
 3043              	.LVL291:
 217:Core/Src/GEVA.c **** 
 3044              		.loc 1 217 28 view .LVU907
 3045 00c2 E5E7     		b	.L147
 3046              	.LVL292:
 3047              	.L158:
 222:Core/Src/GEVA.c ****                    return error;
 3048              		.loc 1 222 38 discriminator 1 view .LVU908
 3049 00c4 B845     		cmp	r8, r7
 3050 00c6 EED0     		beq	.L148
 3051 00c8 0499     		ldr	r1, [sp, #16]
 3052              	.LVL293:
 3053              	.L143:
 222:Core/Src/GEVA.c ****                    return error;
 3054              		.loc 1 222 38 discriminator 1 view .LVU909
 3055              	.LBE34:
 3056              	.LBE42:
 229:Core/Src/GEVA.c **** 
 3057              		.loc 1 229 1 view .LVU910
 3058 00ca 0800     		movs	r0, r1
 3059 00cc 0BB0     		add	sp, sp, #44
 3060              		@ sp needed
 3061 00ce F0BC     		pop	{r4, r5, r6, r7}
 3062 00d0 BB46     		mov	fp, r7
 3063 00d2 B246     		mov	r10, r6
 3064 00d4 A946     		mov	r9, r5
 3065 00d6 A046     		mov	r8, r4
 3066 00d8 F0BD     		pop	{r4, r5, r6, r7, pc}
 3067              	.LVL294:
 3068              	.L159:
 3069              	.LBB43:
ARM GAS  C:\Users\arist\AppData\Local\Temp\ccp82oC3.s 			page 80


 3070              	.LBB35:
 207:Core/Src/GEVA.c **** 
 3071              		.loc 1 207 50 view .LVU911
 3072 00da 089B     		ldr	r3, [sp, #32]
 3073 00dc 0393     		str	r3, [sp, #12]
 3074              	.LVL295:
 3075              	.L146:
 207:Core/Src/GEVA.c **** 
 3076              		.loc 1 207 36 is_stmt 1 discriminator 1 view .LVU912
 3077 00de 059B     		ldr	r3, [sp, #20]
 3078 00e0 039A     		ldr	r2, [sp, #12]
 3079 00e2 9342     		cmp	r3, r2
 3080 00e4 16D3     		bcc	.L160
 209:Core/Src/GEVA.c ****             nexty = calculate_y(x + 1, firstx, lastx, firsty, lasty);
 3081              		.loc 1 209 13 view .LVU913
 209:Core/Src/GEVA.c ****             nexty = calculate_y(x + 1, firstx, lastx, firsty, lasty);
 3082              		.loc 1 209 17 is_stmt 0 view .LVU914
 3083 00e6 099C     		ldr	r4, [sp, #36]
 3084 00e8 0094     		str	r4, [sp]
 3085 00ea 069B     		ldr	r3, [sp, #24]
 3086 00ec 059A     		ldr	r2, [sp, #20]
 3087 00ee 0799     		ldr	r1, [sp, #28]
 3088 00f0 8946     		mov	r9, r1
 3089 00f2 039D     		ldr	r5, [sp, #12]
 3090 00f4 2800     		movs	r0, r5
 3091 00f6 FFF7FEFF 		bl	calculate_y
 3092              	.LVL296:
 3093 00fa 0600     		movs	r6, r0
 3094              	.LVL297:
 210:Core/Src/GEVA.c ****             fill_y = 0;
 3095              		.loc 1 210 13 is_stmt 1 view .LVU915
 210:Core/Src/GEVA.c ****             fill_y = 0;
 3096              		.loc 1 210 21 is_stmt 0 view .LVU916
 3097 00fc 6B1C     		adds	r3, r5, #1
 3098 00fe D8B2     		uxtb	r0, r3
 3099 0100 0890     		str	r0, [sp, #32]
 3100 0102 0094     		str	r4, [sp]
 3101 0104 069B     		ldr	r3, [sp, #24]
 3102 0106 059A     		ldr	r2, [sp, #20]
 3103 0108 4946     		mov	r1, r9
 3104 010a FFF7FEFF 		bl	calculate_y
 3105              	.LVL298:
 3106 010e 8146     		mov	r9, r0
 3107              	.LVL299:
 211:Core/Src/GEVA.c **** 
 3108              		.loc 1 211 13 is_stmt 1 view .LVU917
 211:Core/Src/GEVA.c **** 
 3109              		.loc 1 211 20 is_stmt 0 view .LVU918
 3110 0110 0024     		movs	r4, #0
 3111 0112 CFE7     		b	.L149
 3112              	.LVL300:
 3113              	.L160:
 211:Core/Src/GEVA.c **** 
 3114              		.loc 1 211 20 view .LVU919
 3115 0114 0499     		ldr	r1, [sp, #16]
 3116 0116 D8E7     		b	.L143
 3117              	.LBE35:
ARM GAS  C:\Users\arist\AppData\Local\Temp\ccp82oC3.s 			page 81


 3118              	.LBE43:
 3119              		.cfi_endproc
 3120              	.LFE5:
 3122              		.section	.text.put_rect,"ax",%progbits
 3123              		.align	1
 3124              		.global	put_rect
 3125              		.syntax unified
 3126              		.code	16
 3127              		.thumb_func
 3129              	put_rect:
 3130              	.LVL301:
 3131              	.LFB11:
 537:Core/Src/GEVA.c ****     uint8_t error = 0;
 3132              		.loc 1 537 92 is_stmt 1 view -0
 3133              		.cfi_startproc
 3134              		@ args = 4, pretend = 0, frame = 0
 3135              		@ frame_needed = 0, uses_anonymous_args = 0
 537:Core/Src/GEVA.c ****     uint8_t error = 0;
 3136              		.loc 1 537 92 is_stmt 0 view .LVU921
 3137 0000 F0B5     		push	{r4, r5, r6, r7, lr}
 3138              		.cfi_def_cfa_offset 20
 3139              		.cfi_offset 4, -20
 3140              		.cfi_offset 5, -16
 3141              		.cfi_offset 6, -12
 3142              		.cfi_offset 7, -8
 3143              		.cfi_offset 14, -4
 3144 0002 C646     		mov	lr, r8
 3145 0004 00B5     		push	{lr}
 3146              		.cfi_def_cfa_offset 24
 3147              		.cfi_offset 8, -24
 3148 0006 82B0     		sub	sp, sp, #8
 3149              		.cfi_def_cfa_offset 32
 3150 0008 0700     		movs	r7, r0
 3151 000a 8846     		mov	r8, r1
 3152 000c 1C00     		movs	r4, r3
 3153 000e 089D     		ldr	r5, [sp, #32]
 538:Core/Src/GEVA.c ****     error = put_line(o_x, o_y, o_x + width, o_y, buf);
 3154              		.loc 1 538 5 is_stmt 1 view .LVU922
 3155              	.LVL302:
 539:Core/Src/GEVA.c ****     error = put_line(o_x + width, o_y, o_x + width, o_y + height, buf);
 3156              		.loc 1 539 5 view .LVU923
 539:Core/Src/GEVA.c ****     error = put_line(o_x + width, o_y, o_x + width, o_y + height, buf);
 3157              		.loc 1 539 13 is_stmt 0 view .LVU924
 3158 0010 8218     		adds	r2, r0, r2
 3159              	.LVL303:
 539:Core/Src/GEVA.c ****     error = put_line(o_x + width, o_y, o_x + width, o_y + height, buf);
 3160              		.loc 1 539 13 view .LVU925
 3161 0012 D6B2     		uxtb	r6, r2
 3162 0014 0095     		str	r5, [sp]
 3163 0016 0B00     		movs	r3, r1
 3164              	.LVL304:
 539:Core/Src/GEVA.c ****     error = put_line(o_x + width, o_y, o_x + width, o_y + height, buf);
 3165              		.loc 1 539 13 view .LVU926
 3166 0018 3200     		movs	r2, r6
 3167 001a FFF7FEFF 		bl	put_line
 3168              	.LVL305:
 540:Core/Src/GEVA.c ****     error = put_line(o_x, o_y + height, o_x + width, o_y + height, buf);
ARM GAS  C:\Users\arist\AppData\Local\Temp\ccp82oC3.s 			page 82


 3169              		.loc 1 540 5 is_stmt 1 view .LVU927
 540:Core/Src/GEVA.c ****     error = put_line(o_x, o_y + height, o_x + width, o_y + height, buf);
 3170              		.loc 1 540 13 is_stmt 0 view .LVU928
 3171 001e 4444     		add	r4, r4, r8
 3172 0020 E4B2     		uxtb	r4, r4
 3173 0022 0095     		str	r5, [sp]
 3174 0024 2300     		movs	r3, r4
 3175 0026 3200     		movs	r2, r6
 3176 0028 4146     		mov	r1, r8
 3177 002a 3000     		movs	r0, r6
 3178 002c FFF7FEFF 		bl	put_line
 3179              	.LVL306:
 541:Core/Src/GEVA.c ****     error = put_line(o_x, o_y, o_x, o_y + height, buf);
 3180              		.loc 1 541 5 is_stmt 1 view .LVU929
 541:Core/Src/GEVA.c ****     error = put_line(o_x, o_y, o_x, o_y + height, buf);
 3181              		.loc 1 541 13 is_stmt 0 view .LVU930
 3182 0030 0095     		str	r5, [sp]
 3183 0032 2300     		movs	r3, r4
 3184 0034 3200     		movs	r2, r6
 3185 0036 2100     		movs	r1, r4
 3186 0038 3800     		movs	r0, r7
 3187 003a FFF7FEFF 		bl	put_line
 3188              	.LVL307:
 542:Core/Src/GEVA.c ****     return error;
 3189              		.loc 1 542 5 is_stmt 1 view .LVU931
 542:Core/Src/GEVA.c ****     return error;
 3190              		.loc 1 542 13 is_stmt 0 view .LVU932
 3191 003e 0095     		str	r5, [sp]
 3192 0040 2300     		movs	r3, r4
 3193 0042 3A00     		movs	r2, r7
 3194 0044 4146     		mov	r1, r8
 3195 0046 3800     		movs	r0, r7
 3196 0048 FFF7FEFF 		bl	put_line
 3197              	.LVL308:
 543:Core/Src/GEVA.c **** }
 3198              		.loc 1 543 5 is_stmt 1 view .LVU933
 544:Core/Src/GEVA.c **** 
 3199              		.loc 1 544 1 is_stmt 0 view .LVU934
 3200 004c 02B0     		add	sp, sp, #8
 3201              		@ sp needed
 3202 004e 80BC     		pop	{r7}
 3203 0050 B846     		mov	r8, r7
 3204 0052 F0BD     		pop	{r4, r5, r6, r7, pc}
 3205              		.cfi_endproc
 3206              	.LFE11:
 3208              		.section	.text.put_triangle,"ax",%progbits
 3209              		.align	1
 3210              		.global	put_triangle
 3211              		.syntax unified
 3212              		.code	16
 3213              		.thumb_func
 3215              	put_triangle:
 3216              	.LVL309:
 3217              	.LFB12:
 551:Core/Src/GEVA.c ****     uint8_t error = 0;
 3218              		.loc 1 551 119 is_stmt 1 view -0
 3219              		.cfi_startproc
ARM GAS  C:\Users\arist\AppData\Local\Temp\ccp82oC3.s 			page 83


 3220              		@ args = 12, pretend = 0, frame = 0
 3221              		@ frame_needed = 0, uses_anonymous_args = 0
 551:Core/Src/GEVA.c ****     uint8_t error = 0;
 3222              		.loc 1 551 119 is_stmt 0 view .LVU936
 3223 0000 F0B5     		push	{r4, r5, r6, r7, lr}
 3224              		.cfi_def_cfa_offset 20
 3225              		.cfi_offset 4, -20
 3226              		.cfi_offset 5, -16
 3227              		.cfi_offset 6, -12
 3228              		.cfi_offset 7, -8
 3229              		.cfi_offset 14, -4
 3230 0002 D646     		mov	lr, r10
 3231 0004 4F46     		mov	r7, r9
 3232 0006 4646     		mov	r6, r8
 3233 0008 C0B5     		push	{r6, r7, lr}
 3234              		.cfi_def_cfa_offset 32
 3235              		.cfi_offset 8, -32
 3236              		.cfi_offset 9, -28
 3237              		.cfi_offset 10, -24
 3238 000a 82B0     		sub	sp, sp, #8
 3239              		.cfi_def_cfa_offset 40
 3240 000c 0600     		movs	r6, r0
 3241 000e 8846     		mov	r8, r1
 3242 0010 1400     		movs	r4, r2
 3243 0012 1D00     		movs	r5, r3
 3244 0014 0AAB     		add	r3, sp, #40
 3245              	.LVL310:
 551:Core/Src/GEVA.c ****     uint8_t error = 0;
 3246              		.loc 1 551 119 view .LVU937
 3247 0016 1B78     		ldrb	r3, [r3]
 3248              	.LVL311:
 551:Core/Src/GEVA.c ****     uint8_t error = 0;
 3249              		.loc 1 551 119 view .LVU938
 3250 0018 9946     		mov	r9, r3
 3251 001a 0BAB     		add	r3, sp, #44
 3252              	.LVL312:
 551:Core/Src/GEVA.c ****     uint8_t error = 0;
 3253              		.loc 1 551 119 view .LVU939
 3254 001c 1B78     		ldrb	r3, [r3]
 3255              	.LVL313:
 551:Core/Src/GEVA.c ****     uint8_t error = 0;
 3256              		.loc 1 551 119 view .LVU940
 3257 001e 9A46     		mov	r10, r3
 3258 0020 0C9F     		ldr	r7, [sp, #48]
 552:Core/Src/GEVA.c ****     error = put_line(a_x, a_y, b_x, b_y, buf);
 3259              		.loc 1 552 5 is_stmt 1 view .LVU941
 3260              	.LVL314:
 553:Core/Src/GEVA.c ****     error = put_line(a_x, a_y, c_x, c_y, buf);
 3261              		.loc 1 553 5 view .LVU942
 553:Core/Src/GEVA.c ****     error = put_line(a_x, a_y, c_x, c_y, buf);
 3262              		.loc 1 553 13 is_stmt 0 view .LVU943
 3263 0022 0097     		str	r7, [sp]
 3264 0024 2B00     		movs	r3, r5
 3265 0026 FFF7FEFF 		bl	put_line
 3266              	.LVL315:
 554:Core/Src/GEVA.c ****     error = put_line(b_x, b_y, c_x, c_y, buf);
 3267              		.loc 1 554 5 is_stmt 1 view .LVU944
ARM GAS  C:\Users\arist\AppData\Local\Temp\ccp82oC3.s 			page 84


 554:Core/Src/GEVA.c ****     error = put_line(b_x, b_y, c_x, c_y, buf);
 3268              		.loc 1 554 13 is_stmt 0 view .LVU945
 3269 002a 0097     		str	r7, [sp]
 3270 002c 5346     		mov	r3, r10
 3271 002e 4A46     		mov	r2, r9
 3272 0030 4146     		mov	r1, r8
 3273 0032 3000     		movs	r0, r6
 3274 0034 FFF7FEFF 		bl	put_line
 3275              	.LVL316:
 555:Core/Src/GEVA.c ****     return error;
 3276              		.loc 1 555 5 is_stmt 1 view .LVU946
 555:Core/Src/GEVA.c ****     return error;
 3277              		.loc 1 555 13 is_stmt 0 view .LVU947
 3278 0038 0097     		str	r7, [sp]
 3279 003a 5346     		mov	r3, r10
 3280 003c 4A46     		mov	r2, r9
 3281 003e 2900     		movs	r1, r5
 3282 0040 2000     		movs	r0, r4
 3283 0042 FFF7FEFF 		bl	put_line
 3284              	.LVL317:
 556:Core/Src/GEVA.c **** }
 3285              		.loc 1 556 5 is_stmt 1 view .LVU948
 557:Core/Src/GEVA.c **** 
 3286              		.loc 1 557 1 is_stmt 0 view .LVU949
 3287 0046 02B0     		add	sp, sp, #8
 3288              		@ sp needed
 3289 0048 E0BC     		pop	{r5, r6, r7}
 3290 004a BA46     		mov	r10, r7
 3291 004c B146     		mov	r9, r6
 3292 004e A846     		mov	r8, r5
 3293 0050 F0BD     		pop	{r4, r5, r6, r7, pc}
 3294              		.cfi_endproc
 3295              	.LFE12:
 3297              		.global	__aeabi_fcmpeq
 3298              		.global	__aeabi_fcmple
 3299              		.global	__aeabi_i2f
 3300              		.global	__aeabi_fadd
 3301              		.global	__aeabi_fcmpge
 3302              		.global	__aeabi_fcmpgt
 3303              		.global	__aeabi_fmul
 3304              		.global	__aeabi_fdiv
 3305              		.global	__aeabi_f2uiz
 3306              		.section	.text.put_pos_COL,"ax",%progbits
 3307              		.align	1
 3308              		.global	put_pos_COL
 3309              		.syntax unified
 3310              		.code	16
 3311              		.thumb_func
 3313              	put_pos_COL:
 3314              	.LVL318:
 3315              	.LFB22:
 701:Core/Src/GEVA.c **** 
 702:Core/Src/GEVA.c **** /* Draw only positive column chart
 703:Core/Src/GEVA.c ****  * return error code
 704:Core/Src/GEVA.c ****  * error code list:
 705:Core/Src/GEVA.c ****  * 1 data out of range
 706:Core/Src/GEVA.c ****  * 2 dimension mismatch
ARM GAS  C:\Users\arist\AppData\Local\Temp\ccp82oC3.s 			page 85


 707:Core/Src/GEVA.c ****  * 3 chart not defined
 708:Core/Src/GEVA.c ****  * 4 starting point out of scope
 709:Core/Src/GEVA.c **** */
 710:Core/Src/GEVA.c **** uint8_t put_pos_COL(data_container* c, video_buffer* buf) {
 3316              		.loc 1 710 59 is_stmt 1 view -0
 3317              		.cfi_startproc
 3318              		@ args = 0, pretend = 0, frame = 0
 3319              		@ frame_needed = 0, uses_anonymous_args = 0
 3320              		.loc 1 710 59 is_stmt 0 view .LVU951
 3321 0000 F0B5     		push	{r4, r5, r6, r7, lr}
 3322              		.cfi_def_cfa_offset 20
 3323              		.cfi_offset 4, -20
 3324              		.cfi_offset 5, -16
 3325              		.cfi_offset 6, -12
 3326              		.cfi_offset 7, -8
 3327              		.cfi_offset 14, -4
 3328 0002 C646     		mov	lr, r8
 3329 0004 00B5     		push	{lr}
 3330              		.cfi_def_cfa_offset 24
 3331              		.cfi_offset 8, -24
 3332 0006 82B0     		sub	sp, sp, #8
 3333              		.cfi_def_cfa_offset 32
 3334 0008 0400     		movs	r4, r0
 3335 000a 0D00     		movs	r5, r1
 711:Core/Src/GEVA.c **** 
 712:Core/Src/GEVA.c ****     uint8_t error = 1;
 3336              		.loc 1 712 5 is_stmt 1 view .LVU952
 3337              	.LVL319:
 713:Core/Src/GEVA.c **** 
 714:Core/Src/GEVA.c ****     if (c->max == 0 || c->dim_x == 0 || c->dim_y_pos == 0 || c->max <= c->min)
 3338              		.loc 1 714 5 view .LVU953
 3339              		.loc 1 714 10 is_stmt 0 view .LVU954
 3340 000c 8668     		ldr	r6, [r0, #8]
 3341              		.loc 1 714 8 view .LVU955
 3342 000e 0021     		movs	r1, #0
 3343              	.LVL320:
 3344              		.loc 1 714 8 view .LVU956
 3345 0010 301C     		adds	r0, r6, #0
 3346              	.LVL321:
 3347              		.loc 1 714 8 view .LVU957
 3348 0012 FFF7FEFF 		bl	__aeabi_fcmpeq
 3349              	.LVL322:
 3350 0016 0028     		cmp	r0, #0
 3351 0018 53D1     		bne	.L170
 3352              		.loc 1 714 25 discriminator 1 view .LVU958
 3353 001a E778     		ldrb	r7, [r4, #3]
 3354              		.loc 1 714 21 discriminator 1 view .LVU959
 3355 001c 002F     		cmp	r7, #0
 3356 001e 56D0     		beq	.L171
 3357              		.loc 1 714 42 discriminator 2 view .LVU960
 3358 0020 2379     		ldrb	r3, [r4, #4]
 3359 0022 9846     		mov	r8, r3
 3360              		.loc 1 714 38 discriminator 2 view .LVU961
 3361 0024 002B     		cmp	r3, #0
 3362 0026 54D0     		beq	.L172
 3363              		.loc 1 714 73 discriminator 3 view .LVU962
 3364 0028 E168     		ldr	r1, [r4, #12]
ARM GAS  C:\Users\arist\AppData\Local\Temp\ccp82oC3.s 			page 86


 3365              		.loc 1 714 59 discriminator 3 view .LVU963
 3366 002a 301C     		adds	r0, r6, #0
 3367 002c FFF7FEFF 		bl	__aeabi_fcmple
 3368              	.LVL323:
 3369 0030 0028     		cmp	r0, #0
 3370 0032 01D0     		beq	.L179
 715:Core/Src/GEVA.c ****         error = 3;
 3371              		.loc 1 715 15 view .LVU964
 3372 0034 0326     		movs	r6, #3
 3373 0036 45E0     		b	.L164
 3374              	.L179:
 716:Core/Src/GEVA.c **** 
 717:Core/Src/GEVA.c ****     else {
 718:Core/Src/GEVA.c ****         error = clear_sector(c->o_x, c->o_y, c->dim_x, c->dim_y_pos, buf); //limits check within cl
 3375              		.loc 1 718 9 is_stmt 1 view .LVU965
 3376              		.loc 1 718 17 is_stmt 0 view .LVU966
 3377 0038 6178     		ldrb	r1, [r4, #1]
 3378 003a 2078     		ldrb	r0, [r4]
 3379 003c 0095     		str	r5, [sp]
 3380 003e 4346     		mov	r3, r8
 3381 0040 3A00     		movs	r2, r7
 3382 0042 FFF7FEFF 		bl	clear_sector
 3383              	.LVL324:
 3384 0046 0600     		movs	r6, r0
 3385              	.LVL325:
 719:Core/Src/GEVA.c **** 
 720:Core/Src/GEVA.c ****         if (c->o_y + c->data >= 0) {
 3386              		.loc 1 720 9 is_stmt 1 view .LVU967
 3387              		.loc 1 720 14 is_stmt 0 view .LVU968
 3388 0048 6078     		ldrb	r0, [r4, #1]
 3389              	.LVL326:
 3390              		.loc 1 720 23 view .LVU969
 3391 004a 6769     		ldr	r7, [r4, #20]
 3392              		.loc 1 720 20 view .LVU970
 3393 004c FFF7FEFF 		bl	__aeabi_i2f
 3394              	.LVL327:
 3395 0050 391C     		adds	r1, r7, #0
 3396 0052 FFF7FEFF 		bl	__aeabi_fadd
 3397              	.LVL328:
 3398              		.loc 1 720 12 view .LVU971
 3399 0056 0021     		movs	r1, #0
 3400 0058 FFF7FEFF 		bl	__aeabi_fcmpge
 3401              	.LVL329:
 3402 005c 0028     		cmp	r0, #0
 3403 005e 3AD0     		beq	.L178
 721:Core/Src/GEVA.c ****             if (c->data > 0 && c->data <= c->max) {
 3404              		.loc 1 721 13 is_stmt 1 view .LVU972
 3405              		.loc 1 721 16 is_stmt 0 view .LVU973
 3406 0060 0021     		movs	r1, #0
 3407 0062 381C     		adds	r0, r7, #0
 3408 0064 FFF7FEFF 		bl	__aeabi_fcmpgt
 3409              	.LVL330:
 3410 0068 0028     		cmp	r0, #0
 3411 006a 2BD0     		beq	.L164
 3412              		.loc 1 721 44 discriminator 1 view .LVU974
 3413 006c A368     		ldr	r3, [r4, #8]
 3414 006e 9846     		mov	r8, r3
ARM GAS  C:\Users\arist\AppData\Local\Temp\ccp82oC3.s 			page 87


 3415              		.loc 1 721 29 discriminator 1 view .LVU975
 3416 0070 191C     		adds	r1, r3, #0
 3417 0072 381C     		adds	r0, r7, #0
 3418 0074 FFF7FEFF 		bl	__aeabi_fcmple
 3419              	.LVL331:
 3420 0078 0028     		cmp	r0, #0
 3421 007a 23D0     		beq	.L164
 3422              	.LBB44:
 722:Core/Src/GEVA.c ****                 uint8_t dy = c->data * c->dim_y_pos / c->max;
 3423              		.loc 1 722 17 is_stmt 1 view .LVU976
 3424              		.loc 1 722 41 is_stmt 0 view .LVU977
 3425 007c 2079     		ldrb	r0, [r4, #4]
 3426              		.loc 1 722 38 view .LVU978
 3427 007e FFF7FEFF 		bl	__aeabi_i2f
 3428              	.LVL332:
 3429 0082 391C     		adds	r1, r7, #0
 3430 0084 FFF7FEFF 		bl	__aeabi_fmul
 3431              	.LVL333:
 3432              		.loc 1 722 53 view .LVU979
 3433 0088 4146     		mov	r1, r8
 3434 008a FFF7FEFF 		bl	__aeabi_fdiv
 3435              	.LVL334:
 3436              		.loc 1 722 25 view .LVU980
 3437 008e FFF7FEFF 		bl	__aeabi_f2uiz
 3438              	.LVL335:
 3439 0092 C3B2     		uxtb	r3, r0
 3440 0094 9846     		mov	r8, r3
 3441              	.LVL336:
 723:Core/Src/GEVA.c **** 
 724:Core/Src/GEVA.c ****                 for (uint8_t i = 0; i < c->dim_x; i++)
 3442              		.loc 1 724 17 is_stmt 1 view .LVU981
 3443              	.LBB45:
 3444              		.loc 1 724 22 view .LVU982
 3445              		.loc 1 724 30 is_stmt 0 view .LVU983
 3446 0096 0027     		movs	r7, #0
 3447              		.loc 1 724 17 view .LVU984
 3448 0098 0FE0     		b	.L168
 3449              	.LVL337:
 3450              	.L169:
 725:Core/Src/GEVA.c ****                     error = put_line(c->o_x + i, c->o_y, c->o_x + i, c->o_y + dy - 1, buf);
 3451              		.loc 1 725 21 is_stmt 1 discriminator 3 view .LVU985
 3452              		.loc 1 725 39 is_stmt 0 discriminator 3 view .LVU986
 3453 009a 2078     		ldrb	r0, [r4]
 3454              		.loc 1 725 29 discriminator 3 view .LVU987
 3455 009c C019     		adds	r0, r0, r7
 3456 009e C0B2     		uxtb	r0, r0
 3457 00a0 6178     		ldrb	r1, [r4, #1]
 3458              		.loc 1 725 77 discriminator 3 view .LVU988
 3459 00a2 4346     		mov	r3, r8
 3460 00a4 CB18     		adds	r3, r1, r3
 3461 00a6 DBB2     		uxtb	r3, r3
 3462              		.loc 1 725 29 discriminator 3 view .LVU989
 3463 00a8 013B     		subs	r3, r3, #1
 3464 00aa DBB2     		uxtb	r3, r3
 3465 00ac 0095     		str	r5, [sp]
 3466 00ae 0200     		movs	r2, r0
 3467 00b0 FFF7FEFF 		bl	put_line
ARM GAS  C:\Users\arist\AppData\Local\Temp\ccp82oC3.s 			page 88


 3468              	.LVL338:
 3469 00b4 0600     		movs	r6, r0
 3470              	.LVL339:
 724:Core/Src/GEVA.c ****                     error = put_line(c->o_x + i, c->o_y, c->o_x + i, c->o_y + dy - 1, buf);
 3471              		.loc 1 724 52 is_stmt 1 discriminator 3 view .LVU990
 3472 00b6 0137     		adds	r7, r7, #1
 3473              	.LVL340:
 724:Core/Src/GEVA.c ****                     error = put_line(c->o_x + i, c->o_y, c->o_x + i, c->o_y + dy - 1, buf);
 3474              		.loc 1 724 52 is_stmt 0 discriminator 3 view .LVU991
 3475 00b8 FFB2     		uxtb	r7, r7
 3476              	.LVL341:
 3477              	.L168:
 724:Core/Src/GEVA.c ****                     error = put_line(c->o_x + i, c->o_y, c->o_x + i, c->o_y + dy - 1, buf);
 3478              		.loc 1 724 39 is_stmt 1 discriminator 1 view .LVU992
 724:Core/Src/GEVA.c ****                     error = put_line(c->o_x + i, c->o_y, c->o_x + i, c->o_y + dy - 1, buf);
 3479              		.loc 1 724 42 is_stmt 0 discriminator 1 view .LVU993
 3480 00ba E378     		ldrb	r3, [r4, #3]
 724:Core/Src/GEVA.c ****                     error = put_line(c->o_x + i, c->o_y, c->o_x + i, c->o_y + dy - 1, buf);
 3481              		.loc 1 724 39 discriminator 1 view .LVU994
 3482 00bc BB42     		cmp	r3, r7
 3483 00be ECD8     		bhi	.L169
 3484 00c0 00E0     		b	.L164
 3485              	.LVL342:
 3486              	.L170:
 724:Core/Src/GEVA.c ****                     error = put_line(c->o_x + i, c->o_y, c->o_x + i, c->o_y + dy - 1, buf);
 3487              		.loc 1 724 39 discriminator 1 view .LVU995
 3488              	.LBE45:
 3489              	.LBE44:
 715:Core/Src/GEVA.c **** 
 3490              		.loc 1 715 15 view .LVU996
 3491 00c2 0326     		movs	r6, #3
 3492              	.LVL343:
 3493              	.L164:
 726:Core/Src/GEVA.c ****             }
 727:Core/Src/GEVA.c ****         }
 728:Core/Src/GEVA.c ****         else
 729:Core/Src/GEVA.c ****             error = 2;
 730:Core/Src/GEVA.c ****     }
 731:Core/Src/GEVA.c **** 
 732:Core/Src/GEVA.c ****     return error;
 3494              		.loc 1 732 5 is_stmt 1 view .LVU997
 733:Core/Src/GEVA.c **** }
 3495              		.loc 1 733 1 is_stmt 0 view .LVU998
 3496 00c4 3000     		movs	r0, r6
 3497 00c6 02B0     		add	sp, sp, #8
 3498              		@ sp needed
 3499              	.LVL344:
 3500              	.LVL345:
 3501              	.LVL346:
 3502              		.loc 1 733 1 view .LVU999
 3503 00c8 80BC     		pop	{r7}
 3504 00ca B846     		mov	r8, r7
 3505 00cc F0BD     		pop	{r4, r5, r6, r7, pc}
 3506              	.LVL347:
 3507              	.L171:
 715:Core/Src/GEVA.c **** 
 3508              		.loc 1 715 15 view .LVU1000
ARM GAS  C:\Users\arist\AppData\Local\Temp\ccp82oC3.s 			page 89


 3509 00ce 0326     		movs	r6, #3
 3510 00d0 F8E7     		b	.L164
 3511              	.L172:
 3512 00d2 0326     		movs	r6, #3
 3513 00d4 F6E7     		b	.L164
 3514              	.LVL348:
 3515              	.L178:
 729:Core/Src/GEVA.c ****     }
 3516              		.loc 1 729 19 view .LVU1001
 3517 00d6 0226     		movs	r6, #2
 3518              	.LVL349:
 729:Core/Src/GEVA.c ****     }
 3519              		.loc 1 729 19 view .LVU1002
 3520 00d8 F4E7     		b	.L164
 3521              		.cfi_endproc
 3522              	.LFE22:
 3524              		.global	__aeabi_fcmplt
 3525              		.section	.text.put_neg_COL,"ax",%progbits
 3526              		.align	1
 3527              		.global	put_neg_COL
 3528              		.syntax unified
 3529              		.code	16
 3530              		.thumb_func
 3532              	put_neg_COL:
 3533              	.LVL350:
 3534              	.LFB23:
 734:Core/Src/GEVA.c **** 
 735:Core/Src/GEVA.c **** /* Draw only positive column chart
 736:Core/Src/GEVA.c ****  * return error code
 737:Core/Src/GEVA.c ****  * error code list:
 738:Core/Src/GEVA.c ****  * 1 data out of range
 739:Core/Src/GEVA.c ****  * 2 dimension mismatch
 740:Core/Src/GEVA.c ****  * 3 chart not defined
 741:Core/Src/GEVA.c ****  * 4 starting point out of scope
 742:Core/Src/GEVA.c **** */
 743:Core/Src/GEVA.c **** uint8_t put_neg_COL(data_container* c, video_buffer* buf) {
 3535              		.loc 1 743 59 is_stmt 1 view -0
 3536              		.cfi_startproc
 3537              		@ args = 0, pretend = 0, frame = 0
 3538              		@ frame_needed = 0, uses_anonymous_args = 0
 3539              		.loc 1 743 59 is_stmt 0 view .LVU1004
 3540 0000 F0B5     		push	{r4, r5, r6, r7, lr}
 3541              		.cfi_def_cfa_offset 20
 3542              		.cfi_offset 4, -20
 3543              		.cfi_offset 5, -16
 3544              		.cfi_offset 6, -12
 3545              		.cfi_offset 7, -8
 3546              		.cfi_offset 14, -4
 3547 0002 C646     		mov	lr, r8
 3548 0004 00B5     		push	{lr}
 3549              		.cfi_def_cfa_offset 24
 3550              		.cfi_offset 8, -24
 3551 0006 82B0     		sub	sp, sp, #8
 3552              		.cfi_def_cfa_offset 32
 3553 0008 0400     		movs	r4, r0
 3554 000a 0E00     		movs	r6, r1
 744:Core/Src/GEVA.c **** 
ARM GAS  C:\Users\arist\AppData\Local\Temp\ccp82oC3.s 			page 90


 745:Core/Src/GEVA.c ****     uint8_t error = 1;
 3555              		.loc 1 745 5 is_stmt 1 view .LVU1005
 3556              	.LVL351:
 746:Core/Src/GEVA.c **** 
 747:Core/Src/GEVA.c ****     if (c->dim_x == 0 || c->max <= c->min)
 3557              		.loc 1 747 5 view .LVU1006
 3558              		.loc 1 747 10 is_stmt 0 view .LVU1007
 3559 000c C578     		ldrb	r5, [r0, #3]
 3560              		.loc 1 747 8 view .LVU1008
 3561 000e 002D     		cmp	r5, #0
 3562 0010 4ED0     		beq	.L187
 3563              		.loc 1 747 27 discriminator 1 view .LVU1009
 3564 0012 8068     		ldr	r0, [r0, #8]
 3565              	.LVL352:
 3566              		.loc 1 747 37 discriminator 1 view .LVU1010
 3567 0014 E168     		ldr	r1, [r4, #12]
 3568              	.LVL353:
 3569              		.loc 1 747 23 discriminator 1 view .LVU1011
 3570 0016 FFF7FEFF 		bl	__aeabi_fcmple
 3571              	.LVL354:
 3572 001a 0028     		cmp	r0, #0
 3573 001c 01D0     		beq	.L194
 748:Core/Src/GEVA.c ****         error = 3;
 3574              		.loc 1 748 15 view .LVU1012
 3575 001e 0325     		movs	r5, #3
 3576 0020 47E0     		b	.L181
 3577              	.L194:
 749:Core/Src/GEVA.c **** 
 750:Core/Src/GEVA.c ****     else {
 751:Core/Src/GEVA.c ****         error = clear_sector(c->o_x, c->o_y - c->dim_y_neg, c->dim_x, c->dim_y_neg, buf); //limits 
 3578              		.loc 1 751 9 is_stmt 1 view .LVU1013
 3579              		.loc 1 751 39 is_stmt 0 view .LVU1014
 3580 0022 6178     		ldrb	r1, [r4, #1]
 3581              		.loc 1 751 48 view .LVU1015
 3582 0024 6379     		ldrb	r3, [r4, #5]
 3583              		.loc 1 751 17 view .LVU1016
 3584 0026 C91A     		subs	r1, r1, r3
 3585 0028 C9B2     		uxtb	r1, r1
 3586 002a 2078     		ldrb	r0, [r4]
 3587 002c 0096     		str	r6, [sp]
 3588 002e 2A00     		movs	r2, r5
 3589 0030 FFF7FEFF 		bl	clear_sector
 3590              	.LVL355:
 3591 0034 0500     		movs	r5, r0
 3592              	.LVL356:
 752:Core/Src/GEVA.c **** 
 753:Core/Src/GEVA.c ****         if (c->o_y + c->data <= 0) {
 3593              		.loc 1 753 9 is_stmt 1 view .LVU1017
 3594              		.loc 1 753 14 is_stmt 0 view .LVU1018
 3595 0036 6078     		ldrb	r0, [r4, #1]
 3596              	.LVL357:
 3597              		.loc 1 753 23 view .LVU1019
 3598 0038 6769     		ldr	r7, [r4, #20]
 3599              		.loc 1 753 20 view .LVU1020
 3600 003a FFF7FEFF 		bl	__aeabi_i2f
 3601              	.LVL358:
 3602 003e 391C     		adds	r1, r7, #0
ARM GAS  C:\Users\arist\AppData\Local\Temp\ccp82oC3.s 			page 91


 3603 0040 FFF7FEFF 		bl	__aeabi_fadd
 3604              	.LVL359:
 3605              		.loc 1 753 12 view .LVU1021
 3606 0044 0021     		movs	r1, #0
 3607 0046 FFF7FEFF 		bl	__aeabi_fcmple
 3608              	.LVL360:
 3609 004a 0028     		cmp	r0, #0
 3610 004c 36D0     		beq	.L193
 754:Core/Src/GEVA.c **** 
 755:Core/Src/GEVA.c ****             if (c->data < 0 && c->data >= c->min) {
 3611              		.loc 1 755 13 is_stmt 1 view .LVU1022
 3612              		.loc 1 755 16 is_stmt 0 view .LVU1023
 3613 004e 0021     		movs	r1, #0
 3614 0050 381C     		adds	r0, r7, #0
 3615 0052 FFF7FEFF 		bl	__aeabi_fcmplt
 3616              	.LVL361:
 3617 0056 0028     		cmp	r0, #0
 3618 0058 2BD0     		beq	.L181
 3619              		.loc 1 755 44 discriminator 1 view .LVU1024
 3620 005a E368     		ldr	r3, [r4, #12]
 3621 005c 9846     		mov	r8, r3
 3622              		.loc 1 755 29 discriminator 1 view .LVU1025
 3623 005e 191C     		adds	r1, r3, #0
 3624 0060 381C     		adds	r0, r7, #0
 3625 0062 FFF7FEFF 		bl	__aeabi_fcmpge
 3626              	.LVL362:
 3627 0066 0028     		cmp	r0, #0
 3628 0068 23D0     		beq	.L181
 3629              	.LBB46:
 756:Core/Src/GEVA.c ****                 uint8_t dy = c->data * c->dim_y_neg / c->min;
 3630              		.loc 1 756 17 is_stmt 1 view .LVU1026
 3631              		.loc 1 756 41 is_stmt 0 view .LVU1027
 3632 006a 6079     		ldrb	r0, [r4, #5]
 3633              		.loc 1 756 38 view .LVU1028
 3634 006c FFF7FEFF 		bl	__aeabi_i2f
 3635              	.LVL363:
 3636 0070 391C     		adds	r1, r7, #0
 3637 0072 FFF7FEFF 		bl	__aeabi_fmul
 3638              	.LVL364:
 3639              		.loc 1 756 53 view .LVU1029
 3640 0076 4146     		mov	r1, r8
 3641 0078 FFF7FEFF 		bl	__aeabi_fdiv
 3642              	.LVL365:
 3643              		.loc 1 756 25 view .LVU1030
 3644 007c FFF7FEFF 		bl	__aeabi_f2uiz
 3645              	.LVL366:
 3646 0080 C3B2     		uxtb	r3, r0
 3647 0082 9846     		mov	r8, r3
 3648              	.LVL367:
 757:Core/Src/GEVA.c **** 
 758:Core/Src/GEVA.c ****                 for (uint8_t i = 0; i < c->dim_x; i++)
 3649              		.loc 1 758 17 is_stmt 1 view .LVU1031
 3650              	.LBB47:
 3651              		.loc 1 758 22 view .LVU1032
 3652              		.loc 1 758 30 is_stmt 0 view .LVU1033
 3653 0084 0027     		movs	r7, #0
 3654              		.loc 1 758 17 view .LVU1034
ARM GAS  C:\Users\arist\AppData\Local\Temp\ccp82oC3.s 			page 92


 3655 0086 0FE0     		b	.L185
 3656              	.LVL368:
 3657              	.L186:
 759:Core/Src/GEVA.c ****                     error = put_line(c->o_x + i, c->o_y-dy+1, c->o_x + i, c->o_y, buf);
 3658              		.loc 1 759 21 is_stmt 1 discriminator 3 view .LVU1035
 3659              		.loc 1 759 39 is_stmt 0 discriminator 3 view .LVU1036
 3660 0088 2078     		ldrb	r0, [r4]
 3661              		.loc 1 759 29 discriminator 3 view .LVU1037
 3662 008a C019     		adds	r0, r0, r7
 3663 008c C0B2     		uxtb	r0, r0
 3664              		.loc 1 759 51 discriminator 3 view .LVU1038
 3665 008e 6378     		ldrb	r3, [r4, #1]
 3666              		.loc 1 759 56 discriminator 3 view .LVU1039
 3667 0090 4246     		mov	r2, r8
 3668 0092 991A     		subs	r1, r3, r2
 3669 0094 C9B2     		uxtb	r1, r1
 3670              		.loc 1 759 29 discriminator 3 view .LVU1040
 3671 0096 0131     		adds	r1, r1, #1
 3672 0098 C9B2     		uxtb	r1, r1
 3673 009a 0096     		str	r6, [sp]
 3674 009c 0200     		movs	r2, r0
 3675 009e FFF7FEFF 		bl	put_line
 3676              	.LVL369:
 3677 00a2 0500     		movs	r5, r0
 3678              	.LVL370:
 758:Core/Src/GEVA.c ****                     error = put_line(c->o_x + i, c->o_y-dy+1, c->o_x + i, c->o_y, buf);
 3679              		.loc 1 758 52 is_stmt 1 discriminator 3 view .LVU1041
 3680 00a4 0137     		adds	r7, r7, #1
 3681              	.LVL371:
 758:Core/Src/GEVA.c ****                     error = put_line(c->o_x + i, c->o_y-dy+1, c->o_x + i, c->o_y, buf);
 3682              		.loc 1 758 52 is_stmt 0 discriminator 3 view .LVU1042
 3683 00a6 FFB2     		uxtb	r7, r7
 3684              	.LVL372:
 3685              	.L185:
 758:Core/Src/GEVA.c ****                     error = put_line(c->o_x + i, c->o_y-dy+1, c->o_x + i, c->o_y, buf);
 3686              		.loc 1 758 39 is_stmt 1 discriminator 1 view .LVU1043
 758:Core/Src/GEVA.c ****                     error = put_line(c->o_x + i, c->o_y-dy+1, c->o_x + i, c->o_y, buf);
 3687              		.loc 1 758 42 is_stmt 0 discriminator 1 view .LVU1044
 3688 00a8 E378     		ldrb	r3, [r4, #3]
 758:Core/Src/GEVA.c ****                     error = put_line(c->o_x + i, c->o_y-dy+1, c->o_x + i, c->o_y, buf);
 3689              		.loc 1 758 39 discriminator 1 view .LVU1045
 3690 00aa BB42     		cmp	r3, r7
 3691 00ac ECD8     		bhi	.L186
 3692 00ae 00E0     		b	.L181
 3693              	.LVL373:
 3694              	.L187:
 758:Core/Src/GEVA.c ****                     error = put_line(c->o_x + i, c->o_y-dy+1, c->o_x + i, c->o_y, buf);
 3695              		.loc 1 758 39 discriminator 1 view .LVU1046
 3696              	.LBE47:
 3697              	.LBE46:
 748:Core/Src/GEVA.c **** 
 3698              		.loc 1 748 15 view .LVU1047
 3699 00b0 0325     		movs	r5, #3
 3700              	.LVL374:
 3701              	.L181:
 760:Core/Src/GEVA.c ****             }
 761:Core/Src/GEVA.c ****         }
ARM GAS  C:\Users\arist\AppData\Local\Temp\ccp82oC3.s 			page 93


 762:Core/Src/GEVA.c ****         else
 763:Core/Src/GEVA.c ****             error = 2;
 764:Core/Src/GEVA.c ****     }
 765:Core/Src/GEVA.c ****     return error;
 3702              		.loc 1 765 5 is_stmt 1 view .LVU1048
 766:Core/Src/GEVA.c **** }
 3703              		.loc 1 766 1 is_stmt 0 view .LVU1049
 3704 00b2 2800     		movs	r0, r5
 3705 00b4 02B0     		add	sp, sp, #8
 3706              		@ sp needed
 3707              	.LVL375:
 3708              	.LVL376:
 3709              	.LVL377:
 3710              		.loc 1 766 1 view .LVU1050
 3711 00b6 80BC     		pop	{r7}
 3712 00b8 B846     		mov	r8, r7
 3713 00ba F0BD     		pop	{r4, r5, r6, r7, pc}
 3714              	.LVL378:
 3715              	.L193:
 763:Core/Src/GEVA.c ****     }
 3716              		.loc 1 763 19 view .LVU1051
 3717 00bc 0225     		movs	r5, #2
 3718              	.LVL379:
 763:Core/Src/GEVA.c ****     }
 3719              		.loc 1 763 19 view .LVU1052
 3720 00be F8E7     		b	.L181
 3721              		.cfi_endproc
 3722              	.LFE23:
 3724              		.section	.text.update_COL,"ax",%progbits
 3725              		.align	1
 3726              		.global	update_COL
 3727              		.syntax unified
 3728              		.code	16
 3729              		.thumb_func
 3731              	update_COL:
 3732              	.LVL380:
 3733              	.LFB24:
 767:Core/Src/GEVA.c **** 
 768:Core/Src/GEVA.c **** uint8_t update_COL(data_container* c, video_buffer* buf) {
 3734              		.loc 1 768 58 is_stmt 1 view -0
 3735              		.cfi_startproc
 3736              		@ args = 0, pretend = 0, frame = 0
 3737              		@ frame_needed = 0, uses_anonymous_args = 0
 3738              		.loc 1 768 58 is_stmt 0 view .LVU1054
 3739 0000 70B5     		push	{r4, r5, r6, lr}
 3740              		.cfi_def_cfa_offset 16
 3741              		.cfi_offset 4, -16
 3742              		.cfi_offset 5, -12
 3743              		.cfi_offset 6, -8
 3744              		.cfi_offset 14, -4
 3745 0002 0400     		movs	r4, r0
 3746 0004 0D00     		movs	r5, r1
 769:Core/Src/GEVA.c ****     uint8_t error = 0;
 3747              		.loc 1 769 5 is_stmt 1 view .LVU1055
 3748              	.LVL381:
 770:Core/Src/GEVA.c ****     error = put_pos_COL(c, buf);
 3749              		.loc 1 770 5 view .LVU1056
ARM GAS  C:\Users\arist\AppData\Local\Temp\ccp82oC3.s 			page 94


 3750              		.loc 1 770 13 is_stmt 0 view .LVU1057
 3751 0006 FFF7FEFF 		bl	put_pos_COL
 3752              	.LVL382:
 771:Core/Src/GEVA.c ****     error = put_neg_COL(c, buf);
 3753              		.loc 1 771 5 is_stmt 1 view .LVU1058
 3754              		.loc 1 771 13 is_stmt 0 view .LVU1059
 3755 000a 2900     		movs	r1, r5
 3756 000c 2000     		movs	r0, r4
 3757 000e FFF7FEFF 		bl	put_neg_COL
 3758              	.LVL383:
 772:Core/Src/GEVA.c ****     return error;
 3759              		.loc 1 772 5 is_stmt 1 view .LVU1060
 773:Core/Src/GEVA.c **** }
 3760              		.loc 1 773 1 is_stmt 0 view .LVU1061
 3761              		@ sp needed
 3762              	.LVL384:
 3763              	.LVL385:
 3764              		.loc 1 773 1 view .LVU1062
 3765 0012 70BD     		pop	{r4, r5, r6, pc}
 3766              		.cfi_endproc
 3767              	.LFE24:
 3769              		.section	.text.update_BAR,"ax",%progbits
 3770              		.align	1
 3771              		.global	update_BAR
 3772              		.syntax unified
 3773              		.code	16
 3774              		.thumb_func
 3776              	update_BAR:
 3777              	.LVL386:
 3778              	.LFB25:
 774:Core/Src/GEVA.c **** 
 775:Core/Src/GEVA.c **** /* Draw positive bar chart
 776:Core/Src/GEVA.c ****  * return error code
 777:Core/Src/GEVA.c ****  * error code list:
 778:Core/Src/GEVA.c ****  * 1 data out of range
 779:Core/Src/GEVA.c ****  * 2 dimension mismatch
 780:Core/Src/GEVA.c ****  * 3 chart not defined
 781:Core/Src/GEVA.c ****  * 4 starting point out of scope
 782:Core/Src/GEVA.c **** */
 783:Core/Src/GEVA.c **** uint8_t update_BAR(data_container* c, video_buffer* buf) {
 3779              		.loc 1 783 58 is_stmt 1 view -0
 3780              		.cfi_startproc
 3781              		@ args = 0, pretend = 0, frame = 0
 3782              		@ frame_needed = 0, uses_anonymous_args = 0
 3783              		.loc 1 783 58 is_stmt 0 view .LVU1064
 3784 0000 F0B5     		push	{r4, r5, r6, r7, lr}
 3785              		.cfi_def_cfa_offset 20
 3786              		.cfi_offset 4, -20
 3787              		.cfi_offset 5, -16
 3788              		.cfi_offset 6, -12
 3789              		.cfi_offset 7, -8
 3790              		.cfi_offset 14, -4
 3791 0002 C646     		mov	lr, r8
 3792 0004 00B5     		push	{lr}
 3793              		.cfi_def_cfa_offset 24
 3794              		.cfi_offset 8, -24
 3795 0006 82B0     		sub	sp, sp, #8
ARM GAS  C:\Users\arist\AppData\Local\Temp\ccp82oC3.s 			page 95


 3796              		.cfi_def_cfa_offset 32
 3797 0008 0400     		movs	r4, r0
 3798 000a 0D00     		movs	r5, r1
 784:Core/Src/GEVA.c **** 
 785:Core/Src/GEVA.c ****     uint8_t error = 1;
 3799              		.loc 1 785 5 is_stmt 1 view .LVU1065
 3800              	.LVL387:
 786:Core/Src/GEVA.c **** 
 787:Core/Src/GEVA.c ****     if (c->max == 0 || c->dim_x == 0 || c->dim_y_pos == 0 || c->max <= c->min)
 3801              		.loc 1 787 5 view .LVU1066
 3802              		.loc 1 787 10 is_stmt 0 view .LVU1067
 3803 000c 8668     		ldr	r6, [r0, #8]
 3804              		.loc 1 787 8 view .LVU1068
 3805 000e 0021     		movs	r1, #0
 3806              	.LVL388:
 3807              		.loc 1 787 8 view .LVU1069
 3808 0010 301C     		adds	r0, r6, #0
 3809              	.LVL389:
 3810              		.loc 1 787 8 view .LVU1070
 3811 0012 FFF7FEFF 		bl	__aeabi_fcmpeq
 3812              	.LVL390:
 3813 0016 0028     		cmp	r0, #0
 3814 0018 53D1     		bne	.L203
 3815              		.loc 1 787 25 discriminator 1 view .LVU1071
 3816 001a E778     		ldrb	r7, [r4, #3]
 3817              		.loc 1 787 21 discriminator 1 view .LVU1072
 3818 001c 002F     		cmp	r7, #0
 3819 001e 56D0     		beq	.L204
 3820              		.loc 1 787 42 discriminator 2 view .LVU1073
 3821 0020 2379     		ldrb	r3, [r4, #4]
 3822 0022 9846     		mov	r8, r3
 3823              		.loc 1 787 38 discriminator 2 view .LVU1074
 3824 0024 002B     		cmp	r3, #0
 3825 0026 54D0     		beq	.L205
 3826              		.loc 1 787 73 discriminator 3 view .LVU1075
 3827 0028 E168     		ldr	r1, [r4, #12]
 3828              		.loc 1 787 59 discriminator 3 view .LVU1076
 3829 002a 301C     		adds	r0, r6, #0
 3830 002c FFF7FEFF 		bl	__aeabi_fcmple
 3831              	.LVL391:
 3832 0030 0028     		cmp	r0, #0
 3833 0032 01D0     		beq	.L212
 788:Core/Src/GEVA.c ****         error = 3;
 3834              		.loc 1 788 15 view .LVU1077
 3835 0034 0326     		movs	r6, #3
 3836 0036 45E0     		b	.L197
 3837              	.L212:
 789:Core/Src/GEVA.c **** 
 790:Core/Src/GEVA.c ****     else {
 791:Core/Src/GEVA.c ****         error = clear_sector(c->o_x, c->o_y, c->dim_x, c->dim_y_pos, buf); //limits check within cl
 3838              		.loc 1 791 9 is_stmt 1 view .LVU1078
 3839              		.loc 1 791 17 is_stmt 0 view .LVU1079
 3840 0038 6178     		ldrb	r1, [r4, #1]
 3841 003a 2078     		ldrb	r0, [r4]
 3842 003c 0095     		str	r5, [sp]
 3843 003e 4346     		mov	r3, r8
 3844 0040 3A00     		movs	r2, r7
ARM GAS  C:\Users\arist\AppData\Local\Temp\ccp82oC3.s 			page 96


 3845 0042 FFF7FEFF 		bl	clear_sector
 3846              	.LVL392:
 3847 0046 0600     		movs	r6, r0
 3848              	.LVL393:
 792:Core/Src/GEVA.c **** 
 793:Core/Src/GEVA.c ****         if (c->o_y + c->data >= 0) {
