ARM GAS  C:\Users\arist\AppData\Local\Temp\ccUERo53.s 			page 1


   1              		.cpu cortex-m0
   2              		.arch armv6s-m
   3              		.fpu softvfp
   4              		.eabi_attribute 20, 1
   5              		.eabi_attribute 21, 1
   6              		.eabi_attribute 23, 3
   7              		.eabi_attribute 24, 1
   8              		.eabi_attribute 25, 1
   9              		.eabi_attribute 26, 1
  10              		.eabi_attribute 30, 1
  11              		.eabi_attribute 34, 0
  12              		.eabi_attribute 18, 4
  13              		.file	"GEVA.c"
  14              		.text
  15              	.Ltext0:
  16              		.cfi_sections	.debug_frame
  17              		.file 1 "Core/Src/GEVA.c"
  18              		.section	.text.set_mode,"ax",%progbits
  19              		.align	1
  20              		.global	set_mode
  21              		.syntax unified
  22              		.code	16
  23              		.thumb_func
  25              	set_mode:
  26              	.LVL0:
  27              	.LFB1:
   1:Core/Src/GEVA.c **** #include <string.h>
   2:Core/Src/GEVA.c **** #include "GEVA.h"
   3:Core/Src/GEVA.c **** #include "GEVA_font.h"
   4:Core/Src/GEVA.c **** 
   5:Core/Src/GEVA.c **** /*
   6:Core/Src/GEVA.c **** * TO-DO : better error handling
   7:Core/Src/GEVA.c **** */
   8:Core/Src/GEVA.c **** 
   9:Core/Src/GEVA.c **** //internal function
  10:Core/Src/GEVA.c **** uint8_t byte_col_cnt(uint8_t size_x);
  11:Core/Src/GEVA.c **** uint16_t buffer_byte_cnt(video_buffer* buf);
  12:Core/Src/GEVA.c **** uint16_t get_buffer_index(uint8_t pos_x, uint8_t pos_y, uint8_t row_byte_cnt);
  13:Core/Src/GEVA.c **** uint8_t* normalize_pos(uint8_t pos_x, uint8_t pos_y, video_buffer* buf);
  14:Core/Src/GEVA.c **** uint16_t* rotate_char(uint16_t *chr, video_buffer* buf);
  15:Core/Src/GEVA.c **** uint8_t calculate_y(uint8_t x, uint8_t x0, uint8_t x1, uint8_t y0, uint8_t y1);
  16:Core/Src/GEVA.c **** uint8_t modulo(int8_t n);
  17:Core/Src/GEVA.c **** uint16_t reverse_byte(uint16_t b);
  18:Core/Src/GEVA.c **** 
  19:Core/Src/GEVA.c **** uint8_t update_LINE(data_container* c, video_buffer* buf);
  20:Core/Src/GEVA.c **** uint8_t update_COL(data_container* c, video_buffer* buf);
  21:Core/Src/GEVA.c **** uint8_t update_BAR(data_container* c, video_buffer* buf);
  22:Core/Src/GEVA.c **** uint8_t update_SCATTER(data_container* c, video_buffer* buf);
  23:Core/Src/GEVA.c **** uint8_t update_XY(data_container* c, video_buffer* buf);
  24:Core/Src/GEVA.c **** 
  25:Core/Src/GEVA.c **** /*Initialize buffer memory
  26:Core/Src/GEVA.c **** * return error code
  27:Core/Src/GEVA.c **** * error code list:
  28:Core/Src/GEVA.c **** * 1 error allocating memory
  29:Core/Src/GEVA.c **** */
  30:Core/Src/GEVA.c **** uint8_t init_buf(video_buffer *buf, uint8_t size_x, uint8_t size_y) {
  31:Core/Src/GEVA.c ****     uint8_t error = 0;
ARM GAS  C:\Users\arist\AppData\Local\Temp\ccUERo53.s 			page 2


  32:Core/Src/GEVA.c ****     buf->size_x = size_x;
  33:Core/Src/GEVA.c ****     buf->size_y = size_y;
  34:Core/Src/GEVA.c ****     buf->byte_col_cnt = byte_col_cnt(size_x);
  35:Core/Src/GEVA.c ****     buf->byte_buffer_cnt = buffer_byte_cnt(buf);
  36:Core/Src/GEVA.c ****     buf->vid_buf = (uint8_t *)malloc(buf->byte_buffer_cnt);
  37:Core/Src/GEVA.c ****     
  38:Core/Src/GEVA.c ****     /*initialize default pointer values*/
  39:Core/Src/GEVA.c ****     buf->origin[0] = 0;
  40:Core/Src/GEVA.c ****     buf->origin[1] = 0;
  41:Core/Src/GEVA.c ****     buf->r_matrix[0] = 0;
  42:Core/Src/GEVA.c ****     buf->r_matrix[1] = 0;
  43:Core/Src/GEVA.c ****     buf->r_matrix[2] = 0;
  44:Core/Src/GEVA.c ****     buf->r_matrix[3] = 0;
  45:Core/Src/GEVA.c **** 
  46:Core/Src/GEVA.c ****     clr_buffer(buf);
  47:Core/Src/GEVA.c ****     set_mode(NORMAL, buf);
  48:Core/Src/GEVA.c ****     set_orientation(LANDSCAPE, buf);
  49:Core/Src/GEVA.c ****     return error;
  50:Core/Src/GEVA.c **** }
  51:Core/Src/GEVA.c **** 
  52:Core/Src/GEVA.c **** /* Set buffer mode between NORMAL and INVERTED and adjust buffer accordingly*/
  53:Core/Src/GEVA.c **** void set_mode(enum mode mode, video_buffer *buf) {
  28              		.loc 1 53 50 view -0
  29              		.cfi_startproc
  30              		@ args = 0, pretend = 0, frame = 0
  31              		@ frame_needed = 0, uses_anonymous_args = 0
  32              		@ link register save eliminated.
  54:Core/Src/GEVA.c ****     
  55:Core/Src/GEVA.c ****     buf->mode = mode;
  33              		.loc 1 55 5 view .LVU1
  34              		.loc 1 55 15 is_stmt 0 view .LVU2
  35 0000 0873     		strb	r0, [r1, #12]
  56:Core/Src/GEVA.c **** 
  57:Core/Src/GEVA.c ****     if (mode) {
  36              		.loc 1 57 5 is_stmt 1 view .LVU3
  37              		.loc 1 57 8 is_stmt 0 view .LVU4
  38 0002 0028     		cmp	r0, #0
  39 0004 0AD1     		bne	.L5
  40              	.LVL1:
  41              	.L1:
  58:Core/Src/GEVA.c ****         for (uint16_t i = 0; i < buf->byte_buffer_cnt; i++) {
  59:Core/Src/GEVA.c ****             buf->vid_buf[i] = ~buf->vid_buf[i];
  60:Core/Src/GEVA.c ****         }
  61:Core/Src/GEVA.c ****     }
  62:Core/Src/GEVA.c **** }
  42              		.loc 1 62 1 view .LVU5
  43              		@ sp needed
  44 0006 7047     		bx	lr
  45              	.LVL2:
  46              	.L4:
  47              	.LBB2:
  59:Core/Src/GEVA.c ****         }
  48              		.loc 1 59 13 is_stmt 1 discriminator 3 view .LVU6
  59:Core/Src/GEVA.c ****         }
  49              		.loc 1 59 35 is_stmt 0 discriminator 3 view .LVU7
  50 0008 4868     		ldr	r0, [r1, #4]
  59:Core/Src/GEVA.c ****         }
ARM GAS  C:\Users\arist\AppData\Local\Temp\ccUERo53.s 			page 3


  51              		.loc 1 59 44 discriminator 3 view .LVU8
  52 000a C25C     		ldrb	r2, [r0, r3]
  59:Core/Src/GEVA.c ****         }
  53              		.loc 1 59 29 discriminator 3 view .LVU9
  54 000c D243     		mvns	r2, r2
  55 000e C254     		strb	r2, [r0, r3]
  58:Core/Src/GEVA.c ****         for (uint16_t i = 0; i < buf->byte_buffer_cnt; i++) {
  56              		.loc 1 58 57 is_stmt 1 discriminator 3 view .LVU10
  57 0010 0133     		adds	r3, r3, #1
  58              	.LVL3:
  58:Core/Src/GEVA.c ****         for (uint16_t i = 0; i < buf->byte_buffer_cnt; i++) {
  59              		.loc 1 58 57 is_stmt 0 discriminator 3 view .LVU11
  60 0012 9BB2     		uxth	r3, r3
  61              	.LVL4:
  62              	.L2:
  58:Core/Src/GEVA.c ****         for (uint16_t i = 0; i < buf->byte_buffer_cnt; i++) {
  63              		.loc 1 58 32 is_stmt 1 discriminator 1 view .LVU12
  58:Core/Src/GEVA.c ****         for (uint16_t i = 0; i < buf->byte_buffer_cnt; i++) {
  64              		.loc 1 58 37 is_stmt 0 discriminator 1 view .LVU13
  65 0014 4A89     		ldrh	r2, [r1, #10]
  58:Core/Src/GEVA.c ****         for (uint16_t i = 0; i < buf->byte_buffer_cnt; i++) {
  66              		.loc 1 58 32 discriminator 1 view .LVU14
  67 0016 9A42     		cmp	r2, r3
  68 0018 F6D8     		bhi	.L4
  69 001a F4E7     		b	.L1
  70              	.LVL5:
  71              	.L5:
  58:Core/Src/GEVA.c ****         for (uint16_t i = 0; i < buf->byte_buffer_cnt; i++) {
  72              		.loc 1 58 23 view .LVU15
  73 001c 0023     		movs	r3, #0
  74 001e F9E7     		b	.L2
  75              	.LBE2:
  76              		.cfi_endproc
  77              	.LFE1:
  79              		.section	.text.set_orientation,"ax",%progbits
  80              		.align	1
  81              		.global	set_orientation
  82              		.syntax unified
  83              		.code	16
  84              		.thumb_func
  86              	set_orientation:
  87              	.LVL6:
  88              	.LFB2:
  63:Core/Src/GEVA.c **** 
  64:Core/Src/GEVA.c **** /* Adjust rotation matrix according to orientation */
  65:Core/Src/GEVA.c **** void set_orientation(enum orientation o, video_buffer* buf) {
  89              		.loc 1 65 61 is_stmt 1 view -0
  90              		.cfi_startproc
  91              		@ args = 0, pretend = 0, frame = 0
  92              		@ frame_needed = 0, uses_anonymous_args = 0
  93              		@ link register save eliminated.
  66:Core/Src/GEVA.c ****     
  67:Core/Src/GEVA.c ****     buf->orient = o;
  94              		.loc 1 67 5 view .LVU17
  95              		.loc 1 67 17 is_stmt 0 view .LVU18
  96 0000 4873     		strb	r0, [r1, #13]
  68:Core/Src/GEVA.c ****     switch (o) {
ARM GAS  C:\Users\arist\AppData\Local\Temp\ccUERo53.s 			page 4


  97              		.loc 1 68 5 is_stmt 1 view .LVU19
  98 0002 0228     		cmp	r0, #2
  99 0004 28D0     		beq	.L7
 100 0006 10D8     		bhi	.L8
 101 0008 0028     		cmp	r0, #0
 102 000a 1CD0     		beq	.L9
 103 000c 0128     		cmp	r0, #1
 104 000e 2FD1     		bne	.L11
  69:Core/Src/GEVA.c **** 
  70:Core/Src/GEVA.c ****     case LANDSCAPE:
  71:Core/Src/GEVA.c ****         buf->origin[X] = 0;
  72:Core/Src/GEVA.c ****         buf->origin[Y] = 0;
  73:Core/Src/GEVA.c ****         buf->r_matrix[_A] = 1;
  74:Core/Src/GEVA.c ****         buf->r_matrix[_B] = 0;
  75:Core/Src/GEVA.c ****         buf->r_matrix[_C] = 0;
  76:Core/Src/GEVA.c ****         buf->r_matrix[_D] = 1;
  77:Core/Src/GEVA.c **** 
  78:Core/Src/GEVA.c ****         break;
  79:Core/Src/GEVA.c ****     case PORTRAIT:
  80:Core/Src/GEVA.c ****         buf->origin[X] = buf->size_x-1;
  81:Core/Src/GEVA.c ****         buf->origin[Y] = 0;
  82:Core/Src/GEVA.c ****         buf->r_matrix[_A] = 0;
  83:Core/Src/GEVA.c ****         buf->r_matrix[_B] = -1;
  84:Core/Src/GEVA.c ****         buf->r_matrix[_C] = 1;
  85:Core/Src/GEVA.c ****         buf->r_matrix[_D] = 0;
  86:Core/Src/GEVA.c ****         break;
  87:Core/Src/GEVA.c ****     case LANDSCAPE_INVERTED:
  88:Core/Src/GEVA.c ****         buf->origin[X] = buf->size_x-1;
 105              		.loc 1 88 9 view .LVU20
 106              		.loc 1 88 29 is_stmt 0 view .LVU21
 107 0010 0B78     		ldrb	r3, [r1]
 108              		.loc 1 88 37 view .LVU22
 109 0012 013B     		subs	r3, r3, #1
 110              		.loc 1 88 24 view .LVU23
 111 0014 8B73     		strb	r3, [r1, #14]
  89:Core/Src/GEVA.c ****         buf->origin[Y] = buf->size_y-1;
 112              		.loc 1 89 9 is_stmt 1 view .LVU24
 113              		.loc 1 89 29 is_stmt 0 view .LVU25
 114 0016 4B78     		ldrb	r3, [r1, #1]
 115              		.loc 1 89 37 view .LVU26
 116 0018 013B     		subs	r3, r3, #1
 117              		.loc 1 89 24 view .LVU27
 118 001a CB73     		strb	r3, [r1, #15]
  90:Core/Src/GEVA.c ****         buf->r_matrix[_A] = -1;
 119              		.loc 1 90 9 is_stmt 1 view .LVU28
 120              		.loc 1 90 27 is_stmt 0 view .LVU29
 121 001c FF23     		movs	r3, #255
 122 001e 0B74     		strb	r3, [r1, #16]
  91:Core/Src/GEVA.c ****         buf->r_matrix[_B] = 0;
 123              		.loc 1 91 9 is_stmt 1 view .LVU30
 124              		.loc 1 91 27 is_stmt 0 view .LVU31
 125 0020 0022     		movs	r2, #0
 126 0022 4A74     		strb	r2, [r1, #17]
  92:Core/Src/GEVA.c ****         buf->r_matrix[_C] = 0;
 127              		.loc 1 92 9 is_stmt 1 view .LVU32
 128              		.loc 1 92 27 is_stmt 0 view .LVU33
 129 0024 8A74     		strb	r2, [r1, #18]
ARM GAS  C:\Users\arist\AppData\Local\Temp\ccUERo53.s 			page 5


  93:Core/Src/GEVA.c ****         buf->r_matrix[_D] = -1;
 130              		.loc 1 93 9 is_stmt 1 view .LVU34
 131              		.loc 1 93 27 is_stmt 0 view .LVU35
 132 0026 CB74     		strb	r3, [r1, #19]
  94:Core/Src/GEVA.c ****         break;
 133              		.loc 1 94 9 is_stmt 1 view .LVU36
 134 0028 15E0     		b	.L6
 135              	.L8:
  68:Core/Src/GEVA.c **** 
 136              		.loc 1 68 5 is_stmt 0 view .LVU37
 137 002a 0328     		cmp	r0, #3
 138 002c 20D1     		bne	.L11
  95:Core/Src/GEVA.c ****     case PORTRAIT_INVERTED:
  96:Core/Src/GEVA.c ****         buf->origin[X] = 0;
 139              		.loc 1 96 9 is_stmt 1 view .LVU38
 140              		.loc 1 96 24 is_stmt 0 view .LVU39
 141 002e 0023     		movs	r3, #0
 142 0030 8B73     		strb	r3, [r1, #14]
  97:Core/Src/GEVA.c ****         buf->origin[Y] = buf->size_y-1;
 143              		.loc 1 97 9 is_stmt 1 view .LVU40
 144              		.loc 1 97 29 is_stmt 0 view .LVU41
 145 0032 4A78     		ldrb	r2, [r1, #1]
 146              		.loc 1 97 37 view .LVU42
 147 0034 013A     		subs	r2, r2, #1
 148              		.loc 1 97 24 view .LVU43
 149 0036 CA73     		strb	r2, [r1, #15]
  98:Core/Src/GEVA.c ****         buf->r_matrix[_A] = 0;
 150              		.loc 1 98 9 is_stmt 1 view .LVU44
 151              		.loc 1 98 27 is_stmt 0 view .LVU45
 152 0038 0B74     		strb	r3, [r1, #16]
  99:Core/Src/GEVA.c ****         buf->r_matrix[_B] = 1;
 153              		.loc 1 99 9 is_stmt 1 view .LVU46
 154              		.loc 1 99 27 is_stmt 0 view .LVU47
 155 003a 0122     		movs	r2, #1
 156 003c 4A74     		strb	r2, [r1, #17]
 100:Core/Src/GEVA.c ****         buf->r_matrix[_C] = -1;
 157              		.loc 1 100 9 is_stmt 1 view .LVU48
 158              		.loc 1 100 27 is_stmt 0 view .LVU49
 159 003e FE32     		adds	r2, r2, #254
 160 0040 8A74     		strb	r2, [r1, #18]
 101:Core/Src/GEVA.c ****         buf->r_matrix[_D] = 0;
 161              		.loc 1 101 9 is_stmt 1 view .LVU50
 162              		.loc 1 101 27 is_stmt 0 view .LVU51
 163 0042 CB74     		strb	r3, [r1, #19]
 102:Core/Src/GEVA.c ****         break;
 164              		.loc 1 102 9 is_stmt 1 view .LVU52
 165 0044 07E0     		b	.L6
 166              	.L9:
  71:Core/Src/GEVA.c ****         buf->origin[Y] = 0;
 167              		.loc 1 71 9 view .LVU53
  71:Core/Src/GEVA.c ****         buf->origin[Y] = 0;
 168              		.loc 1 71 24 is_stmt 0 view .LVU54
 169 0046 0023     		movs	r3, #0
 170 0048 8B73     		strb	r3, [r1, #14]
  72:Core/Src/GEVA.c ****         buf->r_matrix[_A] = 1;
 171              		.loc 1 72 9 is_stmt 1 view .LVU55
  72:Core/Src/GEVA.c ****         buf->r_matrix[_A] = 1;
ARM GAS  C:\Users\arist\AppData\Local\Temp\ccUERo53.s 			page 6


 172              		.loc 1 72 24 is_stmt 0 view .LVU56
 173 004a CB73     		strb	r3, [r1, #15]
  73:Core/Src/GEVA.c ****         buf->r_matrix[_B] = 0;
 174              		.loc 1 73 9 is_stmt 1 view .LVU57
  73:Core/Src/GEVA.c ****         buf->r_matrix[_B] = 0;
 175              		.loc 1 73 27 is_stmt 0 view .LVU58
 176 004c 0122     		movs	r2, #1
 177 004e 0A74     		strb	r2, [r1, #16]
  74:Core/Src/GEVA.c ****         buf->r_matrix[_C] = 0;
 178              		.loc 1 74 9 is_stmt 1 view .LVU59
  74:Core/Src/GEVA.c ****         buf->r_matrix[_C] = 0;
 179              		.loc 1 74 27 is_stmt 0 view .LVU60
 180 0050 4B74     		strb	r3, [r1, #17]
  75:Core/Src/GEVA.c ****         buf->r_matrix[_D] = 1;
 181              		.loc 1 75 9 is_stmt 1 view .LVU61
  75:Core/Src/GEVA.c ****         buf->r_matrix[_D] = 1;
 182              		.loc 1 75 27 is_stmt 0 view .LVU62
 183 0052 8B74     		strb	r3, [r1, #18]
  76:Core/Src/GEVA.c **** 
 184              		.loc 1 76 9 is_stmt 1 view .LVU63
  76:Core/Src/GEVA.c **** 
 185              		.loc 1 76 27 is_stmt 0 view .LVU64
 186 0054 CA74     		strb	r2, [r1, #19]
  78:Core/Src/GEVA.c ****     case PORTRAIT:
 187              		.loc 1 78 9 is_stmt 1 view .LVU65
 188              	.L6:
 103:Core/Src/GEVA.c ****     default:
 104:Core/Src/GEVA.c ****         buf->origin[X] = 0;
 105:Core/Src/GEVA.c ****         buf->origin[Y] = 0;
 106:Core/Src/GEVA.c ****         buf->r_matrix[_A] = 1;
 107:Core/Src/GEVA.c ****         buf->r_matrix[_B] = 0;
 108:Core/Src/GEVA.c ****         buf->r_matrix[_C] = 0;
 109:Core/Src/GEVA.c ****         buf->r_matrix[_D] = 1;
 110:Core/Src/GEVA.c ****         break;
 111:Core/Src/GEVA.c ****     }
 112:Core/Src/GEVA.c **** }
 189              		.loc 1 112 1 is_stmt 0 view .LVU66
 190              		@ sp needed
 191 0056 7047     		bx	lr
 192              	.L7:
  80:Core/Src/GEVA.c ****         buf->origin[Y] = 0;
 193              		.loc 1 80 9 is_stmt 1 view .LVU67
  80:Core/Src/GEVA.c ****         buf->origin[Y] = 0;
 194              		.loc 1 80 29 is_stmt 0 view .LVU68
 195 0058 0B78     		ldrb	r3, [r1]
  80:Core/Src/GEVA.c ****         buf->origin[Y] = 0;
 196              		.loc 1 80 37 view .LVU69
 197 005a 013B     		subs	r3, r3, #1
  80:Core/Src/GEVA.c ****         buf->origin[Y] = 0;
 198              		.loc 1 80 24 view .LVU70
 199 005c 8B73     		strb	r3, [r1, #14]
  81:Core/Src/GEVA.c ****         buf->r_matrix[_A] = 0;
 200              		.loc 1 81 9 is_stmt 1 view .LVU71
  81:Core/Src/GEVA.c ****         buf->r_matrix[_A] = 0;
 201              		.loc 1 81 24 is_stmt 0 view .LVU72
 202 005e 0023     		movs	r3, #0
 203 0060 CB73     		strb	r3, [r1, #15]
ARM GAS  C:\Users\arist\AppData\Local\Temp\ccUERo53.s 			page 7


  82:Core/Src/GEVA.c ****         buf->r_matrix[_B] = -1;
 204              		.loc 1 82 9 is_stmt 1 view .LVU73
  82:Core/Src/GEVA.c ****         buf->r_matrix[_B] = -1;
 205              		.loc 1 82 27 is_stmt 0 view .LVU74
 206 0062 0B74     		strb	r3, [r1, #16]
  83:Core/Src/GEVA.c ****         buf->r_matrix[_C] = 1;
 207              		.loc 1 83 9 is_stmt 1 view .LVU75
  83:Core/Src/GEVA.c ****         buf->r_matrix[_C] = 1;
 208              		.loc 1 83 27 is_stmt 0 view .LVU76
 209 0064 FF22     		movs	r2, #255
 210 0066 4A74     		strb	r2, [r1, #17]
  84:Core/Src/GEVA.c ****         buf->r_matrix[_D] = 0;
 211              		.loc 1 84 9 is_stmt 1 view .LVU77
  84:Core/Src/GEVA.c ****         buf->r_matrix[_D] = 0;
 212              		.loc 1 84 27 is_stmt 0 view .LVU78
 213 0068 FE3A     		subs	r2, r2, #254
 214 006a 8A74     		strb	r2, [r1, #18]
  85:Core/Src/GEVA.c ****         break;
 215              		.loc 1 85 9 is_stmt 1 view .LVU79
  85:Core/Src/GEVA.c ****         break;
 216              		.loc 1 85 27 is_stmt 0 view .LVU80
 217 006c CB74     		strb	r3, [r1, #19]
  86:Core/Src/GEVA.c ****     case LANDSCAPE_INVERTED:
 218              		.loc 1 86 9 is_stmt 1 view .LVU81
 219 006e F2E7     		b	.L6
 220              	.L11:
 104:Core/Src/GEVA.c ****         buf->origin[Y] = 0;
 221              		.loc 1 104 9 view .LVU82
 104:Core/Src/GEVA.c ****         buf->origin[Y] = 0;
 222              		.loc 1 104 24 is_stmt 0 view .LVU83
 223 0070 0023     		movs	r3, #0
 224 0072 8B73     		strb	r3, [r1, #14]
 105:Core/Src/GEVA.c ****         buf->r_matrix[_A] = 1;
 225              		.loc 1 105 9 is_stmt 1 view .LVU84
 105:Core/Src/GEVA.c ****         buf->r_matrix[_A] = 1;
 226              		.loc 1 105 24 is_stmt 0 view .LVU85
 227 0074 CB73     		strb	r3, [r1, #15]
 106:Core/Src/GEVA.c ****         buf->r_matrix[_B] = 0;
 228              		.loc 1 106 9 is_stmt 1 view .LVU86
 106:Core/Src/GEVA.c ****         buf->r_matrix[_B] = 0;
 229              		.loc 1 106 27 is_stmt 0 view .LVU87
 230 0076 0122     		movs	r2, #1
 231 0078 0A74     		strb	r2, [r1, #16]
 107:Core/Src/GEVA.c ****         buf->r_matrix[_C] = 0;
 232              		.loc 1 107 9 is_stmt 1 view .LVU88
 107:Core/Src/GEVA.c ****         buf->r_matrix[_C] = 0;
 233              		.loc 1 107 27 is_stmt 0 view .LVU89
 234 007a 4B74     		strb	r3, [r1, #17]
 108:Core/Src/GEVA.c ****         buf->r_matrix[_D] = 1;
 235              		.loc 1 108 9 is_stmt 1 view .LVU90
 108:Core/Src/GEVA.c ****         buf->r_matrix[_D] = 1;
 236              		.loc 1 108 27 is_stmt 0 view .LVU91
 237 007c 8B74     		strb	r3, [r1, #18]
 109:Core/Src/GEVA.c ****         break;
 238              		.loc 1 109 9 is_stmt 1 view .LVU92
 109:Core/Src/GEVA.c ****         break;
 239              		.loc 1 109 27 is_stmt 0 view .LVU93
ARM GAS  C:\Users\arist\AppData\Local\Temp\ccUERo53.s 			page 8


 240 007e CA74     		strb	r2, [r1, #19]
 110:Core/Src/GEVA.c ****     }
 241              		.loc 1 110 9 is_stmt 1 view .LVU94
 242              		.loc 1 112 1 is_stmt 0 view .LVU95
 243 0080 E9E7     		b	.L6
 244              		.cfi_endproc
 245              	.LFE2:
 247              		.section	.text.clr_buffer,"ax",%progbits
 248              		.align	1
 249              		.global	clr_buffer
 250              		.syntax unified
 251              		.code	16
 252              		.thumb_func
 254              	clr_buffer:
 255              	.LVL7:
 256              	.LFB3:
 113:Core/Src/GEVA.c **** 
 114:Core/Src/GEVA.c **** /* ===========================================GRAPHIC FUNCTIONS====================================
 115:Core/Src/GEVA.c **** 
 116:Core/Src/GEVA.c **** /*Reset buffer to default value according to MODE*/
 117:Core/Src/GEVA.c **** 
 118:Core/Src/GEVA.c **** uint8_t clr_buffer(video_buffer* buf) {
 257              		.loc 1 118 39 is_stmt 1 view -0
 258              		.cfi_startproc
 259              		@ args = 0, pretend = 0, frame = 0
 260              		@ frame_needed = 0, uses_anonymous_args = 0
 261              		.loc 1 118 39 is_stmt 0 view .LVU97
 262 0000 10B5     		push	{r4, lr}
 263              		.cfi_def_cfa_offset 8
 264              		.cfi_offset 4, -8
 265              		.cfi_offset 14, -4
 266 0002 0300     		movs	r3, r0
 119:Core/Src/GEVA.c ****     
 120:Core/Src/GEVA.c ****     uint8_t def = (buf->mode == NORMAL) ? 0x00 : 0xff;
 267              		.loc 1 120 5 is_stmt 1 view .LVU98
 268              		.loc 1 120 23 is_stmt 0 view .LVU99
 269 0004 017B     		ldrb	r1, [r0, #12]
 270              		.loc 1 120 13 view .LVU100
 271 0006 0029     		cmp	r1, #0
 272 0008 00D0     		beq	.L15
 273 000a FF21     		movs	r1, #255
 274              	.L15:
 275              	.LVL8:
 121:Core/Src/GEVA.c ****     uint8_t error = 1;
 276              		.loc 1 121 5 is_stmt 1 discriminator 4 view .LVU101
 122:Core/Src/GEVA.c ****     if (buf->vid_buf != NULL) {
 277              		.loc 1 122 5 discriminator 4 view .LVU102
 278              		.loc 1 122 12 is_stmt 0 discriminator 4 view .LVU103
 279 000c 5868     		ldr	r0, [r3, #4]
 280              	.LVL9:
 281              		.loc 1 122 8 discriminator 4 view .LVU104
 282 000e 0028     		cmp	r0, #0
 283 0010 04D0     		beq	.L18
 123:Core/Src/GEVA.c ****         memset(buf->vid_buf, def, buf->byte_buffer_cnt);
 284              		.loc 1 123 9 is_stmt 1 view .LVU105
 285              		.loc 1 123 38 is_stmt 0 view .LVU106
 286 0012 5A89     		ldrh	r2, [r3, #10]
ARM GAS  C:\Users\arist\AppData\Local\Temp\ccUERo53.s 			page 9


 287              		.loc 1 123 9 view .LVU107
 288 0014 FFF7FEFF 		bl	memset
 289              	.LVL10:
 124:Core/Src/GEVA.c ****         error = 0;
 290              		.loc 1 124 9 is_stmt 1 view .LVU108
 291              		.loc 1 124 15 is_stmt 0 view .LVU109
 292 0018 0020     		movs	r0, #0
 293              	.LVL11:
 294              	.L16:
 125:Core/Src/GEVA.c ****     }
 126:Core/Src/GEVA.c ****     return error;
 295              		.loc 1 126 5 is_stmt 1 view .LVU110
 127:Core/Src/GEVA.c **** }
 296              		.loc 1 127 1 is_stmt 0 view .LVU111
 297              		@ sp needed
 298 001a 10BD     		pop	{r4, pc}
 299              	.LVL12:
 300              	.L18:
 121:Core/Src/GEVA.c ****     if (buf->vid_buf != NULL) {
 301              		.loc 1 121 13 view .LVU112
 302 001c 0120     		movs	r0, #1
 303 001e FCE7     		b	.L16
 304              		.cfi_endproc
 305              	.LFE3:
 307              		.section	.text.byte_col_cnt,"ax",%progbits
 308              		.align	1
 309              		.global	byte_col_cnt
 310              		.syntax unified
 311              		.code	16
 312              		.thumb_func
 314              	byte_col_cnt:
 315              	.LVL13:
 316              	.LFB14:
 128:Core/Src/GEVA.c **** 
 129:Core/Src/GEVA.c **** /* Draw pixel black or white in a specific location on the screen
 130:Core/Src/GEVA.c ****  * return error code
 131:Core/Src/GEVA.c ****  * error code list:
 132:Core/Src/GEVA.c ****  * 4 point out of scope
 133:Core/Src/GEVA.c ****  */
 134:Core/Src/GEVA.c **** uint8_t put_pixel(uint8_t pos_x, uint8_t pos_y, enum color color, video_buffer* buf) {
 135:Core/Src/GEVA.c **** 
 136:Core/Src/GEVA.c ****     uint8_t error = 0;
 137:Core/Src/GEVA.c ****     uint8_t *n_pos = normalize_pos(pos_x, pos_y, buf);
 138:Core/Src/GEVA.c **** 
 139:Core/Src/GEVA.c ****     if ((n_pos[Y] < 0) || (n_pos[Y] > buf->size_y - 1) || (n_pos[X] < 0) || (n_pos[X] > buf->size_x
 140:Core/Src/GEVA.c ****         error = 4;
 141:Core/Src/GEVA.c ****     else {
 142:Core/Src/GEVA.c ****         if (buf->mode & color)
 143:Core/Src/GEVA.c ****             color = CLEAR_C;
 144:Core/Src/GEVA.c ****         else if (buf->mode & ~color)
 145:Core/Src/GEVA.c ****             color = SET_C;
 146:Core/Src/GEVA.c **** 
 147:Core/Src/GEVA.c ****         if (!color)
 148:Core/Src/GEVA.c ****             buf->vid_buf[get_buffer_index(n_pos[X], (buf->size_y - n_pos[Y] - 1), buf->byte_col_cnt
 149:Core/Src/GEVA.c ****         else
 150:Core/Src/GEVA.c ****             buf->vid_buf[get_buffer_index(n_pos[X], (buf->size_y - n_pos[Y] - 1), buf->byte_col_cnt
 151:Core/Src/GEVA.c ****     }
ARM GAS  C:\Users\arist\AppData\Local\Temp\ccUERo53.s 			page 10


 152:Core/Src/GEVA.c ****     free(n_pos);
 153:Core/Src/GEVA.c ****     return error;
 154:Core/Src/GEVA.c **** }
 155:Core/Src/GEVA.c **** 
 156:Core/Src/GEVA.c **** 
 157:Core/Src/GEVA.c **** /* Draw line between to points
 158:Core/Src/GEVA.c ****  * return error code
 159:Core/Src/GEVA.c ****  * error code list:
 160:Core/Src/GEVA.c ****  * 4 point out of scope
 161:Core/Src/GEVA.c **** */
 162:Core/Src/GEVA.c **** uint8_t put_line(uint8_t pos_x1, uint8_t pos_y1, uint8_t pos_x2, uint8_t pos_y2, video_buffer* buf)
 163:Core/Src/GEVA.c **** 
 164:Core/Src/GEVA.c ****     uint8_t error = 0;
 165:Core/Src/GEVA.c ****     uint8_t firstx = 0;
 166:Core/Src/GEVA.c ****     uint8_t lastx = 0;
 167:Core/Src/GEVA.c ****     uint8_t firsty = 0;
 168:Core/Src/GEVA.c ****     uint8_t lasty = 0;
 169:Core/Src/GEVA.c **** 
 170:Core/Src/GEVA.c ****     if (pos_x1 == pos_x2) { //vertical line
 171:Core/Src/GEVA.c **** 
 172:Core/Src/GEVA.c ****         uint8_t line_lenght = 0;
 173:Core/Src/GEVA.c **** 
 174:Core/Src/GEVA.c ****         if (pos_y1 > pos_y2) {
 175:Core/Src/GEVA.c ****             line_lenght = (pos_y1 - pos_y2) + 1;
 176:Core/Src/GEVA.c ****             firsty = pos_y2;
 177:Core/Src/GEVA.c ****         }
 178:Core/Src/GEVA.c ****         else {
 179:Core/Src/GEVA.c ****             line_lenght = (pos_y2 - pos_y1) + 1;
 180:Core/Src/GEVA.c ****             firsty = pos_y1;
 181:Core/Src/GEVA.c ****         }
 182:Core/Src/GEVA.c ****         for (uint8_t i = 0; i < line_lenght; i++) {
 183:Core/Src/GEVA.c ****             error = put_pixel(pos_x1, firsty + i, SET_C, buf);
 184:Core/Src/GEVA.c ****         }
 185:Core/Src/GEVA.c ****     }
 186:Core/Src/GEVA.c ****     else {
 187:Core/Src/GEVA.c ****         if (pos_x1 > pos_x2) {
 188:Core/Src/GEVA.c ****             firstx = pos_x2;
 189:Core/Src/GEVA.c ****             lastx = pos_x1;
 190:Core/Src/GEVA.c ****             firsty = pos_y2;
 191:Core/Src/GEVA.c ****             lasty = pos_y1;
 192:Core/Src/GEVA.c ****         }
 193:Core/Src/GEVA.c ****         else {
 194:Core/Src/GEVA.c ****             firstx = pos_x1;
 195:Core/Src/GEVA.c ****             lastx = pos_x2;
 196:Core/Src/GEVA.c ****             firsty = pos_y1;
 197:Core/Src/GEVA.c ****             lasty = pos_y2;
 198:Core/Src/GEVA.c ****         }
 199:Core/Src/GEVA.c **** 
 200:Core/Src/GEVA.c ****         int8_t slope_addendum = (firsty > lasty) ? -1 : 1;
 201:Core/Src/GEVA.c **** 
 202:Core/Src/GEVA.c ****         uint8_t y = firsty;
 203:Core/Src/GEVA.c ****         uint8_t nexty = 0;
 204:Core/Src/GEVA.c ****         int8_t y_todrw = 0;
 205:Core/Src/GEVA.c ****         uint8_t fill_y = 0;
 206:Core/Src/GEVA.c **** 
 207:Core/Src/GEVA.c ****         for (uint8_t x = firstx; x < lastx + 1; x++) {
 208:Core/Src/GEVA.c **** 
ARM GAS  C:\Users\arist\AppData\Local\Temp\ccUERo53.s 			page 11


 209:Core/Src/GEVA.c ****             y = calculate_y(x, firstx, lastx, firsty, lasty);
 210:Core/Src/GEVA.c ****             nexty = calculate_y(x + 1, firstx, lastx, firsty, lasty);
 211:Core/Src/GEVA.c ****             fill_y = 0;
 212:Core/Src/GEVA.c **** 
 213:Core/Src/GEVA.c ****             do { 
 214:Core/Src/GEVA.c ****                y_todrw = y + (slope_addendum * fill_y);
 215:Core/Src/GEVA.c ****               
 216:Core/Src/GEVA.c ****                if (y_todrw < 0)
 217:Core/Src/GEVA.c ****                    y_todrw = 0;
 218:Core/Src/GEVA.c **** 
 219:Core/Src/GEVA.c ****                error = put_pixel(x, y_todrw, SET_C, buf);
 220:Core/Src/GEVA.c ****                fill_y++;
 221:Core/Src/GEVA.c **** 
 222:Core/Src/GEVA.c ****                if (y_todrw == pos_y2 && pos_y1 != pos_y2)
 223:Core/Src/GEVA.c ****                    return error;
 224:Core/Src/GEVA.c **** 
 225:Core/Src/GEVA.c ****             } while ( fill_y < modulo(y - nexty));
 226:Core/Src/GEVA.c ****         }
 227:Core/Src/GEVA.c ****     }
 228:Core/Src/GEVA.c ****     return error;
 229:Core/Src/GEVA.c **** }
 230:Core/Src/GEVA.c **** 
 231:Core/Src/GEVA.c **** 
 232:Core/Src/GEVA.c **** /* Clear part of the display buffer memory
 233:Core/Src/GEVA.c ****  * return error code
 234:Core/Src/GEVA.c ****  * error code list:
 235:Core/Src/GEVA.c ****  * 
 236:Core/Src/GEVA.c ****  * 2 dimension mismatch
 237:Core/Src/GEVA.c ****  * 
 238:Core/Src/GEVA.c ****  * 4 starting point out of scope
 239:Core/Src/GEVA.c **** */
 240:Core/Src/GEVA.c **** uint8_t clear_sector(uint8_t pos_x, uint8_t pos_y, uint8_t width, uint8_t height, video_buffer* buf
 241:Core/Src/GEVA.c **** 
 242:Core/Src/GEVA.c ****     uint8_t error = 0;
 243:Core/Src/GEVA.c ****     uint8_t startx_ptr = 0; // pos_x;
 244:Core/Src/GEVA.c ****     uint8_t starty_ptr = 0; // pos_y;
 245:Core/Src/GEVA.c ****     uint8_t endx_ptr = 0;   //pos_x + width;
 246:Core/Src/GEVA.c ****     uint8_t endy_ptr = 0;   // pos_y + height;
 247:Core/Src/GEVA.c ****     uint8_t n_width = 0;    //normalized width
 248:Core/Src/GEVA.c ****     uint8_t* n_pos_ptr = normalize_pos(pos_x, pos_y, buf);
 249:Core/Src/GEVA.c ****     
 250:Core/Src/GEVA.c ****     switch (buf->orient) {
 251:Core/Src/GEVA.c **** 
 252:Core/Src/GEVA.c ****     case LANDSCAPE:
 253:Core/Src/GEVA.c ****         n_width = width;
 254:Core/Src/GEVA.c ****         startx_ptr = n_pos_ptr[X];
 255:Core/Src/GEVA.c ****         starty_ptr = n_pos_ptr[Y];
 256:Core/Src/GEVA.c ****         endx_ptr = startx_ptr + width;
 257:Core/Src/GEVA.c ****         endy_ptr = starty_ptr + height;
 258:Core/Src/GEVA.c ****         break;
 259:Core/Src/GEVA.c **** 
 260:Core/Src/GEVA.c ****     case LANDSCAPE_INVERTED:
 261:Core/Src/GEVA.c ****         n_width = width;
 262:Core/Src/GEVA.c ****         startx_ptr = n_pos_ptr[X] - width + 1;
 263:Core/Src/GEVA.c ****         starty_ptr = n_pos_ptr[Y] - height + 1;
 264:Core/Src/GEVA.c ****         endx_ptr = n_pos_ptr[X] + 1;
 265:Core/Src/GEVA.c ****         endy_ptr = n_pos_ptr[Y] + 1;
ARM GAS  C:\Users\arist\AppData\Local\Temp\ccUERo53.s 			page 12


 266:Core/Src/GEVA.c ****         break;
 267:Core/Src/GEVA.c **** 
 268:Core/Src/GEVA.c ****     case PORTRAIT:
 269:Core/Src/GEVA.c ****         n_width = height;
 270:Core/Src/GEVA.c ****         startx_ptr = n_pos_ptr[X] - height + 1;
 271:Core/Src/GEVA.c ****         starty_ptr = n_pos_ptr[Y];
 272:Core/Src/GEVA.c ****         endx_ptr = n_pos_ptr[X] + 1;
 273:Core/Src/GEVA.c ****         endy_ptr = starty_ptr + width;
 274:Core/Src/GEVA.c ****         break;
 275:Core/Src/GEVA.c **** 
 276:Core/Src/GEVA.c ****     case PORTRAIT_INVERTED:
 277:Core/Src/GEVA.c ****         startx_ptr = n_pos_ptr[X];
 278:Core/Src/GEVA.c ****         starty_ptr = n_pos_ptr[Y] - width + 1;
 279:Core/Src/GEVA.c ****         endx_ptr = startx_ptr + height;
 280:Core/Src/GEVA.c ****         endy_ptr = n_pos_ptr[Y] + 1;
 281:Core/Src/GEVA.c ****         break;
 282:Core/Src/GEVA.c **** 
 283:Core/Src/GEVA.c ****     default:
 284:Core/Src/GEVA.c ****         break;
 285:Core/Src/GEVA.c ****     }
 286:Core/Src/GEVA.c **** 
 287:Core/Src/GEVA.c ****     if (pos_x >= buf->size_x || pos_x < 0 || pos_y >= buf->size_y || pos_y < 0)
 288:Core/Src/GEVA.c ****         return 4;
 289:Core/Src/GEVA.c **** 
 290:Core/Src/GEVA.c ****     if (pos_y + height > buf->size_y || pos_x + width > buf->size_x)
 291:Core/Src/GEVA.c ****         error = 2;
 292:Core/Src/GEVA.c **** 
 293:Core/Src/GEVA.c ****     else {
 294:Core/Src/GEVA.c **** 
 295:Core/Src/GEVA.c ****         uint16_t start_byte_ptr = get_buffer_index(startx_ptr, buf->size_y - 1 - starty_ptr, buf->b
 296:Core/Src/GEVA.c ****         uint16_t buffer_byte_ptr = start_byte_ptr;
 297:Core/Src/GEVA.c ****         int16_t initial_shift = modulo(endx_ptr - startx_ptr);
 298:Core/Src/GEVA.c ****         int16_t to_shift = initial_shift;
 299:Core/Src/GEVA.c **** 
 300:Core/Src/GEVA.c ****         for (uint8_t row_clrd = 0; row_clrd < modulo(endy_ptr - starty_ptr); row_clrd++)
 301:Core/Src/GEVA.c ****         {
 302:Core/Src/GEVA.c ****             buffer_byte_ptr = start_byte_ptr - (buf->byte_col_cnt * row_clrd);
 303:Core/Src/GEVA.c ****             to_shift = initial_shift;
 304:Core/Src/GEVA.c **** 
 305:Core/Src/GEVA.c ****             if ( (startx_ptr % 8) + n_width > 7) {  // when multiple bytes are needed
 306:Core/Src/GEVA.c ****                 to_shift -= (8 - (startx_ptr % 8));
 307:Core/Src/GEVA.c ****                 
 308:Core/Src/GEVA.c ****                 if(buf->mode == NORMAL)
 309:Core/Src/GEVA.c ****                     buf->vid_buf[buffer_byte_ptr] &= 0xff << (8 - (startx_ptr % 8));
 310:Core/Src/GEVA.c ****                 else 
 311:Core/Src/GEVA.c ****                     buf->vid_buf[buffer_byte_ptr] |= 0xff >> (startx_ptr % 8);
 312:Core/Src/GEVA.c ****                 
 313:Core/Src/GEVA.c ****                 buffer_byte_ptr++;
 314:Core/Src/GEVA.c ****                 
 315:Core/Src/GEVA.c ****                 while (to_shift > 8) {
 316:Core/Src/GEVA.c ****                     if(buf->mode == NORMAL)
 317:Core/Src/GEVA.c ****                         buf->vid_buf[buffer_byte_ptr] = 0x00;
 318:Core/Src/GEVA.c ****                     else 
 319:Core/Src/GEVA.c ****                         buf->vid_buf[buffer_byte_ptr] = 0xff;
 320:Core/Src/GEVA.c ****                         
 321:Core/Src/GEVA.c ****                     buffer_byte_ptr++;
 322:Core/Src/GEVA.c ****                     to_shift -= 8;
ARM GAS  C:\Users\arist\AppData\Local\Temp\ccUERo53.s 			page 13


 323:Core/Src/GEVA.c ****                 }
 324:Core/Src/GEVA.c **** 
 325:Core/Src/GEVA.c ****                 if(buf->mode == NORMAL)
 326:Core/Src/GEVA.c ****                     buf->vid_buf[buffer_byte_ptr] &= 0xff >> to_shift;
 327:Core/Src/GEVA.c ****                 else 
 328:Core/Src/GEVA.c ****                     buf->vid_buf[buffer_byte_ptr] |= 0xff << (8 - (endx_ptr % 8));
 329:Core/Src/GEVA.c ****             }
 330:Core/Src/GEVA.c ****             else { // can do clear operation on a single byte because of sector dimensions
 331:Core/Src/GEVA.c ****                 if(buf->mode == NORMAL)
 332:Core/Src/GEVA.c ****                     buf->vid_buf[buffer_byte_ptr] &= ~((0xff >> startx_ptr % 8) & (0xff << (8 - (en
 333:Core/Src/GEVA.c ****                 else 
 334:Core/Src/GEVA.c ****                     buf->vid_buf[buffer_byte_ptr] |= (0xff >> startx_ptr % 8) & (0xff << (8 - (endx
 335:Core/Src/GEVA.c ****             }
 336:Core/Src/GEVA.c ****         }
 337:Core/Src/GEVA.c ****     }
 338:Core/Src/GEVA.c ****     free(n_pos_ptr);
 339:Core/Src/GEVA.c ****     return error;
 340:Core/Src/GEVA.c **** }
 341:Core/Src/GEVA.c **** 
 342:Core/Src/GEVA.c **** /*put character on screen
 343:Core/Src/GEVA.c ****  * return error code
 344:Core/Src/GEVA.c ****  * error code list:
 345:Core/Src/GEVA.c ****  * 
 346:Core/Src/GEVA.c ****  * 2 dimension mismatch
 347:Core/Src/GEVA.c ****  * 
 348:Core/Src/GEVA.c ****  * 4 starting point out of scope
 349:Core/Src/GEVA.c ****  * note: each letter needs a square of 7x7 pixels clear on the display (because of rotation) befor 
 350:Core/Src/GEVA.c **** */
 351:Core/Src/GEVA.c **** uint8_t put_char(uint8_t pos_x, uint8_t pos_y, uint8_t chr, enum fonts_size ff, video_buffer* buf) 
 352:Core/Src/GEVA.c ****     
 353:Core/Src/GEVA.c ****     uint8_t error = 0;
 354:Core/Src/GEVA.c ****     uint8_t* n_pos; 
 355:Core/Src/GEVA.c ****     uint16_t* c;
 356:Core/Src/GEVA.c **** 
 357:Core/Src/GEVA.c ****     switch(ff){ //font selection
 358:Core/Src/GEVA.c ****         case SMALL:
 359:Core/Src/GEVA.c ****             font_height = C_HEIGHT_S;
 360:Core/Src/GEVA.c ****             font_width = C_WIDTH_S;
 361:Core/Src/GEVA.c ****             c = font_s[chr];
 362:Core/Src/GEVA.c ****         break;
 363:Core/Src/GEVA.c ****         case MEDIUM:
 364:Core/Src/GEVA.c ****             font_height = C_HEIGHT_M;
 365:Core/Src/GEVA.c ****             font_width = C_WIDTH_M;
 366:Core/Src/GEVA.c ****             c = font_m[chr];
 367:Core/Src/GEVA.c ****         break; 
 368:Core/Src/GEVA.c ****         
 369:Core/Src/GEVA.c ****         case LARGE:
 370:Core/Src/GEVA.c ****         break; 
 371:Core/Src/GEVA.c **** 
 372:Core/Src/GEVA.c ****         default:
 373:Core/Src/GEVA.c ****             font_height = C_HEIGHT_S;
 374:Core/Src/GEVA.c ****             font_width = C_WIDTH_S;
 375:Core/Src/GEVA.c ****             c = font_s[chr];
 376:Core/Src/GEVA.c ****         break;
 377:Core/Src/GEVA.c ****     }
 378:Core/Src/GEVA.c **** 
 379:Core/Src/GEVA.c ****     switch (buf->orient) {
ARM GAS  C:\Users\arist\AppData\Local\Temp\ccUERo53.s 			page 14


 380:Core/Src/GEVA.c ****         case LANDSCAPE:
 381:Core/Src/GEVA.c ****             n_pos = normalize_pos(pos_x, pos_y, buf); 
 382:Core/Src/GEVA.c ****            break;
 383:Core/Src/GEVA.c **** 
 384:Core/Src/GEVA.c ****         case LANDSCAPE_INVERTED:
 385:Core/Src/GEVA.c ****             n_pos = normalize_pos(pos_x + font_width - 1, pos_y + font_height - 1, buf);
 386:Core/Src/GEVA.c ****                break;
 387:Core/Src/GEVA.c **** 
 388:Core/Src/GEVA.c ****         case PORTRAIT:
 389:Core/Src/GEVA.c ****             n_pos = normalize_pos(pos_x, pos_y + font_height, buf);
 390:Core/Src/GEVA.c ****             break;
 391:Core/Src/GEVA.c **** 
 392:Core/Src/GEVA.c ****         case PORTRAIT_INVERTED:
 393:Core/Src/GEVA.c ****             n_pos = normalize_pos(pos_x + font_height - 1, pos_y, buf);
 394:Core/Src/GEVA.c ****             break;
 395:Core/Src/GEVA.c **** 
 396:Core/Src/GEVA.c ****         default:
 397:Core/Src/GEVA.c ****             n_pos = normalize_pos(pos_x, pos_y, buf);
 398:Core/Src/GEVA.c ****             break;
 399:Core/Src/GEVA.c ****         }
 400:Core/Src/GEVA.c **** 
 401:Core/Src/GEVA.c ****     if (n_pos[X] >= buf->size_x || n_pos[X] < 0 || n_pos[Y] >= buf->size_y || n_pos[Y] < 0)
 402:Core/Src/GEVA.c ****         error = 4;
 403:Core/Src/GEVA.c ****     else if (n_pos[Y] + font_height > buf->size_y || n_pos[X] + font_width > buf->size_x)
 404:Core/Src/GEVA.c ****         error = 2;
 405:Core/Src/GEVA.c ****     else {
 406:Core/Src/GEVA.c ****         c = rotate_char(c, buf);
 407:Core/Src/GEVA.c ****             
 408:Core/Src/GEVA.c ****         uint16_t start_byte_ptr = get_buffer_index(n_pos[X], buf->size_y - 1 - n_pos[Y], buf->byte_
 409:Core/Src/GEVA.c ****         uint16_t buffer_byte_ptr = start_byte_ptr;
 410:Core/Src/GEVA.c ****         uint16_t temp = 0;
 411:Core/Src/GEVA.c ****         uint8_t shifter_a = n_pos[X] % 8;
 412:Core/Src/GEVA.c ****     
 413:Core/Src/GEVA.c ****         for (uint8_t i = 0; i < font_height; i++) {
 414:Core/Src/GEVA.c ****             buffer_byte_ptr = start_byte_ptr - (buf->byte_col_cnt * i);
 415:Core/Src/GEVA.c ****             temp = c[font_height - 1 - i] >> shifter_a;
 416:Core/Src/GEVA.c ****             buf->vid_buf[buffer_byte_ptr] |= (uint8_t)(temp >> 8);
 417:Core/Src/GEVA.c ****             buf->vid_buf[buffer_byte_ptr + 1] |= (uint8_t)temp; 
 418:Core/Src/GEVA.c ****             
 419:Core/Src/GEVA.c ****             if (shifter_a != 0){
 420:Core/Src/GEVA.c ****                     temp = c[font_height - i - 1];
 421:Core/Src/GEVA.c ****                     buf->vid_buf[buffer_byte_ptr + 2] |= (uint8_t)temp << (8 - shifter_a);
 422:Core/Src/GEVA.c ****                 }
 423:Core/Src/GEVA.c ****         }
 424:Core/Src/GEVA.c ****     } 
 425:Core/Src/GEVA.c ****     
 426:Core/Src/GEVA.c ****    // free(n_pos);
 427:Core/Src/GEVA.c ****     return error;
 428:Core/Src/GEVA.c **** }
 429:Core/Src/GEVA.c **** 
 430:Core/Src/GEVA.c **** /*put character string on screen
 431:Core/Src/GEVA.c ****  * return error code
 432:Core/Src/GEVA.c ****  * error code list:
 433:Core/Src/GEVA.c ****  * 1 empty string
 434:Core/Src/GEVA.c ****  * 2 dimension mismatch
 435:Core/Src/GEVA.c ****  *
 436:Core/Src/GEVA.c ****  * 4 starting point out of scope
ARM GAS  C:\Users\arist\AppData\Local\Temp\ccUERo53.s 			page 15


 437:Core/Src/GEVA.c **** */
 438:Core/Src/GEVA.c **** uint8_t put_string(uint8_t pos_x, uint8_t pos_y, uint8_t* chr, enum fonts_size ff, video_buffer* bu
 439:Core/Src/GEVA.c ****     
 440:Core/Src/GEVA.c ****     uint8_t error = 1;
 441:Core/Src/GEVA.c ****     uint8_t i = 0;
 442:Core/Src/GEVA.c ****     uint8_t y_offset = pos_y;
 443:Core/Src/GEVA.c ****     uint8_t x_offset = pos_x;    
 444:Core/Src/GEVA.c **** 
 445:Core/Src/GEVA.c ****     if (chr != NULL) {
 446:Core/Src/GEVA.c ****         
 447:Core/Src/GEVA.c ****         while(i < strlen(chr)) {
 448:Core/Src/GEVA.c **** 
 449:Core/Src/GEVA.c ****             if (chr[i] == '\r')
 450:Core/Src/GEVA.c ****                 x_offset = pos_x;
 451:Core/Src/GEVA.c ****             else if (chr[i] == '\n')
 452:Core/Src/GEVA.c ****                 y_offset = y_offset - 1 - font_height;
 453:Core/Src/GEVA.c ****             else {
 454:Core/Src/GEVA.c ****                 error = put_char(x_offset, y_offset, chr[i], ff, buf);
 455:Core/Src/GEVA.c ****                 if (error != 0)
 456:Core/Src/GEVA.c ****                     break;
 457:Core/Src/GEVA.c ****                 x_offset += font_width + 1;
 458:Core/Src/GEVA.c ****             
 459:Core/Src/GEVA.c ****             }
 460:Core/Src/GEVA.c ****             i++;
 461:Core/Src/GEVA.c ****         }
 462:Core/Src/GEVA.c ****     }
 463:Core/Src/GEVA.c ****     return error;
 464:Core/Src/GEVA.c **** }
 465:Core/Src/GEVA.c **** 
 466:Core/Src/GEVA.c **** /* Load vbc file smaller than display size to buffer memory
 467:Core/Src/GEVA.c ****  * return error code
 468:Core/Src/GEVA.c ****  * error code list:
 469:Core/Src/GEVA.c ****  * 1 wrong file type
 470:Core/Src/GEVA.c ****  * 2 dimension mismatch
 471:Core/Src/GEVA.c ****  * 3 body bytes count mismatch
 472:Core/Src/GEVA.c ****  * 4 starting point out of scope
 473:Core/Src/GEVA.c ****  * note: starting position (x,y)  referenced to LANDSCAPE and rappresents lower left corner of the 
 474:Core/Src/GEVA.c **** */
 475:Core/Src/GEVA.c **** uint8_t put_vbc(vbc_file file, uint8_t x, uint8_t y, video_buffer* buf) {
 476:Core/Src/GEVA.c ****     uint8_t error = 0;
 477:Core/Src/GEVA.c ****     uint16_t vbc_body_byte = (((uint16_t)file.header.byte_cnt_h) << 8 | file.header.byte_cnt_l) - 5
 478:Core/Src/GEVA.c **** 
 479:Core/Src/GEVA.c ****     if (x > buf->size_x || x < 0 || y > buf->size_y || y < 0)
 480:Core/Src/GEVA.c ****         return 4;
 481:Core/Src/GEVA.c **** 
 482:Core/Src/GEVA.c ****     if (file.header.id != 0xA7)
 483:Core/Src/GEVA.c ****         error = 1;
 484:Core/Src/GEVA.c ****     else if (y + file.header.height > buf->size_y || x + file.header.width > buf->size_x)
 485:Core/Src/GEVA.c ****         error = 2;
 486:Core/Src/GEVA.c ****     else if (vbc_body_byte > buf->byte_buffer_cnt - get_buffer_index(x, y, buf->byte_col_cnt))
 487:Core/Src/GEVA.c ****         error = 3;
 488:Core/Src/GEVA.c ****     else if (vbc_body_byte == buf->byte_buffer_cnt) {
 489:Core/Src/GEVA.c ****         buf->vid_buf = file.body;
 490:Core/Src/GEVA.c ****     }
 491:Core/Src/GEVA.c ****     else {
 492:Core/Src/GEVA.c ****         uint8_t byte_width = (file.header.width % 8 == 0) ? file.header.width / 8 : file.header.wid
 493:Core/Src/GEVA.c ****         uint16_t start_byte_ptr = get_buffer_index(x, buf->size_y - 1 - y, buf->byte_col_cnt);
ARM GAS  C:\Users\arist\AppData\Local\Temp\ccUERo53.s 			page 16


 494:Core/Src/GEVA.c ****         uint16_t buffer_byte_ptr = start_byte_ptr;
 495:Core/Src/GEVA.c **** 
 496:Core/Src/GEVA.c ****         for (uint8_t row = 0; row < file.header.height - 1; row++) {
 497:Core/Src/GEVA.c ****             buffer_byte_ptr = start_byte_ptr - (buf->byte_col_cnt * row);
 498:Core/Src/GEVA.c ****             memmove(&buf->vid_buf[buffer_byte_ptr], &file.body[((file.header.height - 1) * byte_wid
 499:Core/Src/GEVA.c ****         }
 500:Core/Src/GEVA.c ****     }
 501:Core/Src/GEVA.c ****     return error;
 502:Core/Src/GEVA.c **** }
 503:Core/Src/GEVA.c **** 
 504:Core/Src/GEVA.c **** 
 505:Core/Src/GEVA.c **** /* ================================================SHAPES==========================================
 506:Core/Src/GEVA.c **** 
 507:Core/Src/GEVA.c **** /* Draw circle at specific location on the screen with specified radius
 508:Core/Src/GEVA.c ****  * return error code
 509:Core/Src/GEVA.c ****  * error code list:
 510:Core/Src/GEVA.c ****  * 4 point out of scope
 511:Core/Src/GEVA.c **** */
 512:Core/Src/GEVA.c **** uint8_t put_circle(uint8_t o_x, uint8_t o_y, uint8_t r, video_buffer* buf) {
 513:Core/Src/GEVA.c **** 
 514:Core/Src/GEVA.c ****     uint8_t error = 0;
 515:Core/Src/GEVA.c ****     uint16_t s = 0;
 516:Core/Src/GEVA.c ****     uint16_t rsqr = r * r;
 517:Core/Src/GEVA.c ****     
 518:Core/Src/GEVA.c ****     for (int16_t y = -r; y <= r; y++) {
 519:Core/Src/GEVA.c ****         for (int16_t x = -r; x <= r; x++) {
 520:Core/Src/GEVA.c ****             s = x * x + y * y;
 521:Core/Src/GEVA.c ****             if (s >= rsqr - r && s <= rsqr + r) {
 522:Core/Src/GEVA.c ****                 error = put_pixel(o_x + x, o_y + y, SET_C, buf);
 523:Core/Src/GEVA.c ****                // if (error)
 524:Core/Src/GEVA.c ****                 //    return error;
 525:Core/Src/GEVA.c ****             }
 526:Core/Src/GEVA.c ****         }
 527:Core/Src/GEVA.c ****     }
 528:Core/Src/GEVA.c ****     return error;
 529:Core/Src/GEVA.c **** }
 530:Core/Src/GEVA.c **** 
 531:Core/Src/GEVA.c **** /* Draw rectangular shape at specific location on the screen with specified height and width
 532:Core/Src/GEVA.c ****  * return error code
 533:Core/Src/GEVA.c ****  * error code list:
 534:Core/Src/GEVA.c ****  * 4 point out of scope
 535:Core/Src/GEVA.c ****  * note: the starting point of the shape is in the lower left corner
 536:Core/Src/GEVA.c **** */
 537:Core/Src/GEVA.c **** uint8_t put_rect(uint8_t o_x,uint8_t o_y, uint8_t width, uint8_t height, video_buffer* buf){
 538:Core/Src/GEVA.c ****     uint8_t error = 0;
 539:Core/Src/GEVA.c ****     error = put_line(o_x, o_y, o_x + width, o_y, buf);
 540:Core/Src/GEVA.c ****     error = put_line(o_x + width, o_y, o_x + width, o_y + height, buf);
 541:Core/Src/GEVA.c ****     error = put_line(o_x, o_y + height, o_x + width, o_y + height, buf);
 542:Core/Src/GEVA.c ****     error = put_line(o_x, o_y, o_x, o_y + height, buf);
 543:Core/Src/GEVA.c ****     return error;
 544:Core/Src/GEVA.c **** }
 545:Core/Src/GEVA.c **** 
 546:Core/Src/GEVA.c **** /* Draw triangle shape with specified vertices
 547:Core/Src/GEVA.c ****  * return error code
 548:Core/Src/GEVA.c ****  * error code list:
 549:Core/Src/GEVA.c ****  * 4 point out of scope
 550:Core/Src/GEVA.c **** */
ARM GAS  C:\Users\arist\AppData\Local\Temp\ccUERo53.s 			page 17


 551:Core/Src/GEVA.c **** uint8_t put_triangle(uint8_t a_x, uint8_t a_y, uint8_t b_x, uint8_t b_y, uint8_t c_x, uint8_t c_y, 
 552:Core/Src/GEVA.c ****     uint8_t error = 0;
 553:Core/Src/GEVA.c ****     error = put_line(a_x, a_y, b_x, b_y, buf);
 554:Core/Src/GEVA.c ****     error = put_line(a_x, a_y, c_x, c_y, buf);
 555:Core/Src/GEVA.c ****     error = put_line(b_x, b_y, c_x, c_y, buf);
 556:Core/Src/GEVA.c ****     return error;
 557:Core/Src/GEVA.c **** }
 558:Core/Src/GEVA.c **** 
 559:Core/Src/GEVA.c **** /* ========================================DATA VISUALIZATION======================================
 560:Core/Src/GEVA.c **** 
 561:Core/Src/GEVA.c **** uint8_t update_chart(float new_data, data_container* c, video_buffer* buf){
 562:Core/Src/GEVA.c ****     uint8_t error = 0;
 563:Core/Src/GEVA.c ****     c->data = new_data;
 564:Core/Src/GEVA.c **** 
 565:Core/Src/GEVA.c ****     switch (c->type) {
 566:Core/Src/GEVA.c ****     case COL:
 567:Core/Src/GEVA.c ****         error = update_COL(c,buf);
 568:Core/Src/GEVA.c ****         break;
 569:Core/Src/GEVA.c ****     case XY: //when calling update_XY new data is ignored: changing of data_container.xy_entry stru
 570:Core/Src/GEVA.c ****         error = update_XY(c, buf);
 571:Core/Src/GEVA.c ****         break;
 572:Core/Src/GEVA.c ****     case BAR:
 573:Core/Src/GEVA.c ****         error = update_BAR(c, buf);
 574:Core/Src/GEVA.c ****         break;
 575:Core/Src/GEVA.c ****     case LINE:
 576:Core/Src/GEVA.c ****         error = update_LINE(c,buf);
 577:Core/Src/GEVA.c ****         break;
 578:Core/Src/GEVA.c ****     case SCATTER:
 579:Core/Src/GEVA.c ****         error = update_SCATTER(c, buf);
 580:Core/Src/GEVA.c ****         break;
 581:Core/Src/GEVA.c ****     default:
 582:Core/Src/GEVA.c ****         break;
 583:Core/Src/GEVA.c **** 
 584:Core/Src/GEVA.c ****     }
 585:Core/Src/GEVA.c ****     return error;
 586:Core/Src/GEVA.c **** }
 587:Core/Src/GEVA.c **** 
 588:Core/Src/GEVA.c **** /* ===========================================INTERNAL FUNCTIONS===================================
 589:Core/Src/GEVA.c **** 
 590:Core/Src/GEVA.c **** /* Calculate the number of columns in number of bytes needed for the video buffer*/
 591:Core/Src/GEVA.c **** uint8_t byte_col_cnt(uint8_t size_x) {
 317              		.loc 1 591 38 is_stmt 1 view -0
 318              		.cfi_startproc
 319              		@ args = 0, pretend = 0, frame = 0
 320              		@ frame_needed = 0, uses_anonymous_args = 0
 321              		@ link register save eliminated.
 322              		.loc 1 591 38 is_stmt 0 view .LVU114
 323 0000 0300     		movs	r3, r0
 592:Core/Src/GEVA.c **** 
 593:Core/Src/GEVA.c ****     uint8_t col_n = (size_x / 8);
 324              		.loc 1 593 5 is_stmt 1 view .LVU115
 325              		.loc 1 593 13 is_stmt 0 view .LVU116
 326 0002 C008     		lsrs	r0, r0, #3
 327              	.LVL14:
 594:Core/Src/GEVA.c **** 
 595:Core/Src/GEVA.c ****     if (size_x % 8)
 328              		.loc 1 595 5 is_stmt 1 view .LVU117
ARM GAS  C:\Users\arist\AppData\Local\Temp\ccUERo53.s 			page 18


 329              		.loc 1 595 8 is_stmt 0 view .LVU118
 330 0004 5B07     		lsls	r3, r3, #29
 331 0006 00D0     		beq	.L20
 596:Core/Src/GEVA.c ****         col_n++;
 332              		.loc 1 596 9 is_stmt 1 view .LVU119
 333              		.loc 1 596 14 is_stmt 0 view .LVU120
 334 0008 0130     		adds	r0, r0, #1
 335              	.LVL15:
 336              	.L20:
 597:Core/Src/GEVA.c **** 
 598:Core/Src/GEVA.c ****     return col_n;
 337              		.loc 1 598 5 is_stmt 1 view .LVU121
 599:Core/Src/GEVA.c **** }
 338              		.loc 1 599 1 is_stmt 0 view .LVU122
 339              		@ sp needed
 340 000a 7047     		bx	lr
 341              		.cfi_endproc
 342              	.LFE14:
 344              		.section	.text.buffer_byte_cnt,"ax",%progbits
 345              		.align	1
 346              		.global	buffer_byte_cnt
 347              		.syntax unified
 348              		.code	16
 349              		.thumb_func
 351              	buffer_byte_cnt:
 352              	.LVL16:
 353              	.LFB15:
 600:Core/Src/GEVA.c **** 
 601:Core/Src/GEVA.c **** /* Calculate the total number of bytes needed for the video buffer*/
 602:Core/Src/GEVA.c **** uint16_t buffer_byte_cnt(video_buffer* buf) {
 354              		.loc 1 602 45 is_stmt 1 view -0
 355              		.cfi_startproc
 356              		@ args = 0, pretend = 0, frame = 0
 357              		@ frame_needed = 0, uses_anonymous_args = 0
 358              		@ link register save eliminated.
 603:Core/Src/GEVA.c ****     
 604:Core/Src/GEVA.c ****     return buf->size_y * buf->byte_col_cnt;
 359              		.loc 1 604 5 view .LVU124
 360              		.loc 1 604 15 is_stmt 0 view .LVU125
 361 0000 4378     		ldrb	r3, [r0, #1]
 362              		.loc 1 604 29 view .LVU126
 363 0002 007A     		ldrb	r0, [r0, #8]
 364              	.LVL17:
 365              		.loc 1 604 24 view .LVU127
 366 0004 5843     		muls	r0, r3
 605:Core/Src/GEVA.c **** }
 367              		.loc 1 605 1 view .LVU128
 368              		@ sp needed
 369 0006 7047     		bx	lr
 370              		.cfi_endproc
 371              	.LFE15:
 373              		.section	.text.init_buf,"ax",%progbits
 374              		.align	1
 375              		.global	init_buf
 376              		.syntax unified
 377              		.code	16
 378              		.thumb_func
ARM GAS  C:\Users\arist\AppData\Local\Temp\ccUERo53.s 			page 19


 380              	init_buf:
 381              	.LVL18:
 382              	.LFB0:
  30:Core/Src/GEVA.c ****     uint8_t error = 0;
 383              		.loc 1 30 69 is_stmt 1 view -0
 384              		.cfi_startproc
 385              		@ args = 0, pretend = 0, frame = 0
 386              		@ frame_needed = 0, uses_anonymous_args = 0
  30:Core/Src/GEVA.c ****     uint8_t error = 0;
 387              		.loc 1 30 69 is_stmt 0 view .LVU130
 388 0000 10B5     		push	{r4, lr}
 389              		.cfi_def_cfa_offset 8
 390              		.cfi_offset 4, -8
 391              		.cfi_offset 14, -4
 392 0002 0400     		movs	r4, r0
 393 0004 0800     		movs	r0, r1
 394              	.LVL19:
  31:Core/Src/GEVA.c ****     buf->size_x = size_x;
 395              		.loc 1 31 5 is_stmt 1 view .LVU131
  32:Core/Src/GEVA.c ****     buf->size_y = size_y;
 396              		.loc 1 32 5 view .LVU132
  32:Core/Src/GEVA.c ****     buf->size_y = size_y;
 397              		.loc 1 32 17 is_stmt 0 view .LVU133
 398 0006 2170     		strb	r1, [r4]
  33:Core/Src/GEVA.c ****     buf->byte_col_cnt = byte_col_cnt(size_x);
 399              		.loc 1 33 5 is_stmt 1 view .LVU134
  33:Core/Src/GEVA.c ****     buf->byte_col_cnt = byte_col_cnt(size_x);
 400              		.loc 1 33 17 is_stmt 0 view .LVU135
 401 0008 6270     		strb	r2, [r4, #1]
  34:Core/Src/GEVA.c ****     buf->byte_buffer_cnt = buffer_byte_cnt(buf);
 402              		.loc 1 34 5 is_stmt 1 view .LVU136
  34:Core/Src/GEVA.c ****     buf->byte_buffer_cnt = buffer_byte_cnt(buf);
 403              		.loc 1 34 25 is_stmt 0 view .LVU137
 404 000a FFF7FEFF 		bl	byte_col_cnt
 405              	.LVL20:
  34:Core/Src/GEVA.c ****     buf->byte_buffer_cnt = buffer_byte_cnt(buf);
 406              		.loc 1 34 23 view .LVU138
 407 000e 2072     		strb	r0, [r4, #8]
  35:Core/Src/GEVA.c ****     buf->vid_buf = (uint8_t *)malloc(buf->byte_buffer_cnt);
 408              		.loc 1 35 5 is_stmt 1 view .LVU139
  35:Core/Src/GEVA.c ****     buf->vid_buf = (uint8_t *)malloc(buf->byte_buffer_cnt);
 409              		.loc 1 35 28 is_stmt 0 view .LVU140
 410 0010 2000     		movs	r0, r4
 411 0012 FFF7FEFF 		bl	buffer_byte_cnt
 412              	.LVL21:
  35:Core/Src/GEVA.c ****     buf->vid_buf = (uint8_t *)malloc(buf->byte_buffer_cnt);
 413              		.loc 1 35 26 view .LVU141
 414 0016 6081     		strh	r0, [r4, #10]
  36:Core/Src/GEVA.c ****     
 415              		.loc 1 36 5 is_stmt 1 view .LVU142
  36:Core/Src/GEVA.c ****     
 416              		.loc 1 36 31 is_stmt 0 view .LVU143
 417 0018 FFF7FEFF 		bl	malloc
 418              	.LVL22:
  36:Core/Src/GEVA.c ****     
 419              		.loc 1 36 18 view .LVU144
 420 001c 6060     		str	r0, [r4, #4]
ARM GAS  C:\Users\arist\AppData\Local\Temp\ccUERo53.s 			page 20


  39:Core/Src/GEVA.c ****     buf->origin[1] = 0;
 421              		.loc 1 39 5 is_stmt 1 view .LVU145
  39:Core/Src/GEVA.c ****     buf->origin[1] = 0;
 422              		.loc 1 39 20 is_stmt 0 view .LVU146
 423 001e 0023     		movs	r3, #0
 424 0020 A373     		strb	r3, [r4, #14]
  40:Core/Src/GEVA.c ****     buf->r_matrix[0] = 0;
 425              		.loc 1 40 5 is_stmt 1 view .LVU147
  40:Core/Src/GEVA.c ****     buf->r_matrix[0] = 0;
 426              		.loc 1 40 20 is_stmt 0 view .LVU148
 427 0022 E373     		strb	r3, [r4, #15]
  41:Core/Src/GEVA.c ****     buf->r_matrix[1] = 0;
 428              		.loc 1 41 5 is_stmt 1 view .LVU149
  41:Core/Src/GEVA.c ****     buf->r_matrix[1] = 0;
 429              		.loc 1 41 22 is_stmt 0 view .LVU150
 430 0024 2374     		strb	r3, [r4, #16]
  42:Core/Src/GEVA.c ****     buf->r_matrix[2] = 0;
 431              		.loc 1 42 5 is_stmt 1 view .LVU151
  42:Core/Src/GEVA.c ****     buf->r_matrix[2] = 0;
 432              		.loc 1 42 22 is_stmt 0 view .LVU152
 433 0026 6374     		strb	r3, [r4, #17]
  43:Core/Src/GEVA.c ****     buf->r_matrix[3] = 0;
 434              		.loc 1 43 5 is_stmt 1 view .LVU153
  43:Core/Src/GEVA.c ****     buf->r_matrix[3] = 0;
 435              		.loc 1 43 22 is_stmt 0 view .LVU154
 436 0028 A374     		strb	r3, [r4, #18]
  44:Core/Src/GEVA.c **** 
 437              		.loc 1 44 5 is_stmt 1 view .LVU155
  44:Core/Src/GEVA.c **** 
 438              		.loc 1 44 22 is_stmt 0 view .LVU156
 439 002a E374     		strb	r3, [r4, #19]
  46:Core/Src/GEVA.c ****     set_mode(NORMAL, buf);
 440              		.loc 1 46 5 is_stmt 1 view .LVU157
 441 002c 2000     		movs	r0, r4
 442 002e FFF7FEFF 		bl	clr_buffer
 443              	.LVL23:
  47:Core/Src/GEVA.c ****     set_orientation(LANDSCAPE, buf);
 444              		.loc 1 47 5 view .LVU158
 445 0032 2100     		movs	r1, r4
 446 0034 0020     		movs	r0, #0
 447 0036 FFF7FEFF 		bl	set_mode
 448              	.LVL24:
  48:Core/Src/GEVA.c ****     return error;
 449              		.loc 1 48 5 view .LVU159
 450 003a 2100     		movs	r1, r4
 451 003c 0020     		movs	r0, #0
 452 003e FFF7FEFF 		bl	set_orientation
 453              	.LVL25:
  49:Core/Src/GEVA.c **** }
 454              		.loc 1 49 5 view .LVU160
  50:Core/Src/GEVA.c **** 
 455              		.loc 1 50 1 is_stmt 0 view .LVU161
 456 0042 0020     		movs	r0, #0
 457              		@ sp needed
 458              	.LVL26:
  50:Core/Src/GEVA.c **** 
 459              		.loc 1 50 1 view .LVU162
ARM GAS  C:\Users\arist\AppData\Local\Temp\ccUERo53.s 			page 21


 460 0044 10BD     		pop	{r4, pc}
 461              		.cfi_endproc
 462              	.LFE0:
 464              		.section	.text.get_buffer_index,"ax",%progbits
 465              		.align	1
 466              		.global	get_buffer_index
 467              		.syntax unified
 468              		.code	16
 469              		.thumb_func
 471              	get_buffer_index:
 472              	.LVL27:
 473              	.LFB16:
 606:Core/Src/GEVA.c **** 
 607:Core/Src/GEVA.c **** /* Set the video buffer index to address for  x & y position in the video matrix  
 608:Core/Src/GEVA.c ****  * Sanity check before calling
 609:Core/Src/GEVA.c **** */
 610:Core/Src/GEVA.c **** uint16_t get_buffer_index(uint8_t pos_x, uint8_t pos_y, uint8_t col_byte_cnt){
 474              		.loc 1 610 78 is_stmt 1 view -0
 475              		.cfi_startproc
 476              		@ args = 0, pretend = 0, frame = 0
 477              		@ frame_needed = 0, uses_anonymous_args = 0
 478              		@ link register save eliminated.
 611:Core/Src/GEVA.c **** 
 612:Core/Src/GEVA.c ****     return (col_byte_cnt * pos_y) + (uint8_t)(pos_x / 8);
 479              		.loc 1 612 5 view .LVU164
 480              		.loc 1 612 26 is_stmt 0 view .LVU165
 481 0000 5143     		muls	r1, r2
 482              	.LVL28:
 483              		.loc 1 612 37 view .LVU166
 484 0002 C008     		lsrs	r0, r0, #3
 485              	.LVL29:
 486              		.loc 1 612 35 view .LVU167
 487 0004 0818     		adds	r0, r1, r0
 488 0006 80B2     		uxth	r0, r0
 613:Core/Src/GEVA.c **** 
 614:Core/Src/GEVA.c **** }
 489              		.loc 1 614 1 view .LVU168
 490              		@ sp needed
 491 0008 7047     		bx	lr
 492              		.cfi_endproc
 493              	.LFE16:
 495              		.section	.text.put_vbc,"ax",%progbits
 496              		.align	1
 497              		.global	put_vbc
 498              		.syntax unified
 499              		.code	16
 500              		.thumb_func
 502              	put_vbc:
 503              	.LVL30:
 504              	.LFB9:
 475:Core/Src/GEVA.c ****     uint8_t error = 0;
 505              		.loc 1 475 73 is_stmt 1 view -0
 506              		.cfi_startproc
 507              		@ args = 8, pretend = 0, frame = 16
 508              		@ frame_needed = 0, uses_anonymous_args = 0
 475:Core/Src/GEVA.c ****     uint8_t error = 0;
 509              		.loc 1 475 73 is_stmt 0 view .LVU170
ARM GAS  C:\Users\arist\AppData\Local\Temp\ccUERo53.s 			page 22


 510 0000 F0B5     		push	{r4, r5, r6, r7, lr}
 511              		.cfi_def_cfa_offset 20
 512              		.cfi_offset 4, -20
 513              		.cfi_offset 5, -16
 514              		.cfi_offset 6, -12
 515              		.cfi_offset 7, -8
 516              		.cfi_offset 14, -4
 517 0002 DE46     		mov	lr, fp
 518 0004 5746     		mov	r7, r10
 519 0006 4E46     		mov	r6, r9
 520 0008 4546     		mov	r5, r8
 521 000a E0B5     		push	{r5, r6, r7, lr}
 522              		.cfi_def_cfa_offset 36
 523              		.cfi_offset 8, -36
 524              		.cfi_offset 9, -32
 525              		.cfi_offset 10, -28
 526              		.cfi_offset 11, -24
 527 000c 85B0     		sub	sp, sp, #20
 528              		.cfi_def_cfa_offset 56
 529 000e 01AC     		add	r4, sp, #4
 530 0010 0190     		str	r0, [sp, #4]
 531 0012 0291     		str	r1, [sp, #8]
 532 0014 0392     		str	r2, [sp, #12]
 533 0016 1D00     		movs	r5, r3
 534 0018 0EAB     		add	r3, sp, #56
 535              	.LVL31:
 475:Core/Src/GEVA.c ****     uint8_t error = 0;
 536              		.loc 1 475 73 view .LVU171
 537 001a 1F78     		ldrb	r7, [r3]
 538 001c 0F9E     		ldr	r6, [sp, #60]
 476:Core/Src/GEVA.c ****     uint16_t vbc_body_byte = (((uint16_t)file.header.byte_cnt_h) << 8 | file.header.byte_cnt_l) - 5
 539              		.loc 1 476 5 is_stmt 1 view .LVU172
 540              	.LVL32:
 477:Core/Src/GEVA.c **** 
 541              		.loc 1 477 5 view .LVU173
 477:Core/Src/GEVA.c **** 
 542              		.loc 1 477 53 is_stmt 0 view .LVU174
 543 001e E378     		ldrb	r3, [r4, #3]
 544              	.LVL33:
 477:Core/Src/GEVA.c **** 
 545              		.loc 1 477 66 view .LVU175
 546 0020 1B02     		lsls	r3, r3, #8
 477:Core/Src/GEVA.c **** 
 547              		.loc 1 477 84 view .LVU176
 548 0022 2479     		ldrb	r4, [r4, #4]
 477:Core/Src/GEVA.c **** 
 549              		.loc 1 477 71 view .LVU177
 550 0024 1C43     		orrs	r4, r3
 477:Core/Src/GEVA.c **** 
 551              		.loc 1 477 14 view .LVU178
 552 0026 053C     		subs	r4, r4, #5
 553 0028 A4B2     		uxth	r4, r4
 554              	.LVL34:
 479:Core/Src/GEVA.c ****         return 4;
 555              		.loc 1 479 5 is_stmt 1 view .LVU179
 479:Core/Src/GEVA.c ****         return 4;
 556              		.loc 1 479 16 is_stmt 0 view .LVU180
ARM GAS  C:\Users\arist\AppData\Local\Temp\ccUERo53.s 			page 23


 557 002a 3378     		ldrb	r3, [r6]
 479:Core/Src/GEVA.c ****         return 4;
 558              		.loc 1 479 8 view .LVU181
 559 002c AB42     		cmp	r3, r5
 560 002e 5AD3     		bcc	.L32
 479:Core/Src/GEVA.c ****         return 4;
 561              		.loc 1 479 44 discriminator 1 view .LVU182
 562 0030 7278     		ldrb	r2, [r6, #1]
 563 0032 9046     		mov	r8, r2
 479:Core/Src/GEVA.c ****         return 4;
 564              		.loc 1 479 53 discriminator 1 view .LVU183
 565 0034 BA42     		cmp	r2, r7
 566 0036 58D3     		bcc	.L33
 482:Core/Src/GEVA.c ****         error = 1;
 567              		.loc 1 482 5 is_stmt 1 view .LVU184
 482:Core/Src/GEVA.c ****         error = 1;
 568              		.loc 1 482 20 is_stmt 0 view .LVU185
 569 0038 01AA     		add	r2, sp, #4
 570 003a 1278     		ldrb	r2, [r2]
 482:Core/Src/GEVA.c ****         error = 1;
 571              		.loc 1 482 8 view .LVU186
 572 003c A72A     		cmp	r2, #167
 573 003e 07D0     		beq	.L38
 483:Core/Src/GEVA.c ****     else if (y + file.header.height > buf->size_y || x + file.header.width > buf->size_x)
 574              		.loc 1 483 15 view .LVU187
 575 0040 0120     		movs	r0, #1
 576              	.LVL35:
 577              	.L26:
 502:Core/Src/GEVA.c **** 
 578              		.loc 1 502 1 view .LVU188
 579 0042 05B0     		add	sp, sp, #20
 580              		@ sp needed
 581 0044 F0BC     		pop	{r4, r5, r6, r7}
 582 0046 BB46     		mov	fp, r7
 583 0048 B246     		mov	r10, r6
 584 004a A946     		mov	r9, r5
 585 004c A046     		mov	r8, r4
 586 004e F0BD     		pop	{r4, r5, r6, r7, pc}
 587              	.LVL36:
 588              	.L38:
 484:Core/Src/GEVA.c ****         error = 2;
 589              		.loc 1 484 10 is_stmt 1 view .LVU189
 484:Core/Src/GEVA.c ****         error = 2;
 590              		.loc 1 484 29 is_stmt 0 view .LVU190
 591 0050 01AA     		add	r2, sp, #4
 592 0052 9278     		ldrb	r2, [r2, #2]
 593 0054 9246     		mov	r10, r2
 484:Core/Src/GEVA.c ****         error = 2;
 594              		.loc 1 484 16 view .LVU191
 595 0056 BA18     		adds	r2, r7, r2
 484:Core/Src/GEVA.c ****         error = 2;
 596              		.loc 1 484 13 view .LVU192
 597 0058 4245     		cmp	r2, r8
 598 005a 48DC     		bgt	.L35
 484:Core/Src/GEVA.c ****         error = 2;
 599              		.loc 1 484 69 discriminator 1 view .LVU193
 600 005c 01AA     		add	r2, sp, #4
ARM GAS  C:\Users\arist\AppData\Local\Temp\ccUERo53.s 			page 24


 601 005e 5278     		ldrb	r2, [r2, #1]
 602 0060 9146     		mov	r9, r2
 484:Core/Src/GEVA.c ****         error = 2;
 603              		.loc 1 484 56 discriminator 1 view .LVU194
 604 0062 AA18     		adds	r2, r5, r2
 484:Core/Src/GEVA.c ****         error = 2;
 605              		.loc 1 484 51 discriminator 1 view .LVU195
 606 0064 9A42     		cmp	r2, r3
 607 0066 44DC     		bgt	.L36
 486:Core/Src/GEVA.c ****         error = 3;
 608              		.loc 1 486 10 is_stmt 1 view .LVU196
 486:Core/Src/GEVA.c ****         error = 3;
 609              		.loc 1 486 33 is_stmt 0 view .LVU197
 610 0068 7389     		ldrh	r3, [r6, #10]
 611 006a 9B46     		mov	fp, r3
 486:Core/Src/GEVA.c ****         error = 3;
 612              		.loc 1 486 53 view .LVU198
 613 006c 337A     		ldrb	r3, [r6, #8]
 614 006e 0093     		str	r3, [sp]
 615 0070 1A00     		movs	r2, r3
 616 0072 3900     		movs	r1, r7
 617 0074 2800     		movs	r0, r5
 618 0076 FFF7FEFF 		bl	get_buffer_index
 619              	.LVL37:
 486:Core/Src/GEVA.c ****         error = 3;
 620              		.loc 1 486 51 view .LVU199
 621 007a 5B46     		mov	r3, fp
 622 007c 181A     		subs	r0, r3, r0
 486:Core/Src/GEVA.c ****         error = 3;
 623              		.loc 1 486 13 view .LVU200
 624 007e 8442     		cmp	r4, r0
 625 0080 39DC     		bgt	.L37
 488:Core/Src/GEVA.c ****         buf->vid_buf = file.body;
 626              		.loc 1 488 10 is_stmt 1 view .LVU201
 488:Core/Src/GEVA.c ****         buf->vid_buf = file.body;
 627              		.loc 1 488 13 is_stmt 0 view .LVU202
 628 0082 A345     		cmp	fp, r4
 629 0084 10D0     		beq	.L39
 630              	.LBB3:
 492:Core/Src/GEVA.c ****         uint16_t start_byte_ptr = get_buffer_index(x, buf->size_y - 1 - y, buf->byte_col_cnt);
 631              		.loc 1 492 9 is_stmt 1 view .LVU203
 492:Core/Src/GEVA.c ****         uint16_t start_byte_ptr = get_buffer_index(x, buf->size_y - 1 - y, buf->byte_col_cnt);
 632              		.loc 1 492 17 is_stmt 0 view .LVU204
 633 0086 4B46     		mov	r3, r9
 634 0088 5B07     		lsls	r3, r3, #29
 635 008a 11D1     		bne	.L28
 492:Core/Src/GEVA.c ****         uint16_t start_byte_ptr = get_buffer_index(x, buf->size_y - 1 - y, buf->byte_col_cnt);
 636              		.loc 1 492 17 discriminator 1 view .LVU205
 637 008c 4B46     		mov	r3, r9
 638 008e DC08     		lsrs	r4, r3, #3
 639              	.LVL38:
 640              	.L29:
 493:Core/Src/GEVA.c ****         uint16_t buffer_byte_ptr = start_byte_ptr;
 641              		.loc 1 493 9 is_stmt 1 discriminator 4 view .LVU206
 493:Core/Src/GEVA.c ****         uint16_t buffer_byte_ptr = start_byte_ptr;
 642              		.loc 1 493 71 is_stmt 0 discriminator 4 view .LVU207
 643 0090 4346     		mov	r3, r8
ARM GAS  C:\Users\arist\AppData\Local\Temp\ccUERo53.s 			page 25


 644 0092 D91B     		subs	r1, r3, r7
 645 0094 C9B2     		uxtb	r1, r1
 493:Core/Src/GEVA.c ****         uint16_t buffer_byte_ptr = start_byte_ptr;
 646              		.loc 1 493 35 discriminator 4 view .LVU208
 647 0096 0139     		subs	r1, r1, #1
 648 0098 C9B2     		uxtb	r1, r1
 649 009a 009A     		ldr	r2, [sp]
 650 009c 2800     		movs	r0, r5
 651 009e FFF7FEFF 		bl	get_buffer_index
 652              	.LVL39:
 653 00a2 0700     		movs	r7, r0
 654              	.LVL40:
 494:Core/Src/GEVA.c **** 
 655              		.loc 1 494 9 is_stmt 1 discriminator 4 view .LVU209
 496:Core/Src/GEVA.c ****             buffer_byte_ptr = start_byte_ptr - (buf->byte_col_cnt * row);
 656              		.loc 1 496 9 discriminator 4 view .LVU210
 657              	.LBB4:
 496:Core/Src/GEVA.c ****             buffer_byte_ptr = start_byte_ptr - (buf->byte_col_cnt * row);
 658              		.loc 1 496 14 discriminator 4 view .LVU211
 496:Core/Src/GEVA.c ****             buffer_byte_ptr = start_byte_ptr - (buf->byte_col_cnt * row);
 659              		.loc 1 496 22 is_stmt 0 discriminator 4 view .LVU212
 660 00a4 0025     		movs	r5, #0
 496:Core/Src/GEVA.c ****             buffer_byte_ptr = start_byte_ptr - (buf->byte_col_cnt * row);
 661              		.loc 1 496 9 discriminator 4 view .LVU213
 662 00a6 18E0     		b	.L30
 663              	.LVL41:
 664              	.L39:
 496:Core/Src/GEVA.c ****             buffer_byte_ptr = start_byte_ptr - (buf->byte_col_cnt * row);
 665              		.loc 1 496 9 discriminator 4 view .LVU214
 666              	.LBE4:
 667              	.LBE3:
 489:Core/Src/GEVA.c ****     }
 668              		.loc 1 489 9 is_stmt 1 view .LVU215
 489:Core/Src/GEVA.c ****     }
 669              		.loc 1 489 28 is_stmt 0 view .LVU216
 670 00a8 039B     		ldr	r3, [sp, #12]
 489:Core/Src/GEVA.c ****     }
 671              		.loc 1 489 22 view .LVU217
 672 00aa 7360     		str	r3, [r6, #4]
 476:Core/Src/GEVA.c ****     uint16_t vbc_body_byte = (((uint16_t)file.header.byte_cnt_h) << 8 | file.header.byte_cnt_l) - 5
 673              		.loc 1 476 13 view .LVU218
 674 00ac 0020     		movs	r0, #0
 675 00ae C8E7     		b	.L26
 676              	.L28:
 677              	.LBB7:
 492:Core/Src/GEVA.c ****         uint16_t start_byte_ptr = get_buffer_index(x, buf->size_y - 1 - y, buf->byte_col_cnt);
 678              		.loc 1 492 107 discriminator 2 view .LVU219
 679 00b0 4B46     		mov	r3, r9
 680 00b2 DC08     		lsrs	r4, r3, #3
 681              	.LVL42:
 492:Core/Src/GEVA.c ****         uint16_t start_byte_ptr = get_buffer_index(x, buf->size_y - 1 - y, buf->byte_col_cnt);
 682              		.loc 1 492 17 discriminator 2 view .LVU220
 683 00b4 0134     		adds	r4, r4, #1
 684 00b6 EBE7     		b	.L29
 685              	.LVL43:
 686              	.L31:
 687              	.LBB5:
ARM GAS  C:\Users\arist\AppData\Local\Temp\ccUERo53.s 			page 26


 497:Core/Src/GEVA.c ****             memmove(&buf->vid_buf[buffer_byte_ptr], &file.body[((file.header.height - 1) * byte_wid
 688              		.loc 1 497 13 is_stmt 1 discriminator 3 view .LVU221
 497:Core/Src/GEVA.c ****             memmove(&buf->vid_buf[buffer_byte_ptr], &file.body[((file.header.height - 1) * byte_wid
 689              		.loc 1 497 52 is_stmt 0 discriminator 3 view .LVU222
 690 00b8 337A     		ldrb	r3, [r6, #8]
 497:Core/Src/GEVA.c ****             memmove(&buf->vid_buf[buffer_byte_ptr], &file.body[((file.header.height - 1) * byte_wid
 691              		.loc 1 497 67 discriminator 3 view .LVU223
 692 00ba 6B43     		muls	r3, r5
 497:Core/Src/GEVA.c ****             memmove(&buf->vid_buf[buffer_byte_ptr], &file.body[((file.header.height - 1) * byte_wid
 693              		.loc 1 497 29 discriminator 3 view .LVU224
 694 00bc FB1A     		subs	r3, r7, r3
 695 00be 9BB2     		uxth	r3, r3
 696              	.LVL44:
 498:Core/Src/GEVA.c ****         }
 697              		.loc 1 498 13 is_stmt 1 discriminator 3 view .LVU225
 498:Core/Src/GEVA.c ****         }
 698              		.loc 1 498 25 is_stmt 0 discriminator 3 view .LVU226
 699 00c0 7068     		ldr	r0, [r6, #4]
 498:Core/Src/GEVA.c ****         }
 700              		.loc 1 498 21 discriminator 3 view .LVU227
 701 00c2 C018     		adds	r0, r0, r3
 498:Core/Src/GEVA.c ****         }
 702              		.loc 1 498 58 discriminator 3 view .LVU228
 703 00c4 0399     		ldr	r1, [sp, #12]
 498:Core/Src/GEVA.c ****         }
 704              		.loc 1 498 90 discriminator 3 view .LVU229
 705 00c6 6243     		muls	r2, r4
 498:Core/Src/GEVA.c ****         }
 706              		.loc 1 498 110 discriminator 3 view .LVU230
 707 00c8 2B00     		movs	r3, r5
 708              	.LVL45:
 498:Core/Src/GEVA.c ****         }
 709              		.loc 1 498 110 discriminator 3 view .LVU231
 710 00ca 6343     		muls	r3, r4
 711              	.LVL46:
 498:Core/Src/GEVA.c ****         }
 712              		.loc 1 498 104 discriminator 3 view .LVU232
 713 00cc D21A     		subs	r2, r2, r3
 498:Core/Src/GEVA.c ****         }
 714              		.loc 1 498 53 discriminator 3 view .LVU233
 715 00ce 8918     		adds	r1, r1, r2
 498:Core/Src/GEVA.c ****         }
 716              		.loc 1 498 13 discriminator 3 view .LVU234
 717 00d0 2200     		movs	r2, r4
 718 00d2 FFF7FEFF 		bl	memmove
 719              	.LVL47:
 496:Core/Src/GEVA.c ****             buffer_byte_ptr = start_byte_ptr - (buf->byte_col_cnt * row);
 720              		.loc 1 496 64 is_stmt 1 discriminator 3 view .LVU235
 721 00d6 0135     		adds	r5, r5, #1
 722              	.LVL48:
 496:Core/Src/GEVA.c ****             buffer_byte_ptr = start_byte_ptr - (buf->byte_col_cnt * row);
 723              		.loc 1 496 64 is_stmt 0 discriminator 3 view .LVU236
 724 00d8 EDB2     		uxtb	r5, r5
 725              	.LVL49:
 726              	.L30:
 496:Core/Src/GEVA.c ****             buffer_byte_ptr = start_byte_ptr - (buf->byte_col_cnt * row);
 727              		.loc 1 496 35 is_stmt 1 discriminator 1 view .LVU237
ARM GAS  C:\Users\arist\AppData\Local\Temp\ccUERo53.s 			page 27


 496:Core/Src/GEVA.c ****             buffer_byte_ptr = start_byte_ptr - (buf->byte_col_cnt * row);
 728              		.loc 1 496 56 is_stmt 0 discriminator 1 view .LVU238
 729 00da 5346     		mov	r3, r10
 730 00dc 5A1E     		subs	r2, r3, #1
 496:Core/Src/GEVA.c ****             buffer_byte_ptr = start_byte_ptr - (buf->byte_col_cnt * row);
 731              		.loc 1 496 35 discriminator 1 view .LVU239
 732 00de 9542     		cmp	r5, r2
 733 00e0 EADB     		blt	.L31
 734              	.LBE5:
 735              	.LBE7:
 476:Core/Src/GEVA.c ****     uint16_t vbc_body_byte = (((uint16_t)file.header.byte_cnt_h) << 8 | file.header.byte_cnt_l) - 5
 736              		.loc 1 476 13 view .LVU240
 737 00e2 0020     		movs	r0, #0
 738              	.LBB8:
 739              	.LBB6:
 740 00e4 ADE7     		b	.L26
 741              	.LVL50:
 742              	.L32:
 476:Core/Src/GEVA.c ****     uint16_t vbc_body_byte = (((uint16_t)file.header.byte_cnt_h) << 8 | file.header.byte_cnt_l) - 5
 743              		.loc 1 476 13 view .LVU241
 744              	.LBE6:
 745              	.LBE8:
 480:Core/Src/GEVA.c **** 
 746              		.loc 1 480 16 view .LVU242
 747 00e6 0420     		movs	r0, #4
 748 00e8 ABE7     		b	.L26
 749              	.L33:
 750 00ea 0420     		movs	r0, #4
 751 00ec A9E7     		b	.L26
 752              	.L35:
 485:Core/Src/GEVA.c ****     else if (vbc_body_byte > buf->byte_buffer_cnt - get_buffer_index(x, y, buf->byte_col_cnt))
 753              		.loc 1 485 15 view .LVU243
 754 00ee 0220     		movs	r0, #2
 755 00f0 A7E7     		b	.L26
 756              	.L36:
 757 00f2 0220     		movs	r0, #2
 758 00f4 A5E7     		b	.L26
 759              	.L37:
 487:Core/Src/GEVA.c ****     else if (vbc_body_byte == buf->byte_buffer_cnt) {
 760              		.loc 1 487 15 view .LVU244
 761 00f6 0320     		movs	r0, #3
 762 00f8 A3E7     		b	.L26
 763              		.cfi_endproc
 764              	.LFE9:
 766              		.section	.text.normalize_pos,"ax",%progbits
 767              		.align	1
 768              		.global	normalize_pos
 769              		.syntax unified
 770              		.code	16
 771              		.thumb_func
 773              	normalize_pos:
 774              	.LVL51:
 775              	.LFB17:
 615:Core/Src/GEVA.c **** 
 616:Core/Src/GEVA.c **** /* Normalize orientation operation.  
 617:Core/Src/GEVA.c ****  * Project coordinates in LANDSCAPE coordinates
 618:Core/Src/GEVA.c **** */
ARM GAS  C:\Users\arist\AppData\Local\Temp\ccUERo53.s 			page 28


 619:Core/Src/GEVA.c **** uint8_t * normalize_pos(uint8_t pos_x, uint8_t pos_y, video_buffer* buf) {
 776              		.loc 1 619 74 is_stmt 1 view -0
 777              		.cfi_startproc
 778              		@ args = 0, pretend = 0, frame = 0
 779              		@ frame_needed = 0, uses_anonymous_args = 0
 780              		.loc 1 619 74 is_stmt 0 view .LVU246
 781 0000 70B5     		push	{r4, r5, r6, lr}
 782              		.cfi_def_cfa_offset 16
 783              		.cfi_offset 4, -16
 784              		.cfi_offset 5, -12
 785              		.cfi_offset 6, -8
 786              		.cfi_offset 14, -4
 787 0002 0500     		movs	r5, r0
 788 0004 0E00     		movs	r6, r1
 789 0006 1400     		movs	r4, r2
 620:Core/Src/GEVA.c **** 
 621:Core/Src/GEVA.c ****     uint8_t *pos = (uint8_t*)malloc(2);
 790              		.loc 1 621 5 is_stmt 1 view .LVU247
 791              		.loc 1 621 30 is_stmt 0 view .LVU248
 792 0008 0220     		movs	r0, #2
 793              	.LVL52:
 794              		.loc 1 621 30 view .LVU249
 795 000a FFF7FEFF 		bl	malloc
 796              	.LVL53:
 622:Core/Src/GEVA.c ****     pos[0] = buf->origin[X] + (pos_x * buf->r_matrix[_A]) + (pos_y * buf->r_matrix[_B]);
 797              		.loc 1 622 5 is_stmt 1 view .LVU250
 798              		.loc 1 622 25 is_stmt 0 view .LVU251
 799 000e A27B     		ldrb	r2, [r4, #14]
 800              		.loc 1 622 83 view .LVU252
 801 0010 1123     		movs	r3, #17
 802 0012 E356     		ldrsb	r3, [r4, r3]
 803              		.loc 1 622 53 view .LVU253
 804 0014 1021     		movs	r1, #16
 805 0016 6156     		ldrsb	r1, [r4, r1]
 806              		.loc 1 622 59 view .LVU254
 807 0018 7343     		muls	r3, r6
 808 001a 6943     		muls	r1, r5
 809 001c 5B18     		adds	r3, r3, r1
 810 001e D318     		adds	r3, r2, r3
 811              		.loc 1 622 12 view .LVU255
 812 0020 0370     		strb	r3, [r0]
 623:Core/Src/GEVA.c ****     pos[1] = buf->origin[Y] + (pos_x * buf->r_matrix[_C]) + (pos_y * buf->r_matrix[_D]);
 813              		.loc 1 623 5 is_stmt 1 view .LVU256
 814              		.loc 1 623 25 is_stmt 0 view .LVU257
 815 0022 E37B     		ldrb	r3, [r4, #15]
 816              		.loc 1 623 83 view .LVU258
 817 0024 1321     		movs	r1, #19
 818 0026 6156     		ldrsb	r1, [r4, r1]
 819              		.loc 1 623 53 view .LVU259
 820 0028 1222     		movs	r2, #18
 821 002a A256     		ldrsb	r2, [r4, r2]
 822              		.loc 1 623 59 view .LVU260
 823 002c 7143     		muls	r1, r6
 824 002e 6A43     		muls	r2, r5
 825 0030 8918     		adds	r1, r1, r2
 826 0032 5B18     		adds	r3, r3, r1
 827              		.loc 1 623 12 view .LVU261
ARM GAS  C:\Users\arist\AppData\Local\Temp\ccUERo53.s 			page 29


 828 0034 4370     		strb	r3, [r0, #1]
 624:Core/Src/GEVA.c ****     
 625:Core/Src/GEVA.c ****     return pos;
 829              		.loc 1 625 5 is_stmt 1 view .LVU262
 626:Core/Src/GEVA.c **** }
 830              		.loc 1 626 1 is_stmt 0 view .LVU263
 831              		@ sp needed
 832              	.LVL54:
 833              		.loc 1 626 1 view .LVU264
 834 0036 70BD     		pop	{r4, r5, r6, pc}
 835              		.cfi_endproc
 836              	.LFE17:
 838              		.section	.text.put_pixel,"ax",%progbits
 839              		.align	1
 840              		.global	put_pixel
 841              		.syntax unified
 842              		.code	16
 843              		.thumb_func
 845              	put_pixel:
 846              	.LVL55:
 847              	.LFB4:
 134:Core/Src/GEVA.c **** 
 848              		.loc 1 134 86 is_stmt 1 view -0
 849              		.cfi_startproc
 850              		@ args = 0, pretend = 0, frame = 0
 851              		@ frame_needed = 0, uses_anonymous_args = 0
 134:Core/Src/GEVA.c **** 
 852              		.loc 1 134 86 is_stmt 0 view .LVU266
 853 0000 F0B5     		push	{r4, r5, r6, r7, lr}
 854              		.cfi_def_cfa_offset 20
 855              		.cfi_offset 4, -20
 856              		.cfi_offset 5, -16
 857              		.cfi_offset 6, -12
 858              		.cfi_offset 7, -8
 859              		.cfi_offset 14, -4
 860 0002 C646     		mov	lr, r8
 861 0004 00B5     		push	{lr}
 862              		.cfi_def_cfa_offset 24
 863              		.cfi_offset 8, -24
 864 0006 9046     		mov	r8, r2
 865 0008 1C00     		movs	r4, r3
 136:Core/Src/GEVA.c ****     uint8_t *n_pos = normalize_pos(pos_x, pos_y, buf);
 866              		.loc 1 136 5 is_stmt 1 view .LVU267
 867              	.LVL56:
 137:Core/Src/GEVA.c **** 
 868              		.loc 1 137 5 view .LVU268
 137:Core/Src/GEVA.c **** 
 869              		.loc 1 137 22 is_stmt 0 view .LVU269
 870 000a 1A00     		movs	r2, r3
 871              	.LVL57:
 137:Core/Src/GEVA.c **** 
 872              		.loc 1 137 22 view .LVU270
 873 000c FFF7FEFF 		bl	normalize_pos
 874              	.LVL58:
 137:Core/Src/GEVA.c **** 
 875              		.loc 1 137 22 view .LVU271
 876 0010 0500     		movs	r5, r0
ARM GAS  C:\Users\arist\AppData\Local\Temp\ccUERo53.s 			page 30


 877              	.LVL59:
 139:Core/Src/GEVA.c ****         error = 4;
 878              		.loc 1 139 5 is_stmt 1 view .LVU272
 139:Core/Src/GEVA.c ****         error = 4;
 879              		.loc 1 139 42 is_stmt 0 view .LVU273
 880 0012 6378     		ldrb	r3, [r4, #1]
 139:Core/Src/GEVA.c ****         error = 4;
 881              		.loc 1 139 33 view .LVU274
 882 0014 4278     		ldrb	r2, [r0, #1]
 139:Core/Src/GEVA.c ****         error = 4;
 883              		.loc 1 139 8 view .LVU275
 884 0016 9342     		cmp	r3, r2
 885 0018 35D9     		bls	.L45
 139:Core/Src/GEVA.c ****         error = 4;
 886              		.loc 1 139 92 discriminator 1 view .LVU276
 887 001a 2178     		ldrb	r1, [r4]
 139:Core/Src/GEVA.c ****         error = 4;
 888              		.loc 1 139 83 discriminator 1 view .LVU277
 889 001c 0678     		ldrb	r6, [r0]
 139:Core/Src/GEVA.c ****         error = 4;
 890              		.loc 1 139 74 discriminator 1 view .LVU278
 891 001e B142     		cmp	r1, r6
 892 0020 39D9     		bls	.L46
 142:Core/Src/GEVA.c ****             color = CLEAR_C;
 893              		.loc 1 142 9 is_stmt 1 view .LVU279
 142:Core/Src/GEVA.c ****             color = CLEAR_C;
 894              		.loc 1 142 16 is_stmt 0 view .LVU280
 895 0022 217B     		ldrb	r1, [r4, #12]
 142:Core/Src/GEVA.c ****             color = CLEAR_C;
 896              		.loc 1 142 13 view .LVU281
 897 0024 4746     		mov	r7, r8
 898 0026 0F40     		ands	r7, r1
 142:Core/Src/GEVA.c ****             color = CLEAR_C;
 899              		.loc 1 142 12 view .LVU282
 900 0028 4046     		mov	r0, r8
 901              	.LVL60:
 142:Core/Src/GEVA.c ****             color = CLEAR_C;
 902              		.loc 1 142 12 view .LVU283
 903 002a 0842     		tst	r0, r1
 904 002c 03D1     		bne	.L43
 144:Core/Src/GEVA.c ****             color = SET_C;
 905              		.loc 1 144 14 is_stmt 1 view .LVU284
 144:Core/Src/GEVA.c ****             color = SET_C;
 906              		.loc 1 144 28 is_stmt 0 view .LVU285
 907 002e 8143     		bics	r1, r0
 144:Core/Src/GEVA.c ****             color = SET_C;
 908              		.loc 1 144 17 view .LVU286
 909 0030 13D1     		bne	.L44
 910              	.LVL61:
 147:Core/Src/GEVA.c ****             buf->vid_buf[get_buffer_index(n_pos[X], (buf->size_y - n_pos[Y] - 1), buf->byte_col_cnt
 911              		.loc 1 147 9 is_stmt 1 view .LVU287
 147:Core/Src/GEVA.c ****             buf->vid_buf[get_buffer_index(n_pos[X], (buf->size_y - n_pos[Y] - 1), buf->byte_col_cnt
 912              		.loc 1 147 12 is_stmt 0 view .LVU288
 913 0032 0028     		cmp	r0, #0
 914 0034 11D1     		bne	.L44
 915              	.L43:
 148:Core/Src/GEVA.c ****         else
ARM GAS  C:\Users\arist\AppData\Local\Temp\ccUERo53.s 			page 31


 916              		.loc 1 148 13 is_stmt 1 view .LVU289
 148:Core/Src/GEVA.c ****         else
 917              		.loc 1 148 16 is_stmt 0 view .LVU290
 918 0036 6768     		ldr	r7, [r4, #4]
 148:Core/Src/GEVA.c ****         else
 919              		.loc 1 148 66 view .LVU291
 920 0038 991A     		subs	r1, r3, r2
 921 003a C9B2     		uxtb	r1, r1
 148:Core/Src/GEVA.c ****         else
 922              		.loc 1 148 26 view .LVU292
 923 003c 227A     		ldrb	r2, [r4, #8]
 924 003e 0139     		subs	r1, r1, #1
 925 0040 C9B2     		uxtb	r1, r1
 926 0042 3000     		movs	r0, r6
 927 0044 FFF7FEFF 		bl	get_buffer_index
 928              	.LVL62:
 148:Core/Src/GEVA.c ****         else
 929              		.loc 1 148 25 view .LVU293
 930 0048 3B5C     		ldrb	r3, [r7, r0]
 148:Core/Src/GEVA.c ****         else
 931              		.loc 1 148 124 view .LVU294
 932 004a 0721     		movs	r1, #7
 933 004c 3140     		ands	r1, r6
 148:Core/Src/GEVA.c ****         else
 934              		.loc 1 148 111 view .LVU295
 935 004e 8022     		movs	r2, #128
 936 0050 0A41     		asrs	r2, r2, r1
 148:Core/Src/GEVA.c ****         else
 937              		.loc 1 148 103 view .LVU296
 938 0052 1343     		orrs	r3, r2
 939 0054 3B54     		strb	r3, [r7, r0]
 136:Core/Src/GEVA.c ****     uint8_t *n_pos = normalize_pos(pos_x, pos_y, buf);
 940              		.loc 1 136 13 view .LVU297
 941 0056 0027     		movs	r7, #0
 942 0058 16E0     		b	.L42
 943              	.L44:
 150:Core/Src/GEVA.c ****     }
 944              		.loc 1 150 13 is_stmt 1 view .LVU298
 150:Core/Src/GEVA.c ****     }
 945              		.loc 1 150 16 is_stmt 0 view .LVU299
 946 005a 6168     		ldr	r1, [r4, #4]
 947 005c 8846     		mov	r8, r1
 150:Core/Src/GEVA.c ****     }
 948              		.loc 1 150 66 view .LVU300
 949 005e 991A     		subs	r1, r3, r2
 950 0060 C9B2     		uxtb	r1, r1
 150:Core/Src/GEVA.c ****     }
 951              		.loc 1 150 26 view .LVU301
 952 0062 227A     		ldrb	r2, [r4, #8]
 953 0064 0139     		subs	r1, r1, #1
 954 0066 C9B2     		uxtb	r1, r1
 955 0068 3000     		movs	r0, r6
 956 006a FFF7FEFF 		bl	get_buffer_index
 957              	.LVL63:
 150:Core/Src/GEVA.c ****     }
 958              		.loc 1 150 25 view .LVU302
 959 006e 4346     		mov	r3, r8
ARM GAS  C:\Users\arist\AppData\Local\Temp\ccUERo53.s 			page 32


 960 0070 195C     		ldrb	r1, [r3, r0]
 150:Core/Src/GEVA.c ****     }
 961              		.loc 1 150 126 view .LVU303
 962 0072 0722     		movs	r2, #7
 963 0074 3240     		ands	r2, r6
 150:Core/Src/GEVA.c ****     }
 964              		.loc 1 150 113 view .LVU304
 965 0076 8023     		movs	r3, #128
 966 0078 1341     		asrs	r3, r3, r2
 150:Core/Src/GEVA.c ****     }
 967              		.loc 1 150 103 view .LVU305
 968 007a DB43     		mvns	r3, r3
 969 007c 5BB2     		sxtb	r3, r3
 970 007e 0B40     		ands	r3, r1
 971 0080 4246     		mov	r2, r8
 972 0082 1354     		strb	r3, [r2, r0]
 973 0084 00E0     		b	.L42
 974              	.LVL64:
 975              	.L45:
 140:Core/Src/GEVA.c ****     else {
 976              		.loc 1 140 15 view .LVU306
 977 0086 0427     		movs	r7, #4
 978              	.LVL65:
 979              	.L42:
 152:Core/Src/GEVA.c ****     return error;
 980              		.loc 1 152 5 is_stmt 1 view .LVU307
 981 0088 2800     		movs	r0, r5
 982 008a FFF7FEFF 		bl	free
 983              	.LVL66:
 153:Core/Src/GEVA.c **** }
 984              		.loc 1 153 5 view .LVU308
 154:Core/Src/GEVA.c **** 
 985              		.loc 1 154 1 is_stmt 0 view .LVU309
 986 008e 3800     		movs	r0, r7
 987              		@ sp needed
 988              	.LVL67:
 989              	.LVL68:
 990              	.LVL69:
 154:Core/Src/GEVA.c **** 
 991              		.loc 1 154 1 view .LVU310
 992 0090 80BC     		pop	{r7}
 993 0092 B846     		mov	r8, r7
 994 0094 F0BD     		pop	{r4, r5, r6, r7, pc}
 995              	.LVL70:
 996              	.L46:
 140:Core/Src/GEVA.c ****     else {
 997              		.loc 1 140 15 view .LVU311
 998 0096 0427     		movs	r7, #4
 999 0098 F6E7     		b	.L42
 1000              		.cfi_endproc
 1001              	.LFE4:
 1003              		.section	.text.put_circle,"ax",%progbits
 1004              		.align	1
 1005              		.global	put_circle
 1006              		.syntax unified
 1007              		.code	16
 1008              		.thumb_func
ARM GAS  C:\Users\arist\AppData\Local\Temp\ccUERo53.s 			page 33


 1010              	put_circle:
 1011              	.LVL71:
 1012              	.LFB10:
 512:Core/Src/GEVA.c **** 
 1013              		.loc 1 512 76 is_stmt 1 view -0
 1014              		.cfi_startproc
 1015              		@ args = 0, pretend = 0, frame = 8
 1016              		@ frame_needed = 0, uses_anonymous_args = 0
 512:Core/Src/GEVA.c **** 
 1017              		.loc 1 512 76 is_stmt 0 view .LVU313
 1018 0000 F0B5     		push	{r4, r5, r6, r7, lr}
 1019              		.cfi_def_cfa_offset 20
 1020              		.cfi_offset 4, -20
 1021              		.cfi_offset 5, -16
 1022              		.cfi_offset 6, -12
 1023              		.cfi_offset 7, -8
 1024              		.cfi_offset 14, -4
 1025 0002 DE46     		mov	lr, fp
 1026 0004 5746     		mov	r7, r10
 1027 0006 4E46     		mov	r6, r9
 1028 0008 4546     		mov	r5, r8
 1029 000a E0B5     		push	{r5, r6, r7, lr}
 1030              		.cfi_def_cfa_offset 36
 1031              		.cfi_offset 8, -36
 1032              		.cfi_offset 9, -32
 1033              		.cfi_offset 10, -28
 1034              		.cfi_offset 11, -24
 1035 000c 83B0     		sub	sp, sp, #12
 1036              		.cfi_def_cfa_offset 48
 1037 000e 8346     		mov	fp, r0
 1038 0010 8846     		mov	r8, r1
 1039 0012 1500     		movs	r5, r2
 1040 0014 9946     		mov	r9, r3
 514:Core/Src/GEVA.c ****     uint16_t s = 0;
 1041              		.loc 1 514 5 is_stmt 1 view .LVU314
 1042              	.LVL72:
 515:Core/Src/GEVA.c ****     uint16_t rsqr = r * r;
 1043              		.loc 1 515 5 view .LVU315
 516:Core/Src/GEVA.c ****     
 1044              		.loc 1 516 5 view .LVU316
 516:Core/Src/GEVA.c ****     
 1045              		.loc 1 516 14 is_stmt 0 view .LVU317
 1046 0016 1700     		movs	r7, r2
 1047 0018 5743     		muls	r7, r2
 1048              	.LVL73:
 518:Core/Src/GEVA.c ****         for (int16_t x = -r; x <= r; x++) {
 1049              		.loc 1 518 5 is_stmt 1 view .LVU318
 1050              	.LBB9:
 518:Core/Src/GEVA.c ****         for (int16_t x = -r; x <= r; x++) {
 1051              		.loc 1 518 10 view .LVU319
 518:Core/Src/GEVA.c ****         for (int16_t x = -r; x <= r; x++) {
 1052              		.loc 1 518 18 is_stmt 0 view .LVU320
 1053 001a 5342     		rsbs	r3, r2, #0
 1054              	.LVL74:
 518:Core/Src/GEVA.c ****         for (int16_t x = -r; x <= r; x++) {
 1055              		.loc 1 518 18 view .LVU321
 1056 001c 19B2     		sxth	r1, r3
ARM GAS  C:\Users\arist\AppData\Local\Temp\ccUERo53.s 			page 34


 1057              	.LVL75:
 518:Core/Src/GEVA.c ****         for (int16_t x = -r; x <= r; x++) {
 1058              		.loc 1 518 18 view .LVU322
 1059 001e 0091     		str	r1, [sp]
 1060              	.LBE9:
 514:Core/Src/GEVA.c ****     uint16_t s = 0;
 1061              		.loc 1 514 13 view .LVU323
 1062 0020 0020     		movs	r0, #0
 1063              	.LVL76:
 514:Core/Src/GEVA.c ****     uint16_t s = 0;
 1064              		.loc 1 514 13 view .LVU324
 1065 0022 0191     		str	r1, [sp, #4]
 1066 0024 DA46     		mov	r10, fp
 1067              	.LBB12:
 518:Core/Src/GEVA.c ****         for (int16_t x = -r; x <= r; x++) {
 1068              		.loc 1 518 5 view .LVU325
 1069 0026 21E0     		b	.L48
 1070              	.LVL77:
 1071              	.L49:
 1072              	.LBB10:
 519:Core/Src/GEVA.c ****             s = x * x + y * y;
 1073              		.loc 1 519 39 is_stmt 1 discriminator 2 view .LVU326
 1074 0028 0136     		adds	r6, r6, #1
 1075              	.LVL78:
 519:Core/Src/GEVA.c ****             s = x * x + y * y;
 1076              		.loc 1 519 39 is_stmt 0 discriminator 2 view .LVU327
 1077 002a 33B2     		sxth	r3, r6
 1078              	.LVL79:
 1079              	.L51:
 519:Core/Src/GEVA.c ****             s = x * x + y * y;
 1080              		.loc 1 519 32 is_stmt 1 discriminator 1 view .LVU328
 1081 002c A342     		cmp	r3, r4
 1082 002e 19DC     		bgt	.L53
 520:Core/Src/GEVA.c ****             if (s >= rsqr - r && s <= rsqr + r) {
 1083              		.loc 1 520 13 view .LVU329
 520:Core/Src/GEVA.c ****             if (s >= rsqr - r && s <= rsqr + r) {
 1084              		.loc 1 520 19 is_stmt 0 view .LVU330
 1085 0030 9EB2     		uxth	r6, r3
 1086 0032 3200     		movs	r2, r6
 1087 0034 7243     		muls	r2, r6
 1088 0036 92B2     		uxth	r2, r2
 520:Core/Src/GEVA.c ****             if (s >= rsqr - r && s <= rsqr + r) {
 1089              		.loc 1 520 27 view .LVU331
 1090 0038 6946     		mov	r1, sp
 1091 003a 0988     		ldrh	r1, [r1]
 1092 003c 4943     		muls	r1, r1
 1093 003e 89B2     		uxth	r1, r1
 520:Core/Src/GEVA.c ****             if (s >= rsqr - r && s <= rsqr + r) {
 1094              		.loc 1 520 15 view .LVU332
 1095 0040 5218     		adds	r2, r2, r1
 1096 0042 92B2     		uxth	r2, r2
 1097              	.LVL80:
 521:Core/Src/GEVA.c ****                 error = put_pixel(o_x + x, o_y + y, SET_C, buf);
 1098              		.loc 1 521 13 is_stmt 1 view .LVU333
 521:Core/Src/GEVA.c ****                 error = put_pixel(o_x + x, o_y + y, SET_C, buf);
 1099              		.loc 1 521 27 is_stmt 0 view .LVU334
 1100 0044 791B     		subs	r1, r7, r5
ARM GAS  C:\Users\arist\AppData\Local\Temp\ccUERo53.s 			page 35


 521:Core/Src/GEVA.c ****                 error = put_pixel(o_x + x, o_y + y, SET_C, buf);
 1101              		.loc 1 521 16 view .LVU335
 1102 0046 8A42     		cmp	r2, r1
 1103 0048 EEDB     		blt	.L49
 521:Core/Src/GEVA.c ****                 error = put_pixel(o_x + x, o_y + y, SET_C, buf);
 1104              		.loc 1 521 44 discriminator 1 view .LVU336
 1105 004a 7919     		adds	r1, r7, r5
 521:Core/Src/GEVA.c ****                 error = put_pixel(o_x + x, o_y + y, SET_C, buf);
 1106              		.loc 1 521 31 discriminator 1 view .LVU337
 1107 004c 8A42     		cmp	r2, r1
 1108 004e EBDC     		bgt	.L49
 522:Core/Src/GEVA.c ****                // if (error)
 1109              		.loc 1 522 17 is_stmt 1 view .LVU338
 522:Core/Src/GEVA.c ****                // if (error)
 1110              		.loc 1 522 25 is_stmt 0 view .LVU339
 1111 0050 0099     		ldr	r1, [sp]
 1112 0052 4144     		add	r1, r1, r8
 1113 0054 C9B2     		uxtb	r1, r1
 1114 0056 5344     		add	r3, r3, r10
 1115              	.LVL81:
 522:Core/Src/GEVA.c ****                // if (error)
 1116              		.loc 1 522 25 view .LVU340
 1117 0058 D8B2     		uxtb	r0, r3
 1118              	.LVL82:
 522:Core/Src/GEVA.c ****                // if (error)
 1119              		.loc 1 522 25 view .LVU341
 1120 005a 4B46     		mov	r3, r9
 1121 005c 0122     		movs	r2, #1
 1122              	.LVL83:
 522:Core/Src/GEVA.c ****                // if (error)
 1123              		.loc 1 522 25 view .LVU342
 1124 005e FFF7FEFF 		bl	put_pixel
 1125              	.LVL84:
 522:Core/Src/GEVA.c ****                // if (error)
 1126              		.loc 1 522 25 view .LVU343
 1127 0062 E1E7     		b	.L49
 1128              	.LVL85:
 1129              	.L53:
 522:Core/Src/GEVA.c ****                // if (error)
 1130              		.loc 1 522 25 view .LVU344
 1131              	.LBE10:
 518:Core/Src/GEVA.c ****         for (int16_t x = -r; x <= r; x++) {
 1132              		.loc 1 518 35 is_stmt 1 discriminator 2 view .LVU345
 1133 0064 009E     		ldr	r6, [sp]
 1134 0066 0136     		adds	r6, r6, #1
 1135 0068 33B2     		sxth	r3, r6
 1136              	.LVL86:
 518:Core/Src/GEVA.c ****         for (int16_t x = -r; x <= r; x++) {
 1137              		.loc 1 518 35 is_stmt 0 discriminator 2 view .LVU346
 1138 006a 0093     		str	r3, [sp]
 1139              	.LVL87:
 1140              	.L48:
 518:Core/Src/GEVA.c ****         for (int16_t x = -r; x <= r; x++) {
 1141              		.loc 1 518 28 is_stmt 1 discriminator 1 view .LVU347
 1142 006c 2C00     		movs	r4, r5
 1143 006e 009B     		ldr	r3, [sp]
 1144 0070 AB42     		cmp	r3, r5
ARM GAS  C:\Users\arist\AppData\Local\Temp\ccUERo53.s 			page 36


 1145 0072 01DC     		bgt	.L54
 1146              	.LBB11:
 519:Core/Src/GEVA.c ****             s = x * x + y * y;
 1147              		.loc 1 519 22 is_stmt 0 view .LVU348
 1148 0074 019B     		ldr	r3, [sp, #4]
 1149 0076 D9E7     		b	.L51
 1150              	.L54:
 1151              	.LBE11:
 1152              	.LBE12:
 528:Core/Src/GEVA.c **** }
 1153              		.loc 1 528 5 is_stmt 1 view .LVU349
 529:Core/Src/GEVA.c **** 
 1154              		.loc 1 529 1 is_stmt 0 view .LVU350
 1155 0078 03B0     		add	sp, sp, #12
 1156              	.LVL88:
 529:Core/Src/GEVA.c **** 
 1157              		.loc 1 529 1 view .LVU351
 1158              		@ sp needed
 1159              	.LVL89:
 1160              	.LVL90:
 529:Core/Src/GEVA.c **** 
 1161              		.loc 1 529 1 view .LVU352
 1162 007a F0BC     		pop	{r4, r5, r6, r7}
 1163 007c BB46     		mov	fp, r7
 1164 007e B246     		mov	r10, r6
 1165 0080 A946     		mov	r9, r5
 1166 0082 A046     		mov	r8, r4
 1167 0084 F0BD     		pop	{r4, r5, r6, r7, pc}
 1168              		.cfi_endproc
 1169              	.LFE10:
 1171              		.section	.text.reverse_byte,"ax",%progbits
 1172              		.align	1
 1173              		.global	reverse_byte
 1174              		.syntax unified
 1175              		.code	16
 1176              		.thumb_func
 1178              	reverse_byte:
 1179              	.LVL91:
 1180              	.LFB19:
 627:Core/Src/GEVA.c **** 
 628:Core/Src/GEVA.c **** /* 
 629:Core/Src/GEVA.c ****  * Generates new normalized character from font.h character 
 630:Core/Src/GEVA.c **** */
 631:Core/Src/GEVA.c **** uint16_t* rotate_char(uint16_t *chr, video_buffer* buf) {
 632:Core/Src/GEVA.c ****     
 633:Core/Src/GEVA.c ****     uint16_t *new_chr = (uint16_t *)malloc(font_height);
 634:Core/Src/GEVA.c ****     
 635:Core/Src/GEVA.c ****     for (uint8_t i = 0; i < font_height; i++)
 636:Core/Src/GEVA.c ****             new_chr[i]=0;
 637:Core/Src/GEVA.c ****             
 638:Core/Src/GEVA.c ****     uint16_t* nc_ptr = new_chr;
 639:Core/Src/GEVA.c ****     uint16_t bit = 0;
 640:Core/Src/GEVA.c ****     
 641:Core/Src/GEVA.c ****     switch (buf->orient) {
 642:Core/Src/GEVA.c ****    
 643:Core/Src/GEVA.c ****     case LANDSCAPE :
 644:Core/Src/GEVA.c ****         nc_ptr = chr;
ARM GAS  C:\Users\arist\AppData\Local\Temp\ccUERo53.s 			page 37


 645:Core/Src/GEVA.c ****         break;
 646:Core/Src/GEVA.c ****     
 647:Core/Src/GEVA.c ****     case LANDSCAPE_INVERTED:
 648:Core/Src/GEVA.c **** 
 649:Core/Src/GEVA.c ****         for (uint8_t i = 0; i < font_height; i++) {
 650:Core/Src/GEVA.c ****             new_chr[i] = reverse_byte(chr[font_height - 1 - i] >> (16 - font_width)) ;
 651:Core/Src/GEVA.c ****         }
 652:Core/Src/GEVA.c ****         break;
 653:Core/Src/GEVA.c **** 
 654:Core/Src/GEVA.c ****     case PORTRAIT:
 655:Core/Src/GEVA.c **** 
 656:Core/Src/GEVA.c ****         for (uint8_t i = 0; i < font_height; i++) {
 657:Core/Src/GEVA.c ****             for (uint8_t j = 0; j < font_height; j++) {
 658:Core/Src/GEVA.c ****                 bit = (chr[font_height - 1 - i] & (0x8000 >> j)) << j;
 659:Core/Src/GEVA.c ****                 new_chr[font_height - 1  - j] |= bit >> (font_height - i);    
 660:Core/Src/GEVA.c ****                 bit = 0;
 661:Core/Src/GEVA.c ****             }
 662:Core/Src/GEVA.c ****         }
 663:Core/Src/GEVA.c ****         break;
 664:Core/Src/GEVA.c ****    
 665:Core/Src/GEVA.c ****     case PORTRAIT_INVERTED:
 666:Core/Src/GEVA.c **** 
 667:Core/Src/GEVA.c ****         for (uint8_t i = 0; i < font_height; i++) {
 668:Core/Src/GEVA.c ****             for (uint8_t j = 0; j < font_height; j++) {
 669:Core/Src/GEVA.c ****                 bit = (chr[font_height - 1 - i] & (0x8000 >> j)) << j;
 670:Core/Src/GEVA.c ****                 new_chr[j] |= (bit >> i);
 671:Core/Src/GEVA.c ****                 bit = 0;
 672:Core/Src/GEVA.c ****             }
 673:Core/Src/GEVA.c ****         }
 674:Core/Src/GEVA.c ****         break;
 675:Core/Src/GEVA.c ****     
 676:Core/Src/GEVA.c ****     default:
 677:Core/Src/GEVA.c ****         nc_ptr = chr;
 678:Core/Src/GEVA.c ****         break;
 679:Core/Src/GEVA.c ****     }
 680:Core/Src/GEVA.c ****     return nc_ptr;
 681:Core/Src/GEVA.c **** }
 682:Core/Src/GEVA.c **** 
 683:Core/Src/GEVA.c **** uint16_t reverse_byte(uint16_t b) {
 1181              		.loc 1 683 35 is_stmt 1 view -0
 1182              		.cfi_startproc
 1183              		@ args = 0, pretend = 0, frame = 0
 1184              		@ frame_needed = 0, uses_anonymous_args = 0
 1185              		@ link register save eliminated.
 684:Core/Src/GEVA.c **** 
 685:Core/Src/GEVA.c ****     b = ((b >> 1) & 0x5555) | ((b & 0x5555) << 1);
 1186              		.loc 1 685 5 view .LVU354
 1187              		.loc 1 685 19 is_stmt 0 view .LVU355
 1188 0000 4208     		lsrs	r2, r0, #1
 1189              		.loc 1 685 45 view .LVU356
 1190 0002 4000     		lsls	r0, r0, #1
 1191              	.LVL92:
 1192              		.loc 1 685 45 view .LVU357
 1193 0004 0E4B     		ldr	r3, .L56
 1194 0006 1840     		ands	r0, r3
 1195 0008 00B2     		sxth	r0, r0
 1196              		.loc 1 685 7 view .LVU358
ARM GAS  C:\Users\arist\AppData\Local\Temp\ccUERo53.s 			page 38


 1197 000a 0E4B     		ldr	r3, .L56+4
 1198 000c 1A40     		ands	r2, r3
 1199 000e 0243     		orrs	r2, r0
 1200 0010 92B2     		uxth	r2, r2
 1201              	.LVL93:
 686:Core/Src/GEVA.c ****     b = ((b >> 2) & 0x3333) | ((b & 0x3333) << 2);
 1202              		.loc 1 686 5 is_stmt 1 view .LVU359
 1203              		.loc 1 686 19 is_stmt 0 view .LVU360
 1204 0012 9308     		lsrs	r3, r2, #2
 1205              		.loc 1 686 45 view .LVU361
 1206 0014 9200     		lsls	r2, r2, #2
 1207              	.LVL94:
 1208              		.loc 1 686 45 view .LVU362
 1209 0016 0C49     		ldr	r1, .L56+8
 1210 0018 0A40     		ands	r2, r1
 1211 001a 12B2     		sxth	r2, r2
 1212              		.loc 1 686 7 view .LVU363
 1213 001c 0B49     		ldr	r1, .L56+12
 1214 001e 0B40     		ands	r3, r1
 1215 0020 1343     		orrs	r3, r2
 1216 0022 9BB2     		uxth	r3, r3
 1217              	.LVL95:
 687:Core/Src/GEVA.c ****     b = ((b >> 4) & 0x0f0f) | ((b & 0x0f0f) << 4);
 1218              		.loc 1 687 5 is_stmt 1 view .LVU364
 1219              		.loc 1 687 19 is_stmt 0 view .LVU365
 1220 0024 1A09     		lsrs	r2, r3, #4
 1221              		.loc 1 687 45 view .LVU366
 1222 0026 1B01     		lsls	r3, r3, #4
 1223              	.LVL96:
 1224              		.loc 1 687 45 view .LVU367
 1225 0028 0949     		ldr	r1, .L56+16
 1226 002a 0B40     		ands	r3, r1
 1227 002c 1BB2     		sxth	r3, r3
 1228              		.loc 1 687 7 view .LVU368
 1229 002e 0949     		ldr	r1, .L56+20
 1230 0030 0A40     		ands	r2, r1
 1231 0032 1343     		orrs	r3, r2
 1232 0034 9BB2     		uxth	r3, r3
 1233              	.LVL97:
 688:Core/Src/GEVA.c ****     b = ((b >> 8) & 0x00ff) | ((b & 0x00ff) << 8);
 1234              		.loc 1 688 5 is_stmt 1 view .LVU369
 1235              		.loc 1 688 29 is_stmt 0 view .LVU370
 1236 0036 180A     		lsrs	r0, r3, #8
 1237              		.loc 1 688 45 view .LVU371
 1238 0038 1B02     		lsls	r3, r3, #8
 1239              	.LVL98:
 1240              		.loc 1 688 7 view .LVU372
 1241 003a 1843     		orrs	r0, r3
 1242 003c 80B2     		uxth	r0, r0
 1243              	.LVL99:
 689:Core/Src/GEVA.c **** 
 690:Core/Src/GEVA.c ****     return b;
 1244              		.loc 1 690 5 is_stmt 1 view .LVU373
 691:Core/Src/GEVA.c **** }
 1245              		.loc 1 691 1 is_stmt 0 view .LVU374
 1246              		@ sp needed
 1247 003e 7047     		bx	lr
ARM GAS  C:\Users\arist\AppData\Local\Temp\ccUERo53.s 			page 39


 1248              	.L57:
 1249              		.align	2
 1250              	.L56:
 1251 0040 AAAAFFFF 		.word	-21846
 1252 0044 55550000 		.word	21845
 1253 0048 CCCCFFFF 		.word	-13108
 1254 004c 33330000 		.word	13107
 1255 0050 F0F0FFFF 		.word	-3856
 1256 0054 0F0F0000 		.word	3855
 1257              		.cfi_endproc
 1258              	.LFE19:
 1260              		.section	.text.rotate_char,"ax",%progbits
 1261              		.align	1
 1262              		.global	rotate_char
 1263              		.syntax unified
 1264              		.code	16
 1265              		.thumb_func
 1267              	rotate_char:
 1268              	.LVL100:
 1269              	.LFB18:
 631:Core/Src/GEVA.c ****     
 1270              		.loc 1 631 57 is_stmt 1 view -0
 1271              		.cfi_startproc
 1272              		@ args = 0, pretend = 0, frame = 0
 1273              		@ frame_needed = 0, uses_anonymous_args = 0
 631:Core/Src/GEVA.c ****     
 1274              		.loc 1 631 57 is_stmt 0 view .LVU376
 1275 0000 F0B5     		push	{r4, r5, r6, r7, lr}
 1276              		.cfi_def_cfa_offset 20
 1277              		.cfi_offset 4, -20
 1278              		.cfi_offset 5, -16
 1279              		.cfi_offset 6, -12
 1280              		.cfi_offset 7, -8
 1281              		.cfi_offset 14, -4
 1282 0002 C646     		mov	lr, r8
 1283 0004 00B5     		push	{lr}
 1284              		.cfi_def_cfa_offset 24
 1285              		.cfi_offset 8, -24
 1286 0006 0600     		movs	r6, r0
 1287 0008 0F00     		movs	r7, r1
 633:Core/Src/GEVA.c ****     
 1288              		.loc 1 633 5 is_stmt 1 view .LVU377
 633:Core/Src/GEVA.c ****     
 1289              		.loc 1 633 37 is_stmt 0 view .LVU378
 1290 000a 384B     		ldr	r3, .L75
 1291 000c 1C78     		ldrb	r4, [r3]
 1292 000e 2000     		movs	r0, r4
 1293              	.LVL101:
 633:Core/Src/GEVA.c ****     
 1294              		.loc 1 633 37 view .LVU379
 1295 0010 FFF7FEFF 		bl	malloc
 1296              	.LVL102:
 633:Core/Src/GEVA.c ****     
 1297              		.loc 1 633 37 view .LVU380
 1298 0014 0500     		movs	r5, r0
 1299              	.LVL103:
 635:Core/Src/GEVA.c ****             new_chr[i]=0;
ARM GAS  C:\Users\arist\AppData\Local\Temp\ccUERo53.s 			page 40


 1300              		.loc 1 635 5 is_stmt 1 view .LVU381
 1301              	.LBB13:
 635:Core/Src/GEVA.c ****             new_chr[i]=0;
 1302              		.loc 1 635 10 view .LVU382
 635:Core/Src/GEVA.c ****             new_chr[i]=0;
 1303              		.loc 1 635 18 is_stmt 0 view .LVU383
 1304 0016 0023     		movs	r3, #0
 635:Core/Src/GEVA.c ****             new_chr[i]=0;
 1305              		.loc 1 635 5 view .LVU384
 1306 0018 05E0     		b	.L59
 1307              	.LVL104:
 1308              	.L60:
 636:Core/Src/GEVA.c ****             
 1309              		.loc 1 636 13 is_stmt 1 discriminator 3 view .LVU385
 636:Core/Src/GEVA.c ****             
 1310              		.loc 1 636 20 is_stmt 0 discriminator 3 view .LVU386
 1311 001a 5A00     		lsls	r2, r3, #1
 1312 001c AA18     		adds	r2, r5, r2
 636:Core/Src/GEVA.c ****             
 1313              		.loc 1 636 23 discriminator 3 view .LVU387
 1314 001e 0021     		movs	r1, #0
 1315 0020 1180     		strh	r1, [r2]
 635:Core/Src/GEVA.c ****             new_chr[i]=0;
 1316              		.loc 1 635 43 is_stmt 1 discriminator 3 view .LVU388
 1317 0022 0133     		adds	r3, r3, #1
 1318              	.LVL105:
 635:Core/Src/GEVA.c ****             new_chr[i]=0;
 1319              		.loc 1 635 43 is_stmt 0 discriminator 3 view .LVU389
 1320 0024 DBB2     		uxtb	r3, r3
 1321              	.LVL106:
 1322              	.L59:
 635:Core/Src/GEVA.c ****             new_chr[i]=0;
 1323              		.loc 1 635 27 is_stmt 1 discriminator 1 view .LVU390
 1324 0026 9C42     		cmp	r4, r3
 1325 0028 F7D8     		bhi	.L60
 1326              	.LBE13:
 638:Core/Src/GEVA.c ****     uint16_t bit = 0;
 1327              		.loc 1 638 5 view .LVU391
 1328              	.LVL107:
 639:Core/Src/GEVA.c ****     
 1329              		.loc 1 639 5 view .LVU392
 641:Core/Src/GEVA.c ****    
 1330              		.loc 1 641 5 view .LVU393
 641:Core/Src/GEVA.c ****    
 1331              		.loc 1 641 16 is_stmt 0 view .LVU394
 1332 002a 7B7B     		ldrb	r3, [r7, #13]
 1333              	.LVL108:
 641:Core/Src/GEVA.c ****    
 1334              		.loc 1 641 5 view .LVU395
 1335 002c 022B     		cmp	r3, #2
 1336 002e 3ED0     		beq	.L70
 1337 0030 032B     		cmp	r3, #3
 1338 0032 58D0     		beq	.L71
 1339 0034 012B     		cmp	r3, #1
 1340 0036 1AD0     		beq	.L72
 1341 0038 3500     		movs	r5, r6
 1342              	.LVL109:
ARM GAS  C:\Users\arist\AppData\Local\Temp\ccUERo53.s 			page 41


 1343              	.L58:
 681:Core/Src/GEVA.c **** 
 1344              		.loc 1 681 1 view .LVU396
 1345 003a 2800     		movs	r0, r5
 1346              		@ sp needed
 1347              	.LVL110:
 681:Core/Src/GEVA.c **** 
 1348              		.loc 1 681 1 view .LVU397
 1349 003c 80BC     		pop	{r7}
 1350 003e B846     		mov	r8, r7
 1351 0040 F0BD     		pop	{r4, r5, r6, r7, pc}
 1352              	.LVL111:
 1353              	.L65:
 1354              	.LBB14:
 650:Core/Src/GEVA.c ****         }
 1355              		.loc 1 650 13 is_stmt 1 discriminator 3 view .LVU398
 650:Core/Src/GEVA.c ****         }
 1356              		.loc 1 650 55 is_stmt 0 discriminator 3 view .LVU399
 1357 0042 631E     		subs	r3, r4, #1
 650:Core/Src/GEVA.c ****         }
 1358              		.loc 1 650 59 discriminator 3 view .LVU400
 1359 0044 DB1B     		subs	r3, r3, r7
 650:Core/Src/GEVA.c ****         }
 1360              		.loc 1 650 42 discriminator 3 view .LVU401
 1361 0046 5B00     		lsls	r3, r3, #1
 1362 0048 985B     		ldrh	r0, [r3, r6]
 650:Core/Src/GEVA.c ****         }
 1363              		.loc 1 650 71 discriminator 3 view .LVU402
 1364 004a 294B     		ldr	r3, .L75+4
 1365 004c 1A78     		ldrb	r2, [r3]
 1366 004e 1023     		movs	r3, #16
 1367 0050 9B1A     		subs	r3, r3, r2
 650:Core/Src/GEVA.c ****         }
 1368              		.loc 1 650 64 discriminator 3 view .LVU403
 1369 0052 1841     		asrs	r0, r0, r3
 650:Core/Src/GEVA.c ****         }
 1370              		.loc 1 650 20 discriminator 3 view .LVU404
 1371 0054 7B00     		lsls	r3, r7, #1
 1372 0056 9846     		mov	r8, r3
 1373 0058 A844     		add	r8, r8, r5
 650:Core/Src/GEVA.c ****         }
 1374              		.loc 1 650 26 discriminator 3 view .LVU405
 1375 005a 80B2     		uxth	r0, r0
 1376 005c FFF7FEFF 		bl	reverse_byte
 1377              	.LVL112:
 650:Core/Src/GEVA.c ****         }
 1378              		.loc 1 650 24 discriminator 3 view .LVU406
 1379 0060 4346     		mov	r3, r8
 1380 0062 1880     		strh	r0, [r3]
 649:Core/Src/GEVA.c ****             new_chr[i] = reverse_byte(chr[font_height - 1 - i] >> (16 - font_width)) ;
 1381              		.loc 1 649 47 is_stmt 1 discriminator 3 view .LVU407
 1382 0064 0137     		adds	r7, r7, #1
 1383              	.LVL113:
 649:Core/Src/GEVA.c ****             new_chr[i] = reverse_byte(chr[font_height - 1 - i] >> (16 - font_width)) ;
 1384              		.loc 1 649 47 is_stmt 0 discriminator 3 view .LVU408
 1385 0066 FFB2     		uxtb	r7, r7
 1386              	.LVL114:
ARM GAS  C:\Users\arist\AppData\Local\Temp\ccUERo53.s 			page 42


 1387              	.L63:
 649:Core/Src/GEVA.c ****             new_chr[i] = reverse_byte(chr[font_height - 1 - i] >> (16 - font_width)) ;
 1388              		.loc 1 649 31 is_stmt 1 discriminator 1 view .LVU409
 1389 0068 BC42     		cmp	r4, r7
 1390 006a EAD8     		bhi	.L65
 1391 006c E5E7     		b	.L58
 1392              	.LVL115:
 1393              	.L72:
 649:Core/Src/GEVA.c ****             new_chr[i] = reverse_byte(chr[font_height - 1 - i] >> (16 - font_width)) ;
 1394              		.loc 1 649 31 is_stmt 0 discriminator 1 view .LVU410
 1395              	.LBE14:
 641:Core/Src/GEVA.c ****    
 1396              		.loc 1 641 5 view .LVU411
 1397 006e 0027     		movs	r7, #0
 1398              	.LVL116:
 641:Core/Src/GEVA.c ****    
 1399              		.loc 1 641 5 view .LVU412
 1400 0070 FAE7     		b	.L63
 1401              	.LVL117:
 1402              	.L66:
 1403              	.LBB15:
 1404              	.LBB16:
 658:Core/Src/GEVA.c ****                 new_chr[font_height - 1  - j] |= bit >> (font_height - i);    
 1405              		.loc 1 658 17 is_stmt 1 discriminator 3 view .LVU413
 658:Core/Src/GEVA.c ****                 new_chr[font_height - 1  - j] |= bit >> (font_height - i);    
 1406              		.loc 1 658 40 is_stmt 0 discriminator 3 view .LVU414
 1407 0072 671E     		subs	r7, r4, #1
 658:Core/Src/GEVA.c ****                 new_chr[font_height - 1  - j] |= bit >> (font_height - i);    
 1408              		.loc 1 658 44 discriminator 3 view .LVU415
 1409 0074 3B1A     		subs	r3, r7, r0
 658:Core/Src/GEVA.c ****                 new_chr[font_height - 1  - j] |= bit >> (font_height - i);    
 1410              		.loc 1 658 27 discriminator 3 view .LVU416
 1411 0076 5B00     		lsls	r3, r3, #1
 1412 0078 995B     		ldrh	r1, [r3, r6]
 658:Core/Src/GEVA.c ****                 new_chr[font_height - 1  - j] |= bit >> (font_height - i);    
 1413              		.loc 1 658 59 discriminator 3 view .LVU417
 1414 007a 8023     		movs	r3, #128
 1415 007c 1B02     		lsls	r3, r3, #8
 1416 007e 1341     		asrs	r3, r3, r2
 658:Core/Src/GEVA.c ****                 new_chr[font_height - 1  - j] |= bit >> (font_height - i);    
 1417              		.loc 1 658 49 discriminator 3 view .LVU418
 1418 0080 0B40     		ands	r3, r1
 658:Core/Src/GEVA.c ****                 new_chr[font_height - 1  - j] |= bit >> (font_height - i);    
 1419              		.loc 1 658 66 discriminator 3 view .LVU419
 1420 0082 9340     		lsls	r3, r3, r2
 1421              	.LVL118:
 659:Core/Src/GEVA.c ****                 bit = 0;
 1422              		.loc 1 659 17 is_stmt 1 discriminator 3 view .LVU420
 659:Core/Src/GEVA.c ****                 bit = 0;
 1423              		.loc 1 659 24 is_stmt 0 discriminator 3 view .LVU421
 1424 0084 BF1A     		subs	r7, r7, r2
 1425 0086 7F00     		lsls	r7, r7, #1
 1426 0088 E95B     		ldrh	r1, [r5, r7]
 1427 008a 8C46     		mov	ip, r1
 659:Core/Src/GEVA.c ****                 bit = 0;
 1428              		.loc 1 659 70 discriminator 3 view .LVU422
 1429 008c 211A     		subs	r1, r4, r0
ARM GAS  C:\Users\arist\AppData\Local\Temp\ccUERo53.s 			page 43


 659:Core/Src/GEVA.c ****                 bit = 0;
 1430              		.loc 1 659 54 discriminator 3 view .LVU423
 1431 008e 1B04     		lsls	r3, r3, #16
 1432              	.LVL119:
 659:Core/Src/GEVA.c ****                 bit = 0;
 1433              		.loc 1 659 54 discriminator 3 view .LVU424
 1434 0090 1B0C     		lsrs	r3, r3, #16
 1435 0092 0B41     		asrs	r3, r3, r1
 659:Core/Src/GEVA.c ****                 bit = 0;
 1436              		.loc 1 659 47 discriminator 3 view .LVU425
 1437 0094 6146     		mov	r1, ip
 1438 0096 0B43     		orrs	r3, r1
 1439 0098 EB53     		strh	r3, [r5, r7]
 1440              	.LVL120:
 660:Core/Src/GEVA.c ****             }
 1441              		.loc 1 660 17 is_stmt 1 discriminator 3 view .LVU426
 657:Core/Src/GEVA.c ****                 bit = (chr[font_height - 1 - i] & (0x8000 >> j)) << j;
 1442              		.loc 1 657 51 discriminator 3 view .LVU427
 1443 009a 0132     		adds	r2, r2, #1
 1444              	.LVL121:
 657:Core/Src/GEVA.c ****                 bit = (chr[font_height - 1 - i] & (0x8000 >> j)) << j;
 1445              		.loc 1 657 51 is_stmt 0 discriminator 3 view .LVU428
 1446 009c D2B2     		uxtb	r2, r2
 1447              	.LVL122:
 1448              	.L67:
 657:Core/Src/GEVA.c ****                 bit = (chr[font_height - 1 - i] & (0x8000 >> j)) << j;
 1449              		.loc 1 657 35 is_stmt 1 discriminator 1 view .LVU429
 1450 009e 9442     		cmp	r4, r2
 1451 00a0 E7D8     		bhi	.L66
 1452              	.LBE16:
 656:Core/Src/GEVA.c ****             for (uint8_t j = 0; j < font_height; j++) {
 1453              		.loc 1 656 47 discriminator 2 view .LVU430
 1454 00a2 0130     		adds	r0, r0, #1
 1455              	.LVL123:
 656:Core/Src/GEVA.c ****             for (uint8_t j = 0; j < font_height; j++) {
 1456              		.loc 1 656 47 is_stmt 0 discriminator 2 view .LVU431
 1457 00a4 C0B2     		uxtb	r0, r0
 1458              	.LVL124:
 1459              	.L61:
 656:Core/Src/GEVA.c ****             for (uint8_t j = 0; j < font_height; j++) {
 1460              		.loc 1 656 31 is_stmt 1 discriminator 1 view .LVU432
 1461 00a6 8442     		cmp	r4, r0
 1462 00a8 C7D9     		bls	.L58
 1463              	.LBB17:
 657:Core/Src/GEVA.c ****                 bit = (chr[font_height - 1 - i] & (0x8000 >> j)) << j;
 1464              		.loc 1 657 26 is_stmt 0 view .LVU433
 1465 00aa 0022     		movs	r2, #0
 1466 00ac F7E7     		b	.L67
 1467              	.LVL125:
 1468              	.L70:
 657:Core/Src/GEVA.c ****                 bit = (chr[font_height - 1 - i] & (0x8000 >> j)) << j;
 1469              		.loc 1 657 26 view .LVU434
 1470              	.LBE17:
 1471              	.LBE15:
 641:Core/Src/GEVA.c ****    
 1472              		.loc 1 641 5 view .LVU435
 1473 00ae 0020     		movs	r0, #0
ARM GAS  C:\Users\arist\AppData\Local\Temp\ccUERo53.s 			page 44


 1474              	.LVL126:
 641:Core/Src/GEVA.c ****    
 1475              		.loc 1 641 5 view .LVU436
 1476 00b0 F9E7     		b	.L61
 1477              	.LVL127:
 1478              	.L68:
 1479              	.LBB18:
 1480              	.LBB19:
 669:Core/Src/GEVA.c ****                 new_chr[j] |= (bit >> i);
 1481              		.loc 1 669 17 is_stmt 1 discriminator 3 view .LVU437
 669:Core/Src/GEVA.c ****                 new_chr[j] |= (bit >> i);
 1482              		.loc 1 669 40 is_stmt 0 discriminator 3 view .LVU438
 1483 00b2 631E     		subs	r3, r4, #1
 669:Core/Src/GEVA.c ****                 new_chr[j] |= (bit >> i);
 1484              		.loc 1 669 44 discriminator 3 view .LVU439
 1485 00b4 5B1A     		subs	r3, r3, r1
 669:Core/Src/GEVA.c ****                 new_chr[j] |= (bit >> i);
 1486              		.loc 1 669 27 discriminator 3 view .LVU440
 1487 00b6 5B00     		lsls	r3, r3, #1
 1488 00b8 985B     		ldrh	r0, [r3, r6]
 669:Core/Src/GEVA.c ****                 new_chr[j] |= (bit >> i);
 1489              		.loc 1 669 59 discriminator 3 view .LVU441
 1490 00ba 8023     		movs	r3, #128
 1491 00bc 1B02     		lsls	r3, r3, #8
 1492 00be 1341     		asrs	r3, r3, r2
 669:Core/Src/GEVA.c ****                 new_chr[j] |= (bit >> i);
 1493              		.loc 1 669 49 discriminator 3 view .LVU442
 1494 00c0 0340     		ands	r3, r0
 669:Core/Src/GEVA.c ****                 new_chr[j] |= (bit >> i);
 1495              		.loc 1 669 66 discriminator 3 view .LVU443
 1496 00c2 9340     		lsls	r3, r3, r2
 1497              	.LVL128:
 670:Core/Src/GEVA.c ****                 bit = 0;
 1498              		.loc 1 670 17 is_stmt 1 discriminator 3 view .LVU444
 670:Core/Src/GEVA.c ****                 bit = 0;
 1499              		.loc 1 670 24 is_stmt 0 discriminator 3 view .LVU445
 1500 00c4 5700     		lsls	r7, r2, #1
 1501 00c6 E85B     		ldrh	r0, [r5, r7]
 670:Core/Src/GEVA.c ****                 bit = 0;
 1502              		.loc 1 670 36 discriminator 3 view .LVU446
 1503 00c8 1B04     		lsls	r3, r3, #16
 1504              	.LVL129:
 670:Core/Src/GEVA.c ****                 bit = 0;
 1505              		.loc 1 670 36 discriminator 3 view .LVU447
 1506 00ca 1B0C     		lsrs	r3, r3, #16
 1507 00cc 0B41     		asrs	r3, r3, r1
 670:Core/Src/GEVA.c ****                 bit = 0;
 1508              		.loc 1 670 28 discriminator 3 view .LVU448
 1509 00ce 0343     		orrs	r3, r0
 1510 00d0 EB53     		strh	r3, [r5, r7]
 1511              	.LVL130:
 671:Core/Src/GEVA.c ****             }
 1512              		.loc 1 671 17 is_stmt 1 discriminator 3 view .LVU449
 668:Core/Src/GEVA.c ****                 bit = (chr[font_height - 1 - i] & (0x8000 >> j)) << j;
 1513              		.loc 1 668 51 discriminator 3 view .LVU450
 1514 00d2 0132     		adds	r2, r2, #1
 1515              	.LVL131:
ARM GAS  C:\Users\arist\AppData\Local\Temp\ccUERo53.s 			page 45


 668:Core/Src/GEVA.c ****                 bit = (chr[font_height - 1 - i] & (0x8000 >> j)) << j;
 1516              		.loc 1 668 51 is_stmt 0 discriminator 3 view .LVU451
 1517 00d4 D2B2     		uxtb	r2, r2
 1518              	.LVL132:
 1519              	.L69:
 668:Core/Src/GEVA.c ****                 bit = (chr[font_height - 1 - i] & (0x8000 >> j)) << j;
 1520              		.loc 1 668 35 is_stmt 1 discriminator 1 view .LVU452
 1521 00d6 9442     		cmp	r4, r2
 1522 00d8 EBD8     		bhi	.L68
 1523              	.LBE19:
 667:Core/Src/GEVA.c ****             for (uint8_t j = 0; j < font_height; j++) {
 1524              		.loc 1 667 47 discriminator 2 view .LVU453
 1525 00da 0131     		adds	r1, r1, #1
 1526              	.LVL133:
 667:Core/Src/GEVA.c ****             for (uint8_t j = 0; j < font_height; j++) {
 1527              		.loc 1 667 47 is_stmt 0 discriminator 2 view .LVU454
 1528 00dc C9B2     		uxtb	r1, r1
 1529              	.LVL134:
 1530              	.L62:
 667:Core/Src/GEVA.c ****             for (uint8_t j = 0; j < font_height; j++) {
 1531              		.loc 1 667 31 is_stmt 1 discriminator 1 view .LVU455
 1532 00de 8C42     		cmp	r4, r1
 1533 00e0 ABD9     		bls	.L58
 1534              	.LBB20:
 668:Core/Src/GEVA.c ****                 bit = (chr[font_height - 1 - i] & (0x8000 >> j)) << j;
 1535              		.loc 1 668 26 is_stmt 0 view .LVU456
 1536 00e2 0022     		movs	r2, #0
 1537 00e4 F7E7     		b	.L69
 1538              	.LVL135:
 1539              	.L71:
 668:Core/Src/GEVA.c ****                 bit = (chr[font_height - 1 - i] & (0x8000 >> j)) << j;
 1540              		.loc 1 668 26 view .LVU457
 1541              	.LBE20:
 1542              	.LBE18:
 641:Core/Src/GEVA.c ****    
 1543              		.loc 1 641 5 view .LVU458
 1544 00e6 0021     		movs	r1, #0
 1545 00e8 F9E7     		b	.L62
 1546              	.L76:
 1547 00ea C046     		.align	2
 1548              	.L75:
 1549 00ec 00000000 		.word	font_height
 1550 00f0 00000000 		.word	font_width
 1551              		.cfi_endproc
 1552              	.LFE18:
 1554              		.section	.text.put_char,"ax",%progbits
 1555              		.align	1
 1556              		.global	put_char
 1557              		.syntax unified
 1558              		.code	16
 1559              		.thumb_func
 1561              	put_char:
 1562              	.LVL136:
 1563              	.LFB7:
 351:Core/Src/GEVA.c ****     
 1564              		.loc 1 351 100 is_stmt 1 view -0
 1565              		.cfi_startproc
ARM GAS  C:\Users\arist\AppData\Local\Temp\ccUERo53.s 			page 46


 1566              		@ args = 4, pretend = 0, frame = 0
 1567              		@ frame_needed = 0, uses_anonymous_args = 0
 351:Core/Src/GEVA.c ****     
 1568              		.loc 1 351 100 is_stmt 0 view .LVU460
 1569 0000 F0B5     		push	{r4, r5, r6, r7, lr}
 1570              		.cfi_def_cfa_offset 20
 1571              		.cfi_offset 4, -20
 1572              		.cfi_offset 5, -16
 1573              		.cfi_offset 6, -12
 1574              		.cfi_offset 7, -8
 1575              		.cfi_offset 14, -4
 1576 0002 D646     		mov	lr, r10
 1577 0004 4F46     		mov	r7, r9
 1578 0006 4646     		mov	r6, r8
 1579 0008 C0B5     		push	{r6, r7, lr}
 1580              		.cfi_def_cfa_offset 32
 1581              		.cfi_offset 8, -32
 1582              		.cfi_offset 9, -28
 1583              		.cfi_offset 10, -24
 1584 000a 089C     		ldr	r4, [sp, #32]
 353:Core/Src/GEVA.c ****     uint8_t* n_pos; 
 1585              		.loc 1 353 5 is_stmt 1 view .LVU461
 1586              	.LVL137:
 354:Core/Src/GEVA.c ****     uint16_t* c;
 1587              		.loc 1 354 5 view .LVU462
 355:Core/Src/GEVA.c **** 
 1588              		.loc 1 355 5 view .LVU463
 357:Core/Src/GEVA.c ****         case SMALL:
 1589              		.loc 1 357 5 view .LVU464
 1590 000c 012B     		cmp	r3, #1
 1591 000e 33D0     		beq	.L78
 1592 0010 022B     		cmp	r3, #2
 1593 0012 18D0     		beq	.L79
 1594 0014 002B     		cmp	r3, #0
 1595 0016 0BD0     		beq	.L96
 373:Core/Src/GEVA.c ****             font_width = C_WIDTH_S;
 1596              		.loc 1 373 13 view .LVU465
 373:Core/Src/GEVA.c ****             font_width = C_WIDTH_S;
 1597              		.loc 1 373 25 is_stmt 0 view .LVU466
 1598 0018 654B     		ldr	r3, .L99
 1599              	.LVL138:
 373:Core/Src/GEVA.c ****             font_width = C_WIDTH_S;
 1600              		.loc 1 373 25 view .LVU467
 1601 001a 0725     		movs	r5, #7
 1602 001c 1D70     		strb	r5, [r3]
 374:Core/Src/GEVA.c ****             c = font_s[chr];
 1603              		.loc 1 374 13 is_stmt 1 view .LVU468
 374:Core/Src/GEVA.c ****             c = font_s[chr];
 1604              		.loc 1 374 24 is_stmt 0 view .LVU469
 1605 001e 654B     		ldr	r3, .L99+4
 1606 0020 023D     		subs	r5, r5, #2
 1607 0022 1D70     		strb	r5, [r3]
 375:Core/Src/GEVA.c ****         break;
 1608              		.loc 1 375 13 is_stmt 1 view .LVU470
 375:Core/Src/GEVA.c ****         break;
 1609              		.loc 1 375 15 is_stmt 0 view .LVU471
 1610 0024 D500     		lsls	r5, r2, #3
ARM GAS  C:\Users\arist\AppData\Local\Temp\ccUERo53.s 			page 47


 1611 0026 AD1A     		subs	r5, r5, r2
 1612 0028 6D00     		lsls	r5, r5, #1
 1613 002a 634B     		ldr	r3, .L99+8
 1614 002c ED18     		adds	r5, r5, r3
 1615              	.LVL139:
 376:Core/Src/GEVA.c ****     }
 1616              		.loc 1 376 9 is_stmt 1 view .LVU472
 1617 002e 0AE0     		b	.L79
 1618              	.LVL140:
 1619              	.L96:
 359:Core/Src/GEVA.c ****             font_width = C_WIDTH_S;
 1620              		.loc 1 359 13 view .LVU473
 359:Core/Src/GEVA.c ****             font_width = C_WIDTH_S;
 1621              		.loc 1 359 25 is_stmt 0 view .LVU474
 1622 0030 5F4B     		ldr	r3, .L99
 1623              	.LVL141:
 359:Core/Src/GEVA.c ****             font_width = C_WIDTH_S;
 1624              		.loc 1 359 25 view .LVU475
 1625 0032 0725     		movs	r5, #7
 1626 0034 1D70     		strb	r5, [r3]
 360:Core/Src/GEVA.c ****             c = font_s[chr];
 1627              		.loc 1 360 13 is_stmt 1 view .LVU476
 360:Core/Src/GEVA.c ****             c = font_s[chr];
 1628              		.loc 1 360 24 is_stmt 0 view .LVU477
 1629 0036 5F4B     		ldr	r3, .L99+4
 1630 0038 023D     		subs	r5, r5, #2
 1631 003a 1D70     		strb	r5, [r3]
 361:Core/Src/GEVA.c ****         break;
 1632              		.loc 1 361 13 is_stmt 1 view .LVU478
 361:Core/Src/GEVA.c ****         break;
 1633              		.loc 1 361 15 is_stmt 0 view .LVU479
 1634 003c D500     		lsls	r5, r2, #3
 1635 003e AD1A     		subs	r5, r5, r2
 1636 0040 6D00     		lsls	r5, r5, #1
 1637 0042 5D4B     		ldr	r3, .L99+8
 1638 0044 ED18     		adds	r5, r5, r3
 1639              	.LVL142:
 362:Core/Src/GEVA.c ****         case MEDIUM:
 1640              		.loc 1 362 9 is_stmt 1 view .LVU480
 1641              	.L79:
 379:Core/Src/GEVA.c ****         case LANDSCAPE:
 1642              		.loc 1 379 5 view .LVU481
 379:Core/Src/GEVA.c ****         case LANDSCAPE:
 1643              		.loc 1 379 16 is_stmt 0 view .LVU482
 1644 0046 637B     		ldrb	r3, [r4, #13]
 379:Core/Src/GEVA.c ****         case LANDSCAPE:
 1645              		.loc 1 379 5 view .LVU483
 1646 0048 022B     		cmp	r3, #2
 1647 004a 47D0     		beq	.L81
 1648 004c 20D8     		bhi	.L82
 1649 004e 002B     		cmp	r3, #0
 1650 0050 2BD0     		beq	.L83
 1651 0052 012B     		cmp	r3, #1
 1652 0054 4BD1     		bne	.L85
 385:Core/Src/GEVA.c ****                break;
 1653              		.loc 1 385 13 is_stmt 1 view .LVU484
 385:Core/Src/GEVA.c ****                break;
ARM GAS  C:\Users\arist\AppData\Local\Temp\ccUERo53.s 			page 48


 1654              		.loc 1 385 41 is_stmt 0 view .LVU485
 1655 0056 574B     		ldr	r3, .L99+4
 1656 0058 1B78     		ldrb	r3, [r3]
 1657 005a C018     		adds	r0, r0, r3
 1658              	.LVL143:
 385:Core/Src/GEVA.c ****                break;
 1659              		.loc 1 385 41 view .LVU486
 1660 005c C0B2     		uxtb	r0, r0
 385:Core/Src/GEVA.c ****                break;
 1661              		.loc 1 385 65 view .LVU487
 1662 005e 544B     		ldr	r3, .L99
 1663 0060 1B78     		ldrb	r3, [r3]
 1664 0062 C918     		adds	r1, r1, r3
 1665              	.LVL144:
 385:Core/Src/GEVA.c ****                break;
 1666              		.loc 1 385 65 view .LVU488
 1667 0064 C9B2     		uxtb	r1, r1
 385:Core/Src/GEVA.c ****                break;
 1668              		.loc 1 385 21 view .LVU489
 1669 0066 0139     		subs	r1, r1, #1
 1670 0068 C9B2     		uxtb	r1, r1
 1671 006a 0138     		subs	r0, r0, #1
 1672 006c C0B2     		uxtb	r0, r0
 1673 006e 2200     		movs	r2, r4
 1674              	.LVL145:
 385:Core/Src/GEVA.c ****                break;
 1675              		.loc 1 385 21 view .LVU490
 1676 0070 FFF7FEFF 		bl	normalize_pos
 1677              	.LVL146:
 1678 0074 0600     		movs	r6, r0
 1679              	.LVL147:
 386:Core/Src/GEVA.c **** 
 1680              		.loc 1 386 16 is_stmt 1 view .LVU491
 1681 0076 1CE0     		b	.L87
 1682              	.LVL148:
 1683              	.L78:
 364:Core/Src/GEVA.c ****             font_width = C_WIDTH_M;
 1684              		.loc 1 364 13 view .LVU492
 364:Core/Src/GEVA.c ****             font_width = C_WIDTH_M;
 1685              		.loc 1 364 25 is_stmt 0 view .LVU493
 1686 0078 4D4B     		ldr	r3, .L99
 1687              	.LVL149:
 364:Core/Src/GEVA.c ****             font_width = C_WIDTH_M;
 1688              		.loc 1 364 25 view .LVU494
 1689 007a 0E25     		movs	r5, #14
 1690 007c 1D70     		strb	r5, [r3]
 365:Core/Src/GEVA.c ****             c = font_m[chr];
 1691              		.loc 1 365 13 is_stmt 1 view .LVU495
 365:Core/Src/GEVA.c ****             c = font_m[chr];
 1692              		.loc 1 365 24 is_stmt 0 view .LVU496
 1693 007e 4D4B     		ldr	r3, .L99+4
 1694 0080 043D     		subs	r5, r5, #4
 1695 0082 1D70     		strb	r5, [r3]
 366:Core/Src/GEVA.c ****         break; 
 1696              		.loc 1 366 13 is_stmt 1 view .LVU497
 366:Core/Src/GEVA.c ****         break; 
 1697              		.loc 1 366 15 is_stmt 0 view .LVU498
ARM GAS  C:\Users\arist\AppData\Local\Temp\ccUERo53.s 			page 49


 1698 0084 D500     		lsls	r5, r2, #3
 1699 0086 AD1A     		subs	r5, r5, r2
 1700 0088 AD00     		lsls	r5, r5, #2
 1701 008a 4C4B     		ldr	r3, .L99+12
 1702 008c ED18     		adds	r5, r5, r3
 1703              	.LVL150:
 367:Core/Src/GEVA.c ****         
 1704              		.loc 1 367 9 is_stmt 1 view .LVU499
 1705 008e DAE7     		b	.L79
 1706              	.L82:
 379:Core/Src/GEVA.c ****         case LANDSCAPE:
 1707              		.loc 1 379 5 is_stmt 0 view .LVU500
 1708 0090 032B     		cmp	r3, #3
 1709 0092 2CD1     		bne	.L85
 393:Core/Src/GEVA.c ****             break;
 1710              		.loc 1 393 13 is_stmt 1 view .LVU501
 393:Core/Src/GEVA.c ****             break;
 1711              		.loc 1 393 41 is_stmt 0 view .LVU502
 1712 0094 464B     		ldr	r3, .L99
 1713 0096 1B78     		ldrb	r3, [r3]
 1714 0098 C018     		adds	r0, r0, r3
 1715              	.LVL151:
 393:Core/Src/GEVA.c ****             break;
 1716              		.loc 1 393 41 view .LVU503
 1717 009a C0B2     		uxtb	r0, r0
 393:Core/Src/GEVA.c ****             break;
 1718              		.loc 1 393 21 view .LVU504
 1719 009c 0138     		subs	r0, r0, #1
 1720 009e C0B2     		uxtb	r0, r0
 1721 00a0 2200     		movs	r2, r4
 1722              	.LVL152:
 393:Core/Src/GEVA.c ****             break;
 1723              		.loc 1 393 21 view .LVU505
 1724 00a2 FFF7FEFF 		bl	normalize_pos
 1725              	.LVL153:
 393:Core/Src/GEVA.c ****             break;
 1726              		.loc 1 393 21 view .LVU506
 1727 00a6 0600     		movs	r6, r0
 1728              	.LVL154:
 394:Core/Src/GEVA.c **** 
 1729              		.loc 1 394 13 is_stmt 1 view .LVU507
 1730 00a8 03E0     		b	.L87
 1731              	.LVL155:
 1732              	.L83:
 381:Core/Src/GEVA.c ****            break;
 1733              		.loc 1 381 13 view .LVU508
 381:Core/Src/GEVA.c ****            break;
 1734              		.loc 1 381 21 is_stmt 0 view .LVU509
 1735 00aa 2200     		movs	r2, r4
 1736              	.LVL156:
 381:Core/Src/GEVA.c ****            break;
 1737              		.loc 1 381 21 view .LVU510
 1738 00ac FFF7FEFF 		bl	normalize_pos
 1739              	.LVL157:
 381:Core/Src/GEVA.c ****            break;
 1740              		.loc 1 381 21 view .LVU511
 1741 00b0 0600     		movs	r6, r0
ARM GAS  C:\Users\arist\AppData\Local\Temp\ccUERo53.s 			page 50


 1742              	.LVL158:
 382:Core/Src/GEVA.c **** 
 1743              		.loc 1 382 12 is_stmt 1 view .LVU512
 1744              	.L87:
 401:Core/Src/GEVA.c ****         error = 4;
 1745              		.loc 1 401 5 view .LVU513
 401:Core/Src/GEVA.c ****         error = 4;
 1746              		.loc 1 401 14 is_stmt 0 view .LVU514
 1747 00b2 3278     		ldrb	r2, [r6]
 401:Core/Src/GEVA.c ****         error = 4;
 1748              		.loc 1 401 24 view .LVU515
 1749 00b4 2378     		ldrb	r3, [r4]
 401:Core/Src/GEVA.c ****         error = 4;
 1750              		.loc 1 401 8 view .LVU516
 1751 00b6 9A42     		cmp	r2, r3
 1752 00b8 6FD2     		bcs	.L92
 401:Core/Src/GEVA.c ****         error = 4;
 1753              		.loc 1 401 57 discriminator 1 view .LVU517
 1754 00ba 7078     		ldrb	r0, [r6, #1]
 1755              	.LVL159:
 401:Core/Src/GEVA.c ****         error = 4;
 1756              		.loc 1 401 67 discriminator 1 view .LVU518
 1757 00bc 6178     		ldrb	r1, [r4, #1]
 401:Core/Src/GEVA.c ****         error = 4;
 1758              		.loc 1 401 76 discriminator 1 view .LVU519
 1759 00be 8842     		cmp	r0, r1
 1760 00c0 00D3     		bcc	.LCB1618
 1761 00c2 70E0     		b	.L93	@long jump
 1762              	.LCB1618:
 403:Core/Src/GEVA.c ****         error = 2;
 1763              		.loc 1 403 10 is_stmt 1 view .LVU520
 403:Core/Src/GEVA.c ****         error = 2;
 1764              		.loc 1 403 23 is_stmt 0 view .LVU521
 1765 00c4 3A4F     		ldr	r7, .L99
 1766 00c6 3F78     		ldrb	r7, [r7]
 1767 00c8 3818     		adds	r0, r7, r0
 403:Core/Src/GEVA.c ****         error = 2;
 1768              		.loc 1 403 13 view .LVU522
 1769 00ca 8842     		cmp	r0, r1
 1770 00cc 6DDC     		bgt	.L94
 403:Core/Src/GEVA.c ****         error = 2;
 1771              		.loc 1 403 63 discriminator 1 view .LVU523
 1772 00ce 3949     		ldr	r1, .L99+4
 1773 00d0 0978     		ldrb	r1, [r1]
 1774 00d2 8A18     		adds	r2, r1, r2
 403:Core/Src/GEVA.c ****         error = 2;
 1775              		.loc 1 403 51 discriminator 1 view .LVU524
 1776 00d4 9A42     		cmp	r2, r3
 1777 00d6 0FDD     		ble	.L97
 404:Core/Src/GEVA.c ****     else {
 1778              		.loc 1 404 15 view .LVU525
 1779 00d8 0220     		movs	r0, #2
 1780 00da 5FE0     		b	.L88
 1781              	.LVL160:
 1782              	.L81:
 389:Core/Src/GEVA.c ****             break;
 1783              		.loc 1 389 13 is_stmt 1 view .LVU526
ARM GAS  C:\Users\arist\AppData\Local\Temp\ccUERo53.s 			page 51


 389:Core/Src/GEVA.c ****             break;
 1784              		.loc 1 389 21 is_stmt 0 view .LVU527
 1785 00dc 344B     		ldr	r3, .L99
 1786 00de 1B78     		ldrb	r3, [r3]
 1787 00e0 C918     		adds	r1, r1, r3
 1788              	.LVL161:
 389:Core/Src/GEVA.c ****             break;
 1789              		.loc 1 389 21 view .LVU528
 1790 00e2 C9B2     		uxtb	r1, r1
 1791 00e4 2200     		movs	r2, r4
 1792              	.LVL162:
 389:Core/Src/GEVA.c ****             break;
 1793              		.loc 1 389 21 view .LVU529
 1794 00e6 FFF7FEFF 		bl	normalize_pos
 1795              	.LVL163:
 389:Core/Src/GEVA.c ****             break;
 1796              		.loc 1 389 21 view .LVU530
 1797 00ea 0600     		movs	r6, r0
 1798              	.LVL164:
 390:Core/Src/GEVA.c **** 
 1799              		.loc 1 390 13 is_stmt 1 view .LVU531
 1800 00ec E1E7     		b	.L87
 1801              	.LVL165:
 1802              	.L85:
 397:Core/Src/GEVA.c ****             break;
 1803              		.loc 1 397 13 view .LVU532
 397:Core/Src/GEVA.c ****             break;
 1804              		.loc 1 397 21 is_stmt 0 view .LVU533
 1805 00ee 2200     		movs	r2, r4
 1806              	.LVL166:
 397:Core/Src/GEVA.c ****             break;
 1807              		.loc 1 397 21 view .LVU534
 1808 00f0 FFF7FEFF 		bl	normalize_pos
 1809              	.LVL167:
 397:Core/Src/GEVA.c ****             break;
 1810              		.loc 1 397 21 view .LVU535
 1811 00f4 0600     		movs	r6, r0
 1812              	.LVL168:
 398:Core/Src/GEVA.c ****         }
 1813              		.loc 1 398 13 is_stmt 1 view .LVU536
 1814 00f6 DCE7     		b	.L87
 1815              	.LVL169:
 1816              	.L97:
 1817              	.LBB21:
 406:Core/Src/GEVA.c ****             
 1818              		.loc 1 406 9 view .LVU537
 406:Core/Src/GEVA.c ****             
 1819              		.loc 1 406 13 is_stmt 0 view .LVU538
 1820 00f8 2100     		movs	r1, r4
 1821 00fa 2800     		movs	r0, r5
 1822 00fc FFF7FEFF 		bl	rotate_char
 1823              	.LVL170:
 1824 0100 8246     		mov	r10, r0
 1825              	.LVL171:
 408:Core/Src/GEVA.c ****         uint16_t buffer_byte_ptr = start_byte_ptr;
 1826              		.loc 1 408 9 is_stmt 1 view .LVU539
 408:Core/Src/GEVA.c ****         uint16_t buffer_byte_ptr = start_byte_ptr;
ARM GAS  C:\Users\arist\AppData\Local\Temp\ccUERo53.s 			page 52


 1827              		.loc 1 408 35 is_stmt 0 view .LVU540
 1828 0102 3778     		ldrb	r7, [r6]
 408:Core/Src/GEVA.c ****         uint16_t buffer_byte_ptr = start_byte_ptr;
 1829              		.loc 1 408 65 view .LVU541
 1830 0104 6178     		ldrb	r1, [r4, #1]
 408:Core/Src/GEVA.c ****         uint16_t buffer_byte_ptr = start_byte_ptr;
 1831              		.loc 1 408 85 view .LVU542
 1832 0106 7378     		ldrb	r3, [r6, #1]
 408:Core/Src/GEVA.c ****         uint16_t buffer_byte_ptr = start_byte_ptr;
 1833              		.loc 1 408 78 view .LVU543
 1834 0108 C91A     		subs	r1, r1, r3
 1835 010a C9B2     		uxtb	r1, r1
 408:Core/Src/GEVA.c ****         uint16_t buffer_byte_ptr = start_byte_ptr;
 1836              		.loc 1 408 35 view .LVU544
 1837 010c 227A     		ldrb	r2, [r4, #8]
 1838 010e 0139     		subs	r1, r1, #1
 1839 0110 C9B2     		uxtb	r1, r1
 1840 0112 3800     		movs	r0, r7
 1841              	.LVL172:
 408:Core/Src/GEVA.c ****         uint16_t buffer_byte_ptr = start_byte_ptr;
 1842              		.loc 1 408 35 view .LVU545
 1843 0114 FFF7FEFF 		bl	get_buffer_index
 1844              	.LVL173:
 1845 0118 8146     		mov	r9, r0
 1846              	.LVL174:
 409:Core/Src/GEVA.c ****         uint16_t temp = 0;
 1847              		.loc 1 409 9 is_stmt 1 view .LVU546
 410:Core/Src/GEVA.c ****         uint8_t shifter_a = n_pos[X] % 8;
 1848              		.loc 1 410 9 view .LVU547
 411:Core/Src/GEVA.c ****     
 1849              		.loc 1 411 9 view .LVU548
 411:Core/Src/GEVA.c ****     
 1850              		.loc 1 411 17 is_stmt 0 view .LVU549
 1851 011a 0726     		movs	r6, #7
 1852              	.LVL175:
 411:Core/Src/GEVA.c ****     
 1853              		.loc 1 411 17 view .LVU550
 1854 011c 3E40     		ands	r6, r7
 1855              	.LVL176:
 413:Core/Src/GEVA.c ****             buffer_byte_ptr = start_byte_ptr - (buf->byte_col_cnt * i);
 1856              		.loc 1 413 9 is_stmt 1 view .LVU551
 1857              	.LBB22:
 413:Core/Src/GEVA.c ****             buffer_byte_ptr = start_byte_ptr - (buf->byte_col_cnt * i);
 1858              		.loc 1 413 14 view .LVU552
 413:Core/Src/GEVA.c ****             buffer_byte_ptr = start_byte_ptr - (buf->byte_col_cnt * i);
 1859              		.loc 1 413 22 is_stmt 0 view .LVU553
 1860 011e 0021     		movs	r1, #0
 413:Core/Src/GEVA.c ****             buffer_byte_ptr = start_byte_ptr - (buf->byte_col_cnt * i);
 1861              		.loc 1 413 9 view .LVU554
 1862 0120 01E0     		b	.L89
 1863              	.LVL177:
 1864              	.L90:
 413:Core/Src/GEVA.c ****             buffer_byte_ptr = start_byte_ptr - (buf->byte_col_cnt * i);
 1865              		.loc 1 413 47 is_stmt 1 discriminator 2 view .LVU555
 1866 0122 0131     		adds	r1, r1, #1
 1867              	.LVL178:
 413:Core/Src/GEVA.c ****             buffer_byte_ptr = start_byte_ptr - (buf->byte_col_cnt * i);
ARM GAS  C:\Users\arist\AppData\Local\Temp\ccUERo53.s 			page 53


 1868              		.loc 1 413 47 is_stmt 0 discriminator 2 view .LVU556
 1869 0124 C9B2     		uxtb	r1, r1
 1870              	.LVL179:
 1871              	.L89:
 413:Core/Src/GEVA.c ****             buffer_byte_ptr = start_byte_ptr - (buf->byte_col_cnt * i);
 1872              		.loc 1 413 31 is_stmt 1 discriminator 1 view .LVU557
 1873 0126 224B     		ldr	r3, .L99
 1874 0128 1A78     		ldrb	r2, [r3]
 1875 012a 8A42     		cmp	r2, r1
 1876 012c 33D9     		bls	.L98
 414:Core/Src/GEVA.c ****             temp = c[font_height - 1 - i] >> shifter_a;
 1877              		.loc 1 414 13 view .LVU558
 414:Core/Src/GEVA.c ****             temp = c[font_height - 1 - i] >> shifter_a;
 1878              		.loc 1 414 52 is_stmt 0 view .LVU559
 1879 012e 237A     		ldrb	r3, [r4, #8]
 414:Core/Src/GEVA.c ****             temp = c[font_height - 1 - i] >> shifter_a;
 1880              		.loc 1 414 67 view .LVU560
 1881 0130 4B43     		muls	r3, r1
 414:Core/Src/GEVA.c ****             temp = c[font_height - 1 - i] >> shifter_a;
 1882              		.loc 1 414 29 view .LVU561
 1883 0132 4846     		mov	r0, r9
 1884 0134 C31A     		subs	r3, r0, r3
 1885 0136 9BB2     		uxth	r3, r3
 1886              	.LVL180:
 415:Core/Src/GEVA.c ****             buf->vid_buf[buffer_byte_ptr] |= (uint8_t)(temp >> 8);
 1887              		.loc 1 415 13 is_stmt 1 view .LVU562
 415:Core/Src/GEVA.c ****             buf->vid_buf[buffer_byte_ptr] |= (uint8_t)(temp >> 8);
 1888              		.loc 1 415 34 is_stmt 0 view .LVU563
 1889 0138 013A     		subs	r2, r2, #1
 415:Core/Src/GEVA.c ****             buf->vid_buf[buffer_byte_ptr] |= (uint8_t)(temp >> 8);
 1890              		.loc 1 415 38 view .LVU564
 1891 013a 521A     		subs	r2, r2, r1
 415:Core/Src/GEVA.c ****             buf->vid_buf[buffer_byte_ptr] |= (uint8_t)(temp >> 8);
 1892              		.loc 1 415 21 view .LVU565
 1893 013c 5200     		lsls	r2, r2, #1
 1894 013e 5046     		mov	r0, r10
 1895 0140 125A     		ldrh	r2, [r2, r0]
 415:Core/Src/GEVA.c ****             buf->vid_buf[buffer_byte_ptr] |= (uint8_t)(temp >> 8);
 1896              		.loc 1 415 43 view .LVU566
 1897 0142 3241     		asrs	r2, r2, r6
 415:Core/Src/GEVA.c ****             buf->vid_buf[buffer_byte_ptr] |= (uint8_t)(temp >> 8);
 1898              		.loc 1 415 18 view .LVU567
 1899 0144 90B2     		uxth	r0, r2
 1900 0146 8446     		mov	ip, r0
 1901              	.LVL181:
 416:Core/Src/GEVA.c ****             buf->vid_buf[buffer_byte_ptr + 1] |= (uint8_t)temp; 
 1902              		.loc 1 416 13 is_stmt 1 view .LVU568
 416:Core/Src/GEVA.c ****             buf->vid_buf[buffer_byte_ptr + 1] |= (uint8_t)temp; 
 1903              		.loc 1 416 16 is_stmt 0 view .LVU569
 1904 0148 6068     		ldr	r0, [r4, #4]
 416:Core/Src/GEVA.c ****             buf->vid_buf[buffer_byte_ptr + 1] |= (uint8_t)temp; 
 1905              		.loc 1 416 25 view .LVU570
 1906 014a C75C     		ldrb	r7, [r0, r3]
 416:Core/Src/GEVA.c ****             buf->vid_buf[buffer_byte_ptr + 1] |= (uint8_t)temp; 
 1907              		.loc 1 416 46 view .LVU571
 1908 014c 6546     		mov	r5, ip
 1909 014e 2D0A     		lsrs	r5, r5, #8
ARM GAS  C:\Users\arist\AppData\Local\Temp\ccUERo53.s 			page 54


 416:Core/Src/GEVA.c ****             buf->vid_buf[buffer_byte_ptr + 1] |= (uint8_t)temp; 
 1910              		.loc 1 416 43 view .LVU572
 1911 0150 2F43     		orrs	r7, r5
 1912 0152 C754     		strb	r7, [r0, r3]
 417:Core/Src/GEVA.c ****             
 1913              		.loc 1 417 13 is_stmt 1 view .LVU573
 417:Core/Src/GEVA.c ****             
 1914              		.loc 1 417 16 is_stmt 0 view .LVU574
 1915 0154 6068     		ldr	r0, [r4, #4]
 1916 0156 8046     		mov	r8, r0
 417:Core/Src/GEVA.c ****             
 1917              		.loc 1 417 25 view .LVU575
 1918 0158 581C     		adds	r0, r3, #1
 1919 015a 4546     		mov	r5, r8
 1920 015c 2F5C     		ldrb	r7, [r5, r0]
 417:Core/Src/GEVA.c ****             
 1921              		.loc 1 417 50 view .LVU576
 1922 015e D2B2     		uxtb	r2, r2
 417:Core/Src/GEVA.c ****             
 1923              		.loc 1 417 47 view .LVU577
 1924 0160 3A43     		orrs	r2, r7
 1925 0162 2A54     		strb	r2, [r5, r0]
 419:Core/Src/GEVA.c ****                     temp = c[font_height - i - 1];
 1926              		.loc 1 419 13 is_stmt 1 view .LVU578
 419:Core/Src/GEVA.c ****                     temp = c[font_height - i - 1];
 1927              		.loc 1 419 16 is_stmt 0 view .LVU579
 1928 0164 002E     		cmp	r6, #0
 1929 0166 DCD0     		beq	.L90
 420:Core/Src/GEVA.c ****                     buf->vid_buf[buffer_byte_ptr + 2] |= (uint8_t)temp << (8 - shifter_a);
 1930              		.loc 1 420 21 is_stmt 1 view .LVU580
 420:Core/Src/GEVA.c ****                     buf->vid_buf[buffer_byte_ptr + 2] |= (uint8_t)temp << (8 - shifter_a);
 1931              		.loc 1 420 42 is_stmt 0 view .LVU581
 1932 0168 114A     		ldr	r2, .L99
 1933 016a 1278     		ldrb	r2, [r2]
 1934 016c 521A     		subs	r2, r2, r1
 420:Core/Src/GEVA.c ****                     buf->vid_buf[buffer_byte_ptr + 2] |= (uint8_t)temp << (8 - shifter_a);
 1935              		.loc 1 420 29 view .LVU582
 1936 016e 1448     		ldr	r0, .L99+16
 1937 0170 8446     		mov	ip, r0
 1938              	.LVL182:
 420:Core/Src/GEVA.c ****                     buf->vid_buf[buffer_byte_ptr + 2] |= (uint8_t)temp << (8 - shifter_a);
 1939              		.loc 1 420 29 view .LVU583
 1940 0172 6244     		add	r2, r2, ip
 1941 0174 5200     		lsls	r2, r2, #1
 1942              	.LVL183:
 421:Core/Src/GEVA.c ****                 }
 1943              		.loc 1 421 21 is_stmt 1 view .LVU584
 421:Core/Src/GEVA.c ****                 }
 1944              		.loc 1 421 24 is_stmt 0 view .LVU585
 1945 0176 6068     		ldr	r0, [r4, #4]
 1946 0178 8446     		mov	ip, r0
 421:Core/Src/GEVA.c ****                 }
 1947              		.loc 1 421 33 view .LVU586
 1948 017a 0233     		adds	r3, r3, #2
 1949              	.LVL184:
 421:Core/Src/GEVA.c ****                 }
 1950              		.loc 1 421 33 view .LVU587
ARM GAS  C:\Users\arist\AppData\Local\Temp\ccUERo53.s 			page 55


 1951 017c 9846     		mov	r8, r3
 1952 017e 0300     		movs	r3, r0
 1953              	.LVL185:
 421:Core/Src/GEVA.c ****                 }
 1954              		.loc 1 421 33 view .LVU588
 1955 0180 4046     		mov	r0, r8
 1956 0182 1F5C     		ldrb	r7, [r3, r0]
 421:Core/Src/GEVA.c ****                 }
 1957              		.loc 1 421 58 view .LVU589
 1958 0184 5346     		mov	r3, r10
 1959 0186 9A5C     		ldrb	r2, [r3, r2]
 1960              	.LVL186:
 421:Core/Src/GEVA.c ****                 }
 1961              		.loc 1 421 78 view .LVU590
 1962 0188 0823     		movs	r3, #8
 1963 018a 9B1B     		subs	r3, r3, r6
 421:Core/Src/GEVA.c ****                 }
 1964              		.loc 1 421 72 view .LVU591
 1965 018c 9A40     		lsls	r2, r2, r3
 421:Core/Src/GEVA.c ****                 }
 1966              		.loc 1 421 55 view .LVU592
 1967 018e 3A43     		orrs	r2, r7
 1968 0190 6346     		mov	r3, ip
 1969 0192 1A54     		strb	r2, [r3, r0]
 1970              	.LVL187:
 421:Core/Src/GEVA.c ****                 }
 1971              		.loc 1 421 55 view .LVU593
 1972 0194 C5E7     		b	.L90
 1973              	.LVL188:
 1974              	.L98:
 421:Core/Src/GEVA.c ****                 }
 1975              		.loc 1 421 55 view .LVU594
 1976              	.LBE22:
 1977              	.LBE21:
 353:Core/Src/GEVA.c ****     uint8_t* n_pos; 
 1978              		.loc 1 353 13 view .LVU595
 1979 0196 0020     		movs	r0, #0
 1980              	.LBB24:
 1981              	.LBB23:
 1982 0198 00E0     		b	.L88
 1983              	.LVL189:
 1984              	.L92:
 353:Core/Src/GEVA.c ****     uint8_t* n_pos; 
 1985              		.loc 1 353 13 view .LVU596
 1986              	.LBE23:
 1987              	.LBE24:
 402:Core/Src/GEVA.c ****     else if (n_pos[Y] + font_height > buf->size_y || n_pos[X] + font_width > buf->size_x)
 1988              		.loc 1 402 15 view .LVU597
 1989 019a 0420     		movs	r0, #4
 1990              	.LVL190:
 1991              	.L88:
 427:Core/Src/GEVA.c **** }
 1992              		.loc 1 427 5 is_stmt 1 view .LVU598
 428:Core/Src/GEVA.c **** 
 1993              		.loc 1 428 1 is_stmt 0 view .LVU599
 1994              		@ sp needed
 1995 019c E0BC     		pop	{r5, r6, r7}
ARM GAS  C:\Users\arist\AppData\Local\Temp\ccUERo53.s 			page 56


 1996 019e BA46     		mov	r10, r7
 1997 01a0 B146     		mov	r9, r6
 1998 01a2 A846     		mov	r8, r5
 1999 01a4 F0BD     		pop	{r4, r5, r6, r7, pc}
 2000              	.LVL191:
 2001              	.L93:
 402:Core/Src/GEVA.c ****     else if (n_pos[Y] + font_height > buf->size_y || n_pos[X] + font_width > buf->size_x)
 2002              		.loc 1 402 15 view .LVU600
 2003 01a6 0420     		movs	r0, #4
 2004 01a8 F8E7     		b	.L88
 2005              	.L94:
 404:Core/Src/GEVA.c ****     else {
 2006              		.loc 1 404 15 view .LVU601
 2007 01aa 0220     		movs	r0, #2
 2008 01ac F6E7     		b	.L88
 2009              	.L100:
 2010 01ae C046     		.align	2
 2011              	.L99:
 2012 01b0 00000000 		.word	font_height
 2013 01b4 00000000 		.word	font_width
 2014 01b8 00000000 		.word	font_s
 2015 01bc 00000000 		.word	font_m
 2016 01c0 FFFFFF7F 		.word	2147483647
 2017              		.cfi_endproc
 2018              	.LFE7:
 2020              		.section	.text.put_string,"ax",%progbits
 2021              		.align	1
 2022              		.global	put_string
 2023              		.syntax unified
 2024              		.code	16
 2025              		.thumb_func
 2027              	put_string:
 2028              	.LVL192:
 2029              	.LFB8:
 438:Core/Src/GEVA.c ****     
 2030              		.loc 1 438 103 is_stmt 1 view -0
 2031              		.cfi_startproc
 2032              		@ args = 4, pretend = 0, frame = 8
 2033              		@ frame_needed = 0, uses_anonymous_args = 0
 438:Core/Src/GEVA.c ****     
 2034              		.loc 1 438 103 is_stmt 0 view .LVU603
 2035 0000 F0B5     		push	{r4, r5, r6, r7, lr}
 2036              		.cfi_def_cfa_offset 20
 2037              		.cfi_offset 4, -20
 2038              		.cfi_offset 5, -16
 2039              		.cfi_offset 6, -12
 2040              		.cfi_offset 7, -8
 2041              		.cfi_offset 14, -4
 2042 0002 DE46     		mov	lr, fp
 2043 0004 5746     		mov	r7, r10
 2044 0006 80B5     		push	{r7, lr}
 2045              		.cfi_def_cfa_offset 28
 2046              		.cfi_offset 10, -28
 2047              		.cfi_offset 11, -24
 2048 0008 85B0     		sub	sp, sp, #20
 2049              		.cfi_def_cfa_offset 48
 2050 000a 0390     		str	r0, [sp, #12]
ARM GAS  C:\Users\arist\AppData\Local\Temp\ccUERo53.s 			page 57


 2051 000c 8A46     		mov	r10, r1
 2052 000e 151E     		subs	r5, r2, #0
 2053 0010 9B46     		mov	fp, r3
 440:Core/Src/GEVA.c ****     uint8_t i = 0;
 2054              		.loc 1 440 5 is_stmt 1 view .LVU604
 2055              	.LVL193:
 441:Core/Src/GEVA.c ****     uint8_t y_offset = pos_y;
 2056              		.loc 1 441 5 view .LVU605
 442:Core/Src/GEVA.c ****     uint8_t x_offset = pos_x;    
 2057              		.loc 1 442 5 view .LVU606
 443:Core/Src/GEVA.c **** 
 2058              		.loc 1 443 5 view .LVU607
 445:Core/Src/GEVA.c ****         
 2059              		.loc 1 445 5 view .LVU608
 445:Core/Src/GEVA.c ****         
 2060              		.loc 1 445 8 is_stmt 0 view .LVU609
 2061 0012 03D0     		beq	.L109
 443:Core/Src/GEVA.c **** 
 2062              		.loc 1 443 13 view .LVU610
 2063 0014 039F     		ldr	r7, [sp, #12]
 441:Core/Src/GEVA.c ****     uint8_t y_offset = pos_y;
 2064              		.loc 1 441 13 view .LVU611
 2065 0016 0024     		movs	r4, #0
 440:Core/Src/GEVA.c ****     uint8_t i = 0;
 2066              		.loc 1 440 13 view .LVU612
 2067 0018 0126     		movs	r6, #1
 2068 001a 19E0     		b	.L102
 2069              	.L109:
 2070 001c 0126     		movs	r6, #1
 2071              	.LVL194:
 2072              	.L103:
 463:Core/Src/GEVA.c **** }
 2073              		.loc 1 463 5 is_stmt 1 view .LVU613
 464:Core/Src/GEVA.c **** 
 2074              		.loc 1 464 1 is_stmt 0 view .LVU614
 2075 001e 3000     		movs	r0, r6
 2076 0020 05B0     		add	sp, sp, #20
 2077              		@ sp needed
 2078              	.LVL195:
 2079              	.LVL196:
 2080              	.LVL197:
 464:Core/Src/GEVA.c **** 
 2081              		.loc 1 464 1 view .LVU615
 2082 0022 C0BC     		pop	{r6, r7}
 2083 0024 BB46     		mov	fp, r7
 2084 0026 B246     		mov	r10, r6
 2085 0028 F0BD     		pop	{r4, r5, r6, r7, pc}
 2086              	.LVL198:
 2087              	.L105:
 454:Core/Src/GEVA.c ****                 if (error != 0)
 2088              		.loc 1 454 17 is_stmt 1 view .LVU616
 454:Core/Src/GEVA.c ****                 if (error != 0)
 2089              		.loc 1 454 25 is_stmt 0 view .LVU617
 2090 002a 0C9B     		ldr	r3, [sp, #48]
 2091 002c 0093     		str	r3, [sp]
 2092 002e 5B46     		mov	r3, fp
 2093 0030 5146     		mov	r1, r10
ARM GAS  C:\Users\arist\AppData\Local\Temp\ccUERo53.s 			page 58


 2094 0032 3800     		movs	r0, r7
 2095 0034 FFF7FEFF 		bl	put_char
 2096              	.LVL199:
 2097 0038 061E     		subs	r6, r0, #0
 2098              	.LVL200:
 455:Core/Src/GEVA.c ****                     break;
 2099              		.loc 1 455 17 is_stmt 1 view .LVU618
 455:Core/Src/GEVA.c ****                     break;
 2100              		.loc 1 455 20 is_stmt 0 view .LVU619
 2101 003a F0D1     		bne	.L103
 457:Core/Src/GEVA.c ****             
 2102              		.loc 1 457 17 is_stmt 1 view .LVU620
 457:Core/Src/GEVA.c ****             
 2103              		.loc 1 457 26 is_stmt 0 view .LVU621
 2104 003c 0E4B     		ldr	r3, .L110
 2105 003e 1B78     		ldrb	r3, [r3]
 2106 0040 FB18     		adds	r3, r7, r3
 2107 0042 DBB2     		uxtb	r3, r3
 2108 0044 0133     		adds	r3, r3, #1
 2109 0046 DFB2     		uxtb	r7, r3
 2110              	.LVL201:
 457:Core/Src/GEVA.c ****             
 2111              		.loc 1 457 26 view .LVU622
 2112 0048 00E0     		b	.L104
 2113              	.LVL202:
 2114              	.L108:
 450:Core/Src/GEVA.c ****             else if (chr[i] == '\n')
 2115              		.loc 1 450 26 view .LVU623
 2116 004a 039F     		ldr	r7, [sp, #12]
 2117              	.LVL203:
 2118              	.L104:
 460:Core/Src/GEVA.c ****         }
 2119              		.loc 1 460 13 is_stmt 1 view .LVU624
 460:Core/Src/GEVA.c ****         }
 2120              		.loc 1 460 14 is_stmt 0 view .LVU625
 2121 004c 0134     		adds	r4, r4, #1
 2122              	.LVL204:
 460:Core/Src/GEVA.c ****         }
 2123              		.loc 1 460 14 view .LVU626
 2124 004e E4B2     		uxtb	r4, r4
 2125              	.LVL205:
 2126              	.L102:
 447:Core/Src/GEVA.c **** 
 2127              		.loc 1 447 17 is_stmt 1 view .LVU627
 447:Core/Src/GEVA.c **** 
 2128              		.loc 1 447 19 is_stmt 0 view .LVU628
 2129 0050 2800     		movs	r0, r5
 2130 0052 FFF7FEFF 		bl	strlen
 2131              	.LVL206:
 447:Core/Src/GEVA.c **** 
 2132              		.loc 1 447 17 view .LVU629
 2133 0056 8442     		cmp	r4, r0
 2134 0058 E1D2     		bcs	.L103
 449:Core/Src/GEVA.c ****                 x_offset = pos_x;
 2135              		.loc 1 449 13 is_stmt 1 view .LVU630
 449:Core/Src/GEVA.c ****                 x_offset = pos_x;
 2136              		.loc 1 449 20 is_stmt 0 view .LVU631
ARM GAS  C:\Users\arist\AppData\Local\Temp\ccUERo53.s 			page 59


 2137 005a 2A5D     		ldrb	r2, [r5, r4]
 449:Core/Src/GEVA.c ****                 x_offset = pos_x;
 2138              		.loc 1 449 16 view .LVU632
 2139 005c 0D2A     		cmp	r2, #13
 2140 005e F4D0     		beq	.L108
 451:Core/Src/GEVA.c ****                 y_offset = y_offset - 1 - font_height;
 2141              		.loc 1 451 18 is_stmt 1 view .LVU633
 451:Core/Src/GEVA.c ****                 y_offset = y_offset - 1 - font_height;
 2142              		.loc 1 451 21 is_stmt 0 view .LVU634
 2143 0060 0A2A     		cmp	r2, #10
 2144 0062 E2D1     		bne	.L105
 452:Core/Src/GEVA.c ****             else {
 2145              		.loc 1 452 17 is_stmt 1 view .LVU635
 452:Core/Src/GEVA.c ****             else {
 2146              		.loc 1 452 41 is_stmt 0 view .LVU636
 2147 0064 054B     		ldr	r3, .L110+4
 2148 0066 1B78     		ldrb	r3, [r3]
 2149 0068 5246     		mov	r2, r10
 2150 006a D31A     		subs	r3, r2, r3
 2151 006c DBB2     		uxtb	r3, r3
 452:Core/Src/GEVA.c ****             else {
 2152              		.loc 1 452 26 view .LVU637
 2153 006e 013B     		subs	r3, r3, #1
 2154 0070 DBB2     		uxtb	r3, r3
 2155 0072 9A46     		mov	r10, r3
 2156              	.LVL207:
 452:Core/Src/GEVA.c ****             else {
 2157              		.loc 1 452 26 view .LVU638
 2158 0074 EAE7     		b	.L104
 2159              	.L111:
 2160 0076 C046     		.align	2
 2161              	.L110:
 2162 0078 00000000 		.word	font_width
 2163 007c 00000000 		.word	font_height
 2164              		.cfi_endproc
 2165              	.LFE8:
 2167              		.section	.text.modulo,"ax",%progbits
 2168              		.align	1
 2169              		.global	modulo
 2170              		.syntax unified
 2171              		.code	16
 2172              		.thumb_func
 2174              	modulo:
 2175              	.LVL208:
 2176              	.LFB20:
 692:Core/Src/GEVA.c **** 
 693:Core/Src/GEVA.c **** 
 694:Core/Src/GEVA.c **** uint8_t modulo(int8_t n) {
 2177              		.loc 1 694 26 is_stmt 1 view -0
 2178              		.cfi_startproc
 2179              		@ args = 0, pretend = 0, frame = 0
 2180              		@ frame_needed = 0, uses_anonymous_args = 0
 2181              		@ link register save eliminated.
 695:Core/Src/GEVA.c ****     return (n > 0) ? n : -n;
 2182              		.loc 1 695 5 view .LVU640
 2183              		.loc 1 695 24 is_stmt 0 view .LVU641
 2184 0000 C317     		asrs	r3, r0, #31
ARM GAS  C:\Users\arist\AppData\Local\Temp\ccUERo53.s 			page 60


 2185 0002 C018     		adds	r0, r0, r3
 2186              	.LVL209:
 2187              		.loc 1 695 24 view .LVU642
 2188 0004 5840     		eors	r0, r3
 2189 0006 C0B2     		uxtb	r0, r0
 696:Core/Src/GEVA.c **** }
 2190              		.loc 1 696 1 view .LVU643
 2191              		@ sp needed
 2192 0008 7047     		bx	lr
 2193              		.cfi_endproc
 2194              	.LFE20:
 2196              		.section	.text.clear_sector,"ax",%progbits
 2197              		.align	1
 2198              		.global	clear_sector
 2199              		.syntax unified
 2200              		.code	16
 2201              		.thumb_func
 2203              	clear_sector:
 2204              	.LVL210:
 2205              	.LFB6:
 240:Core/Src/GEVA.c **** 
 2206              		.loc 1 240 102 is_stmt 1 view -0
 2207              		.cfi_startproc
 2208              		@ args = 4, pretend = 0, frame = 24
 2209              		@ frame_needed = 0, uses_anonymous_args = 0
 240:Core/Src/GEVA.c **** 
 2210              		.loc 1 240 102 is_stmt 0 view .LVU645
 2211 0000 F0B5     		push	{r4, r5, r6, r7, lr}
 2212              		.cfi_def_cfa_offset 20
 2213              		.cfi_offset 4, -20
 2214              		.cfi_offset 5, -16
 2215              		.cfi_offset 6, -12
 2216              		.cfi_offset 7, -8
 2217              		.cfi_offset 14, -4
 2218 0002 DE46     		mov	lr, fp
 2219 0004 5746     		mov	r7, r10
 2220 0006 4E46     		mov	r6, r9
 2221 0008 4546     		mov	r5, r8
 2222 000a E0B5     		push	{r5, r6, r7, lr}
 2223              		.cfi_def_cfa_offset 36
 2224              		.cfi_offset 8, -36
 2225              		.cfi_offset 9, -32
 2226              		.cfi_offset 10, -28
 2227              		.cfi_offset 11, -24
 2228 000c 87B0     		sub	sp, sp, #28
 2229              		.cfi_def_cfa_offset 64
 2230 000e 0600     		movs	r6, r0
 2231 0010 0D00     		movs	r5, r1
 2232 0012 0392     		str	r2, [sp, #12]
 2233 0014 9A46     		mov	r10, r3
 2234 0016 109C     		ldr	r4, [sp, #64]
 242:Core/Src/GEVA.c ****     uint8_t startx_ptr = 0; // pos_x;
 2235              		.loc 1 242 5 is_stmt 1 view .LVU646
 2236              	.LVL211:
 243:Core/Src/GEVA.c ****     uint8_t starty_ptr = 0; // pos_y;
 2237              		.loc 1 243 5 view .LVU647
 244:Core/Src/GEVA.c ****     uint8_t endx_ptr = 0;   //pos_x + width;
ARM GAS  C:\Users\arist\AppData\Local\Temp\ccUERo53.s 			page 61


 2238              		.loc 1 244 5 view .LVU648
 245:Core/Src/GEVA.c ****     uint8_t endy_ptr = 0;   // pos_y + height;
 2239              		.loc 1 245 5 view .LVU649
 246:Core/Src/GEVA.c ****     uint8_t n_width = 0;    //normalized width
 2240              		.loc 1 246 5 view .LVU650
 247:Core/Src/GEVA.c ****     uint8_t* n_pos_ptr = normalize_pos(pos_x, pos_y, buf);
 2241              		.loc 1 247 5 view .LVU651
 248:Core/Src/GEVA.c ****     
 2242              		.loc 1 248 5 view .LVU652
 248:Core/Src/GEVA.c ****     
 2243              		.loc 1 248 26 is_stmt 0 view .LVU653
 2244 0018 2200     		movs	r2, r4
 2245              	.LVL212:
 248:Core/Src/GEVA.c ****     
 2246              		.loc 1 248 26 view .LVU654
 2247 001a FFF7FEFF 		bl	normalize_pos
 2248              	.LVL213:
 248:Core/Src/GEVA.c ****     
 2249              		.loc 1 248 26 view .LVU655
 2250 001e 0190     		str	r0, [sp, #4]
 2251              	.LVL214:
 250:Core/Src/GEVA.c **** 
 2252              		.loc 1 250 5 is_stmt 1 view .LVU656
 250:Core/Src/GEVA.c **** 
 2253              		.loc 1 250 16 is_stmt 0 view .LVU657
 2254 0020 637B     		ldrb	r3, [r4, #13]
 250:Core/Src/GEVA.c **** 
 2255              		.loc 1 250 5 view .LVU658
 2256 0022 022B     		cmp	r3, #2
 2257 0024 72D0     		beq	.L114
 2258 0026 20D8     		bhi	.L115
 2259 0028 002B     		cmp	r3, #0
 2260 002a 61D0     		beq	.L116
 2261 002c 012B     		cmp	r3, #1
 2262 002e 15D1     		bne	.L138
 261:Core/Src/GEVA.c ****         startx_ptr = n_pos_ptr[X] - width + 1;
 2263              		.loc 1 261 9 is_stmt 1 view .LVU659
 2264              	.LVL215:
 262:Core/Src/GEVA.c ****         starty_ptr = n_pos_ptr[Y] - height + 1;
 2265              		.loc 1 262 9 view .LVU660
 262:Core/Src/GEVA.c ****         starty_ptr = n_pos_ptr[Y] - height + 1;
 2266              		.loc 1 262 31 is_stmt 0 view .LVU661
 2267 0030 019B     		ldr	r3, [sp, #4]
 2268 0032 1A78     		ldrb	r2, [r3]
 262:Core/Src/GEVA.c ****         starty_ptr = n_pos_ptr[Y] - height + 1;
 2269              		.loc 1 262 35 view .LVU662
 2270 0034 0398     		ldr	r0, [sp, #12]
 2271              	.LVL216:
 262:Core/Src/GEVA.c ****         starty_ptr = n_pos_ptr[Y] - height + 1;
 2272              		.loc 1 262 35 view .LVU663
 2273 0036 171A     		subs	r7, r2, r0
 2274 0038 FFB2     		uxtb	r7, r7
 262:Core/Src/GEVA.c ****         starty_ptr = n_pos_ptr[Y] - height + 1;
 2275              		.loc 1 262 20 view .LVU664
 2276 003a 0137     		adds	r7, r7, #1
 2277 003c FFB2     		uxtb	r7, r7
 2278              	.LVL217:
ARM GAS  C:\Users\arist\AppData\Local\Temp\ccUERo53.s 			page 62


 263:Core/Src/GEVA.c ****         endx_ptr = n_pos_ptr[X] + 1;
 2279              		.loc 1 263 9 is_stmt 1 view .LVU665
 263:Core/Src/GEVA.c ****         endx_ptr = n_pos_ptr[X] + 1;
 2280              		.loc 1 263 31 is_stmt 0 view .LVU666
 2281 003e 5978     		ldrb	r1, [r3, #1]
 263:Core/Src/GEVA.c ****         endx_ptr = n_pos_ptr[X] + 1;
 2282              		.loc 1 263 35 view .LVU667
 2283 0040 5346     		mov	r3, r10
 2284              	.LVL218:
 263:Core/Src/GEVA.c ****         endx_ptr = n_pos_ptr[X] + 1;
 2285              		.loc 1 263 35 view .LVU668
 2286 0042 CB1A     		subs	r3, r1, r3
 2287 0044 DBB2     		uxtb	r3, r3
 263:Core/Src/GEVA.c ****         endx_ptr = n_pos_ptr[X] + 1;
 2288              		.loc 1 263 20 view .LVU669
 2289 0046 0133     		adds	r3, r3, #1
 2290 0048 DBB2     		uxtb	r3, r3
 2291 004a 9846     		mov	r8, r3
 2292              	.LVL219:
 264:Core/Src/GEVA.c ****         endy_ptr = n_pos_ptr[Y] + 1;
 2293              		.loc 1 264 9 is_stmt 1 view .LVU670
 264:Core/Src/GEVA.c ****         endy_ptr = n_pos_ptr[Y] + 1;
 2294              		.loc 1 264 18 is_stmt 0 view .LVU671
 2295 004c 0132     		adds	r2, r2, #1
 2296 004e D3B2     		uxtb	r3, r2
 2297 0050 9B46     		mov	fp, r3
 2298              	.LVL220:
 265:Core/Src/GEVA.c ****         break;
 2299              		.loc 1 265 9 is_stmt 1 view .LVU672
 265:Core/Src/GEVA.c ****         break;
 2300              		.loc 1 265 18 is_stmt 0 view .LVU673
 2301 0052 0131     		adds	r1, r1, #1
 2302 0054 CBB2     		uxtb	r3, r1
 2303 0056 9946     		mov	r9, r3
 2304              	.LVL221:
 266:Core/Src/GEVA.c **** 
 2305              		.loc 1 266 9 is_stmt 1 view .LVU674
 261:Core/Src/GEVA.c ****         startx_ptr = n_pos_ptr[X] - width + 1;
 2306              		.loc 1 261 17 is_stmt 0 view .LVU675
 2307 0058 0290     		str	r0, [sp, #8]
 266:Core/Src/GEVA.c **** 
 2308              		.loc 1 266 9 view .LVU676
 2309 005a 21E0     		b	.L118
 2310              	.LVL222:
 2311              	.L138:
 250:Core/Src/GEVA.c **** 
 2312              		.loc 1 250 5 view .LVU677
 2313 005c 0023     		movs	r3, #0
 2314 005e 0293     		str	r3, [sp, #8]
 2315 0060 1F00     		movs	r7, r3
 2316 0062 9946     		mov	r9, r3
 2317 0064 9B46     		mov	fp, r3
 2318 0066 9846     		mov	r8, r3
 2319 0068 1AE0     		b	.L118
 2320              	.L115:
 2321 006a 032B     		cmp	r3, #3
 2322 006c 12D1     		bne	.L139
ARM GAS  C:\Users\arist\AppData\Local\Temp\ccUERo53.s 			page 63


 277:Core/Src/GEVA.c ****         starty_ptr = n_pos_ptr[Y] - width + 1;
 2323              		.loc 1 277 9 is_stmt 1 view .LVU678
 277:Core/Src/GEVA.c ****         starty_ptr = n_pos_ptr[Y] - width + 1;
 2324              		.loc 1 277 20 is_stmt 0 view .LVU679
 2325 006e 019B     		ldr	r3, [sp, #4]
 2326 0070 1F78     		ldrb	r7, [r3]
 2327              	.LVL223:
 278:Core/Src/GEVA.c ****         endx_ptr = startx_ptr + height;
 2328              		.loc 1 278 9 is_stmt 1 view .LVU680
 278:Core/Src/GEVA.c ****         endx_ptr = startx_ptr + height;
 2329              		.loc 1 278 31 is_stmt 0 view .LVU681
 2330 0072 5A78     		ldrb	r2, [r3, #1]
 278:Core/Src/GEVA.c ****         endx_ptr = startx_ptr + height;
 2331              		.loc 1 278 35 view .LVU682
 2332 0074 039B     		ldr	r3, [sp, #12]
 2333 0076 D31A     		subs	r3, r2, r3
 2334 0078 DBB2     		uxtb	r3, r3
 278:Core/Src/GEVA.c ****         endx_ptr = startx_ptr + height;
 2335              		.loc 1 278 20 view .LVU683
 2336 007a 0133     		adds	r3, r3, #1
 2337 007c DBB2     		uxtb	r3, r3
 2338 007e 9846     		mov	r8, r3
 2339              	.LVL224:
 279:Core/Src/GEVA.c ****         endy_ptr = n_pos_ptr[Y] + 1;
 2340              		.loc 1 279 9 is_stmt 1 view .LVU684
 279:Core/Src/GEVA.c ****         endy_ptr = n_pos_ptr[Y] + 1;
 2341              		.loc 1 279 18 is_stmt 0 view .LVU685
 2342 0080 5346     		mov	r3, r10
 2343 0082 FB18     		adds	r3, r7, r3
 2344 0084 DBB2     		uxtb	r3, r3
 2345 0086 9B46     		mov	fp, r3
 2346              	.LVL225:
 280:Core/Src/GEVA.c ****         break;
 2347              		.loc 1 280 9 is_stmt 1 view .LVU686
 280:Core/Src/GEVA.c ****         break;
 2348              		.loc 1 280 18 is_stmt 0 view .LVU687
 2349 0088 0132     		adds	r2, r2, #1
 2350 008a D3B2     		uxtb	r3, r2
 2351 008c 9946     		mov	r9, r3
 2352              	.LVL226:
 281:Core/Src/GEVA.c **** 
 2353              		.loc 1 281 9 is_stmt 1 view .LVU688
 247:Core/Src/GEVA.c ****     uint8_t* n_pos_ptr = normalize_pos(pos_x, pos_y, buf);
 2354              		.loc 1 247 13 is_stmt 0 view .LVU689
 2355 008e 0023     		movs	r3, #0
 2356 0090 0293     		str	r3, [sp, #8]
 281:Core/Src/GEVA.c **** 
 2357              		.loc 1 281 9 view .LVU690
 2358 0092 05E0     		b	.L118
 2359              	.LVL227:
 2360              	.L139:
 250:Core/Src/GEVA.c **** 
 2361              		.loc 1 250 5 view .LVU691
 2362 0094 0023     		movs	r3, #0
 2363 0096 0293     		str	r3, [sp, #8]
 2364 0098 9946     		mov	r9, r3
 2365 009a 9B46     		mov	fp, r3
ARM GAS  C:\Users\arist\AppData\Local\Temp\ccUERo53.s 			page 64


 2366 009c 9846     		mov	r8, r3
 2367 009e 0027     		movs	r7, #0
 2368              	.LVL228:
 2369              	.L118:
 287:Core/Src/GEVA.c ****         return 4;
 2370              		.loc 1 287 5 is_stmt 1 view .LVU692
 287:Core/Src/GEVA.c ****         return 4;
 2371              		.loc 1 287 21 is_stmt 0 view .LVU693
 2372 00a0 2278     		ldrb	r2, [r4]
 287:Core/Src/GEVA.c ****         return 4;
 2373              		.loc 1 287 8 view .LVU694
 2374 00a2 B242     		cmp	r2, r6
 2375 00a4 00D8     		bhi	.LCB2247
 2376 00a6 DEE0     		b	.L134	@long jump
 2377              	.LCB2247:
 287:Core/Src/GEVA.c ****         return 4;
 2378              		.loc 1 287 58 discriminator 1 view .LVU695
 2379 00a8 6178     		ldrb	r1, [r4, #1]
 287:Core/Src/GEVA.c ****         return 4;
 2380              		.loc 1 287 67 discriminator 1 view .LVU696
 2381 00aa A942     		cmp	r1, r5
 2382 00ac 00D8     		bhi	.LCB2250
 2383 00ae DCE0     		b	.L135	@long jump
 2384              	.LCB2250:
 290:Core/Src/GEVA.c ****         error = 2;
 2385              		.loc 1 290 5 is_stmt 1 view .LVU697
 290:Core/Src/GEVA.c ****         error = 2;
 2386              		.loc 1 290 15 is_stmt 0 view .LVU698
 2387 00b0 5544     		add	r5, r5, r10
 290:Core/Src/GEVA.c ****         error = 2;
 2388              		.loc 1 290 8 view .LVU699
 2389 00b2 8D42     		cmp	r5, r1
 2390 00b4 00DD     		ble	.LCB2254
 2391 00b6 C8E0     		b	.L136	@long jump
 2392              	.LCB2254:
 290:Core/Src/GEVA.c ****         error = 2;
 2393              		.loc 1 290 47 discriminator 1 view .LVU700
 2394 00b8 039B     		ldr	r3, [sp, #12]
 2395 00ba 9C46     		mov	ip, r3
 2396 00bc 6644     		add	r6, r6, ip
 290:Core/Src/GEVA.c ****         error = 2;
 2397              		.loc 1 290 38 discriminator 1 view .LVU701
 2398 00be 9642     		cmp	r6, r2
 2399 00c0 00DD     		ble	.LCB2259
 2400 00c2 CEE0     		b	.L137	@long jump
 2401              	.LCB2259:
 2402              	.LBB25:
 295:Core/Src/GEVA.c ****         uint16_t buffer_byte_ptr = start_byte_ptr;
 2403              		.loc 1 295 9 is_stmt 1 view .LVU702
 295:Core/Src/GEVA.c ****         uint16_t buffer_byte_ptr = start_byte_ptr;
 2404              		.loc 1 295 80 is_stmt 0 view .LVU703
 2405 00c4 4346     		mov	r3, r8
 2406 00c6 C91A     		subs	r1, r1, r3
 2407 00c8 C9B2     		uxtb	r1, r1
 295:Core/Src/GEVA.c ****         uint16_t buffer_byte_ptr = start_byte_ptr;
 2408              		.loc 1 295 35 view .LVU704
 2409 00ca 227A     		ldrb	r2, [r4, #8]
ARM GAS  C:\Users\arist\AppData\Local\Temp\ccUERo53.s 			page 65


 2410 00cc 0139     		subs	r1, r1, #1
 2411 00ce C9B2     		uxtb	r1, r1
 2412 00d0 3800     		movs	r0, r7
 2413 00d2 FFF7FEFF 		bl	get_buffer_index
 2414              	.LVL229:
 2415 00d6 0490     		str	r0, [sp, #16]
 2416              	.LVL230:
 296:Core/Src/GEVA.c ****         int16_t initial_shift = modulo(endx_ptr - startx_ptr);
 2417              		.loc 1 296 9 is_stmt 1 view .LVU705
 297:Core/Src/GEVA.c ****         int16_t to_shift = initial_shift;
 2418              		.loc 1 297 9 view .LVU706
 297:Core/Src/GEVA.c ****         int16_t to_shift = initial_shift;
 2419              		.loc 1 297 49 is_stmt 0 view .LVU707
 2420 00d8 5B46     		mov	r3, fp
 2421 00da D81B     		subs	r0, r3, r7
 297:Core/Src/GEVA.c ****         int16_t to_shift = initial_shift;
 2422              		.loc 1 297 33 view .LVU708
 2423 00dc 40B2     		sxtb	r0, r0
 2424 00de FFF7FEFF 		bl	modulo
 2425              	.LVL231:
 2426 00e2 0590     		str	r0, [sp, #20]
 2427              	.LVL232:
 298:Core/Src/GEVA.c **** 
 2428              		.loc 1 298 9 is_stmt 1 view .LVU709
 300:Core/Src/GEVA.c ****         {
 2429              		.loc 1 300 9 view .LVU710
 2430              	.LBB26:
 300:Core/Src/GEVA.c ****         {
 2431              		.loc 1 300 14 view .LVU711
 300:Core/Src/GEVA.c ****         {
 2432              		.loc 1 300 22 is_stmt 0 view .LVU712
 2433 00e4 0025     		movs	r5, #0
 2434 00e6 4346     		mov	r3, r8
 2435 00e8 0393     		str	r3, [sp, #12]
 2436 00ea B846     		mov	r8, r7
 2437              	.LVL233:
 300:Core/Src/GEVA.c ****         {
 2438              		.loc 1 300 22 view .LVU713
 2439 00ec 4F46     		mov	r7, r9
 2440              	.LVL234:
 300:Core/Src/GEVA.c ****         {
 2441              		.loc 1 300 9 view .LVU714
 2442 00ee 80E0     		b	.L122
 2443              	.LVL235:
 2444              	.L116:
 300:Core/Src/GEVA.c ****         {
 2445              		.loc 1 300 9 view .LVU715
 2446              	.LBE26:
 2447              	.LBE25:
 253:Core/Src/GEVA.c ****         startx_ptr = n_pos_ptr[X];
 2448              		.loc 1 253 9 is_stmt 1 view .LVU716
 254:Core/Src/GEVA.c ****         starty_ptr = n_pos_ptr[Y];
 2449              		.loc 1 254 9 view .LVU717
 254:Core/Src/GEVA.c ****         starty_ptr = n_pos_ptr[Y];
 2450              		.loc 1 254 20 is_stmt 0 view .LVU718
 2451 00f0 019B     		ldr	r3, [sp, #4]
 2452 00f2 1F78     		ldrb	r7, [r3]
ARM GAS  C:\Users\arist\AppData\Local\Temp\ccUERo53.s 			page 66


 2453              	.LVL236:
 255:Core/Src/GEVA.c ****         endx_ptr = startx_ptr + width;
 2454              		.loc 1 255 9 is_stmt 1 view .LVU719
 255:Core/Src/GEVA.c ****         endx_ptr = startx_ptr + width;
 2455              		.loc 1 255 20 is_stmt 0 view .LVU720
 2456 00f4 5B78     		ldrb	r3, [r3, #1]
 2457 00f6 9846     		mov	r8, r3
 2458              	.LVL237:
 256:Core/Src/GEVA.c ****         endy_ptr = starty_ptr + height;
 2459              		.loc 1 256 9 is_stmt 1 view .LVU721
 256:Core/Src/GEVA.c ****         endy_ptr = starty_ptr + height;
 2460              		.loc 1 256 18 is_stmt 0 view .LVU722
 2461 00f8 039A     		ldr	r2, [sp, #12]
 2462 00fa D319     		adds	r3, r2, r7
 2463 00fc DBB2     		uxtb	r3, r3
 2464 00fe 9B46     		mov	fp, r3
 2465              	.LVL238:
 257:Core/Src/GEVA.c ****         break;
 2466              		.loc 1 257 9 is_stmt 1 view .LVU723
 257:Core/Src/GEVA.c ****         break;
 2467              		.loc 1 257 18 is_stmt 0 view .LVU724
 2468 0100 5346     		mov	r3, r10
 2469 0102 4344     		add	r3, r3, r8
 2470 0104 DBB2     		uxtb	r3, r3
 2471 0106 9946     		mov	r9, r3
 2472              	.LVL239:
 258:Core/Src/GEVA.c **** 
 2473              		.loc 1 258 9 is_stmt 1 view .LVU725
 253:Core/Src/GEVA.c ****         startx_ptr = n_pos_ptr[X];
 2474              		.loc 1 253 17 is_stmt 0 view .LVU726
 2475 0108 0292     		str	r2, [sp, #8]
 258:Core/Src/GEVA.c **** 
 2476              		.loc 1 258 9 view .LVU727
 2477 010a C9E7     		b	.L118
 2478              	.LVL240:
 2479              	.L114:
 269:Core/Src/GEVA.c ****         startx_ptr = n_pos_ptr[X] - height + 1;
 2480              		.loc 1 269 9 is_stmt 1 view .LVU728
 270:Core/Src/GEVA.c ****         starty_ptr = n_pos_ptr[Y];
 2481              		.loc 1 270 9 view .LVU729
 270:Core/Src/GEVA.c ****         starty_ptr = n_pos_ptr[Y];
 2482              		.loc 1 270 31 is_stmt 0 view .LVU730
 2483 010c 019A     		ldr	r2, [sp, #4]
 2484 010e 1378     		ldrb	r3, [r2]
 270:Core/Src/GEVA.c ****         starty_ptr = n_pos_ptr[Y];
 2485              		.loc 1 270 35 view .LVU731
 2486 0110 5146     		mov	r1, r10
 2487 0112 5F1A     		subs	r7, r3, r1
 2488 0114 FFB2     		uxtb	r7, r7
 270:Core/Src/GEVA.c ****         starty_ptr = n_pos_ptr[Y];
 2489              		.loc 1 270 20 view .LVU732
 2490 0116 0137     		adds	r7, r7, #1
 2491 0118 FFB2     		uxtb	r7, r7
 2492              	.LVL241:
 271:Core/Src/GEVA.c ****         endx_ptr = n_pos_ptr[X] + 1;
 2493              		.loc 1 271 9 is_stmt 1 view .LVU733
 271:Core/Src/GEVA.c ****         endx_ptr = n_pos_ptr[X] + 1;
ARM GAS  C:\Users\arist\AppData\Local\Temp\ccUERo53.s 			page 67


 2494              		.loc 1 271 20 is_stmt 0 view .LVU734
 2495 011a 5278     		ldrb	r2, [r2, #1]
 2496 011c 9046     		mov	r8, r2
 2497              	.LVL242:
 272:Core/Src/GEVA.c ****         endy_ptr = starty_ptr + width;
 2498              		.loc 1 272 9 is_stmt 1 view .LVU735
 272:Core/Src/GEVA.c ****         endy_ptr = starty_ptr + width;
 2499              		.loc 1 272 18 is_stmt 0 view .LVU736
 2500 011e 0133     		adds	r3, r3, #1
 2501 0120 DBB2     		uxtb	r3, r3
 2502 0122 9B46     		mov	fp, r3
 2503              	.LVL243:
 273:Core/Src/GEVA.c ****         break;
 2504              		.loc 1 273 9 is_stmt 1 view .LVU737
 273:Core/Src/GEVA.c ****         break;
 2505              		.loc 1 273 18 is_stmt 0 view .LVU738
 2506 0124 039B     		ldr	r3, [sp, #12]
 2507 0126 4344     		add	r3, r3, r8
 2508 0128 DBB2     		uxtb	r3, r3
 2509 012a 9946     		mov	r9, r3
 2510              	.LVL244:
 274:Core/Src/GEVA.c **** 
 2511              		.loc 1 274 9 is_stmt 1 view .LVU739
 269:Core/Src/GEVA.c ****         startx_ptr = n_pos_ptr[X] - height + 1;
 2512              		.loc 1 269 17 is_stmt 0 view .LVU740
 2513 012c 0291     		str	r1, [sp, #8]
 274:Core/Src/GEVA.c **** 
 2514              		.loc 1 274 9 view .LVU741
 2515 012e B7E7     		b	.L118
 2516              	.LVL245:
 2517              	.L142:
 2518              	.LBB29:
 2519              	.LBB27:
 306:Core/Src/GEVA.c ****                 
 2520              		.loc 1 306 17 is_stmt 1 view .LVU742
 306:Core/Src/GEVA.c ****                 
 2521              		.loc 1 306 26 is_stmt 0 view .LVU743
 2522 0130 0599     		ldr	r1, [sp, #20]
 2523 0132 8918     		adds	r1, r1, r2
 2524 0134 0839     		subs	r1, r1, #8
 2525 0136 09B2     		sxth	r1, r1
 2526              	.LVL246:
 308:Core/Src/GEVA.c ****                     buf->vid_buf[buffer_byte_ptr] &= 0xff << (8 - (startx_ptr % 8));
 2527              		.loc 1 308 17 is_stmt 1 view .LVU744
 308:Core/Src/GEVA.c ****                     buf->vid_buf[buffer_byte_ptr] &= 0xff << (8 - (startx_ptr % 8));
 2528              		.loc 1 308 23 is_stmt 0 view .LVU745
 2529 0138 207B     		ldrb	r0, [r4, #12]
 308:Core/Src/GEVA.c ****                     buf->vid_buf[buffer_byte_ptr] &= 0xff << (8 - (startx_ptr % 8));
 2530              		.loc 1 308 19 view .LVU746
 2531 013a 0028     		cmp	r0, #0
 2532 013c 0FD1     		bne	.L124
 309:Core/Src/GEVA.c ****                 else 
 2533              		.loc 1 309 21 is_stmt 1 view .LVU747
 309:Core/Src/GEVA.c ****                 else 
 2534              		.loc 1 309 24 is_stmt 0 view .LVU748
 2535 013e 6068     		ldr	r0, [r4, #4]
 309:Core/Src/GEVA.c ****                 else 
ARM GAS  C:\Users\arist\AppData\Local\Temp\ccUERo53.s 			page 68


 2536              		.loc 1 309 33 view .LVU749
 2537 0140 C65C     		ldrb	r6, [r0, r3]
 2538 0142 B446     		mov	ip, r6
 309:Core/Src/GEVA.c ****                 else 
 2539              		.loc 1 309 65 view .LVU750
 2540 0144 0826     		movs	r6, #8
 2541 0146 B21A     		subs	r2, r6, r2
 2542 0148 9146     		mov	r9, r2
 309:Core/Src/GEVA.c ****                 else 
 2543              		.loc 1 309 59 view .LVU751
 2544 014a FF22     		movs	r2, #255
 2545 014c 4E46     		mov	r6, r9
 2546 014e B240     		lsls	r2, r2, r6
 309:Core/Src/GEVA.c ****                 else 
 2547              		.loc 1 309 51 view .LVU752
 2548 0150 6646     		mov	r6, ip
 2549 0152 3240     		ands	r2, r6
 2550 0154 C254     		strb	r2, [r0, r3]
 2551              	.L125:
 313:Core/Src/GEVA.c ****                 
 2552              		.loc 1 313 17 is_stmt 1 view .LVU753
 313:Core/Src/GEVA.c ****                 
 2553              		.loc 1 313 32 is_stmt 0 view .LVU754
 2554 0156 0133     		adds	r3, r3, #1
 2555              	.LVL247:
 313:Core/Src/GEVA.c ****                 
 2556              		.loc 1 313 32 view .LVU755
 2557 0158 9BB2     		uxth	r3, r3
 2558              	.LVL248:
 315:Core/Src/GEVA.c ****                     if(buf->mode == NORMAL)
 2559              		.loc 1 315 17 is_stmt 1 view .LVU756
 2560 015a 039E     		ldr	r6, [sp, #12]
 315:Core/Src/GEVA.c ****                     if(buf->mode == NORMAL)
 2561              		.loc 1 315 23 is_stmt 0 view .LVU757
 2562 015c 0FE0     		b	.L126
 2563              	.L124:
 311:Core/Src/GEVA.c ****                 
 2564              		.loc 1 311 21 is_stmt 1 view .LVU758
 311:Core/Src/GEVA.c ****                 
 2565              		.loc 1 311 24 is_stmt 0 view .LVU759
 2566 015e 6068     		ldr	r0, [r4, #4]
 2567 0160 8146     		mov	r9, r0
 311:Core/Src/GEVA.c ****                 
 2568              		.loc 1 311 33 view .LVU760
 2569 0162 C05C     		ldrb	r0, [r0, r3]
 311:Core/Src/GEVA.c ****                 
 2570              		.loc 1 311 59 view .LVU761
 2571 0164 FF26     		movs	r6, #255
 2572 0166 1641     		asrs	r6, r6, r2
 311:Core/Src/GEVA.c ****                 
 2573              		.loc 1 311 51 view .LVU762
 2574 0168 3043     		orrs	r0, r6
 2575 016a 4A46     		mov	r2, r9
 2576 016c D054     		strb	r0, [r2, r3]
 2577 016e F2E7     		b	.L125
 2578              	.L127:
 319:Core/Src/GEVA.c ****                         
ARM GAS  C:\Users\arist\AppData\Local\Temp\ccUERo53.s 			page 69


 2579              		.loc 1 319 25 is_stmt 1 view .LVU763
 319:Core/Src/GEVA.c ****                         
 2580              		.loc 1 319 28 is_stmt 0 view .LVU764
 2581 0170 6268     		ldr	r2, [r4, #4]
 319:Core/Src/GEVA.c ****                         
 2582              		.loc 1 319 55 view .LVU765
 2583 0172 FF20     		movs	r0, #255
 2584 0174 D054     		strb	r0, [r2, r3]
 2585              	.L128:
 321:Core/Src/GEVA.c ****                     to_shift -= 8;
 2586              		.loc 1 321 21 is_stmt 1 view .LVU766
 321:Core/Src/GEVA.c ****                     to_shift -= 8;
 2587              		.loc 1 321 36 is_stmt 0 view .LVU767
 2588 0176 0133     		adds	r3, r3, #1
 2589              	.LVL249:
 321:Core/Src/GEVA.c ****                     to_shift -= 8;
 2590              		.loc 1 321 36 view .LVU768
 2591 0178 9BB2     		uxth	r3, r3
 2592              	.LVL250:
 322:Core/Src/GEVA.c ****                 }
 2593              		.loc 1 322 21 is_stmt 1 view .LVU769
 322:Core/Src/GEVA.c ****                 }
 2594              		.loc 1 322 30 is_stmt 0 view .LVU770
 2595 017a 0839     		subs	r1, r1, #8
 2596              	.LVL251:
 322:Core/Src/GEVA.c ****                 }
 2597              		.loc 1 322 30 view .LVU771
 2598 017c 09B2     		sxth	r1, r1
 2599              	.LVL252:
 2600              	.L126:
 315:Core/Src/GEVA.c ****                     if(buf->mode == NORMAL)
 2601              		.loc 1 315 33 is_stmt 1 view .LVU772
 2602 017e 0829     		cmp	r1, #8
 2603 0180 07DD     		ble	.L140
 316:Core/Src/GEVA.c ****                         buf->vid_buf[buffer_byte_ptr] = 0x00;
 2604              		.loc 1 316 21 view .LVU773
 316:Core/Src/GEVA.c ****                         buf->vid_buf[buffer_byte_ptr] = 0x00;
 2605              		.loc 1 316 27 is_stmt 0 view .LVU774
 2606 0182 227B     		ldrb	r2, [r4, #12]
 316:Core/Src/GEVA.c ****                         buf->vid_buf[buffer_byte_ptr] = 0x00;
 2607              		.loc 1 316 23 view .LVU775
 2608 0184 002A     		cmp	r2, #0
 2609 0186 F3D1     		bne	.L127
 317:Core/Src/GEVA.c ****                     else 
 2610              		.loc 1 317 25 is_stmt 1 view .LVU776
 317:Core/Src/GEVA.c ****                     else 
 2611              		.loc 1 317 28 is_stmt 0 view .LVU777
 2612 0188 6268     		ldr	r2, [r4, #4]
 317:Core/Src/GEVA.c ****                     else 
 2613              		.loc 1 317 37 view .LVU778
 2614 018a D218     		adds	r2, r2, r3
 317:Core/Src/GEVA.c ****                     else 
 2615              		.loc 1 317 55 view .LVU779
 2616 018c 0020     		movs	r0, #0
 2617 018e 1070     		strb	r0, [r2]
 2618 0190 F1E7     		b	.L128
 2619              	.L140:
ARM GAS  C:\Users\arist\AppData\Local\Temp\ccUERo53.s 			page 70


 325:Core/Src/GEVA.c ****                     buf->vid_buf[buffer_byte_ptr] &= 0xff >> to_shift;
 2620              		.loc 1 325 23 view .LVU780
 2621 0192 0396     		str	r6, [sp, #12]
 325:Core/Src/GEVA.c ****                     buf->vid_buf[buffer_byte_ptr] &= 0xff >> to_shift;
 2622              		.loc 1 325 17 is_stmt 1 view .LVU781
 325:Core/Src/GEVA.c ****                     buf->vid_buf[buffer_byte_ptr] &= 0xff >> to_shift;
 2623              		.loc 1 325 23 is_stmt 0 view .LVU782
 2624 0194 227B     		ldrb	r2, [r4, #12]
 325:Core/Src/GEVA.c ****                     buf->vid_buf[buffer_byte_ptr] &= 0xff >> to_shift;
 2625              		.loc 1 325 19 view .LVU783
 2626 0196 002A     		cmp	r2, #0
 2627 0198 08D1     		bne	.L130
 326:Core/Src/GEVA.c ****                 else 
 2628              		.loc 1 326 21 is_stmt 1 view .LVU784
 326:Core/Src/GEVA.c ****                 else 
 2629              		.loc 1 326 24 is_stmt 0 view .LVU785
 2630 019a 6068     		ldr	r0, [r4, #4]
 326:Core/Src/GEVA.c ****                 else 
 2631              		.loc 1 326 33 view .LVU786
 2632 019c C25C     		ldrb	r2, [r0, r3]
 2633 019e 9446     		mov	ip, r2
 326:Core/Src/GEVA.c ****                 else 
 2634              		.loc 1 326 59 view .LVU787
 2635 01a0 FF22     		movs	r2, #255
 2636 01a2 0A41     		asrs	r2, r2, r1
 326:Core/Src/GEVA.c ****                 else 
 2637              		.loc 1 326 51 view .LVU788
 2638 01a4 6146     		mov	r1, ip
 2639              	.LVL253:
 326:Core/Src/GEVA.c ****                 else 
 2640              		.loc 1 326 51 view .LVU789
 2641 01a6 0A40     		ands	r2, r1
 2642 01a8 C254     		strb	r2, [r0, r3]
 2643 01aa 20E0     		b	.L131
 2644              	.LVL254:
 2645              	.L130:
 328:Core/Src/GEVA.c ****             }
 2646              		.loc 1 328 21 is_stmt 1 view .LVU790
 328:Core/Src/GEVA.c ****             }
 2647              		.loc 1 328 24 is_stmt 0 view .LVU791
 2648 01ac 6068     		ldr	r0, [r4, #4]
 328:Core/Src/GEVA.c ****             }
 2649              		.loc 1 328 33 view .LVU792
 2650 01ae C25C     		ldrb	r2, [r0, r3]
 328:Core/Src/GEVA.c ****             }
 2651              		.loc 1 328 77 view .LVU793
 2652 01b0 0721     		movs	r1, #7
 2653              	.LVL255:
 328:Core/Src/GEVA.c ****             }
 2654              		.loc 1 328 77 view .LVU794
 2655 01b2 5E46     		mov	r6, fp
 2656 01b4 0E40     		ands	r6, r1
 328:Core/Src/GEVA.c ****             }
 2657              		.loc 1 328 65 view .LVU795
 2658 01b6 0131     		adds	r1, r1, #1
 2659 01b8 891B     		subs	r1, r1, r6
 2660 01ba 8C46     		mov	ip, r1
ARM GAS  C:\Users\arist\AppData\Local\Temp\ccUERo53.s 			page 71


 328:Core/Src/GEVA.c ****             }
 2661              		.loc 1 328 59 view .LVU796
 2662 01bc FF21     		movs	r1, #255
 2663 01be 6646     		mov	r6, ip
 2664 01c0 B140     		lsls	r1, r1, r6
 328:Core/Src/GEVA.c ****             }
 2665              		.loc 1 328 51 view .LVU797
 2666 01c2 0A43     		orrs	r2, r1
 2667 01c4 C254     		strb	r2, [r0, r3]
 2668 01c6 12E0     		b	.L131
 2669              	.LVL256:
 2670              	.L132:
 334:Core/Src/GEVA.c ****             }
 2671              		.loc 1 334 21 is_stmt 1 view .LVU798
 334:Core/Src/GEVA.c ****             }
 2672              		.loc 1 334 24 is_stmt 0 view .LVU799
 2673 01c8 6168     		ldr	r1, [r4, #4]
 2674 01ca 8946     		mov	r9, r1
 334:Core/Src/GEVA.c ****             }
 2675              		.loc 1 334 33 view .LVU800
 2676 01cc C85C     		ldrb	r0, [r1, r3]
 334:Core/Src/GEVA.c ****             }
 2677              		.loc 1 334 60 view .LVU801
 2678 01ce FF21     		movs	r1, #255
 2679 01d0 0E00     		movs	r6, r1
 2680 01d2 1641     		asrs	r6, r6, r2
 2681 01d4 B246     		mov	r10, r6
 334:Core/Src/GEVA.c ****             }
 2682              		.loc 1 334 105 view .LVU802
 2683 01d6 0722     		movs	r2, #7
 2684 01d8 5E46     		mov	r6, fp
 2685 01da 1640     		ands	r6, r2
 334:Core/Src/GEVA.c ****             }
 2686              		.loc 1 334 93 view .LVU803
 2687 01dc 0132     		adds	r2, r2, #1
 2688 01de 921B     		subs	r2, r2, r6
 334:Core/Src/GEVA.c ****             }
 2689              		.loc 1 334 87 view .LVU804
 2690 01e0 9140     		lsls	r1, r1, r2
 334:Core/Src/GEVA.c ****             }
 2691              		.loc 1 334 79 view .LVU805
 2692 01e2 5246     		mov	r2, r10
 2693 01e4 1140     		ands	r1, r2
 2694 01e6 49B2     		sxtb	r1, r1
 334:Core/Src/GEVA.c ****             }
 2695              		.loc 1 334 51 view .LVU806
 2696 01e8 0843     		orrs	r0, r1
 2697 01ea 4A46     		mov	r2, r9
 2698 01ec D054     		strb	r0, [r2, r3]
 2699              	.LVL257:
 2700              	.L131:
 300:Core/Src/GEVA.c ****         {
 2701              		.loc 1 300 86 is_stmt 1 discriminator 2 view .LVU807
 2702 01ee 0135     		adds	r5, r5, #1
 2703              	.LVL258:
 300:Core/Src/GEVA.c ****         {
 2704              		.loc 1 300 86 is_stmt 0 discriminator 2 view .LVU808
ARM GAS  C:\Users\arist\AppData\Local\Temp\ccUERo53.s 			page 72


 2705 01f0 EDB2     		uxtb	r5, r5
 2706              	.LVL259:
 2707              	.L122:
 300:Core/Src/GEVA.c ****         {
 2708              		.loc 1 300 45 is_stmt 1 discriminator 1 view .LVU809
 300:Core/Src/GEVA.c ****         {
 2709              		.loc 1 300 63 is_stmt 0 discriminator 1 view .LVU810
 2710 01f2 039B     		ldr	r3, [sp, #12]
 2711 01f4 F81A     		subs	r0, r7, r3
 300:Core/Src/GEVA.c ****         {
 2712              		.loc 1 300 47 discriminator 1 view .LVU811
 2713 01f6 40B2     		sxtb	r0, r0
 2714 01f8 FFF7FEFF 		bl	modulo
 2715              	.LVL260:
 300:Core/Src/GEVA.c ****         {
 2716              		.loc 1 300 45 discriminator 1 view .LVU812
 2717 01fc A842     		cmp	r0, r5
 2718 01fe 22D9     		bls	.L141
 302:Core/Src/GEVA.c ****             to_shift = initial_shift;
 2719              		.loc 1 302 13 is_stmt 1 view .LVU813
 302:Core/Src/GEVA.c ****             to_shift = initial_shift;
 2720              		.loc 1 302 52 is_stmt 0 view .LVU814
 2721 0200 237A     		ldrb	r3, [r4, #8]
 302:Core/Src/GEVA.c ****             to_shift = initial_shift;
 2722              		.loc 1 302 67 view .LVU815
 2723 0202 6B43     		muls	r3, r5
 302:Core/Src/GEVA.c ****             to_shift = initial_shift;
 2724              		.loc 1 302 29 view .LVU816
 2725 0204 049A     		ldr	r2, [sp, #16]
 2726 0206 D31A     		subs	r3, r2, r3
 2727 0208 9BB2     		uxth	r3, r3
 2728              	.LVL261:
 303:Core/Src/GEVA.c **** 
 2729              		.loc 1 303 13 is_stmt 1 view .LVU817
 305:Core/Src/GEVA.c ****                 to_shift -= (8 - (startx_ptr % 8));
 2730              		.loc 1 305 13 view .LVU818
 2731 020a 0722     		movs	r2, #7
 2732 020c 4146     		mov	r1, r8
 2733 020e 0A40     		ands	r2, r1
 305:Core/Src/GEVA.c ****                 to_shift -= (8 - (startx_ptr % 8));
 2734              		.loc 1 305 35 is_stmt 0 view .LVU819
 2735 0210 0299     		ldr	r1, [sp, #8]
 2736 0212 8918     		adds	r1, r1, r2
 305:Core/Src/GEVA.c ****                 to_shift -= (8 - (startx_ptr % 8));
 2737              		.loc 1 305 16 view .LVU820
 2738 0214 0729     		cmp	r1, #7
 2739 0216 8BDC     		bgt	.L142
 331:Core/Src/GEVA.c ****                     buf->vid_buf[buffer_byte_ptr] &= ~((0xff >> startx_ptr % 8) & (0xff << (8 - (en
 2740              		.loc 1 331 17 is_stmt 1 view .LVU821
 331:Core/Src/GEVA.c ****                     buf->vid_buf[buffer_byte_ptr] &= ~((0xff >> startx_ptr % 8) & (0xff << (8 - (en
 2741              		.loc 1 331 23 is_stmt 0 view .LVU822
 2742 0218 217B     		ldrb	r1, [r4, #12]
 331:Core/Src/GEVA.c ****                     buf->vid_buf[buffer_byte_ptr] &= ~((0xff >> startx_ptr % 8) & (0xff << (8 - (en
 2743              		.loc 1 331 19 view .LVU823
 2744 021a 0029     		cmp	r1, #0
 2745 021c D4D1     		bne	.L132
 332:Core/Src/GEVA.c ****                 else 
ARM GAS  C:\Users\arist\AppData\Local\Temp\ccUERo53.s 			page 73


 2746              		.loc 1 332 21 is_stmt 1 view .LVU824
 332:Core/Src/GEVA.c ****                 else 
 2747              		.loc 1 332 24 is_stmt 0 view .LVU825
 2748 021e 6168     		ldr	r1, [r4, #4]
 2749 0220 8946     		mov	r9, r1
 332:Core/Src/GEVA.c ****                 else 
 2750              		.loc 1 332 33 view .LVU826
 2751 0222 C85C     		ldrb	r0, [r1, r3]
 332:Core/Src/GEVA.c ****                 else 
 2752              		.loc 1 332 62 view .LVU827
 2753 0224 FF21     		movs	r1, #255
 2754 0226 0E00     		movs	r6, r1
 2755 0228 1641     		asrs	r6, r6, r2
 2756 022a B246     		mov	r10, r6
 332:Core/Src/GEVA.c ****                 else 
 2757              		.loc 1 332 107 view .LVU828
 2758 022c 0722     		movs	r2, #7
 2759 022e 5E46     		mov	r6, fp
 2760 0230 1640     		ands	r6, r2
 332:Core/Src/GEVA.c ****                 else 
 2761              		.loc 1 332 95 view .LVU829
 2762 0232 0132     		adds	r2, r2, #1
 2763 0234 921B     		subs	r2, r2, r6
 332:Core/Src/GEVA.c ****                 else 
 2764              		.loc 1 332 89 view .LVU830
 2765 0236 9140     		lsls	r1, r1, r2
 332:Core/Src/GEVA.c ****                 else 
 2766              		.loc 1 332 81 view .LVU831
 2767 0238 5246     		mov	r2, r10
 2768 023a 1140     		ands	r1, r2
 2769 023c 49B2     		sxtb	r1, r1
 332:Core/Src/GEVA.c ****                 else 
 2770              		.loc 1 332 51 view .LVU832
 2771 023e 8843     		bics	r0, r1
 2772 0240 4A46     		mov	r2, r9
 2773 0242 D054     		strb	r0, [r2, r3]
 2774 0244 D3E7     		b	.L131
 2775              	.LVL262:
 2776              	.L141:
 332:Core/Src/GEVA.c ****                 else 
 2777              		.loc 1 332 51 view .LVU833
 2778              	.LBE27:
 2779              	.LBE29:
 242:Core/Src/GEVA.c ****     uint8_t startx_ptr = 0; // pos_x;
 2780              		.loc 1 242 13 view .LVU834
 2781 0246 0024     		movs	r4, #0
 2782              	.LBB30:
 2783              	.LBB28:
 2784 0248 00E0     		b	.L121
 2785              	.LVL263:
 2786              	.L136:
 242:Core/Src/GEVA.c ****     uint8_t startx_ptr = 0; // pos_x;
 2787              		.loc 1 242 13 view .LVU835
 2788              	.LBE28:
 2789              	.LBE30:
 291:Core/Src/GEVA.c **** 
 2790              		.loc 1 291 15 view .LVU836
ARM GAS  C:\Users\arist\AppData\Local\Temp\ccUERo53.s 			page 74


 2791 024a 0224     		movs	r4, #2
 2792              	.LVL264:
 2793              	.L121:
 338:Core/Src/GEVA.c ****     return error;
 2794              		.loc 1 338 5 is_stmt 1 view .LVU837
 2795 024c 0198     		ldr	r0, [sp, #4]
 2796 024e FFF7FEFF 		bl	free
 2797              	.LVL265:
 339:Core/Src/GEVA.c **** }
 2798              		.loc 1 339 5 view .LVU838
 2799              	.L120:
 340:Core/Src/GEVA.c **** 
 2800              		.loc 1 340 1 is_stmt 0 view .LVU839
 2801 0252 2000     		movs	r0, r4
 2802 0254 07B0     		add	sp, sp, #28
 2803              		@ sp needed
 2804              	.LVL266:
 340:Core/Src/GEVA.c **** 
 2805              		.loc 1 340 1 view .LVU840
 2806 0256 F0BC     		pop	{r4, r5, r6, r7}
 2807 0258 BB46     		mov	fp, r7
 2808 025a B246     		mov	r10, r6
 2809 025c A946     		mov	r9, r5
 2810 025e A046     		mov	r8, r4
 2811 0260 F0BD     		pop	{r4, r5, r6, r7, pc}
 2812              	.LVL267:
 2813              	.L137:
 291:Core/Src/GEVA.c **** 
 2814              		.loc 1 291 15 view .LVU841
 2815 0262 0224     		movs	r4, #2
 2816 0264 F2E7     		b	.L121
 2817              	.L134:
 288:Core/Src/GEVA.c **** 
 2818              		.loc 1 288 16 view .LVU842
 2819 0266 0424     		movs	r4, #4
 2820 0268 F3E7     		b	.L120
 2821              	.L135:
 2822 026a 0424     		movs	r4, #4
 2823 026c F1E7     		b	.L120
 2824              		.cfi_endproc
 2825              	.LFE6:
 2827              		.global	__aeabi_idiv
 2828              		.section	.text.calculate_y,"ax",%progbits
 2829              		.align	1
 2830              		.global	calculate_y
 2831              		.syntax unified
 2832              		.code	16
 2833              		.thumb_func
 2835              	calculate_y:
 2836              	.LVL268:
 2837              	.LFB21:
 697:Core/Src/GEVA.c **** 
 698:Core/Src/GEVA.c **** uint8_t calculate_y(uint8_t x, uint8_t x0, uint8_t x1, uint8_t y0, uint8_t y1) {
 2838              		.loc 1 698 80 is_stmt 1 view -0
 2839              		.cfi_startproc
 2840              		@ args = 4, pretend = 0, frame = 0
 2841              		@ frame_needed = 0, uses_anonymous_args = 0
ARM GAS  C:\Users\arist\AppData\Local\Temp\ccUERo53.s 			page 75


 2842              		.loc 1 698 80 is_stmt 0 view .LVU844
 2843 0000 70B5     		push	{r4, r5, r6, lr}
 2844              		.cfi_def_cfa_offset 16
 2845              		.cfi_offset 4, -16
 2846              		.cfi_offset 5, -12
 2847              		.cfi_offset 6, -8
 2848              		.cfi_offset 14, -4
 2849 0002 1C00     		movs	r4, r3
 2850 0004 04AB     		add	r3, sp, #16
 2851              	.LVL269:
 2852              		.loc 1 698 80 view .LVU845
 2853 0006 1B78     		ldrb	r3, [r3]
 2854              	.LVL270:
 699:Core/Src/GEVA.c ****     return ((x - x0) * (y1 - y0) / (x1 - x0)) + y0;
 2855              		.loc 1 699 5 is_stmt 1 view .LVU846
 2856              		.loc 1 699 16 is_stmt 0 view .LVU847
 2857 0008 451A     		subs	r5, r0, r1
 2858              		.loc 1 699 28 view .LVU848
 2859 000a 181B     		subs	r0, r3, r4
 2860              	.LVL271:
 2861              		.loc 1 699 22 view .LVU849
 2862 000c 6843     		muls	r0, r5
 2863              		.loc 1 699 40 view .LVU850
 2864 000e 511A     		subs	r1, r2, r1
 2865              	.LVL272:
 2866              		.loc 1 699 34 view .LVU851
 2867 0010 FFF7FEFF 		bl	__aeabi_idiv
 2868              	.LVL273:
 2869              		.loc 1 699 47 view .LVU852
 2870 0014 2018     		adds	r0, r4, r0
 2871 0016 C0B2     		uxtb	r0, r0
 700:Core/Src/GEVA.c **** }
 2872              		.loc 1 700 1 view .LVU853
 2873              		@ sp needed
 2874 0018 70BD     		pop	{r4, r5, r6, pc}
 2875              		.cfi_endproc
 2876              	.LFE21:
 2878              		.section	.text.put_line,"ax",%progbits
 2879              		.align	1
 2880              		.global	put_line
 2881              		.syntax unified
 2882              		.code	16
 2883              		.thumb_func
 2885              	put_line:
 2886              	.LVL274:
 2887              	.LFB5:
 162:Core/Src/GEVA.c **** 
 2888              		.loc 1 162 101 is_stmt 1 view -0
 2889              		.cfi_startproc
 2890              		@ args = 4, pretend = 0, frame = 32
 2891              		@ frame_needed = 0, uses_anonymous_args = 0
 162:Core/Src/GEVA.c **** 
 2892              		.loc 1 162 101 is_stmt 0 view .LVU855
 2893 0000 F0B5     		push	{r4, r5, r6, r7, lr}
 2894              		.cfi_def_cfa_offset 20
 2895              		.cfi_offset 4, -20
 2896              		.cfi_offset 5, -16
ARM GAS  C:\Users\arist\AppData\Local\Temp\ccUERo53.s 			page 76


 2897              		.cfi_offset 6, -12
 2898              		.cfi_offset 7, -8
 2899              		.cfi_offset 14, -4
 2900 0002 DE46     		mov	lr, fp
 2901 0004 5746     		mov	r7, r10
 2902 0006 4E46     		mov	r6, r9
 2903 0008 4546     		mov	r5, r8
 2904 000a E0B5     		push	{r5, r6, r7, lr}
 2905              		.cfi_def_cfa_offset 36
 2906              		.cfi_offset 8, -36
 2907              		.cfi_offset 9, -32
 2908              		.cfi_offset 10, -28
 2909              		.cfi_offset 11, -24
 2910 000c 8BB0     		sub	sp, sp, #44
 2911              		.cfi_def_cfa_offset 80
 2912 000e 0790     		str	r0, [sp, #28]
 2913 0010 8A46     		mov	r10, r1
 2914 0012 1F00     		movs	r7, r3
 2915 0014 149B     		ldr	r3, [sp, #80]
 2916              	.LVL275:
 162:Core/Src/GEVA.c **** 
 2917              		.loc 1 162 101 view .LVU856
 2918 0016 9B46     		mov	fp, r3
 164:Core/Src/GEVA.c ****     uint8_t firstx = 0;
 2919              		.loc 1 164 5 is_stmt 1 view .LVU857
 2920              	.LVL276:
 165:Core/Src/GEVA.c ****     uint8_t lastx = 0;
 2921              		.loc 1 165 5 view .LVU858
 166:Core/Src/GEVA.c ****     uint8_t firsty = 0;
 2922              		.loc 1 166 5 view .LVU859
 167:Core/Src/GEVA.c ****     uint8_t lasty = 0;
 2923              		.loc 1 167 5 view .LVU860
 168:Core/Src/GEVA.c **** 
 2924              		.loc 1 168 5 view .LVU861
 170:Core/Src/GEVA.c **** 
 2925              		.loc 1 170 5 view .LVU862
 170:Core/Src/GEVA.c **** 
 2926              		.loc 1 170 8 is_stmt 0 view .LVU863
 2927 0018 9042     		cmp	r0, r2
 2928 001a 15D0     		beq	.L163
 2929              	.LBB31:
 187:Core/Src/GEVA.c ****             firstx = pos_x2;
 2930              		.loc 1 187 9 is_stmt 1 view .LVU864
 187:Core/Src/GEVA.c ****             firstx = pos_x2;
 2931              		.loc 1 187 12 is_stmt 0 view .LVU865
 2932 001c 079B     		ldr	r3, [sp, #28]
 2933 001e 9342     		cmp	r3, r2
 2934 0020 30D9     		bls	.L158
 191:Core/Src/GEVA.c ****         }
 2935              		.loc 1 191 19 view .LVU866
 2936 0022 0991     		str	r1, [sp, #36]
 190:Core/Src/GEVA.c ****             lasty = pos_y1;
 2937              		.loc 1 190 20 view .LVU867
 2938 0024 0697     		str	r7, [sp, #24]
 188:Core/Src/GEVA.c ****             lastx = pos_x1;
 2939              		.loc 1 188 20 view .LVU868
 2940 0026 0792     		str	r2, [sp, #28]
ARM GAS  C:\Users\arist\AppData\Local\Temp\ccUERo53.s 			page 77


 189:Core/Src/GEVA.c ****             firsty = pos_y2;
 2941              		.loc 1 189 19 view .LVU869
 2942 0028 1A00     		movs	r2, r3
 2943              	.LVL277:
 2944              	.L151:
 200:Core/Src/GEVA.c **** 
 2945              		.loc 1 200 9 is_stmt 1 view .LVU870
 200:Core/Src/GEVA.c **** 
 2946              		.loc 1 200 16 is_stmt 0 view .LVU871
 2947 002a 069B     		ldr	r3, [sp, #24]
 2948 002c 0999     		ldr	r1, [sp, #36]
 2949              	.LVL278:
 200:Core/Src/GEVA.c **** 
 2950              		.loc 1 200 16 view .LVU872
 2951 002e 8B42     		cmp	r3, r1
 2952 0030 2BD9     		bls	.L159
 2953 0032 0123     		movs	r3, #1
 2954 0034 5B42     		rsbs	r3, r3, #0
 2955 0036 1800     		movs	r0, r3
 2956              	.LVL279:
 2957              	.L152:
 202:Core/Src/GEVA.c ****         uint8_t nexty = 0;
 2958              		.loc 1 202 9 is_stmt 1 discriminator 4 view .LVU873
 203:Core/Src/GEVA.c ****         int8_t y_todrw = 0;
 2959              		.loc 1 203 9 discriminator 4 view .LVU874
 204:Core/Src/GEVA.c ****         uint8_t fill_y = 0;
 2960              		.loc 1 204 9 discriminator 4 view .LVU875
 205:Core/Src/GEVA.c **** 
 2961              		.loc 1 205 9 discriminator 4 view .LVU876
 207:Core/Src/GEVA.c **** 
 2962              		.loc 1 207 9 discriminator 4 view .LVU877
 2963              	.LBB32:
 207:Core/Src/GEVA.c **** 
 2964              		.loc 1 207 14 discriminator 4 view .LVU878
 207:Core/Src/GEVA.c **** 
 2965              		.loc 1 207 22 is_stmt 0 discriminator 4 view .LVU879
 2966 0038 079B     		ldr	r3, [sp, #28]
 2967              	.LBE32:
 2968              	.LBE31:
 164:Core/Src/GEVA.c ****     uint8_t firstx = 0;
 2969              		.loc 1 164 13 discriminator 4 view .LVU880
 2970 003a 0021     		movs	r1, #0
 2971 003c 0393     		str	r3, [sp, #12]
 2972 003e 0491     		str	r1, [sp, #16]
 2973 0040 D046     		mov	r8, r10
 2974 0042 8246     		mov	r10, r0
 2975 0044 0592     		str	r2, [sp, #20]
 2976              	.LBB36:
 2977              	.LBB33:
 207:Core/Src/GEVA.c **** 
 2978              		.loc 1 207 9 discriminator 4 view .LVU881
 2979 0046 4AE0     		b	.L153
 2980              	.LVL280:
 2981              	.L163:
 207:Core/Src/GEVA.c **** 
 2982              		.loc 1 207 9 discriminator 4 view .LVU882
 2983              	.LBE33:
ARM GAS  C:\Users\arist\AppData\Local\Temp\ccUERo53.s 			page 78


 2984              	.LBE36:
 2985              	.LBB37:
 172:Core/Src/GEVA.c **** 
 2986              		.loc 1 172 9 is_stmt 1 view .LVU883
 174:Core/Src/GEVA.c ****             line_lenght = (pos_y1 - pos_y2) + 1;
 2987              		.loc 1 174 9 view .LVU884
 174:Core/Src/GEVA.c ****             line_lenght = (pos_y1 - pos_y2) + 1;
 2988              		.loc 1 174 12 is_stmt 0 view .LVU885
 2989 0048 B942     		cmp	r1, r7
 2990 004a 13D9     		bls	.L146
 175:Core/Src/GEVA.c ****             firsty = pos_y2;
 2991              		.loc 1 175 13 is_stmt 1 view .LVU886
 175:Core/Src/GEVA.c ****             firsty = pos_y2;
 2992              		.loc 1 175 35 is_stmt 0 view .LVU887
 2993 004c CB1B     		subs	r3, r1, r7
 2994 004e DBB2     		uxtb	r3, r3
 175:Core/Src/GEVA.c ****             firsty = pos_y2;
 2995              		.loc 1 175 25 view .LVU888
 2996 0050 0133     		adds	r3, r3, #1
 2997 0052 DDB2     		uxtb	r5, r3
 2998              	.LVL281:
 176:Core/Src/GEVA.c ****         }
 2999              		.loc 1 176 13 is_stmt 1 view .LVU889
 3000              	.L147:
 182:Core/Src/GEVA.c ****             error = put_pixel(pos_x1, firsty + i, SET_C, buf);
 3001              		.loc 1 182 9 view .LVU890
 3002              	.LBB38:
 182:Core/Src/GEVA.c ****             error = put_pixel(pos_x1, firsty + i, SET_C, buf);
 3003              		.loc 1 182 14 view .LVU891
 182:Core/Src/GEVA.c ****             error = put_pixel(pos_x1, firsty + i, SET_C, buf);
 3004              		.loc 1 182 22 is_stmt 0 view .LVU892
 3005 0054 0024     		movs	r4, #0
 3006              	.LBE38:
 3007              	.LBE37:
 164:Core/Src/GEVA.c ****     uint8_t firstx = 0;
 3008              		.loc 1 164 13 view .LVU893
 3009 0056 0021     		movs	r1, #0
 3010              	.LVL282:
 164:Core/Src/GEVA.c ****     uint8_t firstx = 0;
 3011              		.loc 1 164 13 view .LVU894
 3012 0058 0800     		movs	r0, r1
 3013              	.LVL283:
 164:Core/Src/GEVA.c ****     uint8_t firstx = 0;
 3014              		.loc 1 164 13 view .LVU895
 3015 005a 079E     		ldr	r6, [sp, #28]
 3016              	.LVL284:
 3017              	.L148:
 3018              	.LBB41:
 3019              	.LBB39:
 182:Core/Src/GEVA.c ****             error = put_pixel(pos_x1, firsty + i, SET_C, buf);
 3020              		.loc 1 182 31 is_stmt 1 discriminator 1 view .LVU896
 3021 005c A542     		cmp	r5, r4
 3022 005e 0FD9     		bls	.L164
 183:Core/Src/GEVA.c ****         }
 3023              		.loc 1 183 13 discriminator 3 view .LVU897
 183:Core/Src/GEVA.c ****         }
 3024              		.loc 1 183 21 is_stmt 0 discriminator 3 view .LVU898
ARM GAS  C:\Users\arist\AppData\Local\Temp\ccUERo53.s 			page 79


 3025 0060 3919     		adds	r1, r7, r4
 3026 0062 C9B2     		uxtb	r1, r1
 3027 0064 5B46     		mov	r3, fp
 3028 0066 0122     		movs	r2, #1
 3029 0068 3000     		movs	r0, r6
 3030              	.LVL285:
 183:Core/Src/GEVA.c ****         }
 3031              		.loc 1 183 21 discriminator 3 view .LVU899
 3032 006a FFF7FEFF 		bl	put_pixel
 3033              	.LVL286:
 182:Core/Src/GEVA.c ****             error = put_pixel(pos_x1, firsty + i, SET_C, buf);
 3034              		.loc 1 182 47 is_stmt 1 discriminator 3 view .LVU900
 3035 006e 0134     		adds	r4, r4, #1
 3036              	.LVL287:
 182:Core/Src/GEVA.c ****             error = put_pixel(pos_x1, firsty + i, SET_C, buf);
 3037              		.loc 1 182 47 is_stmt 0 discriminator 3 view .LVU901
 3038 0070 E4B2     		uxtb	r4, r4
 3039              	.LVL288:
 182:Core/Src/GEVA.c ****             error = put_pixel(pos_x1, firsty + i, SET_C, buf);
 3040              		.loc 1 182 47 discriminator 3 view .LVU902
 3041 0072 F3E7     		b	.L148
 3042              	.LVL289:
 3043              	.L146:
 182:Core/Src/GEVA.c ****             error = put_pixel(pos_x1, firsty + i, SET_C, buf);
 3044              		.loc 1 182 47 discriminator 3 view .LVU903
 3045              	.LBE39:
 179:Core/Src/GEVA.c ****             firsty = pos_y1;
 3046              		.loc 1 179 13 is_stmt 1 view .LVU904
 179:Core/Src/GEVA.c ****             firsty = pos_y1;
 3047              		.loc 1 179 35 is_stmt 0 view .LVU905
 3048 0074 7B1A     		subs	r3, r7, r1
 3049 0076 DBB2     		uxtb	r3, r3
 179:Core/Src/GEVA.c ****             firsty = pos_y1;
 3050              		.loc 1 179 25 view .LVU906
 3051 0078 0133     		adds	r3, r3, #1
 3052 007a DDB2     		uxtb	r5, r3
 3053              	.LVL290:
 180:Core/Src/GEVA.c ****         }
 3054              		.loc 1 180 13 is_stmt 1 view .LVU907
 180:Core/Src/GEVA.c ****         }
 3055              		.loc 1 180 20 is_stmt 0 view .LVU908
 3056 007c 0F00     		movs	r7, r1
 3057 007e E9E7     		b	.L147
 3058              	.LVL291:
 3059              	.L164:
 3060              	.LBB40:
 180:Core/Src/GEVA.c ****         }
 3061              		.loc 1 180 20 view .LVU909
 3062 0080 0100     		movs	r1, r0
 3063 0082 22E0     		b	.L150
 3064              	.LVL292:
 3065              	.L158:
 180:Core/Src/GEVA.c ****         }
 3066              		.loc 1 180 20 view .LVU910
 3067              	.LBE40:
 3068              	.LBE41:
 3069              	.LBB42:
ARM GAS  C:\Users\arist\AppData\Local\Temp\ccUERo53.s 			page 80


 197:Core/Src/GEVA.c ****         }
 3070              		.loc 1 197 19 view .LVU911
 3071 0084 0997     		str	r7, [sp, #36]
 196:Core/Src/GEVA.c ****             lasty = pos_y2;
 3072              		.loc 1 196 20 view .LVU912
 3073 0086 0691     		str	r1, [sp, #24]
 3074 0088 CFE7     		b	.L151
 3075              	.LVL293:
 3076              	.L159:
 200:Core/Src/GEVA.c **** 
 3077              		.loc 1 200 16 view .LVU913
 3078 008a 0123     		movs	r3, #1
 3079 008c 1800     		movs	r0, r3
 3080              	.LVL294:
 200:Core/Src/GEVA.c **** 
 3081              		.loc 1 200 16 view .LVU914
 3082 008e D3E7     		b	.L152
 3083              	.LVL295:
 3084              	.L154:
 3085              	.LBB34:
 219:Core/Src/GEVA.c ****                fill_y++;
 3086              		.loc 1 219 16 is_stmt 1 view .LVU915
 219:Core/Src/GEVA.c ****                fill_y++;
 3087              		.loc 1 219 24 is_stmt 0 view .LVU916
 3088 0090 E9B2     		uxtb	r1, r5
 3089 0092 5B46     		mov	r3, fp
 3090 0094 0122     		movs	r2, #1
 3091 0096 0398     		ldr	r0, [sp, #12]
 3092 0098 FFF7FEFF 		bl	put_pixel
 3093              	.LVL296:
 3094 009c 0490     		str	r0, [sp, #16]
 3095              	.LVL297:
 220:Core/Src/GEVA.c **** 
 3096              		.loc 1 220 16 is_stmt 1 view .LVU917
 220:Core/Src/GEVA.c **** 
 3097              		.loc 1 220 22 is_stmt 0 view .LVU918
 3098 009e 0134     		adds	r4, r4, #1
 3099              	.LVL298:
 220:Core/Src/GEVA.c **** 
 3100              		.loc 1 220 22 view .LVU919
 3101 00a0 E4B2     		uxtb	r4, r4
 3102              	.LVL299:
 222:Core/Src/GEVA.c ****                    return error;
 3103              		.loc 1 222 16 is_stmt 1 view .LVU920
 222:Core/Src/GEVA.c ****                    return error;
 3104              		.loc 1 222 19 is_stmt 0 view .LVU921
 3105 00a2 BD42     		cmp	r5, r7
 3106 00a4 0ED0     		beq	.L165
 3107              	.L155:
 225:Core/Src/GEVA.c ****         }
 3108              		.loc 1 225 30 is_stmt 1 view .LVU922
 225:Core/Src/GEVA.c ****         }
 3109              		.loc 1 225 41 is_stmt 0 view .LVU923
 3110 00a6 4B46     		mov	r3, r9
 3111 00a8 F01A     		subs	r0, r6, r3
 3112              	.LVL300:
 225:Core/Src/GEVA.c ****         }
ARM GAS  C:\Users\arist\AppData\Local\Temp\ccUERo53.s 			page 81


 3113              		.loc 1 225 32 view .LVU924
 3114 00aa 40B2     		sxtb	r0, r0
 3115 00ac FFF7FEFF 		bl	modulo
 3116              	.LVL301:
 225:Core/Src/GEVA.c ****         }
 3117              		.loc 1 225 30 view .LVU925
 3118 00b0 A042     		cmp	r0, r4
 3119 00b2 12D9     		bls	.L166
 3120              	.LVL302:
 3121              	.L156:
 213:Core/Src/GEVA.c ****                y_todrw = y + (slope_addendum * fill_y);
 3122              		.loc 1 213 13 is_stmt 1 view .LVU926
 214:Core/Src/GEVA.c ****               
 3123              		.loc 1 214 16 view .LVU927
 214:Core/Src/GEVA.c ****               
 3124              		.loc 1 214 28 is_stmt 0 view .LVU928
 3125 00b4 5346     		mov	r3, r10
 3126 00b6 6343     		muls	r3, r4
 3127 00b8 F318     		adds	r3, r6, r3
 214:Core/Src/GEVA.c ****               
 3128              		.loc 1 214 24 view .LVU929
 3129 00ba 5DB2     		sxtb	r5, r3
 3130              	.LVL303:
 216:Core/Src/GEVA.c ****                    y_todrw = 0;
 3131              		.loc 1 216 16 is_stmt 1 view .LVU930
 216:Core/Src/GEVA.c ****                    y_todrw = 0;
 3132              		.loc 1 216 19 is_stmt 0 view .LVU931
 3133 00bc 1B06     		lsls	r3, r3, #24
 3134 00be E7D5     		bpl	.L154
 217:Core/Src/GEVA.c **** 
 3135              		.loc 1 217 28 view .LVU932
 3136 00c0 0025     		movs	r5, #0
 3137              	.LVL304:
 217:Core/Src/GEVA.c **** 
 3138              		.loc 1 217 28 view .LVU933
 3139 00c2 E5E7     		b	.L154
 3140              	.LVL305:
 3141              	.L165:
 222:Core/Src/GEVA.c ****                    return error;
 3142              		.loc 1 222 38 discriminator 1 view .LVU934
 3143 00c4 B845     		cmp	r8, r7
 3144 00c6 EED0     		beq	.L155
 3145 00c8 0499     		ldr	r1, [sp, #16]
 3146              	.LVL306:
 3147              	.L150:
 222:Core/Src/GEVA.c ****                    return error;
 3148              		.loc 1 222 38 discriminator 1 view .LVU935
 3149              	.LBE34:
 3150              	.LBE42:
 229:Core/Src/GEVA.c **** 
 3151              		.loc 1 229 1 view .LVU936
 3152 00ca 0800     		movs	r0, r1
 3153 00cc 0BB0     		add	sp, sp, #44
 3154              		@ sp needed
 3155 00ce F0BC     		pop	{r4, r5, r6, r7}
 3156 00d0 BB46     		mov	fp, r7
 3157 00d2 B246     		mov	r10, r6
ARM GAS  C:\Users\arist\AppData\Local\Temp\ccUERo53.s 			page 82


 3158 00d4 A946     		mov	r9, r5
 3159 00d6 A046     		mov	r8, r4
 3160 00d8 F0BD     		pop	{r4, r5, r6, r7, pc}
 3161              	.LVL307:
 3162              	.L166:
 3163              	.LBB43:
 3164              	.LBB35:
 207:Core/Src/GEVA.c **** 
 3165              		.loc 1 207 50 view .LVU937
 3166 00da 089B     		ldr	r3, [sp, #32]
 3167 00dc 0393     		str	r3, [sp, #12]
 3168              	.LVL308:
 3169              	.L153:
 207:Core/Src/GEVA.c **** 
 3170              		.loc 1 207 36 is_stmt 1 discriminator 1 view .LVU938
 3171 00de 059B     		ldr	r3, [sp, #20]
 3172 00e0 039A     		ldr	r2, [sp, #12]
 3173 00e2 9342     		cmp	r3, r2
 3174 00e4 16D3     		bcc	.L167
 209:Core/Src/GEVA.c ****             nexty = calculate_y(x + 1, firstx, lastx, firsty, lasty);
 3175              		.loc 1 209 13 view .LVU939
 209:Core/Src/GEVA.c ****             nexty = calculate_y(x + 1, firstx, lastx, firsty, lasty);
 3176              		.loc 1 209 17 is_stmt 0 view .LVU940
 3177 00e6 099C     		ldr	r4, [sp, #36]
 3178 00e8 0094     		str	r4, [sp]
 3179 00ea 069B     		ldr	r3, [sp, #24]
 3180 00ec 059A     		ldr	r2, [sp, #20]
 3181 00ee 0799     		ldr	r1, [sp, #28]
 3182 00f0 8946     		mov	r9, r1
 3183 00f2 039D     		ldr	r5, [sp, #12]
 3184 00f4 2800     		movs	r0, r5
 3185 00f6 FFF7FEFF 		bl	calculate_y
 3186              	.LVL309:
 3187 00fa 0600     		movs	r6, r0
 3188              	.LVL310:
 210:Core/Src/GEVA.c ****             fill_y = 0;
 3189              		.loc 1 210 13 is_stmt 1 view .LVU941
 210:Core/Src/GEVA.c ****             fill_y = 0;
 3190              		.loc 1 210 21 is_stmt 0 view .LVU942
 3191 00fc 6B1C     		adds	r3, r5, #1
 3192 00fe D8B2     		uxtb	r0, r3
 3193 0100 0890     		str	r0, [sp, #32]
 3194 0102 0094     		str	r4, [sp]
 3195 0104 069B     		ldr	r3, [sp, #24]
 3196 0106 059A     		ldr	r2, [sp, #20]
 3197 0108 4946     		mov	r1, r9
 3198 010a FFF7FEFF 		bl	calculate_y
 3199              	.LVL311:
 3200 010e 8146     		mov	r9, r0
 3201              	.LVL312:
 211:Core/Src/GEVA.c **** 
 3202              		.loc 1 211 13 is_stmt 1 view .LVU943
 211:Core/Src/GEVA.c **** 
 3203              		.loc 1 211 20 is_stmt 0 view .LVU944
 3204 0110 0024     		movs	r4, #0
 3205 0112 CFE7     		b	.L156
 3206              	.LVL313:
ARM GAS  C:\Users\arist\AppData\Local\Temp\ccUERo53.s 			page 83


 3207              	.L167:
 211:Core/Src/GEVA.c **** 
 3208              		.loc 1 211 20 view .LVU945
 3209 0114 0499     		ldr	r1, [sp, #16]
 3210 0116 D8E7     		b	.L150
 3211              	.LBE35:
 3212              	.LBE43:
 3213              		.cfi_endproc
 3214              	.LFE5:
 3216              		.section	.text.put_rect,"ax",%progbits
 3217              		.align	1
 3218              		.global	put_rect
 3219              		.syntax unified
 3220              		.code	16
 3221              		.thumb_func
 3223              	put_rect:
 3224              	.LVL314:
 3225              	.LFB11:
 537:Core/Src/GEVA.c ****     uint8_t error = 0;
 3226              		.loc 1 537 92 is_stmt 1 view -0
 3227              		.cfi_startproc
 3228              		@ args = 4, pretend = 0, frame = 0
 3229              		@ frame_needed = 0, uses_anonymous_args = 0
 537:Core/Src/GEVA.c ****     uint8_t error = 0;
 3230              		.loc 1 537 92 is_stmt 0 view .LVU947
 3231 0000 F0B5     		push	{r4, r5, r6, r7, lr}
 3232              		.cfi_def_cfa_offset 20
 3233              		.cfi_offset 4, -20
 3234              		.cfi_offset 5, -16
 3235              		.cfi_offset 6, -12
 3236              		.cfi_offset 7, -8
 3237              		.cfi_offset 14, -4
 3238 0002 C646     		mov	lr, r8
 3239 0004 00B5     		push	{lr}
 3240              		.cfi_def_cfa_offset 24
 3241              		.cfi_offset 8, -24
 3242 0006 82B0     		sub	sp, sp, #8
 3243              		.cfi_def_cfa_offset 32
 3244 0008 0700     		movs	r7, r0
 3245 000a 8846     		mov	r8, r1
 3246 000c 1C00     		movs	r4, r3
 3247 000e 089D     		ldr	r5, [sp, #32]
 538:Core/Src/GEVA.c ****     error = put_line(o_x, o_y, o_x + width, o_y, buf);
 3248              		.loc 1 538 5 is_stmt 1 view .LVU948
 3249              	.LVL315:
 539:Core/Src/GEVA.c ****     error = put_line(o_x + width, o_y, o_x + width, o_y + height, buf);
 3250              		.loc 1 539 5 view .LVU949
 539:Core/Src/GEVA.c ****     error = put_line(o_x + width, o_y, o_x + width, o_y + height, buf);
 3251              		.loc 1 539 13 is_stmt 0 view .LVU950
 3252 0010 8218     		adds	r2, r0, r2
 3253              	.LVL316:
 539:Core/Src/GEVA.c ****     error = put_line(o_x + width, o_y, o_x + width, o_y + height, buf);
 3254              		.loc 1 539 13 view .LVU951
 3255 0012 D6B2     		uxtb	r6, r2
 3256 0014 0095     		str	r5, [sp]
 3257 0016 0B00     		movs	r3, r1
 3258              	.LVL317:
ARM GAS  C:\Users\arist\AppData\Local\Temp\ccUERo53.s 			page 84


 539:Core/Src/GEVA.c ****     error = put_line(o_x + width, o_y, o_x + width, o_y + height, buf);
 3259              		.loc 1 539 13 view .LVU952
 3260 0018 3200     		movs	r2, r6
 3261 001a FFF7FEFF 		bl	put_line
 3262              	.LVL318:
 540:Core/Src/GEVA.c ****     error = put_line(o_x, o_y + height, o_x + width, o_y + height, buf);
 3263              		.loc 1 540 5 is_stmt 1 view .LVU953
 540:Core/Src/GEVA.c ****     error = put_line(o_x, o_y + height, o_x + width, o_y + height, buf);
 3264              		.loc 1 540 13 is_stmt 0 view .LVU954
 3265 001e 4444     		add	r4, r4, r8
 3266 0020 E4B2     		uxtb	r4, r4
 3267 0022 0095     		str	r5, [sp]
 3268 0024 2300     		movs	r3, r4
 3269 0026 3200     		movs	r2, r6
 3270 0028 4146     		mov	r1, r8
 3271 002a 3000     		movs	r0, r6
 3272 002c FFF7FEFF 		bl	put_line
 3273              	.LVL319:
 541:Core/Src/GEVA.c ****     error = put_line(o_x, o_y, o_x, o_y + height, buf);
 3274              		.loc 1 541 5 is_stmt 1 view .LVU955
 541:Core/Src/GEVA.c ****     error = put_line(o_x, o_y, o_x, o_y + height, buf);
 3275              		.loc 1 541 13 is_stmt 0 view .LVU956
 3276 0030 0095     		str	r5, [sp]
 3277 0032 2300     		movs	r3, r4
 3278 0034 3200     		movs	r2, r6
 3279 0036 2100     		movs	r1, r4
 3280 0038 3800     		movs	r0, r7
 3281 003a FFF7FEFF 		bl	put_line
 3282              	.LVL320:
 542:Core/Src/GEVA.c ****     return error;
 3283              		.loc 1 542 5 is_stmt 1 view .LVU957
 542:Core/Src/GEVA.c ****     return error;
 3284              		.loc 1 542 13 is_stmt 0 view .LVU958
 3285 003e 0095     		str	r5, [sp]
 3286 0040 2300     		movs	r3, r4
 3287 0042 3A00     		movs	r2, r7
 3288 0044 4146     		mov	r1, r8
 3289 0046 3800     		movs	r0, r7
 3290 0048 FFF7FEFF 		bl	put_line
 3291              	.LVL321:
 543:Core/Src/GEVA.c **** }
 3292              		.loc 1 543 5 is_stmt 1 view .LVU959
 544:Core/Src/GEVA.c **** 
 3293              		.loc 1 544 1 is_stmt 0 view .LVU960
 3294 004c 02B0     		add	sp, sp, #8
 3295              		@ sp needed
 3296 004e 80BC     		pop	{r7}
 3297 0050 B846     		mov	r8, r7
 3298 0052 F0BD     		pop	{r4, r5, r6, r7, pc}
 3299              		.cfi_endproc
 3300              	.LFE11:
 3302              		.section	.text.put_triangle,"ax",%progbits
 3303              		.align	1
 3304              		.global	put_triangle
 3305              		.syntax unified
 3306              		.code	16
 3307              		.thumb_func
ARM GAS  C:\Users\arist\AppData\Local\Temp\ccUERo53.s 			page 85


 3309              	put_triangle:
 3310              	.LVL322:
 3311              	.LFB12:
 551:Core/Src/GEVA.c ****     uint8_t error = 0;
 3312              		.loc 1 551 119 is_stmt 1 view -0
 3313              		.cfi_startproc
 3314              		@ args = 12, pretend = 0, frame = 0
 3315              		@ frame_needed = 0, uses_anonymous_args = 0
 551:Core/Src/GEVA.c ****     uint8_t error = 0;
 3316              		.loc 1 551 119 is_stmt 0 view .LVU962
 3317 0000 F0B5     		push	{r4, r5, r6, r7, lr}
 3318              		.cfi_def_cfa_offset 20
 3319              		.cfi_offset 4, -20
 3320              		.cfi_offset 5, -16
 3321              		.cfi_offset 6, -12
 3322              		.cfi_offset 7, -8
 3323              		.cfi_offset 14, -4
 3324 0002 D646     		mov	lr, r10
 3325 0004 4F46     		mov	r7, r9
 3326 0006 4646     		mov	r6, r8
 3327 0008 C0B5     		push	{r6, r7, lr}
 3328              		.cfi_def_cfa_offset 32
 3329              		.cfi_offset 8, -32
 3330              		.cfi_offset 9, -28
 3331              		.cfi_offset 10, -24
 3332 000a 82B0     		sub	sp, sp, #8
 3333              		.cfi_def_cfa_offset 40
 3334 000c 0600     		movs	r6, r0
 3335 000e 8846     		mov	r8, r1
 3336 0010 1400     		movs	r4, r2
 3337 0012 1D00     		movs	r5, r3
 3338 0014 0AAB     		add	r3, sp, #40
 3339              	.LVL323:
 551:Core/Src/GEVA.c ****     uint8_t error = 0;
 3340              		.loc 1 551 119 view .LVU963
 3341 0016 1B78     		ldrb	r3, [r3]
 3342              	.LVL324:
 551:Core/Src/GEVA.c ****     uint8_t error = 0;
 3343              		.loc 1 551 119 view .LVU964
 3344 0018 9946     		mov	r9, r3
 3345 001a 0BAB     		add	r3, sp, #44
 3346              	.LVL325:
 551:Core/Src/GEVA.c ****     uint8_t error = 0;
 3347              		.loc 1 551 119 view .LVU965
 3348 001c 1B78     		ldrb	r3, [r3]
 3349              	.LVL326:
 551:Core/Src/GEVA.c ****     uint8_t error = 0;
 3350              		.loc 1 551 119 view .LVU966
 3351 001e 9A46     		mov	r10, r3
 3352 0020 0C9F     		ldr	r7, [sp, #48]
 552:Core/Src/GEVA.c ****     error = put_line(a_x, a_y, b_x, b_y, buf);
 3353              		.loc 1 552 5 is_stmt 1 view .LVU967
 3354              	.LVL327:
 553:Core/Src/GEVA.c ****     error = put_line(a_x, a_y, c_x, c_y, buf);
 3355              		.loc 1 553 5 view .LVU968
 553:Core/Src/GEVA.c ****     error = put_line(a_x, a_y, c_x, c_y, buf);
 3356              		.loc 1 553 13 is_stmt 0 view .LVU969
ARM GAS  C:\Users\arist\AppData\Local\Temp\ccUERo53.s 			page 86


 3357 0022 0097     		str	r7, [sp]
 3358 0024 2B00     		movs	r3, r5
 3359 0026 FFF7FEFF 		bl	put_line
 3360              	.LVL328:
 554:Core/Src/GEVA.c ****     error = put_line(b_x, b_y, c_x, c_y, buf);
 3361              		.loc 1 554 5 is_stmt 1 view .LVU970
 554:Core/Src/GEVA.c ****     error = put_line(b_x, b_y, c_x, c_y, buf);
 3362              		.loc 1 554 13 is_stmt 0 view .LVU971
 3363 002a 0097     		str	r7, [sp]
 3364 002c 5346     		mov	r3, r10
 3365 002e 4A46     		mov	r2, r9
 3366 0030 4146     		mov	r1, r8
 3367 0032 3000     		movs	r0, r6
 3368 0034 FFF7FEFF 		bl	put_line
 3369              	.LVL329:
 555:Core/Src/GEVA.c ****     return error;
 3370              		.loc 1 555 5 is_stmt 1 view .LVU972
 555:Core/Src/GEVA.c ****     return error;
 3371              		.loc 1 555 13 is_stmt 0 view .LVU973
 3372 0038 0097     		str	r7, [sp]
 3373 003a 5346     		mov	r3, r10
 3374 003c 4A46     		mov	r2, r9
 3375 003e 2900     		movs	r1, r5
 3376 0040 2000     		movs	r0, r4
 3377 0042 FFF7FEFF 		bl	put_line
 3378              	.LVL330:
 556:Core/Src/GEVA.c **** }
 3379              		.loc 1 556 5 is_stmt 1 view .LVU974
 557:Core/Src/GEVA.c **** 
 3380              		.loc 1 557 1 is_stmt 0 view .LVU975
 3381 0046 02B0     		add	sp, sp, #8
 3382              		@ sp needed
 3383 0048 E0BC     		pop	{r5, r6, r7}
 3384 004a BA46     		mov	r10, r7
 3385 004c B146     		mov	r9, r6
 3386 004e A846     		mov	r8, r5
 3387 0050 F0BD     		pop	{r4, r5, r6, r7, pc}
 3388              		.cfi_endproc
 3389              	.LFE12:
 3391              		.global	__aeabi_fcmpeq
 3392              		.global	__aeabi_fcmple
 3393              		.global	__aeabi_i2f
 3394              		.global	__aeabi_fadd
 3395              		.global	__aeabi_fcmpge
 3396              		.global	__aeabi_fcmpgt
 3397              		.global	__aeabi_fmul
 3398              		.global	__aeabi_fdiv
 3399              		.global	__aeabi_f2uiz
 3400              		.section	.text.put_pos_COL,"ax",%progbits
 3401              		.align	1
 3402              		.global	put_pos_COL
 3403              		.syntax unified
 3404              		.code	16
 3405              		.thumb_func
 3407              	put_pos_COL:
 3408              	.LVL331:
 3409              	.LFB22:
ARM GAS  C:\Users\arist\AppData\Local\Temp\ccUERo53.s 			page 87


 701:Core/Src/GEVA.c **** 
 702:Core/Src/GEVA.c **** /* Draw only positive column chart
 703:Core/Src/GEVA.c ****  * return error code
 704:Core/Src/GEVA.c ****  * error code list:
 705:Core/Src/GEVA.c ****  * 1 data out of range
 706:Core/Src/GEVA.c ****  * 2 dimension mismatch
 707:Core/Src/GEVA.c ****  * 3 chart not defined
 708:Core/Src/GEVA.c ****  * 4 starting point out of scope
 709:Core/Src/GEVA.c **** */
 710:Core/Src/GEVA.c **** uint8_t put_pos_COL(data_container* c, video_buffer* buf) {
 3410              		.loc 1 710 59 is_stmt 1 view -0
 3411              		.cfi_startproc
 3412              		@ args = 0, pretend = 0, frame = 0
 3413              		@ frame_needed = 0, uses_anonymous_args = 0
 3414              		.loc 1 710 59 is_stmt 0 view .LVU977
 3415 0000 F0B5     		push	{r4, r5, r6, r7, lr}
 3416              		.cfi_def_cfa_offset 20
 3417              		.cfi_offset 4, -20
 3418              		.cfi_offset 5, -16
 3419              		.cfi_offset 6, -12
 3420              		.cfi_offset 7, -8
 3421              		.cfi_offset 14, -4
 3422 0002 C646     		mov	lr, r8
 3423 0004 00B5     		push	{lr}
 3424              		.cfi_def_cfa_offset 24
 3425              		.cfi_offset 8, -24
 3426 0006 82B0     		sub	sp, sp, #8
 3427              		.cfi_def_cfa_offset 32
 3428 0008 0400     		movs	r4, r0
 3429 000a 0D00     		movs	r5, r1
 711:Core/Src/GEVA.c **** 
 712:Core/Src/GEVA.c ****     uint8_t error = 1;
 3430              		.loc 1 712 5 is_stmt 1 view .LVU978
 3431              	.LVL332:
 713:Core/Src/GEVA.c **** 
 714:Core/Src/GEVA.c ****     if (c->max == 0 || c->dim_x == 0 || c->dim_y_pos == 0 || c->max <= c->min)
 3432              		.loc 1 714 5 view .LVU979
 3433              		.loc 1 714 10 is_stmt 0 view .LVU980
 3434 000c 8668     		ldr	r6, [r0, #8]
 3435              		.loc 1 714 8 view .LVU981
 3436 000e 0021     		movs	r1, #0
 3437              	.LVL333:
 3438              		.loc 1 714 8 view .LVU982
 3439 0010 301C     		adds	r0, r6, #0
 3440              	.LVL334:
 3441              		.loc 1 714 8 view .LVU983
 3442 0012 FFF7FEFF 		bl	__aeabi_fcmpeq
 3443              	.LVL335:
 3444 0016 0028     		cmp	r0, #0
 3445 0018 53D1     		bne	.L177
 3446              		.loc 1 714 25 discriminator 1 view .LVU984
 3447 001a E778     		ldrb	r7, [r4, #3]
 3448              		.loc 1 714 21 discriminator 1 view .LVU985
 3449 001c 002F     		cmp	r7, #0
 3450 001e 56D0     		beq	.L178
 3451              		.loc 1 714 42 discriminator 2 view .LVU986
 3452 0020 2379     		ldrb	r3, [r4, #4]
ARM GAS  C:\Users\arist\AppData\Local\Temp\ccUERo53.s 			page 88


 3453 0022 9846     		mov	r8, r3
 3454              		.loc 1 714 38 discriminator 2 view .LVU987
 3455 0024 002B     		cmp	r3, #0
 3456 0026 54D0     		beq	.L179
 3457              		.loc 1 714 73 discriminator 3 view .LVU988
 3458 0028 E168     		ldr	r1, [r4, #12]
 3459              		.loc 1 714 59 discriminator 3 view .LVU989
 3460 002a 301C     		adds	r0, r6, #0
 3461 002c FFF7FEFF 		bl	__aeabi_fcmple
 3462              	.LVL336:
 3463 0030 0028     		cmp	r0, #0
 3464 0032 01D0     		beq	.L186
 715:Core/Src/GEVA.c ****         error = 3;
 3465              		.loc 1 715 15 view .LVU990
 3466 0034 0326     		movs	r6, #3
 3467 0036 45E0     		b	.L171
 3468              	.L186:
 716:Core/Src/GEVA.c **** 
 717:Core/Src/GEVA.c ****     else {
 718:Core/Src/GEVA.c ****         error = clear_sector(c->o_x, c->o_y, c->dim_x, c->dim_y_pos, buf); //limits check within cl
 3469              		.loc 1 718 9 is_stmt 1 view .LVU991
 3470              		.loc 1 718 17 is_stmt 0 view .LVU992
 3471 0038 6178     		ldrb	r1, [r4, #1]
 3472 003a 2078     		ldrb	r0, [r4]
 3473 003c 0095     		str	r5, [sp]
 3474 003e 4346     		mov	r3, r8
 3475 0040 3A00     		movs	r2, r7
 3476 0042 FFF7FEFF 		bl	clear_sector
 3477              	.LVL337:
 3478 0046 0600     		movs	r6, r0
 3479              	.LVL338:
 719:Core/Src/GEVA.c **** 
 720:Core/Src/GEVA.c ****         if (c->o_y + c->data >= 0) {
 3480              		.loc 1 720 9 is_stmt 1 view .LVU993
 3481              		.loc 1 720 14 is_stmt 0 view .LVU994
 3482 0048 6078     		ldrb	r0, [r4, #1]
 3483              	.LVL339:
 3484              		.loc 1 720 23 view .LVU995
 3485 004a 6769     		ldr	r7, [r4, #20]
 3486              		.loc 1 720 20 view .LVU996
 3487 004c FFF7FEFF 		bl	__aeabi_i2f
 3488              	.LVL340:
 3489 0050 391C     		adds	r1, r7, #0
 3490 0052 FFF7FEFF 		bl	__aeabi_fadd
 3491              	.LVL341:
 3492              		.loc 1 720 12 view .LVU997
 3493 0056 0021     		movs	r1, #0
 3494 0058 FFF7FEFF 		bl	__aeabi_fcmpge
 3495              	.LVL342:
 3496 005c 0028     		cmp	r0, #0
 3497 005e 3AD0     		beq	.L185
 721:Core/Src/GEVA.c ****             if (c->data > 0 && c->data <= c->max) {
 3498              		.loc 1 721 13 is_stmt 1 view .LVU998
 3499              		.loc 1 721 16 is_stmt 0 view .LVU999
 3500 0060 0021     		movs	r1, #0
 3501 0062 381C     		adds	r0, r7, #0
 3502 0064 FFF7FEFF 		bl	__aeabi_fcmpgt
ARM GAS  C:\Users\arist\AppData\Local\Temp\ccUERo53.s 			page 89


 3503              	.LVL343:
 3504 0068 0028     		cmp	r0, #0
 3505 006a 2BD0     		beq	.L171
 3506              		.loc 1 721 44 discriminator 1 view .LVU1000
 3507 006c A368     		ldr	r3, [r4, #8]
 3508 006e 9846     		mov	r8, r3
 3509              		.loc 1 721 29 discriminator 1 view .LVU1001
 3510 0070 191C     		adds	r1, r3, #0
 3511 0072 381C     		adds	r0, r7, #0
 3512 0074 FFF7FEFF 		bl	__aeabi_fcmple
 3513              	.LVL344:
 3514 0078 0028     		cmp	r0, #0
 3515 007a 23D0     		beq	.L171
 3516              	.LBB44:
 722:Core/Src/GEVA.c ****                 uint8_t dy = c->data * c->dim_y_pos / c->max;
 3517              		.loc 1 722 17 is_stmt 1 view .LVU1002
 3518              		.loc 1 722 41 is_stmt 0 view .LVU1003
 3519 007c 2079     		ldrb	r0, [r4, #4]
 3520              		.loc 1 722 38 view .LVU1004
 3521 007e FFF7FEFF 		bl	__aeabi_i2f
 3522              	.LVL345:
 3523 0082 391C     		adds	r1, r7, #0
 3524 0084 FFF7FEFF 		bl	__aeabi_fmul
 3525              	.LVL346:
 3526              		.loc 1 722 53 view .LVU1005
 3527 0088 4146     		mov	r1, r8
 3528 008a FFF7FEFF 		bl	__aeabi_fdiv
 3529              	.LVL347:
 3530              		.loc 1 722 25 view .LVU1006
 3531 008e FFF7FEFF 		bl	__aeabi_f2uiz
 3532              	.LVL348:
 3533 0092 C3B2     		uxtb	r3, r0
 3534 0094 9846     		mov	r8, r3
 3535              	.LVL349:
 723:Core/Src/GEVA.c **** 
 724:Core/Src/GEVA.c ****                 for (uint8_t i = 0; i < c->dim_x; i++)
 3536              		.loc 1 724 17 is_stmt 1 view .LVU1007
 3537              	.LBB45:
 3538              		.loc 1 724 22 view .LVU1008
 3539              		.loc 1 724 30 is_stmt 0 view .LVU1009
 3540 0096 0027     		movs	r7, #0
 3541              		.loc 1 724 17 view .LVU1010
 3542 0098 0FE0     		b	.L175
 3543              	.LVL350:
 3544              	.L176:
 725:Core/Src/GEVA.c ****                     error = put_line(c->o_x + i, c->o_y, c->o_x + i, c->o_y + dy - 1, buf);
 3545              		.loc 1 725 21 is_stmt 1 discriminator 3 view .LVU1011
 3546              		.loc 1 725 39 is_stmt 0 discriminator 3 view .LVU1012
 3547 009a 2078     		ldrb	r0, [r4]
 3548              		.loc 1 725 29 discriminator 3 view .LVU1013
 3549 009c C019     		adds	r0, r0, r7
 3550 009e C0B2     		uxtb	r0, r0
 3551 00a0 6178     		ldrb	r1, [r4, #1]
 3552              		.loc 1 725 77 discriminator 3 view .LVU1014
 3553 00a2 4346     		mov	r3, r8
 3554 00a4 CB18     		adds	r3, r1, r3
 3555 00a6 DBB2     		uxtb	r3, r3
ARM GAS  C:\Users\arist\AppData\Local\Temp\ccUERo53.s 			page 90


 3556              		.loc 1 725 29 discriminator 3 view .LVU1015
 3557 00a8 013B     		subs	r3, r3, #1
 3558 00aa DBB2     		uxtb	r3, r3
 3559 00ac 0095     		str	r5, [sp]
 3560 00ae 0200     		movs	r2, r0
 3561 00b0 FFF7FEFF 		bl	put_line
 3562              	.LVL351:
 3563 00b4 0600     		movs	r6, r0
 3564              	.LVL352:
 724:Core/Src/GEVA.c ****                     error = put_line(c->o_x + i, c->o_y, c->o_x + i, c->o_y + dy - 1, buf);
 3565              		.loc 1 724 52 is_stmt 1 discriminator 3 view .LVU1016
 3566 00b6 0137     		adds	r7, r7, #1
 3567              	.LVL353:
 724:Core/Src/GEVA.c ****                     error = put_line(c->o_x + i, c->o_y, c->o_x + i, c->o_y + dy - 1, buf);
 3568              		.loc 1 724 52 is_stmt 0 discriminator 3 view .LVU1017
 3569 00b8 FFB2     		uxtb	r7, r7
 3570              	.LVL354:
 3571              	.L175:
 724:Core/Src/GEVA.c ****                     error = put_line(c->o_x + i, c->o_y, c->o_x + i, c->o_y + dy - 1, buf);
 3572              		.loc 1 724 39 is_stmt 1 discriminator 1 view .LVU1018
 724:Core/Src/GEVA.c ****                     error = put_line(c->o_x + i, c->o_y, c->o_x + i, c->o_y + dy - 1, buf);
 3573              		.loc 1 724 42 is_stmt 0 discriminator 1 view .LVU1019
 3574 00ba E378     		ldrb	r3, [r4, #3]
 724:Core/Src/GEVA.c ****                     error = put_line(c->o_x + i, c->o_y, c->o_x + i, c->o_y + dy - 1, buf);
 3575              		.loc 1 724 39 discriminator 1 view .LVU1020
 3576 00bc BB42     		cmp	r3, r7
 3577 00be ECD8     		bhi	.L176
 3578 00c0 00E0     		b	.L171
 3579              	.LVL355:
 3580              	.L177:
 724:Core/Src/GEVA.c ****                     error = put_line(c->o_x + i, c->o_y, c->o_x + i, c->o_y + dy - 1, buf);
 3581              		.loc 1 724 39 discriminator 1 view .LVU1021
 3582              	.LBE45:
 3583              	.LBE44:
 715:Core/Src/GEVA.c **** 
 3584              		.loc 1 715 15 view .LVU1022
 3585 00c2 0326     		movs	r6, #3
 3586              	.LVL356:
 3587              	.L171:
 726:Core/Src/GEVA.c ****             }
 727:Core/Src/GEVA.c ****         }
 728:Core/Src/GEVA.c ****         else
 729:Core/Src/GEVA.c ****             error = 2;
 730:Core/Src/GEVA.c ****     }
 731:Core/Src/GEVA.c **** 
 732:Core/Src/GEVA.c ****     return error;
 3588              		.loc 1 732 5 is_stmt 1 view .LVU1023
 733:Core/Src/GEVA.c **** }
 3589              		.loc 1 733 1 is_stmt 0 view .LVU1024
 3590 00c4 3000     		movs	r0, r6
 3591 00c6 02B0     		add	sp, sp, #8
 3592              		@ sp needed
 3593              	.LVL357:
 3594              	.LVL358:
 3595              	.LVL359:
 3596              		.loc 1 733 1 view .LVU1025
 3597 00c8 80BC     		pop	{r7}
ARM GAS  C:\Users\arist\AppData\Local\Temp\ccUERo53.s 			page 91


 3598 00ca B846     		mov	r8, r7
 3599 00cc F0BD     		pop	{r4, r5, r6, r7, pc}
 3600              	.LVL360:
 3601              	.L178:
 715:Core/Src/GEVA.c **** 
 3602              		.loc 1 715 15 view .LVU1026
 3603 00ce 0326     		movs	r6, #3
 3604 00d0 F8E7     		b	.L171
 3605              	.L179:
 3606 00d2 0326     		movs	r6, #3
 3607 00d4 F6E7     		b	.L171
 3608              	.LVL361:
 3609              	.L185:
 729:Core/Src/GEVA.c ****     }
 3610              		.loc 1 729 19 view .LVU1027
 3611 00d6 0226     		movs	r6, #2
 3612              	.LVL362:
 729:Core/Src/GEVA.c ****     }
 3613              		.loc 1 729 19 view .LVU1028
 3614 00d8 F4E7     		b	.L171
 3615              		.cfi_endproc
 3616              	.LFE22:
 3618              		.global	__aeabi_fcmplt
 3619              		.section	.text.put_neg_COL,"ax",%progbits
 3620              		.align	1
 3621              		.global	put_neg_COL
 3622              		.syntax unified
 3623              		.code	16
 3624              		.thumb_func
 3626              	put_neg_COL:
 3627              	.LVL363:
 3628              	.LFB23:
 734:Core/Src/GEVA.c **** 
 735:Core/Src/GEVA.c **** /* Draw only positive column chart
 736:Core/Src/GEVA.c ****  * return error code
 737:Core/Src/GEVA.c ****  * error code list:
 738:Core/Src/GEVA.c ****  * 1 data out of range
 739:Core/Src/GEVA.c ****  * 2 dimension mismatch
 740:Core/Src/GEVA.c ****  * 3 chart not defined
 741:Core/Src/GEVA.c ****  * 4 starting point out of scope
 742:Core/Src/GEVA.c **** */
 743:Core/Src/GEVA.c **** uint8_t put_neg_COL(data_container* c, video_buffer* buf) {
 3629              		.loc 1 743 59 is_stmt 1 view -0
 3630              		.cfi_startproc
 3631              		@ args = 0, pretend = 0, frame = 0
 3632              		@ frame_needed = 0, uses_anonymous_args = 0
 3633              		.loc 1 743 59 is_stmt 0 view .LVU1030
 3634 0000 F0B5     		push	{r4, r5, r6, r7, lr}
 3635              		.cfi_def_cfa_offset 20
 3636              		.cfi_offset 4, -20
 3637              		.cfi_offset 5, -16
 3638              		.cfi_offset 6, -12
 3639              		.cfi_offset 7, -8
 3640              		.cfi_offset 14, -4
 3641 0002 C646     		mov	lr, r8
 3642 0004 00B5     		push	{lr}
 3643              		.cfi_def_cfa_offset 24
ARM GAS  C:\Users\arist\AppData\Local\Temp\ccUERo53.s 			page 92


 3644              		.cfi_offset 8, -24
 3645 0006 82B0     		sub	sp, sp, #8
 3646              		.cfi_def_cfa_offset 32
 3647 0008 0400     		movs	r4, r0
 3648 000a 0E00     		movs	r6, r1
 744:Core/Src/GEVA.c **** 
 745:Core/Src/GEVA.c ****     uint8_t error = 1;
 3649              		.loc 1 745 5 is_stmt 1 view .LVU1031
 3650              	.LVL364:
 746:Core/Src/GEVA.c **** 
 747:Core/Src/GEVA.c ****     if (c->dim_x == 0 || c->max <= c->min)
 3651              		.loc 1 747 5 view .LVU1032
 3652              		.loc 1 747 10 is_stmt 0 view .LVU1033
 3653 000c C578     		ldrb	r5, [r0, #3]
 3654              		.loc 1 747 8 view .LVU1034
 3655 000e 002D     		cmp	r5, #0
 3656 0010 4ED0     		beq	.L194
 3657              		.loc 1 747 27 discriminator 1 view .LVU1035
 3658 0012 8068     		ldr	r0, [r0, #8]
 3659              	.LVL365:
 3660              		.loc 1 747 37 discriminator 1 view .LVU1036
 3661 0014 E168     		ldr	r1, [r4, #12]
 3662              	.LVL366:
 3663              		.loc 1 747 23 discriminator 1 view .LVU1037
 3664 0016 FFF7FEFF 		bl	__aeabi_fcmple
 3665              	.LVL367:
 3666 001a 0028     		cmp	r0, #0
 3667 001c 01D0     		beq	.L201
 748:Core/Src/GEVA.c ****         error = 3;
 3668              		.loc 1 748 15 view .LVU1038
 3669 001e 0325     		movs	r5, #3
 3670 0020 47E0     		b	.L188
 3671              	.L201:
 749:Core/Src/GEVA.c **** 
 750:Core/Src/GEVA.c ****     else {
 751:Core/Src/GEVA.c ****         error = clear_sector(c->o_x, c->o_y - c->dim_y_neg, c->dim_x, c->dim_y_neg, buf); //limits 
 3672              		.loc 1 751 9 is_stmt 1 view .LVU1039
 3673              		.loc 1 751 39 is_stmt 0 view .LVU1040
 3674 0022 6178     		ldrb	r1, [r4, #1]
 3675              		.loc 1 751 48 view .LVU1041
 3676 0024 6379     		ldrb	r3, [r4, #5]
 3677              		.loc 1 751 17 view .LVU1042
 3678 0026 C91A     		subs	r1, r1, r3
 3679 0028 C9B2     		uxtb	r1, r1
 3680 002a 2078     		ldrb	r0, [r4]
 3681 002c 0096     		str	r6, [sp]
 3682 002e 2A00     		movs	r2, r5
 3683 0030 FFF7FEFF 		bl	clear_sector
 3684              	.LVL368:
 3685 0034 0500     		movs	r5, r0
 3686              	.LVL369:
 752:Core/Src/GEVA.c **** 
 753:Core/Src/GEVA.c ****         if (c->o_y + c->data <= 0) {
 3687              		.loc 1 753 9 is_stmt 1 view .LVU1043
 3688              		.loc 1 753 14 is_stmt 0 view .LVU1044
 3689 0036 6078     		ldrb	r0, [r4, #1]
 3690              	.LVL370:
ARM GAS  C:\Users\arist\AppData\Local\Temp\ccUERo53.s 			page 93


 3691              		.loc 1 753 23 view .LVU1045
 3692 0038 6769     		ldr	r7, [r4, #20]
 3693              		.loc 1 753 20 view .LVU1046
 3694 003a FFF7FEFF 		bl	__aeabi_i2f
 3695              	.LVL371:
 3696 003e 391C     		adds	r1, r7, #0
 3697 0040 FFF7FEFF 		bl	__aeabi_fadd
 3698              	.LVL372:
 3699              		.loc 1 753 12 view .LVU1047
 3700 0044 0021     		movs	r1, #0
 3701 0046 FFF7FEFF 		bl	__aeabi_fcmple
 3702              	.LVL373:
 3703 004a 0028     		cmp	r0, #0
 3704 004c 36D0     		beq	.L200
 754:Core/Src/GEVA.c **** 
 755:Core/Src/GEVA.c ****             if (c->data < 0 && c->data >= c->min) {
 3705              		.loc 1 755 13 is_stmt 1 view .LVU1048
 3706              		.loc 1 755 16 is_stmt 0 view .LVU1049
 3707 004e 0021     		movs	r1, #0
 3708 0050 381C     		adds	r0, r7, #0
 3709 0052 FFF7FEFF 		bl	__aeabi_fcmplt
 3710              	.LVL374:
 3711 0056 0028     		cmp	r0, #0
 3712 0058 2BD0     		beq	.L188
 3713              		.loc 1 755 44 discriminator 1 view .LVU1050
 3714 005a E368     		ldr	r3, [r4, #12]
 3715 005c 9846     		mov	r8, r3
 3716              		.loc 1 755 29 discriminator 1 view .LVU1051
 3717 005e 191C     		adds	r1, r3, #0
 3718 0060 381C     		adds	r0, r7, #0
 3719 0062 FFF7FEFF 		bl	__aeabi_fcmpge
 3720              	.LVL375:
 3721 0066 0028     		cmp	r0, #0
 3722 0068 23D0     		beq	.L188
 3723              	.LBB46:
 756:Core/Src/GEVA.c ****                 uint8_t dy = c->data * c->dim_y_neg / c->min;
 3724              		.loc 1 756 17 is_stmt 1 view .LVU1052
 3725              		.loc 1 756 41 is_stmt 0 view .LVU1053
 3726 006a 6079     		ldrb	r0, [r4, #5]
 3727              		.loc 1 756 38 view .LVU1054
 3728 006c FFF7FEFF 		bl	__aeabi_i2f
 3729              	.LVL376:
 3730 0070 391C     		adds	r1, r7, #0
 3731 0072 FFF7FEFF 		bl	__aeabi_fmul
 3732              	.LVL377:
 3733              		.loc 1 756 53 view .LVU1055
 3734 0076 4146     		mov	r1, r8
 3735 0078 FFF7FEFF 		bl	__aeabi_fdiv
 3736              	.LVL378:
 3737              		.loc 1 756 25 view .LVU1056
 3738 007c FFF7FEFF 		bl	__aeabi_f2uiz
 3739              	.LVL379:
 3740 0080 C3B2     		uxtb	r3, r0
 3741 0082 9846     		mov	r8, r3
 3742              	.LVL380:
 757:Core/Src/GEVA.c **** 
 758:Core/Src/GEVA.c ****                 for (uint8_t i = 0; i < c->dim_x; i++)
ARM GAS  C:\Users\arist\AppData\Local\Temp\ccUERo53.s 			page 94


 3743              		.loc 1 758 17 is_stmt 1 view .LVU1057
 3744              	.LBB47:
 3745              		.loc 1 758 22 view .LVU1058
 3746              		.loc 1 758 30 is_stmt 0 view .LVU1059
 3747 0084 0027     		movs	r7, #0
 3748              		.loc 1 758 17 view .LVU1060
 3749 0086 0FE0     		b	.L192
 3750              	.LVL381:
 3751              	.L193:
 759:Core/Src/GEVA.c ****                     error = put_line(c->o_x + i, c->o_y-dy+1, c->o_x + i, c->o_y, buf);
 3752              		.loc 1 759 21 is_stmt 1 discriminator 3 view .LVU1061
 3753              		.loc 1 759 39 is_stmt 0 discriminator 3 view .LVU1062
 3754 0088 2078     		ldrb	r0, [r4]
 3755              		.loc 1 759 29 discriminator 3 view .LVU1063
 3756 008a C019     		adds	r0, r0, r7
 3757 008c C0B2     		uxtb	r0, r0
 3758              		.loc 1 759 51 discriminator 3 view .LVU1064
 3759 008e 6378     		ldrb	r3, [r4, #1]
 3760              		.loc 1 759 56 discriminator 3 view .LVU1065
 3761 0090 4246     		mov	r2, r8
 3762 0092 991A     		subs	r1, r3, r2
 3763 0094 C9B2     		uxtb	r1, r1
 3764              		.loc 1 759 29 discriminator 3 view .LVU1066
 3765 0096 0131     		adds	r1, r1, #1
 3766 0098 C9B2     		uxtb	r1, r1
 3767 009a 0096     		str	r6, [sp]
 3768 009c 0200     		movs	r2, r0
 3769 009e FFF7FEFF 		bl	put_line
 3770              	.LVL382:
 3771 00a2 0500     		movs	r5, r0
 3772              	.LVL383:
 758:Core/Src/GEVA.c ****                     error = put_line(c->o_x + i, c->o_y-dy+1, c->o_x + i, c->o_y, buf);
 3773              		.loc 1 758 52 is_stmt 1 discriminator 3 view .LVU1067
 3774 00a4 0137     		adds	r7, r7, #1
 3775              	.LVL384:
 758:Core/Src/GEVA.c ****                     error = put_line(c->o_x + i, c->o_y-dy+1, c->o_x + i, c->o_y, buf);
 3776              		.loc 1 758 52 is_stmt 0 discriminator 3 view .LVU1068
 3777 00a6 FFB2     		uxtb	r7, r7
 3778              	.LVL385:
 3779              	.L192:
 758:Core/Src/GEVA.c ****                     error = put_line(c->o_x + i, c->o_y-dy+1, c->o_x + i, c->o_y, buf);
 3780              		.loc 1 758 39 is_stmt 1 discriminator 1 view .LVU1069
 758:Core/Src/GEVA.c ****                     error = put_line(c->o_x + i, c->o_y-dy+1, c->o_x + i, c->o_y, buf);
 3781              		.loc 1 758 42 is_stmt 0 discriminator 1 view .LVU1070
 3782 00a8 E378     		ldrb	r3, [r4, #3]
 758:Core/Src/GEVA.c ****                     error = put_line(c->o_x + i, c->o_y-dy+1, c->o_x + i, c->o_y, buf);
 3783              		.loc 1 758 39 discriminator 1 view .LVU1071
 3784 00aa BB42     		cmp	r3, r7
 3785 00ac ECD8     		bhi	.L193
 3786 00ae 00E0     		b	.L188
 3787              	.LVL386:
 3788              	.L194:
 758:Core/Src/GEVA.c ****                     error = put_line(c->o_x + i, c->o_y-dy+1, c->o_x + i, c->o_y, buf);
 3789              		.loc 1 758 39 discriminator 1 view .LVU1072
 3790              	.LBE47:
 3791              	.LBE46:
 748:Core/Src/GEVA.c **** 
ARM GAS  C:\Users\arist\AppData\Local\Temp\ccUERo53.s 			page 95


 3792              		.loc 1 748 15 view .LVU1073
 3793 00b0 0325     		movs	r5, #3
 3794              	.LVL387:
 3795              	.L188:
 760:Core/Src/GEVA.c ****             }
 761:Core/Src/GEVA.c ****         }
 762:Core/Src/GEVA.c ****         else
 763:Core/Src/GEVA.c ****             error = 2;
 764:Core/Src/GEVA.c ****     }
 765:Core/Src/GEVA.c ****     return error;
 3796              		.loc 1 765 5 is_stmt 1 view .LVU1074
 766:Core/Src/GEVA.c **** }
 3797              		.loc 1 766 1 is_stmt 0 view .LVU1075
 3798 00b2 2800     		movs	r0, r5
 3799 00b4 02B0     		add	sp, sp, #8
 3800              		@ sp needed
 3801              	.LVL388:
 3802              	.LVL389:
 3803              	.LVL390:
 3804              		.loc 1 766 1 view .LVU1076
 3805 00b6 80BC     		pop	{r7}
 3806 00b8 B846     		mov	r8, r7
 3807 00ba F0BD     		pop	{r4, r5, r6, r7, pc}
 3808              	.LVL391:
 3809              	.L200:
 763:Core/Src/GEVA.c ****     }
 3810              		.loc 1 763 19 view .LVU1077
 3811 00bc 0225     		movs	r5, #2
 3812              	.LVL392:
 763:Core/Src/GEVA.c ****     }
 3813              		.loc 1 763 19 view .LVU1078
 3814 00be F8E7     		b	.L188
 3815              		.cfi_endproc
 3816              	.LFE23:
 3818              		.section	.text.update_COL,"ax",%progbits
 3819              		.align	1
 3820              		.global	update_COL
 3821              		.syntax unified
 3822              		.code	16
 3823              		.thumb_func
 3825              	update_COL:
 3826              	.LVL393:
 3827              	.LFB24:
 767:Core/Src/GEVA.c **** 
 768:Core/Src/GEVA.c **** uint8_t update_COL(data_container* c, video_buffer* buf) {
 3828              		.loc 1 768 58 is_stmt 1 view -0
 3829              		.cfi_startproc
 3830              		@ args = 0, pretend = 0, frame = 0
 3831              		@ frame_needed = 0, uses_anonymous_args = 0
 3832              		.loc 1 768 58 is_stmt 0 view .LVU1080
 3833 0000 70B5     		push	{r4, r5, r6, lr}
 3834              		.cfi_def_cfa_offset 16
 3835              		.cfi_offset 4, -16
 3836              		.cfi_offset 5, -12
 3837              		.cfi_offset 6, -8
 3838              		.cfi_offset 14, -4
 3839 0002 0400     		movs	r4, r0
ARM GAS  C:\Users\arist\AppData\Local\Temp\ccUERo53.s 			page 96


 3840 0004 0D00     		movs	r5, r1
 769:Core/Src/GEVA.c ****     uint8_t error = 0;
 3841              		.loc 1 769 5 is_stmt 1 view .LVU1081
 3842              	.LVL394:
 770:Core/Src/GEVA.c ****     error = put_pos_COL(c, buf);
 3843              		.loc 1 770 5 view .LVU1082
 3844              		.loc 1 770 13 is_stmt 0 view .LVU1083
 3845 0006 FFF7FEFF 		bl	put_pos_COL
 3846              	.LVL395:
 771:Core/Src/GEVA.c ****     error = put_neg_COL(c, buf);
 3847              		.loc 1 771 5 is_stmt 1 view .LVU1084
 3848              		.loc 1 771 13 is_stmt 0 view .LVU1085
 3849 000a 2900     		movs	r1, r5
 3850 000c 2000     		movs	r0, r4
 3851 000e FFF7FEFF 		bl	put_neg_COL
 3852              	.LVL396:
 772:Core/Src/GEVA.c ****     return error;
 3853              		.loc 1 772 5 is_stmt 1 view .LVU1086
 773:Core/Src/GEVA.c **** }
 3854              		.loc 1 773 1 is_stmt 0 view .LVU1087
 3855              		@ sp needed
 3856              	.LVL397:
 3857              	.LVL398:
 3858              		.loc 1 773 1 view .LVU1088
 3859 0012 70BD     		pop	{r4, r5, r6, pc}
 3860              		.cfi_endproc
 3861              	.LFE24:
 3863              		.section	.text.update_BAR,"ax",%progbits
 3864              		.align	1
 3865              		.global	update_BAR
 3866              		.syntax unified
 3867              		.code	16
 3868              		.thumb_func
 3870              	update_BAR:
 3871              	.LVL399:
 3872              	.LFB25:
 774:Core/Src/GEVA.c **** 
 775:Core/Src/GEVA.c **** /* Draw positive bar chart
 776:Core/Src/GEVA.c ****  * return error code
 777:Core/Src/GEVA.c ****  * error code list:
 778:Core/Src/GEVA.c ****  * 1 data out of range
 779:Core/Src/GEVA.c ****  * 2 dimension mismatch
 780:Core/Src/GEVA.c ****  * 3 chart not defined
 781:Core/Src/GEVA.c ****  * 4 starting point out of scope
 782:Core/Src/GEVA.c **** */
 783:Core/Src/GEVA.c **** uint8_t update_BAR(data_container* c, video_buffer* buf) {
 3873              		.loc 1 783 58 is_stmt 1 view -0
 3874              		.cfi_startproc
 3875              		@ args = 0, pretend = 0, frame = 0
 3876              		@ frame_needed = 0, uses_anonymous_args = 0
 3877              		.loc 1 783 58 is_stmt 0 view .LVU1090
 3878 0000 F0B5     		push	{r4, r5, r6, r7, lr}
 3879              		.cfi_def_cfa_offset 20
 3880              		.cfi_offset 4, -20
 3881              		.cfi_offset 5, -16
 3882              		.cfi_offset 6, -12
 3883              		.cfi_offset 7, -8
ARM GAS  C:\Users\arist\AppData\Local\Temp\ccUERo53.s 			page 97


 3884              		.cfi_offset 14, -4
 3885 0002 C646     		mov	lr, r8
 3886 0004 00B5     		push	{lr}
 3887              		.cfi_def_cfa_offset 24
 3888              		.cfi_offset 8, -24
 3889 0006 82B0     		sub	sp, sp, #8
 3890              		.cfi_def_cfa_offset 32
 3891 0008 0400     		movs	r4, r0
 3892 000a 0D00     		movs	r5, r1
 784:Core/Src/GEVA.c **** 
 785:Core/Src/GEVA.c ****     uint8_t error = 1;
 3893              		.loc 1 785 5 is_stmt 1 view .LVU1091
 3894              	.LVL400:
 786:Core/Src/GEVA.c **** 
 787:Core/Src/GEVA.c ****     if (c->max == 0 || c->dim_x == 0 || c->dim_y_pos == 0 || c->max <= c->min)
 3895              		.loc 1 787 5 view .LVU1092
 3896              		.loc 1 787 10 is_stmt 0 view .LVU1093
 3897 000c 8668     		ldr	r6, [r0, #8]
 3898              		.loc 1 787 8 view .LVU1094
 3899 000e 0021     		movs	r1, #0
 3900              	.LVL401:
 3901              		.loc 1 787 8 view .LVU1095
 3902 0010 301C     		adds	r0, r6, #0
 3903              	.LVL402:
 3904              		.loc 1 787 8 view .LVU1096
 3905 0012 FFF7FEFF 		bl	__aeabi_fcmpeq
 3906              	.LVL403:
 3907 0016 0028     		cmp	r0, #0
 3908 0018 53D1     		bne	.L210
 3909              		.loc 1 787 25 discriminator 1 view .LVU1097
 3910 001a E778     		ldrb	r7, [r4, #3]
 3911              		.loc 1 787 21 discriminator 1 view .LVU1098
 3912 001c 002F     		cmp	r7, #0
 3913 001e 56D0     		beq	.L211
 3914              		.loc 1 787 42 discriminator 2 view .LVU1099
 3915 0020 2379     		ldrb	r3, [r4, #4]
 3916 0022 9846     		mov	r8, r3
 3917              		.loc 1 787 38 discriminator 2 view .LVU1100
 3918 0024 002B     		cmp	r3, #0
 3919 0026 54D0     		beq	.L212
 3920              		.loc 1 787 73 discriminator 3 view .LVU1101
 3921 0028 E168     		ldr	r1, [r4, #12]
 3922              		.loc 1 787 59 discriminator 3 view .LVU1102
 3923 002a 301C     		adds	r0, r6, #0
 3924 002c FFF7FEFF 		bl	__aeabi_fcmple
 3925              	.LVL404:
 3926 0030 0028     		cmp	r0, #0
 3927 0032 01D0     		beq	.L219
 788:Core/Src/GEVA.c ****         error = 3;
 3928              		.loc 1 788 15 view .LVU1103
 3929 0034 0326     		movs	r6, #3
 3930 0036 45E0     		b	.L204
 3931              	.L219:
 789:Core/Src/GEVA.c **** 
 790:Core/Src/GEVA.c ****     else {
 791:Core/Src/GEVA.c ****         error = clear_sector(c->o_x, c->o_y, c->dim_x, c->dim_y_pos, buf); //limits check within cl
 3932              		.loc 1 791 9 is_stmt 1 view .LVU1104
ARM GAS  C:\Users\arist\AppData\Local\Temp\ccUERo53.s 			page 98


 3933              		.loc 1 791 17 is_stmt 0 view .LVU1105
 3934 0038 6178     		ldrb	r1, [r4, #1]
 3935 003a 2078     		ldrb	r0, [r4]
 3936 003c 0095     		str	r5, [sp]
 3937 003e 4346     		mov	r3, r8
 3938 0040 3A00     		movs	r2, r7
 3939 0042 FFF7FEFF 		bl	clear_sector
 3940              	.LVL405:
 3941 0046 0600     		movs	r6, r0
 3942              	.LVL406:
 792:Core/Src/GEVA.c **** 
 793:Core/Src/GEVA.c ****         if (c->o_y + c->data >= 0) {
 3943              		.loc 1 793 9 is_stmt 1 view .LVU1106
 3944              		.loc 1 793 14 is_stmt 0 view .LVU1107
 3945 0048 6078     		ldrb	r0, [r4, #1]
 3946              	.LVL407:
 3947              		.loc 1 793 23 view .LVU1108
 3948 004a 6769     		ldr	r7, [r4, #20]
 3949              		.loc 1 793 20 view .LVU1109
 3950 004c FFF7FEFF 		bl	__aeabi_i2f
 3951              	.LVL408:
 3952 0050 391C     		adds	r1, r7, #0
 3953 0052 FFF7FEFF 		bl	__aeabi_fadd
 3954              	.LVL409:
 3955              		.loc 1 793 12 view .LVU1110
 3956 0056 0021     		movs	r1, #0
 3957 0058 FFF7FEFF 		bl	__aeabi_fcmpge
 3958              	.LVL410:
 3959 005c 0028     		cmp	r0, #0
 3960 005e 3AD0     		beq	.L218
 794:Core/Src/GEVA.c ****             if (c->data > 0 && c->data <= c->max) {
 3961              		.loc 1 794 13 is_stmt 1 view .LVU1111
 3962              		.loc 1 794 16 is_stmt 0 view .LVU1112
 3963 0060 0021     		movs	r1, #0
 3964 0062 381C     		adds	r0, r7, #0
 3965 0064 FFF7FEFF 		bl	__aeabi_fcmpgt
 3966              	.LVL411:
 3967 0068 0028     		cmp	r0, #0
 3968 006a 2BD0     		beq	.L204
 3969              		.loc 1 794 44 discriminator 1 view .LVU1113
 3970 006c A368     		ldr	r3, [r4, #8]
 3971 006e 9846     		mov	r8, r3
 3972              		.loc 1 794 29 discriminator 1 view .LVU1114
 3973 0070 191C     		adds	r1, r3, #0
 3974 0072 381C     		adds	r0, r7, #0
 3975 0074 FFF7FEFF 		bl	__aeabi_fcmple
 3976              	.LVL412:
 3977 0078 0028     		cmp	r0, #0
 3978 007a 23D0     		beq	.L204
 3979              	.LBB48:
 795:Core/Src/GEVA.c ****                 uint8_t dx = c->data * c->dim_x / c->max;
 3980              		.loc 1 795 17 is_stmt 1 view .LVU1115
 3981              		.loc 1 795 41 is_stmt 0 view .LVU1116
 3982 007c E078     		ldrb	r0, [r4, #3]
 3983              		.loc 1 795 38 view .LVU1117
 3984 007e FFF7FEFF 		bl	__aeabi_i2f
 3985              	.LVL413:
ARM GAS  C:\Users\arist\AppData\Local\Temp\ccUERo53.s 			page 99


 3986 0082 391C     		adds	r1, r7, #0
 3987 0084 FFF7FEFF 		bl	__aeabi_fmul
 3988              	.LVL414:
 3989              		.loc 1 795 49 view .LVU1118
 3990 0088 4146     		mov	r1, r8
 3991 008a FFF7FEFF 		bl	__aeabi_fdiv
 3992              	.LVL415:
 3993              		.loc 1 795 25 view .LVU1119
 3994 008e FFF7FEFF 		bl	__aeabi_f2uiz
 3995              	.LVL416:
 3996 0092 C3B2     		uxtb	r3, r0
 3997 0094 9846     		mov	r8, r3
 3998              	.LVL417:
 796:Core/Src/GEVA.c **** 
 797:Core/Src/GEVA.c ****                 for (uint8_t i = 0; i < c->dim_y_pos; i++)
 3999              		.loc 1 797 17 is_stmt 1 view .LVU1120
 4000              	.LBB49:
 4001              		.loc 1 797 22 view .LVU1121
 4002              		.loc 1 797 30 is_stmt 0 view .LVU1122
 4003 0096 0027     		movs	r7, #0
 4004              		.loc 1 797 17 view .LVU1123
 4005 0098 0FE0     		b	.L208
 4006              	.LVL418:
 4007              	.L209:
 798:Core/Src/GEVA.c ****                     error = put_line(c->o_x, c->o_y + i, c->o_x + dx - 1, c->o_y + i, buf);
 4008              		.loc 1 798 21 is_stmt 1 discriminator 3 view .LVU1124
 4009              		.loc 1 798 29 is_stmt 0 discriminator 3 view .LVU1125
 4010 009a 2078     		ldrb	r0, [r4]
 4011              		.loc 1 798 47 discriminator 3 view .LVU1126
 4012 009c 6178     		ldrb	r1, [r4, #1]
 4013              		.loc 1 798 29 discriminator 3 view .LVU1127
 4014 009e C919     		adds	r1, r1, r7
 4015 00a0 C9B2     		uxtb	r1, r1
 4016              		.loc 1 798 65 discriminator 3 view .LVU1128
 4017 00a2 4346     		mov	r3, r8
 4018 00a4 C218     		adds	r2, r0, r3
 4019 00a6 D2B2     		uxtb	r2, r2
 4020              		.loc 1 798 29 discriminator 3 view .LVU1129
 4021 00a8 013A     		subs	r2, r2, #1
 4022 00aa D2B2     		uxtb	r2, r2
 4023 00ac 0095     		str	r5, [sp]
 4024 00ae 0B00     		movs	r3, r1
 4025 00b0 FFF7FEFF 		bl	put_line
 4026              	.LVL419:
 4027 00b4 0600     		movs	r6, r0
 4028              	.LVL420:
 797:Core/Src/GEVA.c ****                     error = put_line(c->o_x, c->o_y + i, c->o_x + dx - 1, c->o_y + i, buf);
 4029              		.loc 1 797 56 is_stmt 1 discriminator 3 view .LVU1130
 4030 00b6 0137     		adds	r7, r7, #1
 4031              	.LVL421:
 797:Core/Src/GEVA.c ****                     error = put_line(c->o_x, c->o_y + i, c->o_x + dx - 1, c->o_y + i, buf);
 4032              		.loc 1 797 56 is_stmt 0 discriminator 3 view .LVU1131
 4033 00b8 FFB2     		uxtb	r7, r7
 4034              	.LVL422:
 4035              	.L208:
 797:Core/Src/GEVA.c ****                     error = put_line(c->o_x, c->o_y + i, c->o_x + dx - 1, c->o_y + i, buf);
 4036              		.loc 1 797 39 is_stmt 1 discriminator 1 view .LVU1132
ARM GAS  C:\Users\arist\AppData\Local\Temp\ccUERo53.s 			page 100


 797:Core/Src/GEVA.c ****                     error = put_line(c->o_x, c->o_y + i, c->o_x + dx - 1, c->o_y + i, buf);
 4037              		.loc 1 797 42 is_stmt 0 discriminator 1 view .LVU1133
 4038 00ba 2379     		ldrb	r3, [r4, #4]
 797:Core/Src/GEVA.c ****                     error = put_line(c->o_x, c->o_y + i, c->o_x + dx - 1, c->o_y + i, buf);
 4039              		.loc 1 797 39 discriminator 1 view .LVU1134
 4040 00bc BB42     		cmp	r3, r7
 4041 00be ECD8     		bhi	.L209
 4042 00c0 00E0     		b	.L204
 4043              	.LVL423:
 4044              	.L210:
 797:Core/Src/GEVA.c ****                     error = put_line(c->o_x, c->o_y + i, c->o_x + dx - 1, c->o_y + i, buf);
 4045              		.loc 1 797 39 discriminator 1 view .LVU1135
 4046              	.LBE49:
 4047              	.LBE48:
 788:Core/Src/GEVA.c **** 
 4048              		.loc 1 788 15 view .LVU1136
 4049 00c2 0326     		movs	r6, #3
 4050              	.LVL424:
 4051              	.L204:
 799:Core/Src/GEVA.c ****             }
 800:Core/Src/GEVA.c ****         }
 801:Core/Src/GEVA.c ****         else
 802:Core/Src/GEVA.c ****             error = 2;
 803:Core/Src/GEVA.c ****     }
 804:Core/Src/GEVA.c **** 
 805:Core/Src/GEVA.c ****     return error;
 4052              		.loc 1 805 5 is_stmt 1 view .LVU1137
 806:Core/Src/GEVA.c **** }
 4053              		.loc 1 806 1 is_stmt 0 view .LVU1138
 4054 00c4 3000     		movs	r0, r6
 4055 00c6 02B0     		add	sp, sp, #8
 4056              		@ sp needed
 4057              	.LVL425:
 4058              	.LVL426:
 4059              	.LVL427:
 4060              		.loc 1 806 1 view .LVU1139
 4061 00c8 80BC     		pop	{r7}
 4062 00ca B846     		mov	r8, r7
 4063 00cc F0BD     		pop	{r4, r5, r6, r7, pc}
 4064              	.LVL428:
 4065              	.L211:
 788:Core/Src/GEVA.c **** 
 4066              		.loc 1 788 15 view .LVU1140
 4067 00ce 0326     		movs	r6, #3
 4068 00d0 F8E7     		b	.L204
 4069              	.L212:
 4070 00d2 0326     		movs	r6, #3
 4071 00d4 F6E7     		b	.L204
 4072              	.LVL429:
 4073              	.L218:
 802:Core/Src/GEVA.c ****     }
 4074              		.loc 1 802 19 view .LVU1141
 4075 00d6 0226     		movs	r6, #2
 4076              	.LVL430:
 802:Core/Src/GEVA.c ****     }
 4077              		.loc 1 802 19 view .LVU1142
 4078 00d8 F4E7     		b	.L204
ARM GAS  C:\Users\arist\AppData\Local\Temp\ccUERo53.s 			page 101


 4079              		.cfi_endproc
 4080              	.LFE25:
 4082              		.global	__aeabi_f2iz
 4083              		.global	__aeabi_uidiv
 4084              		.section	.text.update_LINE,"ax",%progbits
 4085              		.align	1
 4086              		.global	update_LINE
 4087              		.syntax unified
 4088              		.code	16
 4089              		.thumb_func
 4091              	update_LINE:
 4092              	.LVL431:
 4093              	.LFB26:
 807:Core/Src/GEVA.c **** 
 808:Core/Src/GEVA.c **** /* Draw line like chart
 809:Core/Src/GEVA.c ****  * return error code
 810:Core/Src/GEVA.c ****  * error code list:
 811:Core/Src/GEVA.c ****  * 1 data out of range
 812:Core/Src/GEVA.c ****  * 2 dimension mismatch
 813:Core/Src/GEVA.c ****  * 3 chart not defined
 814:Core/Src/GEVA.c ****  * 4 starting point out of scope
 815:Core/Src/GEVA.c ****  * beware: no check on data coherence nor axis limits
 816:Core/Src/GEVA.c ****  * note: change data before calling update
 817:Core/Src/GEVA.c **** */
 818:Core/Src/GEVA.c **** uint8_t update_LINE(data_container* c, video_buffer* buf) {
 4094              		.loc 1 818 59 is_stmt 1 view -0
 4095              		.cfi_startproc
 4096              		@ args = 0, pretend = 0, frame = 0
 4097              		@ frame_needed = 0, uses_anonymous_args = 0
 4098              		.loc 1 818 59 is_stmt 0 view .LVU1144
 4099 0000 F0B5     		push	{r4, r5, r6, r7, lr}
 4100              		.cfi_def_cfa_offset 20
 4101              		.cfi_offset 4, -20
 4102              		.cfi_offset 5, -16
 4103              		.cfi_offset 6, -12
 4104              		.cfi_offset 7, -8
 4105              		.cfi_offset 14, -4
 4106 0002 D646     		mov	lr, r10
 4107 0004 4F46     		mov	r7, r9
 4108 0006 4646     		mov	r6, r8
 4109 0008 C0B5     		push	{r6, r7, lr}
 4110              		.cfi_def_cfa_offset 32
 4111              		.cfi_offset 8, -32
 4112              		.cfi_offset 9, -28
 4113              		.cfi_offset 10, -24
 4114 000a 82B0     		sub	sp, sp, #8
 4115              		.cfi_def_cfa_offset 40
 4116 000c 0400     		movs	r4, r0
 4117 000e 0E00     		movs	r6, r1
 819:Core/Src/GEVA.c **** 
 820:Core/Src/GEVA.c ****     uint8_t error = 1;
 4118              		.loc 1 820 5 is_stmt 1 view .LVU1145
 4119              	.LVL432:
 821:Core/Src/GEVA.c ****     int16_t value = (c->data * c->dim_y_pos / c->max);
 4120              		.loc 1 821 5 view .LVU1146
 4121              		.loc 1 821 23 is_stmt 0 view .LVU1147
 4122 0010 4569     		ldr	r5, [r0, #20]
ARM GAS  C:\Users\arist\AppData\Local\Temp\ccUERo53.s 			page 102


 4123              		.loc 1 821 33 view .LVU1148
 4124 0012 0079     		ldrb	r0, [r0, #4]
 4125              	.LVL433:
 4126              		.loc 1 821 30 view .LVU1149
 4127 0014 FFF7FEFF 		bl	__aeabi_i2f
 4128              	.LVL434:
 4129              		.loc 1 821 30 view .LVU1150
 4130 0018 291C     		adds	r1, r5, #0
 4131 001a FFF7FEFF 		bl	__aeabi_fmul
 4132              	.LVL435:
 4133              		.loc 1 821 48 view .LVU1151
 4134 001e A568     		ldr	r5, [r4, #8]
 4135              		.loc 1 821 45 view .LVU1152
 4136 0020 291C     		adds	r1, r5, #0
 4137 0022 FFF7FEFF 		bl	__aeabi_fdiv
 4138              	.LVL436:
 4139              		.loc 1 821 13 view .LVU1153
 4140 0026 FFF7FEFF 		bl	__aeabi_f2iz
 4141              	.LVL437:
 4142 002a 03B2     		sxth	r3, r0
 4143 002c 9946     		mov	r9, r3
 4144              	.LVL438:
 822:Core/Src/GEVA.c ****     static uint8_t old_data;
 4145              		.loc 1 822 5 is_stmt 1 view .LVU1154
 823:Core/Src/GEVA.c ****     static uint8_t dx;
 4146              		.loc 1 823 5 view .LVU1155
 824:Core/Src/GEVA.c ****     dx = c->dim_x / c->x_division; //limit is dim_x
 4147              		.loc 1 824 5 view .LVU1156
 4148              		.loc 1 824 11 is_stmt 0 view .LVU1157
 4149 002e E778     		ldrb	r7, [r4, #3]
 4150              		.loc 1 824 22 view .LVU1158
 4151 0030 237E     		ldrb	r3, [r4, #24]
 4152 0032 9A46     		mov	r10, r3
 4153              		.loc 1 824 8 view .LVU1159
 4154 0034 1900     		movs	r1, r3
 4155 0036 3800     		movs	r0, r7
 4156 0038 FFF7FEFF 		bl	__aeabi_uidiv
 4157              	.LVL439:
 4158 003c C3B2     		uxtb	r3, r0
 4159 003e 9846     		mov	r8, r3
 4160 0040 4B4B     		ldr	r3, .L229
 4161 0042 4246     		mov	r2, r8
 4162 0044 1A70     		strb	r2, [r3]
 825:Core/Src/GEVA.c ****     static uint8_t x;
 4163              		.loc 1 825 5 is_stmt 1 view .LVU1160
 826:Core/Src/GEVA.c **** 
 827:Core/Src/GEVA.c ****     static uint8_t x_cnt = 0;
 4164              		.loc 1 827 5 view .LVU1161
 828:Core/Src/GEVA.c **** 
 829:Core/Src/GEVA.c ****     if (c->dim_x == 0 || c->max <= c->min)
 4165              		.loc 1 829 5 view .LVU1162
 4166              		.loc 1 829 8 is_stmt 0 view .LVU1163
 4167 0046 002F     		cmp	r7, #0
 4168 0048 00D1     		bne	.LCB4021
 4169 004a 8CE0     		b	.L227	@long jump
 4170              	.LCB4021:
 4171              		.loc 1 829 37 discriminator 1 view .LVU1164
ARM GAS  C:\Users\arist\AppData\Local\Temp\ccUERo53.s 			page 103


 4172 004c E168     		ldr	r1, [r4, #12]
 4173              		.loc 1 829 23 discriminator 1 view .LVU1165
 4174 004e 281C     		adds	r0, r5, #0
 4175 0050 FFF7FEFF 		bl	__aeabi_fcmple
 4176              	.LVL440:
 4177 0054 0028     		cmp	r0, #0
 4178 0056 00D0     		beq	.LCB4027
 4179 0058 87E0     		b	.L228	@long jump
 4180              	.LCB4027:
 830:Core/Src/GEVA.c ****         error = 3;
 831:Core/Src/GEVA.c **** 
 832:Core/Src/GEVA.c ****     else {
 833:Core/Src/GEVA.c ****         if (x_cnt > c->x_division)
 4181              		.loc 1 833 9 is_stmt 1 view .LVU1166
 4182              		.loc 1 833 19 is_stmt 0 view .LVU1167
 4183 005a 464B     		ldr	r3, .L229+4
 4184 005c 1B78     		ldrb	r3, [r3]
 4185              		.loc 1 833 12 view .LVU1168
 4186 005e 9A45     		cmp	r10, r3
 4187 0060 02D2     		bcs	.L222
 834:Core/Src/GEVA.c ****             x_cnt = 0;
 4188              		.loc 1 834 13 is_stmt 1 view .LVU1169
 4189              		.loc 1 834 19 is_stmt 0 view .LVU1170
 4190 0062 444B     		ldr	r3, .L229+4
 4191 0064 0022     		movs	r2, #0
 4192 0066 1A70     		strb	r2, [r3]
 4193              	.L222:
 835:Core/Src/GEVA.c **** 
 836:Core/Src/GEVA.c ****         if (x_cnt == 0) {
 4194              		.loc 1 836 9 is_stmt 1 view .LVU1171
 4195              		.loc 1 836 19 is_stmt 0 view .LVU1172
 4196 0068 424B     		ldr	r3, .L229+4
 4197 006a 1D78     		ldrb	r5, [r3]
 4198              		.loc 1 836 12 view .LVU1173
 4199 006c 002D     		cmp	r5, #0
 4200 006e 60D1     		bne	.L223
 837:Core/Src/GEVA.c ****             // cancel chart area only at first entry
 838:Core/Src/GEVA.c ****             //draw axis only at first entry
 839:Core/Src/GEVA.c ****             put_line(c->o_x, c->o_y, c->o_x + c->dim_x, c->o_y, buf);
 4201              		.loc 1 839 13 is_stmt 1 view .LVU1174
 4202 0070 2078     		ldrb	r0, [r4]
 4203 0072 6178     		ldrb	r1, [r4, #1]
 4204 0074 3A18     		adds	r2, r7, r0
 4205 0076 D2B2     		uxtb	r2, r2
 4206 0078 0096     		str	r6, [sp]
 4207 007a 0B00     		movs	r3, r1
 4208 007c FFF7FEFF 		bl	put_line
 4209              	.LVL441:
 840:Core/Src/GEVA.c ****             put_line(c->o_x, c->o_y, c->o_x, c->o_y + c->dim_y_pos, buf);
 4210              		.loc 1 840 13 view .LVU1175
 4211 0080 2078     		ldrb	r0, [r4]
 4212 0082 6178     		ldrb	r1, [r4, #1]
 4213              		.loc 1 840 56 is_stmt 0 view .LVU1176
 4214 0084 2379     		ldrb	r3, [r4, #4]
 4215              		.loc 1 840 13 view .LVU1177
 4216 0086 CB18     		adds	r3, r1, r3
 4217 0088 DBB2     		uxtb	r3, r3
ARM GAS  C:\Users\arist\AppData\Local\Temp\ccUERo53.s 			page 104


 4218 008a 0096     		str	r6, [sp]
 4219 008c 0200     		movs	r2, r0
 4220 008e FFF7FEFF 		bl	put_line
 4221              	.LVL442:
 841:Core/Src/GEVA.c ****             put_line(c->o_x, c->o_y, c->o_x, c->o_y - c->dim_y_neg, buf); //
 4222              		.loc 1 841 13 is_stmt 1 view .LVU1178
 4223 0092 2078     		ldrb	r0, [r4]
 4224 0094 6178     		ldrb	r1, [r4, #1]
 4225              		.loc 1 841 56 is_stmt 0 view .LVU1179
 4226 0096 6379     		ldrb	r3, [r4, #5]
 4227              		.loc 1 841 13 view .LVU1180
 4228 0098 CB1A     		subs	r3, r1, r3
 4229 009a DBB2     		uxtb	r3, r3
 4230 009c 0096     		str	r6, [sp]
 4231 009e 0200     		movs	r2, r0
 4232 00a0 FFF7FEFF 		bl	put_line
 4233              	.LVL443:
 842:Core/Src/GEVA.c ****             
 843:Core/Src/GEVA.c ****             for (uint8_t i = 0; i <= c->x_division; i++) //draw x data markers
 4234              		.loc 1 843 13 is_stmt 1 view .LVU1181
 4235              	.LBB50:
 4236              		.loc 1 843 18 view .LVU1182
 4237              		.loc 1 843 13 is_stmt 0 view .LVU1183
 4238 00a4 0FE0     		b	.L224
 4239              	.LVL444:
 4240              	.L225:
 844:Core/Src/GEVA.c ****                 put_pixel(c->o_x + dx * i, c->o_y - 1,SET_C, buf);
 4241              		.loc 1 844 17 is_stmt 1 discriminator 3 view .LVU1184
 4242              		.loc 1 844 28 is_stmt 0 discriminator 3 view .LVU1185
 4243 00a6 2078     		ldrb	r0, [r4]
 4244              		.loc 1 844 39 discriminator 3 view .LVU1186
 4245 00a8 314B     		ldr	r3, .L229
 4246 00aa 1B78     		ldrb	r3, [r3]
 4247 00ac 6B43     		muls	r3, r5
 4248 00ae DBB2     		uxtb	r3, r3
 4249              		.loc 1 844 45 discriminator 3 view .LVU1187
 4250 00b0 6178     		ldrb	r1, [r4, #1]
 4251              		.loc 1 844 17 discriminator 3 view .LVU1188
 4252 00b2 0139     		subs	r1, r1, #1
 4253 00b4 C9B2     		uxtb	r1, r1
 4254 00b6 C018     		adds	r0, r0, r3
 4255 00b8 C0B2     		uxtb	r0, r0
 4256 00ba 3300     		movs	r3, r6
 4257 00bc 0122     		movs	r2, #1
 4258 00be FFF7FEFF 		bl	put_pixel
 4259              	.LVL445:
 843:Core/Src/GEVA.c ****                 put_pixel(c->o_x + dx * i, c->o_y - 1,SET_C, buf);
 4260              		.loc 1 843 54 is_stmt 1 discriminator 3 view .LVU1189
 4261 00c2 0135     		adds	r5, r5, #1
 4262              	.LVL446:
 843:Core/Src/GEVA.c ****                 put_pixel(c->o_x + dx * i, c->o_y - 1,SET_C, buf);
 4263              		.loc 1 843 54 is_stmt 0 discriminator 3 view .LVU1190
 4264 00c4 EDB2     		uxtb	r5, r5
 4265              	.LVL447:
 4266              	.L224:
 843:Core/Src/GEVA.c ****                 put_pixel(c->o_x + dx * i, c->o_y - 1,SET_C, buf);
 4267              		.loc 1 843 35 is_stmt 1 discriminator 1 view .LVU1191
ARM GAS  C:\Users\arist\AppData\Local\Temp\ccUERo53.s 			page 105


 843:Core/Src/GEVA.c ****                 put_pixel(c->o_x + dx * i, c->o_y - 1,SET_C, buf);
 4268              		.loc 1 843 39 is_stmt 0 discriminator 1 view .LVU1192
 4269 00c6 237E     		ldrb	r3, [r4, #24]
 843:Core/Src/GEVA.c ****                 put_pixel(c->o_x + dx * i, c->o_y - 1,SET_C, buf);
 4270              		.loc 1 843 35 discriminator 1 view .LVU1193
 4271 00c8 AB42     		cmp	r3, r5
 4272 00ca ECD2     		bcs	.L225
 4273              	.LBE50:
 845:Core/Src/GEVA.c ****             
 846:Core/Src/GEVA.c ****             old_data = c->o_y;
 4274              		.loc 1 846 13 is_stmt 1 view .LVU1194
 4275              		.loc 1 846 25 is_stmt 0 view .LVU1195
 4276 00cc 6178     		ldrb	r1, [r4, #1]
 4277              		.loc 1 846 22 view .LVU1196
 4278 00ce 2A4D     		ldr	r5, .L229+8
 4279              	.LVL448:
 4280              		.loc 1 846 22 view .LVU1197
 4281 00d0 2970     		strb	r1, [r5]
 847:Core/Src/GEVA.c ****             error = clear_sector(c->o_x + 1, c->o_y - c->dim_y_neg, c->dim_x, c->dim_y_neg, buf); /
 4282              		.loc 1 847 13 is_stmt 1 view .LVU1198
 4283              		.loc 1 847 35 is_stmt 0 view .LVU1199
 4284 00d2 2078     		ldrb	r0, [r4]
 4285              		.loc 1 847 56 view .LVU1200
 4286 00d4 6379     		ldrb	r3, [r4, #5]
 4287              		.loc 1 847 21 view .LVU1201
 4288 00d6 E278     		ldrb	r2, [r4, #3]
 4289 00d8 C91A     		subs	r1, r1, r3
 4290 00da C9B2     		uxtb	r1, r1
 4291 00dc 0130     		adds	r0, r0, #1
 4292 00de C0B2     		uxtb	r0, r0
 4293 00e0 0096     		str	r6, [sp]
 4294 00e2 FFF7FEFF 		bl	clear_sector
 4295              	.LVL449:
 848:Core/Src/GEVA.c ****             error = clear_sector(c->o_x + 1, c->o_y + 1, c->dim_x, c->dim_y_pos, buf); //limits che
 4296              		.loc 1 848 13 is_stmt 1 view .LVU1202
 4297              		.loc 1 848 35 is_stmt 0 view .LVU1203
 4298 00e6 2078     		ldrb	r0, [r4]
 4299              		.loc 1 848 47 view .LVU1204
 4300 00e8 6178     		ldrb	r1, [r4, #1]
 4301              		.loc 1 848 21 view .LVU1205
 4302 00ea 2379     		ldrb	r3, [r4, #4]
 4303 00ec E278     		ldrb	r2, [r4, #3]
 4304 00ee 0131     		adds	r1, r1, #1
 4305 00f0 C9B2     		uxtb	r1, r1
 4306 00f2 0130     		adds	r0, r0, #1
 4307 00f4 C0B2     		uxtb	r0, r0
 4308 00f6 0096     		str	r6, [sp]
 4309 00f8 FFF7FEFF 		bl	clear_sector
 4310              	.LVL450:
 849:Core/Src/GEVA.c ****             //first entry
 850:Core/Src/GEVA.c ****             error = put_line(c->o_x, (uint8_t)old_data, c->o_x, (uint8_t)(c->o_y + value), buf);
 4311              		.loc 1 850 13 is_stmt 1 view .LVU1206
 4312              		.loc 1 850 21 is_stmt 0 view .LVU1207
 4313 00fc 2078     		ldrb	r0, [r4]
 4314              		.loc 1 850 76 view .LVU1208
 4315 00fe 6378     		ldrb	r3, [r4, #1]
 4316              		.loc 1 850 21 view .LVU1209
ARM GAS  C:\Users\arist\AppData\Local\Temp\ccUERo53.s 			page 106


 4317 0100 4A46     		mov	r2, r9
 4318 0102 D7B2     		uxtb	r7, r2
 4319 0104 DB19     		adds	r3, r3, r7
 4320 0106 DBB2     		uxtb	r3, r3
 4321 0108 2978     		ldrb	r1, [r5]
 4322 010a 0096     		str	r6, [sp]
 4323 010c 0200     		movs	r2, r0
 4324 010e FFF7FEFF 		bl	put_line
 4325              	.LVL451:
 851:Core/Src/GEVA.c ****             old_data = c->o_y + value;
 4326              		.loc 1 851 13 is_stmt 1 view .LVU1210
 4327              		.loc 1 851 25 is_stmt 0 view .LVU1211
 4328 0112 6378     		ldrb	r3, [r4, #1]
 4329              		.loc 1 851 31 view .LVU1212
 4330 0114 FF18     		adds	r7, r7, r3
 4331              		.loc 1 851 22 view .LVU1213
 4332 0116 2F70     		strb	r7, [r5]
 852:Core/Src/GEVA.c ****             x = c->o_x;
 4333              		.loc 1 852 13 is_stmt 1 view .LVU1214
 4334              		.loc 1 852 18 is_stmt 0 view .LVU1215
 4335 0118 2278     		ldrb	r2, [r4]
 4336              		.loc 1 852 15 view .LVU1216
 4337 011a 184B     		ldr	r3, .L229+12
 4338 011c 1A70     		strb	r2, [r3]
 4339              	.LVL452:
 4340              	.L226:
 853:Core/Src/GEVA.c ****         }
 854:Core/Src/GEVA.c ****         else {
 855:Core/Src/GEVA.c ****             error = put_line(x, (uint8_t)old_data, x + dx, c->o_y + value, buf);
 856:Core/Src/GEVA.c ****             old_data = (uint8_t)(c->o_y + value);
 857:Core/Src/GEVA.c ****             x += dx;
 858:Core/Src/GEVA.c ****         }
 859:Core/Src/GEVA.c ****         x_cnt++;
 4341              		.loc 1 859 9 is_stmt 1 view .LVU1217
 4342              		.loc 1 859 14 is_stmt 0 view .LVU1218
 4343 011e 154A     		ldr	r2, .L229+4
 4344 0120 1378     		ldrb	r3, [r2]
 4345 0122 0133     		adds	r3, r3, #1
 4346 0124 1370     		strb	r3, [r2]
 4347              	.LVL453:
 4348              	.L221:
 860:Core/Src/GEVA.c ****     }
 861:Core/Src/GEVA.c ****     return error;
 4349              		.loc 1 861 5 is_stmt 1 view .LVU1219
 862:Core/Src/GEVA.c **** }
 4350              		.loc 1 862 1 is_stmt 0 view .LVU1220
 4351 0126 02B0     		add	sp, sp, #8
 4352              		@ sp needed
 4353              	.LVL454:
 4354              	.LVL455:
 4355              	.LVL456:
 4356              		.loc 1 862 1 view .LVU1221
 4357 0128 E0BC     		pop	{r5, r6, r7}
 4358 012a BA46     		mov	r10, r7
 4359 012c B146     		mov	r9, r6
 4360 012e A846     		mov	r8, r5
 4361 0130 F0BD     		pop	{r4, r5, r6, r7, pc}
ARM GAS  C:\Users\arist\AppData\Local\Temp\ccUERo53.s 			page 107


 4362              	.LVL457:
 4363              	.L223:
 855:Core/Src/GEVA.c ****             old_data = (uint8_t)(c->o_y + value);
 4364              		.loc 1 855 13 is_stmt 1 view .LVU1222
 855:Core/Src/GEVA.c ****             old_data = (uint8_t)(c->o_y + value);
 4365              		.loc 1 855 21 is_stmt 0 view .LVU1223
 4366 0132 124D     		ldr	r5, .L229+12
 4367 0134 2878     		ldrb	r0, [r5]
 855:Core/Src/GEVA.c ****             old_data = (uint8_t)(c->o_y + value);
 4368              		.loc 1 855 61 view .LVU1224
 4369 0136 6378     		ldrb	r3, [r4, #1]
 855:Core/Src/GEVA.c ****             old_data = (uint8_t)(c->o_y + value);
 4370              		.loc 1 855 21 view .LVU1225
 4371 0138 4A46     		mov	r2, r9
 4372 013a D7B2     		uxtb	r7, r2
 4373 013c DB19     		adds	r3, r3, r7
 4374 013e DBB2     		uxtb	r3, r3
 4375 0140 4246     		mov	r2, r8
 4376 0142 1218     		adds	r2, r2, r0
 4377 0144 D2B2     		uxtb	r2, r2
 4378 0146 0C49     		ldr	r1, .L229+8
 4379 0148 8846     		mov	r8, r1
 4380 014a 0978     		ldrb	r1, [r1]
 4381 014c 0096     		str	r6, [sp]
 4382 014e FFF7FEFF 		bl	put_line
 4383              	.LVL458:
 856:Core/Src/GEVA.c ****             x += dx;
 4384              		.loc 1 856 13 is_stmt 1 view .LVU1226
 856:Core/Src/GEVA.c ****             x += dx;
 4385              		.loc 1 856 35 is_stmt 0 view .LVU1227
 4386 0152 6378     		ldrb	r3, [r4, #1]
 856:Core/Src/GEVA.c ****             x += dx;
 4387              		.loc 1 856 24 view .LVU1228
 4388 0154 FF18     		adds	r7, r7, r3
 856:Core/Src/GEVA.c ****             x += dx;
 4389              		.loc 1 856 22 view .LVU1229
 4390 0156 4346     		mov	r3, r8
 4391 0158 1F70     		strb	r7, [r3]
 857:Core/Src/GEVA.c ****         }
 4392              		.loc 1 857 13 is_stmt 1 view .LVU1230
 857:Core/Src/GEVA.c ****         }
 4393              		.loc 1 857 15 is_stmt 0 view .LVU1231
 4394 015a 054A     		ldr	r2, .L229
 4395 015c 2B78     		ldrb	r3, [r5]
 4396 015e 1278     		ldrb	r2, [r2]
 4397 0160 9B18     		adds	r3, r3, r2
 4398 0162 2B70     		strb	r3, [r5]
 4399 0164 DBE7     		b	.L226
 4400              	.LVL459:
 4401              	.L227:
 830:Core/Src/GEVA.c **** 
 4402              		.loc 1 830 15 view .LVU1232
 4403 0166 0320     		movs	r0, #3
 4404 0168 DDE7     		b	.L221
 4405              	.L228:
 4406 016a 0320     		movs	r0, #3
 4407 016c DBE7     		b	.L221
ARM GAS  C:\Users\arist\AppData\Local\Temp\ccUERo53.s 			page 108


 4408              	.L230:
 4409 016e C046     		.align	2
 4410              	.L229:
 4411 0170 00000000 		.word	dx.7
 4412 0174 00000000 		.word	x_cnt.6
 4413 0178 00000000 		.word	old_data.5
 4414 017c 00000000 		.word	x.4
 4415              		.cfi_endproc
 4416              	.LFE26:
 4418              		.section	.text.update_SCATTER,"ax",%progbits
 4419              		.align	1
 4420              		.global	update_SCATTER
 4421              		.syntax unified
 4422              		.code	16
 4423              		.thumb_func
 4425              	update_SCATTER:
 4426              	.LVL460:
 4427              	.LFB27:
 863:Core/Src/GEVA.c **** 
 864:Core/Src/GEVA.c **** /* Draw scatter like chart
 865:Core/Src/GEVA.c ****  * return error code
 866:Core/Src/GEVA.c ****  * error code list:
 867:Core/Src/GEVA.c ****  * 1 data out of range
 868:Core/Src/GEVA.c ****  * 2 dimension mismatch
 869:Core/Src/GEVA.c ****  * 3 chart not defined
 870:Core/Src/GEVA.c ****  * 4 starting point out of scope
 871:Core/Src/GEVA.c ****  * beware: no check on data coherence nor axis limits
 872:Core/Src/GEVA.c ****  * note: change data before calling update
 873:Core/Src/GEVA.c **** */
 874:Core/Src/GEVA.c **** uint8_t update_SCATTER(data_container* c, video_buffer* buf) {
 4428              		.loc 1 874 62 is_stmt 1 view -0
 4429              		.cfi_startproc
 4430              		@ args = 0, pretend = 0, frame = 0
 4431              		@ frame_needed = 0, uses_anonymous_args = 0
 4432              		.loc 1 874 62 is_stmt 0 view .LVU1234
 4433 0000 F0B5     		push	{r4, r5, r6, r7, lr}
 4434              		.cfi_def_cfa_offset 20
 4435              		.cfi_offset 4, -20
 4436              		.cfi_offset 5, -16
 4437              		.cfi_offset 6, -12
 4438              		.cfi_offset 7, -8
 4439              		.cfi_offset 14, -4
 4440 0002 D646     		mov	lr, r10
 4441 0004 4F46     		mov	r7, r9
 4442 0006 4646     		mov	r6, r8
 4443 0008 C0B5     		push	{r6, r7, lr}
 4444              		.cfi_def_cfa_offset 32
 4445              		.cfi_offset 8, -32
 4446              		.cfi_offset 9, -28
 4447              		.cfi_offset 10, -24
 4448 000a 82B0     		sub	sp, sp, #8
 4449              		.cfi_def_cfa_offset 40
 4450 000c 0400     		movs	r4, r0
 4451 000e 0E00     		movs	r6, r1
 875:Core/Src/GEVA.c ****     
 876:Core/Src/GEVA.c ****     uint8_t error = 1;
 4452              		.loc 1 876 5 is_stmt 1 view .LVU1235
ARM GAS  C:\Users\arist\AppData\Local\Temp\ccUERo53.s 			page 109


 4453              	.LVL461:
 877:Core/Src/GEVA.c ****     int16_t value = (c->data * c->dim_y_pos / c->max);
 4454              		.loc 1 877 5 view .LVU1236
 4455              		.loc 1 877 23 is_stmt 0 view .LVU1237
 4456 0010 4569     		ldr	r5, [r0, #20]
 4457              		.loc 1 877 33 view .LVU1238
 4458 0012 0079     		ldrb	r0, [r0, #4]
 4459              	.LVL462:
 4460              		.loc 1 877 30 view .LVU1239
 4461 0014 FFF7FEFF 		bl	__aeabi_i2f
 4462              	.LVL463:
 4463              		.loc 1 877 30 view .LVU1240
 4464 0018 291C     		adds	r1, r5, #0
 4465 001a FFF7FEFF 		bl	__aeabi_fmul
 4466              	.LVL464:
 4467              		.loc 1 877 48 view .LVU1241
 4468 001e A368     		ldr	r3, [r4, #8]
 4469 0020 9946     		mov	r9, r3
 4470              		.loc 1 877 45 view .LVU1242
 4471 0022 191C     		adds	r1, r3, #0
 4472 0024 FFF7FEFF 		bl	__aeabi_fdiv
 4473              	.LVL465:
 4474              		.loc 1 877 13 view .LVU1243
 4475 0028 FFF7FEFF 		bl	__aeabi_f2iz
 4476              	.LVL466:
 4477 002c 03B2     		sxth	r3, r0
 4478 002e 9846     		mov	r8, r3
 4479              	.LVL467:
 878:Core/Src/GEVA.c ****     static uint8_t old_data;
 4480              		.loc 1 878 5 is_stmt 1 view .LVU1244
 879:Core/Src/GEVA.c ****     static uint8_t dx;
 4481              		.loc 1 879 5 view .LVU1245
 880:Core/Src/GEVA.c ****     dx = c->dim_x / c->x_division; //limit is dim_x
 4482              		.loc 1 880 5 view .LVU1246
 4483              		.loc 1 880 11 is_stmt 0 view .LVU1247
 4484 0030 E778     		ldrb	r7, [r4, #3]
 4485              		.loc 1 880 22 view .LVU1248
 4486 0032 237E     		ldrb	r3, [r4, #24]
 4487 0034 9A46     		mov	r10, r3
 4488              		.loc 1 880 8 view .LVU1249
 4489 0036 474D     		ldr	r5, .L240
 4490 0038 1900     		movs	r1, r3
 4491 003a 3800     		movs	r0, r7
 4492 003c FFF7FEFF 		bl	__aeabi_uidiv
 4493              	.LVL468:
 4494 0040 2870     		strb	r0, [r5]
 881:Core/Src/GEVA.c ****     static uint8_t x;
 4495              		.loc 1 881 5 is_stmt 1 view .LVU1250
 882:Core/Src/GEVA.c **** 
 883:Core/Src/GEVA.c ****     static uint8_t x_cnt = 0;
 4496              		.loc 1 883 5 view .LVU1251
 884:Core/Src/GEVA.c **** 
 885:Core/Src/GEVA.c ****     if (c->dim_x == 0 || c->max <= c->min)
 4497              		.loc 1 885 5 view .LVU1252
 4498              		.loc 1 885 8 is_stmt 0 view .LVU1253
 4499 0042 002F     		cmp	r7, #0
 4500 0044 00D1     		bne	.LCB4314
ARM GAS  C:\Users\arist\AppData\Local\Temp\ccUERo53.s 			page 110


 4501 0046 81E0     		b	.L238	@long jump
 4502              	.LCB4314:
 4503              		.loc 1 885 37 discriminator 1 view .LVU1254
 4504 0048 E168     		ldr	r1, [r4, #12]
 4505              		.loc 1 885 23 discriminator 1 view .LVU1255
 4506 004a 4846     		mov	r0, r9
 4507 004c FFF7FEFF 		bl	__aeabi_fcmple
 4508              	.LVL469:
 4509 0050 0028     		cmp	r0, #0
 4510 0052 00D0     		beq	.LCB4320
 4511 0054 7CE0     		b	.L239	@long jump
 4512              	.LCB4320:
 886:Core/Src/GEVA.c ****         error = 3;
 887:Core/Src/GEVA.c **** 
 888:Core/Src/GEVA.c ****     else {
 889:Core/Src/GEVA.c ****         if (x_cnt > c->x_division)
 4513              		.loc 1 889 9 is_stmt 1 view .LVU1256
 4514              		.loc 1 889 19 is_stmt 0 view .LVU1257
 4515 0056 404B     		ldr	r3, .L240+4
 4516 0058 1B78     		ldrb	r3, [r3]
 4517              		.loc 1 889 12 view .LVU1258
 4518 005a 9A45     		cmp	r10, r3
 4519 005c 02D2     		bcs	.L233
 890:Core/Src/GEVA.c ****             x_cnt = 0;
 4520              		.loc 1 890 13 is_stmt 1 view .LVU1259
 4521              		.loc 1 890 19 is_stmt 0 view .LVU1260
 4522 005e 3E4B     		ldr	r3, .L240+4
 4523 0060 0022     		movs	r2, #0
 4524 0062 1A70     		strb	r2, [r3]
 4525              	.L233:
 891:Core/Src/GEVA.c **** 
 892:Core/Src/GEVA.c ****         if (x_cnt == 0) {
 4526              		.loc 1 892 9 is_stmt 1 view .LVU1261
 4527              		.loc 1 892 19 is_stmt 0 view .LVU1262
 4528 0064 3C4B     		ldr	r3, .L240+4
 4529 0066 1D78     		ldrb	r5, [r3]
 4530              		.loc 1 892 12 view .LVU1263
 4531 0068 002D     		cmp	r5, #0
 4532 006a 60D1     		bne	.L234
 893:Core/Src/GEVA.c ****             // cancel chart area only at first entry
 894:Core/Src/GEVA.c ****             //draw axis only at first entry
 895:Core/Src/GEVA.c ****             put_line(c->o_x, c->o_y, c->o_x + c->dim_x, c->o_y, buf);
 4533              		.loc 1 895 13 is_stmt 1 view .LVU1264
 4534 006c 2078     		ldrb	r0, [r4]
 4535 006e 6178     		ldrb	r1, [r4, #1]
 4536 0070 3A18     		adds	r2, r7, r0
 4537 0072 D2B2     		uxtb	r2, r2
 4538 0074 0096     		str	r6, [sp]
 4539 0076 0B00     		movs	r3, r1
 4540 0078 FFF7FEFF 		bl	put_line
 4541              	.LVL470:
 896:Core/Src/GEVA.c ****             put_line(c->o_x, c->o_y, c->o_x, c->o_y + c->dim_y_pos, buf);
 4542              		.loc 1 896 13 view .LVU1265
 4543 007c 2078     		ldrb	r0, [r4]
 4544 007e 6178     		ldrb	r1, [r4, #1]
 4545              		.loc 1 896 56 is_stmt 0 view .LVU1266
 4546 0080 2379     		ldrb	r3, [r4, #4]
ARM GAS  C:\Users\arist\AppData\Local\Temp\ccUERo53.s 			page 111


 4547              		.loc 1 896 13 view .LVU1267
 4548 0082 CB18     		adds	r3, r1, r3
 4549 0084 DBB2     		uxtb	r3, r3
 4550 0086 0096     		str	r6, [sp]
 4551 0088 0200     		movs	r2, r0
 4552 008a FFF7FEFF 		bl	put_line
 4553              	.LVL471:
 897:Core/Src/GEVA.c ****             put_line(c->o_x, c->o_y, c->o_x, c->o_y - c->dim_y_neg, buf);
 4554              		.loc 1 897 13 is_stmt 1 view .LVU1268
 4555 008e 2078     		ldrb	r0, [r4]
 4556 0090 6178     		ldrb	r1, [r4, #1]
 4557              		.loc 1 897 56 is_stmt 0 view .LVU1269
 4558 0092 6379     		ldrb	r3, [r4, #5]
 4559              		.loc 1 897 13 view .LVU1270
 4560 0094 CB1A     		subs	r3, r1, r3
 4561 0096 DBB2     		uxtb	r3, r3
 4562 0098 0096     		str	r6, [sp]
 4563 009a 0200     		movs	r2, r0
 4564 009c FFF7FEFF 		bl	put_line
 4565              	.LVL472:
 898:Core/Src/GEVA.c ****             
 899:Core/Src/GEVA.c ****                 
 900:Core/Src/GEVA.c ****             for (uint8_t i = 0; i <= c->x_division; i++) //draw x data markers
 4566              		.loc 1 900 13 is_stmt 1 view .LVU1271
 4567              	.LBB51:
 4568              		.loc 1 900 18 view .LVU1272
 4569              		.loc 1 900 13 is_stmt 0 view .LVU1273
 4570 00a0 0FE0     		b	.L235
 4571              	.LVL473:
 4572              	.L236:
 901:Core/Src/GEVA.c ****                 put_pixel(c->o_x + dx * i, c->o_y - 1, SET_C, buf);
 4573              		.loc 1 901 17 is_stmt 1 discriminator 3 view .LVU1274
 4574              		.loc 1 901 28 is_stmt 0 discriminator 3 view .LVU1275
 4575 00a2 2078     		ldrb	r0, [r4]
 4576              		.loc 1 901 39 discriminator 3 view .LVU1276
 4577 00a4 2B4B     		ldr	r3, .L240
 4578 00a6 1B78     		ldrb	r3, [r3]
 4579 00a8 6B43     		muls	r3, r5
 4580 00aa DBB2     		uxtb	r3, r3
 4581              		.loc 1 901 45 discriminator 3 view .LVU1277
 4582 00ac 6178     		ldrb	r1, [r4, #1]
 4583              		.loc 1 901 17 discriminator 3 view .LVU1278
 4584 00ae 0139     		subs	r1, r1, #1
 4585 00b0 C9B2     		uxtb	r1, r1
 4586 00b2 C018     		adds	r0, r0, r3
 4587 00b4 C0B2     		uxtb	r0, r0
 4588 00b6 3300     		movs	r3, r6
 4589 00b8 0122     		movs	r2, #1
 4590 00ba FFF7FEFF 		bl	put_pixel
 4591              	.LVL474:
 900:Core/Src/GEVA.c ****                 put_pixel(c->o_x + dx * i, c->o_y - 1, SET_C, buf);
 4592              		.loc 1 900 54 is_stmt 1 discriminator 3 view .LVU1279
 4593 00be 0135     		adds	r5, r5, #1
 4594              	.LVL475:
 900:Core/Src/GEVA.c ****                 put_pixel(c->o_x + dx * i, c->o_y - 1, SET_C, buf);
 4595              		.loc 1 900 54 is_stmt 0 discriminator 3 view .LVU1280
 4596 00c0 EDB2     		uxtb	r5, r5
ARM GAS  C:\Users\arist\AppData\Local\Temp\ccUERo53.s 			page 112


 4597              	.LVL476:
 4598              	.L235:
 900:Core/Src/GEVA.c ****                 put_pixel(c->o_x + dx * i, c->o_y - 1, SET_C, buf);
 4599              		.loc 1 900 35 is_stmt 1 discriminator 1 view .LVU1281
 900:Core/Src/GEVA.c ****                 put_pixel(c->o_x + dx * i, c->o_y - 1, SET_C, buf);
 4600              		.loc 1 900 39 is_stmt 0 discriminator 1 view .LVU1282
 4601 00c2 237E     		ldrb	r3, [r4, #24]
 900:Core/Src/GEVA.c ****                 put_pixel(c->o_x + dx * i, c->o_y - 1, SET_C, buf);
 4602              		.loc 1 900 35 discriminator 1 view .LVU1283
 4603 00c4 AB42     		cmp	r3, r5
 4604 00c6 ECD2     		bcs	.L236
 4605              	.LBE51:
 902:Core/Src/GEVA.c **** 
 903:Core/Src/GEVA.c ****             old_data = c->o_y;
 4606              		.loc 1 903 13 is_stmt 1 view .LVU1284
 4607              		.loc 1 903 25 is_stmt 0 view .LVU1285
 4608 00c8 6178     		ldrb	r1, [r4, #1]
 4609              		.loc 1 903 22 view .LVU1286
 4610 00ca 244D     		ldr	r5, .L240+8
 4611              	.LVL477:
 4612              		.loc 1 903 22 view .LVU1287
 4613 00cc 2970     		strb	r1, [r5]
 904:Core/Src/GEVA.c ****                 
 905:Core/Src/GEVA.c ****             error = clear_sector(c->o_x + 1, c->o_y - c->dim_y_neg, c->dim_x, c->dim_y_neg, buf); /
 4614              		.loc 1 905 13 is_stmt 1 view .LVU1288
 4615              		.loc 1 905 35 is_stmt 0 view .LVU1289
 4616 00ce 2078     		ldrb	r0, [r4]
 4617              		.loc 1 905 56 view .LVU1290
 4618 00d0 6379     		ldrb	r3, [r4, #5]
 4619              		.loc 1 905 21 view .LVU1291
 4620 00d2 E278     		ldrb	r2, [r4, #3]
 4621 00d4 C91A     		subs	r1, r1, r3
 4622 00d6 C9B2     		uxtb	r1, r1
 4623 00d8 0130     		adds	r0, r0, #1
 4624 00da C0B2     		uxtb	r0, r0
 4625 00dc 0096     		str	r6, [sp]
 4626 00de FFF7FEFF 		bl	clear_sector
 4627              	.LVL478:
 906:Core/Src/GEVA.c ****             error = clear_sector(c->o_x + 1, c->o_y + 1, c->dim_x, c->dim_y_pos, buf); //limits che
 4628              		.loc 1 906 13 is_stmt 1 view .LVU1292
 4629              		.loc 1 906 35 is_stmt 0 view .LVU1293
 4630 00e2 2078     		ldrb	r0, [r4]
 4631              		.loc 1 906 47 view .LVU1294
 4632 00e4 6178     		ldrb	r1, [r4, #1]
 4633              		.loc 1 906 21 view .LVU1295
 4634 00e6 2379     		ldrb	r3, [r4, #4]
 4635 00e8 E278     		ldrb	r2, [r4, #3]
 4636 00ea 0131     		adds	r1, r1, #1
 4637 00ec C9B2     		uxtb	r1, r1
 4638 00ee 0130     		adds	r0, r0, #1
 4639 00f0 C0B2     		uxtb	r0, r0
 4640 00f2 0096     		str	r6, [sp]
 4641 00f4 FFF7FEFF 		bl	clear_sector
 4642              	.LVL479:
 907:Core/Src/GEVA.c ****             //first entry
 908:Core/Src/GEVA.c ****             error = put_line(c->o_x, (uint8_t)old_data, c->o_x, (uint8_t)(c->o_y + value), buf);
 4643              		.loc 1 908 13 is_stmt 1 view .LVU1296
ARM GAS  C:\Users\arist\AppData\Local\Temp\ccUERo53.s 			page 113


 4644              		.loc 1 908 21 is_stmt 0 view .LVU1297
 4645 00f8 2078     		ldrb	r0, [r4]
 4646              		.loc 1 908 76 view .LVU1298
 4647 00fa 6378     		ldrb	r3, [r4, #1]
 4648              		.loc 1 908 21 view .LVU1299
 4649 00fc 4246     		mov	r2, r8
 4650 00fe D7B2     		uxtb	r7, r2
 4651 0100 DB19     		adds	r3, r3, r7
 4652 0102 DBB2     		uxtb	r3, r3
 4653 0104 2978     		ldrb	r1, [r5]
 4654 0106 0096     		str	r6, [sp]
 4655 0108 0200     		movs	r2, r0
 4656 010a FFF7FEFF 		bl	put_line
 4657              	.LVL480:
 909:Core/Src/GEVA.c ****             old_data = c->o_y + value;
 4658              		.loc 1 909 13 is_stmt 1 view .LVU1300
 4659              		.loc 1 909 25 is_stmt 0 view .LVU1301
 4660 010e 6378     		ldrb	r3, [r4, #1]
 4661              		.loc 1 909 31 view .LVU1302
 4662 0110 FF18     		adds	r7, r7, r3
 4663              		.loc 1 909 22 view .LVU1303
 4664 0112 2F70     		strb	r7, [r5]
 910:Core/Src/GEVA.c ****             x = c->o_x;
 4665              		.loc 1 910 13 is_stmt 1 view .LVU1304
 4666              		.loc 1 910 18 is_stmt 0 view .LVU1305
 4667 0114 2278     		ldrb	r2, [r4]
 4668              		.loc 1 910 15 view .LVU1306
 4669 0116 124B     		ldr	r3, .L240+12
 4670 0118 1A70     		strb	r2, [r3]
 4671              	.LVL481:
 4672              	.L237:
 911:Core/Src/GEVA.c ****         }
 912:Core/Src/GEVA.c ****         else {
 913:Core/Src/GEVA.c ****             error = put_pixel(x, (uint8_t)(c->o_y + value), SET_C, buf);
 914:Core/Src/GEVA.c ****             //old_data = (uint8_t)(c->o_y + value);
 915:Core/Src/GEVA.c ****             x += dx;
 916:Core/Src/GEVA.c ****         }
 917:Core/Src/GEVA.c ****         x_cnt++;
 4673              		.loc 1 917 9 is_stmt 1 view .LVU1307
 4674              		.loc 1 917 14 is_stmt 0 view .LVU1308
 4675 011a 0F4A     		ldr	r2, .L240+4
 4676 011c 1378     		ldrb	r3, [r2]
 4677 011e 0133     		adds	r3, r3, #1
 4678 0120 1370     		strb	r3, [r2]
 4679              	.LVL482:
 4680              	.L232:
 918:Core/Src/GEVA.c ****     }
 919:Core/Src/GEVA.c ****     return error;
 4681              		.loc 1 919 5 is_stmt 1 view .LVU1309
 920:Core/Src/GEVA.c **** }
 4682              		.loc 1 920 1 is_stmt 0 view .LVU1310
 4683 0122 02B0     		add	sp, sp, #8
 4684              		@ sp needed
 4685              	.LVL483:
 4686              	.LVL484:
 4687              		.loc 1 920 1 view .LVU1311
 4688 0124 E0BC     		pop	{r5, r6, r7}
ARM GAS  C:\Users\arist\AppData\Local\Temp\ccUERo53.s 			page 114


 4689 0126 BA46     		mov	r10, r7
 4690 0128 B146     		mov	r9, r6
 4691 012a A846     		mov	r8, r5
 4692 012c F0BD     		pop	{r4, r5, r6, r7, pc}
 4693              	.LVL485:
 4694              	.L234:
 913:Core/Src/GEVA.c ****             //old_data = (uint8_t)(c->o_y + value);
 4695              		.loc 1 913 13 is_stmt 1 view .LVU1312
 913:Core/Src/GEVA.c ****             //old_data = (uint8_t)(c->o_y + value);
 4696              		.loc 1 913 45 is_stmt 0 view .LVU1313
 4697 012e 6178     		ldrb	r1, [r4, #1]
 913:Core/Src/GEVA.c ****             //old_data = (uint8_t)(c->o_y + value);
 4698              		.loc 1 913 21 view .LVU1314
 4699 0130 4144     		add	r1, r1, r8
 4700 0132 C9B2     		uxtb	r1, r1
 4701 0134 0A4C     		ldr	r4, .L240+12
 4702              	.LVL486:
 913:Core/Src/GEVA.c ****             //old_data = (uint8_t)(c->o_y + value);
 4703              		.loc 1 913 21 view .LVU1315
 4704 0136 2078     		ldrb	r0, [r4]
 4705 0138 3300     		movs	r3, r6
 4706 013a 0122     		movs	r2, #1
 4707 013c FFF7FEFF 		bl	put_pixel
 4708              	.LVL487:
 915:Core/Src/GEVA.c ****         }
 4709              		.loc 1 915 13 is_stmt 1 view .LVU1316
 915:Core/Src/GEVA.c ****         }
 4710              		.loc 1 915 15 is_stmt 0 view .LVU1317
 4711 0140 044A     		ldr	r2, .L240
 4712 0142 2378     		ldrb	r3, [r4]
 4713 0144 1278     		ldrb	r2, [r2]
 4714 0146 9B18     		adds	r3, r3, r2
 4715 0148 2370     		strb	r3, [r4]
 4716 014a E6E7     		b	.L237
 4717              	.LVL488:
 4718              	.L238:
 886:Core/Src/GEVA.c **** 
 4719              		.loc 1 886 15 view .LVU1318
 4720 014c 0320     		movs	r0, #3
 4721 014e E8E7     		b	.L232
 4722              	.L239:
 4723 0150 0320     		movs	r0, #3
 4724 0152 E6E7     		b	.L232
 4725              	.L241:
 4726              		.align	2
 4727              	.L240:
 4728 0154 00000000 		.word	dx.3
 4729 0158 00000000 		.word	x_cnt.2
 4730 015c 00000000 		.word	old_data.1
 4731 0160 00000000 		.word	x.0
 4732              		.cfi_endproc
 4733              	.LFE27:
 4735              		.section	.text.update_XY,"ax",%progbits
 4736              		.align	1
 4737              		.global	update_XY
 4738              		.syntax unified
 4739              		.code	16
ARM GAS  C:\Users\arist\AppData\Local\Temp\ccUERo53.s 			page 115


 4740              		.thumb_func
 4742              	update_XY:
 4743              	.LVL489:
 4744              	.LFB28:
 921:Core/Src/GEVA.c **** 
 922:Core/Src/GEVA.c **** 
 923:Core/Src/GEVA.c **** /* Draw XY type chart where for every x is associate a y value similar to scatter but data are take
 924:Core/Src/GEVA.c ****  * return error code
 925:Core/Src/GEVA.c ****  * error code list:
 926:Core/Src/GEVA.c ****  * 1 data out of range
 927:Core/Src/GEVA.c ****  * 2 dimension mismatch
 928:Core/Src/GEVA.c ****  * 3 chart not defined
 929:Core/Src/GEVA.c ****  * 4 starting point out of scope
 930:Core/Src/GEVA.c ****  * beware: no check on data coherence nor axis limits
 931:Core/Src/GEVA.c ****  * note: both x and y values get scaled thus the visualization can be messy if x values are to clos
 932:Core/Src/GEVA.c **** */
 933:Core/Src/GEVA.c **** uint8_t update_XY(data_container* c, video_buffer* buf) {
 4745              		.loc 1 933 57 is_stmt 1 view -0
 4746              		.cfi_startproc
 4747              		@ args = 0, pretend = 0, frame = 0
 4748              		@ frame_needed = 0, uses_anonymous_args = 0
 4749              		.loc 1 933 57 is_stmt 0 view .LVU1320
 4750 0000 F0B5     		push	{r4, r5, r6, r7, lr}
 4751              		.cfi_def_cfa_offset 20
 4752              		.cfi_offset 4, -20
 4753              		.cfi_offset 5, -16
 4754              		.cfi_offset 6, -12
 4755              		.cfi_offset 7, -8
 4756              		.cfi_offset 14, -4
 4757 0002 D646     		mov	lr, r10
 4758 0004 4F46     		mov	r7, r9
 4759 0006 4646     		mov	r6, r8
 4760 0008 C0B5     		push	{r6, r7, lr}
 4761              		.cfi_def_cfa_offset 32
 4762              		.cfi_offset 8, -32
 4763              		.cfi_offset 9, -28
 4764              		.cfi_offset 10, -24
 4765 000a 82B0     		sub	sp, sp, #8
 4766              		.cfi_def_cfa_offset 40
 4767 000c 0400     		movs	r4, r0
 4768 000e 8A46     		mov	r10, r1
 934:Core/Src/GEVA.c **** 
 935:Core/Src/GEVA.c ****     uint8_t error = 1;
 4769              		.loc 1 935 5 is_stmt 1 view .LVU1321
 4770              	.LVL490:
 936:Core/Src/GEVA.c ****     uint8_t dx = 0;
 4771              		.loc 1 936 5 view .LVU1322
 937:Core/Src/GEVA.c ****     int16_t dy = 0;
 4772              		.loc 1 937 5 view .LVU1323
 938:Core/Src/GEVA.c **** 
 939:Core/Src/GEVA.c ****     if (c->dim_x == 0 || c->max <= c->min)
 4773              		.loc 1 939 5 view .LVU1324
 4774              		.loc 1 939 10 is_stmt 0 view .LVU1325
 4775 0010 C578     		ldrb	r5, [r0, #3]
 4776              		.loc 1 939 8 view .LVU1326
 4777 0012 002D     		cmp	r5, #0
 4778 0014 66D0     		beq	.L246
ARM GAS  C:\Users\arist\AppData\Local\Temp\ccUERo53.s 			page 116


 4779              		.loc 1 939 27 discriminator 1 view .LVU1327
 4780 0016 8068     		ldr	r0, [r0, #8]
 4781              	.LVL491:
 4782              		.loc 1 939 37 discriminator 1 view .LVU1328
 4783 0018 E168     		ldr	r1, [r4, #12]
 4784              	.LVL492:
 4785              		.loc 1 939 23 discriminator 1 view .LVU1329
 4786 001a FFF7FEFF 		bl	__aeabi_fcmple
 4787              	.LVL493:
 4788 001e 0028     		cmp	r0, #0
 4789 0020 02D0     		beq	.L248
 940:Core/Src/GEVA.c ****         error = 3;
 4790              		.loc 1 940 15 view .LVU1330
 4791 0022 0323     		movs	r3, #3
 4792 0024 9846     		mov	r8, r3
 4793 0026 5FE0     		b	.L243
 4794              	.L248:
 941:Core/Src/GEVA.c **** 
 942:Core/Src/GEVA.c ****     else {
 943:Core/Src/GEVA.c ****             // cancel chart area only at first entry
 944:Core/Src/GEVA.c ****             //draw axis only at first entry
 945:Core/Src/GEVA.c ****             error = clear_sector(c->o_x, c->o_y - c->dim_y_neg, c->dim_x, c->dim_y_neg, buf); //lim
 4795              		.loc 1 945 13 is_stmt 1 view .LVU1331
 4796              		.loc 1 945 43 is_stmt 0 view .LVU1332
 4797 0028 6178     		ldrb	r1, [r4, #1]
 4798              		.loc 1 945 52 view .LVU1333
 4799 002a 6379     		ldrb	r3, [r4, #5]
 4800              		.loc 1 945 21 view .LVU1334
 4801 002c C91A     		subs	r1, r1, r3
 4802 002e C9B2     		uxtb	r1, r1
 4803 0030 2078     		ldrb	r0, [r4]
 4804 0032 5246     		mov	r2, r10
 4805 0034 0092     		str	r2, [sp]
 4806 0036 2A00     		movs	r2, r5
 4807 0038 FFF7FEFF 		bl	clear_sector
 4808              	.LVL494:
 946:Core/Src/GEVA.c ****             error = clear_sector(c->o_x, c->o_y, c->dim_x, c->dim_y_pos, buf); //limits check withi
 4809              		.loc 1 946 13 is_stmt 1 view .LVU1335
 4810              		.loc 1 946 21 is_stmt 0 view .LVU1336
 4811 003c 2379     		ldrb	r3, [r4, #4]
 4812 003e E278     		ldrb	r2, [r4, #3]
 4813 0040 6178     		ldrb	r1, [r4, #1]
 4814 0042 2078     		ldrb	r0, [r4]
 4815 0044 5546     		mov	r5, r10
 4816 0046 0095     		str	r5, [sp]
 4817 0048 FFF7FEFF 		bl	clear_sector
 4818              	.LVL495:
 4819 004c 8046     		mov	r8, r0
 4820              	.LVL496:
 947:Core/Src/GEVA.c ****             put_line(c->o_x, c->o_y, c->o_x + c->dim_x, c->o_y, buf);
 4821              		.loc 1 947 13 is_stmt 1 view .LVU1337
 4822 004e 2078     		ldrb	r0, [r4]
 4823              	.LVL497:
 4824              		.loc 1 947 13 is_stmt 0 view .LVU1338
 4825 0050 6178     		ldrb	r1, [r4, #1]
 4826              		.loc 1 947 48 view .LVU1339
 4827 0052 E278     		ldrb	r2, [r4, #3]
ARM GAS  C:\Users\arist\AppData\Local\Temp\ccUERo53.s 			page 117


 4828              		.loc 1 947 13 view .LVU1340
 4829 0054 8218     		adds	r2, r0, r2
 4830 0056 D2B2     		uxtb	r2, r2
 4831 0058 0095     		str	r5, [sp]
 4832 005a 0B00     		movs	r3, r1
 4833 005c FFF7FEFF 		bl	put_line
 4834              	.LVL498:
 948:Core/Src/GEVA.c ****             put_line(c->o_x, c->o_y, c->o_x, c->o_y + c->dim_y_pos, buf);
 4835              		.loc 1 948 13 is_stmt 1 view .LVU1341
 4836 0060 2078     		ldrb	r0, [r4]
 4837 0062 6178     		ldrb	r1, [r4, #1]
 4838              		.loc 1 948 56 is_stmt 0 view .LVU1342
 4839 0064 2379     		ldrb	r3, [r4, #4]
 4840              		.loc 1 948 13 view .LVU1343
 4841 0066 CB18     		adds	r3, r1, r3
 4842 0068 DBB2     		uxtb	r3, r3
 4843 006a 0095     		str	r5, [sp]
 4844 006c 0200     		movs	r2, r0
 4845 006e FFF7FEFF 		bl	put_line
 4846              	.LVL499:
 949:Core/Src/GEVA.c ****             put_line(c->o_x, c->o_y, c->o_x, c->o_y - c->dim_y_neg, buf);
 4847              		.loc 1 949 13 is_stmt 1 view .LVU1344
 4848 0072 2078     		ldrb	r0, [r4]
 4849 0074 6178     		ldrb	r1, [r4, #1]
 4850              		.loc 1 949 56 is_stmt 0 view .LVU1345
 4851 0076 6379     		ldrb	r3, [r4, #5]
 4852              		.loc 1 949 13 view .LVU1346
 4853 0078 CB1A     		subs	r3, r1, r3
 4854 007a DBB2     		uxtb	r3, r3
 4855 007c 0095     		str	r5, [sp]
 4856 007e 0200     		movs	r2, r0
 4857 0080 FFF7FEFF 		bl	put_line
 4858              	.LVL500:
 950:Core/Src/GEVA.c **** 
 951:Core/Src/GEVA.c ****             for (uint8_t i = 0; i < c->xy_entries.n_ent; i++){
 4859              		.loc 1 951 13 is_stmt 1 view .LVU1347
 4860              	.LBB52:
 4861              		.loc 1 951 18 view .LVU1348
 4862              		.loc 1 951 26 is_stmt 0 view .LVU1349
 4863 0084 0025     		movs	r5, #0
 4864              		.loc 1 951 13 view .LVU1350
 4865 0086 29E0     		b	.L244
 4866              	.LVL501:
 4867              	.L245:
 952:Core/Src/GEVA.c ****                 dx = c->xy_entries.x[i] * c->dim_x / c->max_x;
 4868              		.loc 1 952 17 is_stmt 1 discriminator 3 view .LVU1351
 4869              		.loc 1 952 35 is_stmt 0 discriminator 3 view .LVU1352
 4870 0088 236A     		ldr	r3, [r4, #32]
 4871              		.loc 1 952 37 discriminator 3 view .LVU1353
 4872 008a AE00     		lsls	r6, r5, #2
 4873 008c 9F59     		ldr	r7, [r3, r6]
 4874              		.loc 1 952 44 discriminator 3 view .LVU1354
 4875 008e E078     		ldrb	r0, [r4, #3]
 4876              		.loc 1 952 41 discriminator 3 view .LVU1355
 4877 0090 FFF7FEFF 		bl	__aeabi_i2f
 4878              	.LVL502:
 4879 0094 391C     		adds	r1, r7, #0
ARM GAS  C:\Users\arist\AppData\Local\Temp\ccUERo53.s 			page 118


 4880 0096 FFF7FEFF 		bl	__aeabi_fmul
 4881              	.LVL503:
 4882              		.loc 1 952 55 discriminator 3 view .LVU1356
 4883 009a 2169     		ldr	r1, [r4, #16]
 4884              		.loc 1 952 52 discriminator 3 view .LVU1357
 4885 009c FFF7FEFF 		bl	__aeabi_fdiv
 4886              	.LVL504:
 4887              		.loc 1 952 20 discriminator 3 view .LVU1358
 4888 00a0 FFF7FEFF 		bl	__aeabi_f2uiz
 4889              	.LVL505:
 4890 00a4 C7B2     		uxtb	r7, r0
 4891              	.LVL506:
 953:Core/Src/GEVA.c ****                 dy = c->xy_entries.y[i] * c->dim_y_pos / c->max;
 4892              		.loc 1 953 17 is_stmt 1 discriminator 3 view .LVU1359
 4893              		.loc 1 953 35 is_stmt 0 discriminator 3 view .LVU1360
 4894 00a6 636A     		ldr	r3, [r4, #36]
 4895              		.loc 1 953 37 discriminator 3 view .LVU1361
 4896 00a8 9B59     		ldr	r3, [r3, r6]
 4897 00aa 9946     		mov	r9, r3
 4898              		.loc 1 953 44 discriminator 3 view .LVU1362
 4899 00ac 2079     		ldrb	r0, [r4, #4]
 4900              		.loc 1 953 41 discriminator 3 view .LVU1363
 4901 00ae FFF7FEFF 		bl	__aeabi_i2f
 4902              	.LVL507:
 4903 00b2 4946     		mov	r1, r9
 4904 00b4 FFF7FEFF 		bl	__aeabi_fmul
 4905              	.LVL508:
 4906              		.loc 1 953 59 discriminator 3 view .LVU1364
 4907 00b8 A168     		ldr	r1, [r4, #8]
 4908              		.loc 1 953 56 discriminator 3 view .LVU1365
 4909 00ba FFF7FEFF 		bl	__aeabi_fdiv
 4910              	.LVL509:
 4911              		.loc 1 953 20 discriminator 3 view .LVU1366
 4912 00be FFF7FEFF 		bl	__aeabi_f2iz
 4913              	.LVL510:
 4914 00c2 03B2     		sxth	r3, r0
 4915              	.LVL511:
 954:Core/Src/GEVA.c ****                 put_pixel(c->o_x + dx, c->o_y + dy, SET_C, buf);
 4916              		.loc 1 954 17 is_stmt 1 discriminator 3 view .LVU1367
 4917              		.loc 1 954 28 is_stmt 0 discriminator 3 view .LVU1368
 4918 00c4 2078     		ldrb	r0, [r4]
 4919              		.loc 1 954 41 discriminator 3 view .LVU1369
 4920 00c6 6178     		ldrb	r1, [r4, #1]
 4921              		.loc 1 954 17 discriminator 3 view .LVU1370
 4922 00c8 C918     		adds	r1, r1, r3
 4923 00ca C9B2     		uxtb	r1, r1
 4924 00cc C019     		adds	r0, r0, r7
 4925 00ce C0B2     		uxtb	r0, r0
 4926 00d0 5346     		mov	r3, r10
 4927              	.LVL512:
 4928              		.loc 1 954 17 discriminator 3 view .LVU1371
 4929 00d2 0122     		movs	r2, #1
 4930 00d4 FFF7FEFF 		bl	put_pixel
 4931              	.LVL513:
 951:Core/Src/GEVA.c ****                 dx = c->xy_entries.x[i] * c->dim_x / c->max_x;
 4932              		.loc 1 951 59 is_stmt 1 discriminator 3 view .LVU1372
 4933 00d8 0135     		adds	r5, r5, #1
ARM GAS  C:\Users\arist\AppData\Local\Temp\ccUERo53.s 			page 119


 4934              	.LVL514:
 951:Core/Src/GEVA.c ****                 dx = c->xy_entries.x[i] * c->dim_x / c->max_x;
 4935              		.loc 1 951 59 is_stmt 0 discriminator 3 view .LVU1373
 4936 00da EDB2     		uxtb	r5, r5
 4937              	.LVL515:
 4938              	.L244:
 951:Core/Src/GEVA.c ****                 dx = c->xy_entries.x[i] * c->dim_x / c->max_x;
 4939              		.loc 1 951 35 is_stmt 1 discriminator 1 view .LVU1374
 951:Core/Src/GEVA.c ****                 dx = c->xy_entries.x[i] * c->dim_x / c->max_x;
 4940              		.loc 1 951 50 is_stmt 0 discriminator 1 view .LVU1375
 4941 00dc 237F     		ldrb	r3, [r4, #28]
 951:Core/Src/GEVA.c ****                 dx = c->xy_entries.x[i] * c->dim_x / c->max_x;
 4942              		.loc 1 951 35 discriminator 1 view .LVU1376
 4943 00de AB42     		cmp	r3, r5
 4944 00e0 D2D8     		bhi	.L245
 4945 00e2 01E0     		b	.L243
 4946              	.LVL516:
 4947              	.L246:
 951:Core/Src/GEVA.c ****                 dx = c->xy_entries.x[i] * c->dim_x / c->max_x;
 4948              		.loc 1 951 35 discriminator 1 view .LVU1377
 4949              	.LBE52:
 940:Core/Src/GEVA.c **** 
 4950              		.loc 1 940 15 view .LVU1378
 4951 00e4 0323     		movs	r3, #3
 4952 00e6 9846     		mov	r8, r3
 4953              	.LVL517:
 4954              	.L243:
 955:Core/Src/GEVA.c ****             } 
 956:Core/Src/GEVA.c ****     }
 957:Core/Src/GEVA.c ****     return error;
 4955              		.loc 1 957 5 is_stmt 1 view .LVU1379
 958:Core/Src/GEVA.c **** }
 4956              		.loc 1 958 1 is_stmt 0 view .LVU1380
 4957 00e8 4046     		mov	r0, r8
 4958 00ea 02B0     		add	sp, sp, #8
 4959              		@ sp needed
 4960              	.LVL518:
 4961              	.LVL519:
 4962              	.LVL520:
 4963              		.loc 1 958 1 view .LVU1381
 4964 00ec E0BC     		pop	{r5, r6, r7}
 4965 00ee BA46     		mov	r10, r7
 4966 00f0 B146     		mov	r9, r6
 4967 00f2 A846     		mov	r8, r5
 4968 00f4 F0BD     		pop	{r4, r5, r6, r7, pc}
 4969              		.cfi_endproc
 4970              	.LFE28:
 4972              		.section	.text.update_chart,"ax",%progbits
 4973              		.align	1
 4974              		.global	update_chart
 4975              		.syntax unified
 4976              		.code	16
 4977              		.thumb_func
 4979              	update_chart:
 4980              	.LVL521:
 4981              	.LFB13:
 561:Core/Src/GEVA.c ****     uint8_t error = 0;
ARM GAS  C:\Users\arist\AppData\Local\Temp\ccUERo53.s 			page 120


 4982              		.loc 1 561 75 is_stmt 1 view -0
 4983              		.cfi_startproc
 4984              		@ args = 0, pretend = 0, frame = 0
 4985              		@ frame_needed = 0, uses_anonymous_args = 0
 561:Core/Src/GEVA.c ****     uint8_t error = 0;
 4986              		.loc 1 561 75 is_stmt 0 view .LVU1383
 4987 0000 10B5     		push	{r4, lr}
 4988              		.cfi_def_cfa_offset 8
 4989              		.cfi_offset 4, -8
 4990              		.cfi_offset 14, -4
 4991 0002 0B00     		movs	r3, r1
 4992 0004 1100     		movs	r1, r2
 4993              	.LVL522:
 562:Core/Src/GEVA.c ****     c->data = new_data;
 4994              		.loc 1 562 5 is_stmt 1 view .LVU1384
 563:Core/Src/GEVA.c **** 
 4995              		.loc 1 563 5 view .LVU1385
 563:Core/Src/GEVA.c **** 
 4996              		.loc 1 563 13 is_stmt 0 view .LVU1386
 4997 0006 5861     		str	r0, [r3, #20]
 565:Core/Src/GEVA.c ****     case COL:
 4998              		.loc 1 565 5 is_stmt 1 view .LVU1387
 565:Core/Src/GEVA.c ****     case COL:
 4999              		.loc 1 565 14 is_stmt 0 view .LVU1388
 5000 0008 9878     		ldrb	r0, [r3, #2]
 5001              	.LVL523:
 565:Core/Src/GEVA.c ****     case COL:
 5002              		.loc 1 565 5 view .LVU1389
 5003 000a 0428     		cmp	r0, #4
 5004 000c 17D8     		bhi	.L257
 5005 000e 8000     		lsls	r0, r0, #2
 5006 0010 0C4A     		ldr	r2, .L258
 5007              	.LVL524:
 565:Core/Src/GEVA.c ****     case COL:
 5008              		.loc 1 565 5 view .LVU1390
 5009 0012 1258     		ldr	r2, [r2, r0]
 5010 0014 9746     		mov	pc, r2
 5011              		.section	.rodata.update_chart,"a",%progbits
 5012              		.align	2
 5013              	.L252:
 5014 0000 26000000 		.word	.L256
 5015 0004 16000000 		.word	.L255
 5016 0008 2E000000 		.word	.L254
 5017 000c 1E000000 		.word	.L253
 5018 0010 36000000 		.word	.L251
 5019              		.section	.text.update_chart
 5020              	.L255:
 567:Core/Src/GEVA.c ****         break;
 5021              		.loc 1 567 9 is_stmt 1 view .LVU1391
 567:Core/Src/GEVA.c ****         break;
 5022              		.loc 1 567 17 is_stmt 0 view .LVU1392
 5023 0016 1800     		movs	r0, r3
 5024 0018 FFF7FEFF 		bl	update_COL
 5025              	.LVL525:
 568:Core/Src/GEVA.c ****     case XY: //when calling update_XY new data is ignored: changing of data_container.xy_entry stru
 5026              		.loc 1 568 9 is_stmt 1 view .LVU1393
 5027              	.L250:
ARM GAS  C:\Users\arist\AppData\Local\Temp\ccUERo53.s 			page 121


 585:Core/Src/GEVA.c **** }
 5028              		.loc 1 585 5 view .LVU1394
 586:Core/Src/GEVA.c **** 
 5029              		.loc 1 586 1 is_stmt 0 view .LVU1395
 5030              		@ sp needed
 5031 001c 10BD     		pop	{r4, pc}
 5032              	.LVL526:
 5033              	.L253:
 570:Core/Src/GEVA.c ****         break;
 5034              		.loc 1 570 9 is_stmt 1 view .LVU1396
 570:Core/Src/GEVA.c ****         break;
 5035              		.loc 1 570 17 is_stmt 0 view .LVU1397
 5036 001e 1800     		movs	r0, r3
 5037 0020 FFF7FEFF 		bl	update_XY
 5038              	.LVL527:
 571:Core/Src/GEVA.c ****     case BAR:
 5039              		.loc 1 571 9 is_stmt 1 view .LVU1398
 5040 0024 FAE7     		b	.L250
 5041              	.LVL528:
 5042              	.L256:
 573:Core/Src/GEVA.c ****         break;
 5043              		.loc 1 573 9 view .LVU1399
 573:Core/Src/GEVA.c ****         break;
 5044              		.loc 1 573 17 is_stmt 0 view .LVU1400
 5045 0026 1800     		movs	r0, r3
 5046 0028 FFF7FEFF 		bl	update_BAR
 5047              	.LVL529:
 574:Core/Src/GEVA.c ****     case LINE:
 5048              		.loc 1 574 9 is_stmt 1 view .LVU1401
 5049 002c F6E7     		b	.L250
 5050              	.LVL530:
 5051              	.L254:
 576:Core/Src/GEVA.c ****         break;
 5052              		.loc 1 576 9 view .LVU1402
 576:Core/Src/GEVA.c ****         break;
 5053              		.loc 1 576 17 is_stmt 0 view .LVU1403
 5054 002e 1800     		movs	r0, r3
 5055 0030 FFF7FEFF 		bl	update_LINE
 5056              	.LVL531:
 577:Core/Src/GEVA.c ****     case SCATTER:
 5057              		.loc 1 577 9 is_stmt 1 view .LVU1404
 5058 0034 F2E7     		b	.L250
 5059              	.LVL532:
 5060              	.L251:
 579:Core/Src/GEVA.c ****         break;
 5061              		.loc 1 579 9 view .LVU1405
 579:Core/Src/GEVA.c ****         break;
 5062              		.loc 1 579 17 is_stmt 0 view .LVU1406
 5063 0036 1800     		movs	r0, r3
 5064 0038 FFF7FEFF 		bl	update_SCATTER
 5065              	.LVL533:
 580:Core/Src/GEVA.c ****     default:
 5066              		.loc 1 580 9 is_stmt 1 view .LVU1407
 5067 003c EEE7     		b	.L250
 5068              	.LVL534:
 5069              	.L257:
 565:Core/Src/GEVA.c ****     case COL:
ARM GAS  C:\Users\arist\AppData\Local\Temp\ccUERo53.s 			page 122


 5070              		.loc 1 565 5 is_stmt 0 view .LVU1408
 5071 003e 0020     		movs	r0, #0
 5072 0040 ECE7     		b	.L250
 5073              	.L259:
 5074 0042 C046     		.align	2
 5075              	.L258:
 5076 0044 00000000 		.word	.L252
 5077              		.cfi_endproc
 5078              	.LFE13:
 5080              		.section	.bss.x.0,"aw",%nobits
 5083              	x.0:
 5084 0000 00       		.space	1
 5085              		.section	.bss.old_data.1,"aw",%nobits
 5088              	old_data.1:
 5089 0000 00       		.space	1
 5090              		.section	.bss.x_cnt.2,"aw",%nobits
 5093              	x_cnt.2:
 5094 0000 00       		.space	1
 5095              		.section	.bss.dx.3,"aw",%nobits
 5098              	dx.3:
 5099 0000 00       		.space	1
 5100              		.section	.bss.x.4,"aw",%nobits
 5103              	x.4:
 5104 0000 00       		.space	1
 5105              		.section	.bss.old_data.5,"aw",%nobits
 5108              	old_data.5:
 5109 0000 00       		.space	1
 5110              		.section	.bss.x_cnt.6,"aw",%nobits
 5113              	x_cnt.6:
 5114 0000 00       		.space	1
 5115              		.section	.bss.dx.7,"aw",%nobits
 5118              	dx.7:
 5119 0000 00       		.space	1
 5120              		.global	font_l
 5121              		.section	.data.font_l,"aw"
 5122              		.align	2
 5125              	font_l:
 5126 0000 00FF     		.short	-256
 5127 0002 00FF     		.short	-256
 5128 0004 00FF     		.short	-256
 5129 0006 00FF     		.short	-256
 5130 0008 00FF     		.short	-256
 5131 000a 00FF     		.short	-256
 5132 000c 0001     		.short	256
 5133 000e 0070     		.short	28672
 5134 0010 0088     		.short	-30720
 5135 0012 00D8     		.short	-10240
 5136 0014 0088     		.short	-30720
 5137 0016 00A8     		.short	-22528
 5138 0018 0088     		.short	-30720
 5139 001a 0070     		.short	28672
 5140 001c 0070     		.short	28672
 5141 001e 00F8     		.short	-2048
 5142 0020 00A8     		.short	-22528
 5143 0022 00F8     		.short	-2048
 5144 0024 00D8     		.short	-10240
 5145 0026 00F8     		.short	-2048
ARM GAS  C:\Users\arist\AppData\Local\Temp\ccUERo53.s 			page 123


 5146 0028 0070     		.short	28672
 5147 002a 0050     		.short	20480
 5148 002c 00F8     		.short	-2048
 5149 002e 00F8     		.short	-2048
 5150 0030 00F8     		.short	-2048
 5151 0032 0070     		.short	28672
 5152 0034 0020     		.short	8192
 5153 0036 0000     		.short	0
 5154 0038 0000     		.short	0
 5155 003a 0020     		.short	8192
 5156 003c 0070     		.short	28672
 5157 003e 00F8     		.short	-2048
 5158 0040 0070     		.short	28672
 5159 0042 0020     		.short	8192
 5160 0044 0000     		.short	0
 5161 0046 0070     		.short	28672
 5162 0048 0070     		.short	28672
 5163 004a 00F8     		.short	-2048
 5164 004c 00F8     		.short	-2048
 5165 004e 0020     		.short	8192
 5166 0050 00F8     		.short	-2048
 5167 0052 0000     		.short	0
 5168 0054 0020     		.short	8192
 5169 0056 0070     		.short	28672
 5170 0058 00F8     		.short	-2048
 5171 005a 00F8     		.short	-2048
 5172 005c 00F8     		.short	-2048
 5173 005e 0020     		.short	8192
 5174 0060 00F8     		.short	-2048
 5175 0062 0000     		.short	0
 5176 0064 0000     		.short	0
 5177 0066 0070     		.short	28672
 5178 0068 0070     		.short	28672
 5179 006a 0070     		.short	28672
 5180 006c 0000     		.short	0
 5181 006e 0000     		.short	0
 5182 0070 0000     		.short	0
 5183 0072 00F8     		.short	-2048
 5184 0074 0088     		.short	-30720
 5185 0076 0088     		.short	-30720
 5186 0078 0088     		.short	-30720
 5187 007a 00F8     		.short	-2048
 5188 007c 0000     		.short	0
 5189 007e 0000     		.short	0
 5190 0080 0070     		.short	28672
 5191 0082 0088     		.short	-30720
 5192 0084 0088     		.short	-30720
 5193 0086 0088     		.short	-30720
 5194 0088 0070     		.short	28672
 5195 008a 0000     		.short	0
 5196 008c 00F8     		.short	-2048
 5197 008e 0088     		.short	-30720
 5198 0090 0070     		.short	28672
 5199 0092 0070     		.short	28672
 5200 0094 0070     		.short	28672
 5201 0096 0088     		.short	-30720
 5202 0098 00F8     		.short	-2048
ARM GAS  C:\Users\arist\AppData\Local\Temp\ccUERo53.s 			page 124


 5203 009a 0000     		.short	0
 5204 009c 0038     		.short	14336
 5205 009e 0018     		.short	6144
 5206 00a0 0068     		.short	26624
 5207 00a2 00A0     		.short	-24576
 5208 00a4 0040     		.short	16384
 5209 00a6 0000     		.short	0
 5210 00a8 0070     		.short	28672
 5211 00aa 0088     		.short	-30720
 5212 00ac 0088     		.short	-30720
 5213 00ae 0070     		.short	28672
 5214 00b0 0020     		.short	8192
 5215 00b2 0070     		.short	28672
 5216 00b4 0020     		.short	8192
 5217 00b6 0020     		.short	8192
 5218 00b8 0030     		.short	12288
 5219 00ba 0028     		.short	10240
 5220 00bc 0020     		.short	8192
 5221 00be 0060     		.short	24576
 5222 00c0 00E0     		.short	-8192
 5223 00c2 0040     		.short	16384
 5224 00c4 0008     		.short	2048
 5225 00c6 0018     		.short	6144
 5226 00c8 0028     		.short	10240
 5227 00ca 0048     		.short	18432
 5228 00cc 0058     		.short	22528
 5229 00ce 00D8     		.short	-10240
 5230 00d0 00C0     		.short	-16384
 5231 00d2 0000     		.short	0
 5232 00d4 00A8     		.short	-22528
 5233 00d6 0070     		.short	28672
 5234 00d8 00D8     		.short	-10240
 5235 00da 0070     		.short	28672
 5236 00dc 00A8     		.short	-22528
 5237 00de 0000     		.short	0
 5238 00e0 0000     		.short	0
 5239 00e2 0040     		.short	16384
 5240 00e4 0060     		.short	24576
 5241 00e6 0070     		.short	28672
 5242 00e8 0060     		.short	24576
 5243 00ea 0040     		.short	16384
 5244 00ec 0000     		.short	0
 5245 00ee 0000     		.short	0
 5246 00f0 0010     		.short	4096
 5247 00f2 0030     		.short	12288
 5248 00f4 0070     		.short	28672
 5249 00f6 0030     		.short	12288
 5250 00f8 0010     		.short	4096
 5251 00fa 0000     		.short	0
 5252 00fc 0020     		.short	8192
 5253 00fe 0070     		.short	28672
 5254 0100 0020     		.short	8192
 5255 0102 0020     		.short	8192
 5256 0104 0070     		.short	28672
 5257 0106 0020     		.short	8192
 5258 0108 0000     		.short	0
 5259 010a 0050     		.short	20480
ARM GAS  C:\Users\arist\AppData\Local\Temp\ccUERo53.s 			page 125


 5260 010c 0050     		.short	20480
 5261 010e 0050     		.short	20480
 5262 0110 0050     		.short	20480
 5263 0112 0050     		.short	20480
 5264 0114 0000     		.short	0
 5265 0116 0050     		.short	20480
 5266 0118 00D8     		.short	-10240
 5267 011a 00D8     		.short	-10240
 5268 011c 00D8     		.short	-10240
 5269 011e 00D8     		.short	-10240
 5270 0120 00D8     		.short	-10240
 5271 0122 00D8     		.short	-10240
 5272 0124 00D8     		.short	-10240
 5273 0126 0000     		.short	0
 5274 0128 0020     		.short	8192
 5275 012a 00A8     		.short	-22528
 5276 012c 00A8     		.short	-22528
 5277 012e 0088     		.short	-30720
 5278 0130 0070     		.short	28672
 5279 0132 0000     		.short	0
 5280 0134 0000     		.short	0
 5281 0136 0038     		.short	14336
 5282 0138 0030     		.short	12288
 5283 013a 00A8     		.short	-22528
 5284 013c 0088     		.short	-30720
 5285 013e 0088     		.short	-30720
 5286 0140 0070     		.short	28672
 5287 0142 0000     		.short	0
 5288 0144 0020     		.short	8192
 5289 0146 0070     		.short	28672
 5290 0148 0020     		.short	8192
 5291 014a 0070     		.short	28672
 5292 014c 0020     		.short	8192
 5293 014e 0070     		.short	28672
 5294 0150 0000     		.short	0
 5295 0152 0020     		.short	8192
 5296 0154 0070     		.short	28672
 5297 0156 0020     		.short	8192
 5298 0158 0020     		.short	8192
 5299 015a 0020     		.short	8192
 5300 015c 0000     		.short	0
 5301 015e 0000     		.short	0
 5302 0160 0020     		.short	8192
 5303 0162 0020     		.short	8192
 5304 0164 0020     		.short	8192
 5305 0166 0070     		.short	28672
 5306 0168 0020     		.short	8192
 5307 016a 0000     		.short	0
 5308 016c 0000     		.short	0
 5309 016e 0000     		.short	0
 5310 0170 0010     		.short	4096
 5311 0172 00F8     		.short	-2048
 5312 0174 0010     		.short	4096
 5313 0176 0000     		.short	0
 5314 0178 0000     		.short	0
 5315 017a 0000     		.short	0
 5316 017c 0000     		.short	0
ARM GAS  C:\Users\arist\AppData\Local\Temp\ccUERo53.s 			page 126


 5317 017e 0040     		.short	16384
 5318 0180 00F8     		.short	-2048
 5319 0182 0040     		.short	16384
 5320 0184 0000     		.short	0
 5321 0186 0000     		.short	0
 5322 0188 0080     		.short	-32768
 5323 018a 0080     		.short	-32768
 5324 018c 0080     		.short	-32768
 5325 018e 0080     		.short	-32768
 5326 0190 0080     		.short	-32768
 5327 0192 0080     		.short	-32768
 5328 0194 00F8     		.short	-2048
 5329 0196 0000     		.short	0
 5330 0198 0000     		.short	0
 5331 019a 0050     		.short	20480
 5332 019c 00F8     		.short	-2048
 5333 019e 0050     		.short	20480
 5334 01a0 0000     		.short	0
 5335 01a2 0000     		.short	0
 5336 01a4 0000     		.short	0
 5337 01a6 0000     		.short	0
 5338 01a8 0020     		.short	8192
 5339 01aa 0070     		.short	28672
 5340 01ac 00F8     		.short	-2048
 5341 01ae 0000     		.short	0
 5342 01b0 0000     		.short	0
 5343 01b2 0000     		.short	0
 5344 01b4 0000     		.short	0
 5345 01b6 00F8     		.short	-2048
 5346 01b8 0070     		.short	28672
 5347 01ba 0020     		.short	8192
 5348 01bc 0000     		.short	0
 5349 01be 0000     		.short	0
 5350 01c0 0000     		.short	0
 5351 01c2 0000     		.short	0
 5352 01c4 0000     		.short	0
 5353 01c6 0000     		.short	0
 5354 01c8 0000     		.short	0
 5355 01ca 0000     		.short	0
 5356 01cc 0000     		.short	0
 5357 01ce 0020     		.short	8192
 5358 01d0 0020     		.short	8192
 5359 01d2 0020     		.short	8192
 5360 01d4 0020     		.short	8192
 5361 01d6 0020     		.short	8192
 5362 01d8 0000     		.short	0
 5363 01da 0020     		.short	8192
 5364 01dc 0050     		.short	20480
 5365 01de 0050     		.short	20480
 5366 01e0 0050     		.short	20480
 5367 01e2 0000     		.short	0
 5368 01e4 0000     		.short	0
 5369 01e6 0000     		.short	0
 5370 01e8 0000     		.short	0
 5371 01ea 0000     		.short	0
 5372 01ec 0050     		.short	20480
 5373 01ee 00F8     		.short	-2048
ARM GAS  C:\Users\arist\AppData\Local\Temp\ccUERo53.s 			page 127


 5374 01f0 0050     		.short	20480
 5375 01f2 00F8     		.short	-2048
 5376 01f4 0050     		.short	20480
 5377 01f6 0000     		.short	0
 5378 01f8 0020     		.short	8192
 5379 01fa 0070     		.short	28672
 5380 01fc 0080     		.short	-32768
 5381 01fe 0070     		.short	28672
 5382 0200 0008     		.short	2048
 5383 0202 0070     		.short	28672
 5384 0204 0020     		.short	8192
 5385 0206 0000     		.short	0
 5386 0208 00C8     		.short	-14336
 5387 020a 00D0     		.short	-12288
 5388 020c 0020     		.short	8192
 5389 020e 0058     		.short	22528
 5390 0210 0098     		.short	-26624
 5391 0212 0000     		.short	0
 5392 0214 0020     		.short	8192
 5393 0216 0050     		.short	20480
 5394 0218 0050     		.short	20480
 5395 021a 0020     		.short	8192
 5396 021c 0050     		.short	20480
 5397 021e 00F8     		.short	-2048
 5398 0220 0010     		.short	4096
 5399 0222 0020     		.short	8192
 5400 0224 0020     		.short	8192
 5401 0226 0020     		.short	8192
 5402 0228 0000     		.short	0
 5403 022a 0000     		.short	0
 5404 022c 0000     		.short	0
 5405 022e 0000     		.short	0
 5406 0230 0010     		.short	4096
 5407 0232 0020     		.short	8192
 5408 0234 0040     		.short	16384
 5409 0236 0040     		.short	16384
 5410 0238 0040     		.short	16384
 5411 023a 0020     		.short	8192
 5412 023c 0010     		.short	4096
 5413 023e 0040     		.short	16384
 5414 0240 0020     		.short	8192
 5415 0242 0010     		.short	4096
 5416 0244 0010     		.short	4096
 5417 0246 0010     		.short	4096
 5418 0248 0020     		.short	8192
 5419 024a 0040     		.short	16384
 5420 024c 0000     		.short	0
 5421 024e 0020     		.short	8192
 5422 0250 0070     		.short	28672
 5423 0252 0020     		.short	8192
 5424 0254 0050     		.short	20480
 5425 0256 0000     		.short	0
 5426 0258 0000     		.short	0
 5427 025a 0000     		.short	0
 5428 025c 0020     		.short	8192
 5429 025e 0020     		.short	8192
 5430 0260 00F8     		.short	-2048
ARM GAS  C:\Users\arist\AppData\Local\Temp\ccUERo53.s 			page 128


 5431 0262 0020     		.short	8192
 5432 0264 0020     		.short	8192
 5433 0266 0000     		.short	0
 5434 0268 0000     		.short	0
 5435 026a 0000     		.short	0
 5436 026c 0000     		.short	0
 5437 026e 0000     		.short	0
 5438 0270 0020     		.short	8192
 5439 0272 0020     		.short	8192
 5440 0274 0040     		.short	16384
 5441 0276 0000     		.short	0
 5442 0278 0000     		.short	0
 5443 027a 0000     		.short	0
 5444 027c 00F8     		.short	-2048
 5445 027e 0000     		.short	0
 5446 0280 0000     		.short	0
 5447 0282 0000     		.short	0
 5448 0284 0000     		.short	0
 5449 0286 0000     		.short	0
 5450 0288 0000     		.short	0
 5451 028a 0000     		.short	0
 5452 028c 0000     		.short	0
 5453 028e 0000     		.short	0
 5454 0290 0020     		.short	8192
 5455 0292 0000     		.short	0
 5456 0294 0008     		.short	2048
 5457 0296 0010     		.short	4096
 5458 0298 0020     		.short	8192
 5459 029a 0040     		.short	16384
 5460 029c 0080     		.short	-32768
 5461 029e 0000     		.short	0
 5462 02a0 0060     		.short	24576
 5463 02a2 0090     		.short	-28672
 5464 02a4 0090     		.short	-28672
 5465 02a6 0090     		.short	-28672
 5466 02a8 0090     		.short	-28672
 5467 02aa 0090     		.short	-28672
 5468 02ac 0060     		.short	24576
 5469 02ae 0020     		.short	8192
 5470 02b0 0060     		.short	24576
 5471 02b2 0020     		.short	8192
 5472 02b4 0020     		.short	8192
 5473 02b6 0020     		.short	8192
 5474 02b8 0020     		.short	8192
 5475 02ba 0070     		.short	28672
 5476 02bc 0060     		.short	24576
 5477 02be 0090     		.short	-28672
 5478 02c0 0010     		.short	4096
 5479 02c2 0020     		.short	8192
 5480 02c4 0040     		.short	16384
 5481 02c6 0080     		.short	-32768
 5482 02c8 00F0     		.short	-4096
 5483 02ca 0060     		.short	24576
 5484 02cc 0090     		.short	-28672
 5485 02ce 0010     		.short	4096
 5486 02d0 0020     		.short	8192
 5487 02d2 0010     		.short	4096
ARM GAS  C:\Users\arist\AppData\Local\Temp\ccUERo53.s 			page 129


 5488 02d4 0090     		.short	-28672
 5489 02d6 0060     		.short	24576
 5490 02d8 0020     		.short	8192
 5491 02da 0060     		.short	24576
 5492 02dc 00A0     		.short	-24576
 5493 02de 00F0     		.short	-4096
 5494 02e0 0020     		.short	8192
 5495 02e2 0020     		.short	8192
 5496 02e4 0070     		.short	28672
 5497 02e6 00F0     		.short	-4096
 5498 02e8 0080     		.short	-32768
 5499 02ea 0080     		.short	-32768
 5500 02ec 0060     		.short	24576
 5501 02ee 0010     		.short	4096
 5502 02f0 0090     		.short	-28672
 5503 02f2 0060     		.short	24576
 5504 02f4 0060     		.short	24576
 5505 02f6 0090     		.short	-28672
 5506 02f8 0080     		.short	-32768
 5507 02fa 00E0     		.short	-8192
 5508 02fc 0090     		.short	-28672
 5509 02fe 0090     		.short	-28672
 5510 0300 0060     		.short	24576
 5511 0302 00E0     		.short	-8192
 5512 0304 0010     		.short	4096
 5513 0306 0010     		.short	4096
 5514 0308 0020     		.short	8192
 5515 030a 0040     		.short	16384
 5516 030c 0040     		.short	16384
 5517 030e 0040     		.short	16384
 5518 0310 0060     		.short	24576
 5519 0312 0090     		.short	-28672
 5520 0314 0090     		.short	-28672
 5521 0316 0060     		.short	24576
 5522 0318 0090     		.short	-28672
 5523 031a 0090     		.short	-28672
 5524 031c 0060     		.short	24576
 5525 031e 0060     		.short	24576
 5526 0320 0090     		.short	-28672
 5527 0322 0090     		.short	-28672
 5528 0324 0070     		.short	28672
 5529 0326 0010     		.short	4096
 5530 0328 0090     		.short	-28672
 5531 032a 0060     		.short	24576
 5532 032c 0000     		.short	0
 5533 032e 0000     		.short	0
 5534 0330 0020     		.short	8192
 5535 0332 0000     		.short	0
 5536 0334 0020     		.short	8192
 5537 0336 0000     		.short	0
 5538 0338 0000     		.short	0
 5539 033a 0000     		.short	0
 5540 033c 0000     		.short	0
 5541 033e 0020     		.short	8192
 5542 0340 0000     		.short	0
 5543 0342 0020     		.short	8192
 5544 0344 0020     		.short	8192
ARM GAS  C:\Users\arist\AppData\Local\Temp\ccUERo53.s 			page 130


 5545 0346 0040     		.short	16384
 5546 0348 0000     		.short	0
 5547 034a 0020     		.short	8192
 5548 034c 0040     		.short	16384
 5549 034e 0080     		.short	-32768
 5550 0350 0040     		.short	16384
 5551 0352 0020     		.short	8192
 5552 0354 0000     		.short	0
 5553 0356 0000     		.short	0
 5554 0358 0000     		.short	0
 5555 035a 0070     		.short	28672
 5556 035c 0000     		.short	0
 5557 035e 0070     		.short	28672
 5558 0360 0000     		.short	0
 5559 0362 0000     		.short	0
 5560 0364 0000     		.short	0
 5561 0366 0020     		.short	8192
 5562 0368 0010     		.short	4096
 5563 036a 0008     		.short	2048
 5564 036c 0010     		.short	4096
 5565 036e 0020     		.short	8192
 5566 0370 0000     		.short	0
 5567 0372 0060     		.short	24576
 5568 0374 0090     		.short	-28672
 5569 0376 0090     		.short	-28672
 5570 0378 0020     		.short	8192
 5571 037a 0020     		.short	8192
 5572 037c 0000     		.short	0
 5573 037e 0020     		.short	8192
 5574 0380 0070     		.short	28672
 5575 0382 0088     		.short	-30720
 5576 0384 0098     		.short	-26624
 5577 0386 00A8     		.short	-22528
 5578 0388 00B0     		.short	-20480
 5579 038a 0080     		.short	-32768
 5580 038c 0070     		.short	28672
 5581 038e 0070     		.short	28672
 5582 0390 0088     		.short	-30720
 5583 0392 0088     		.short	-30720
 5584 0394 00F8     		.short	-2048
 5585 0396 0088     		.short	-30720
 5586 0398 0088     		.short	-30720
 5587 039a 0088     		.short	-30720
 5588 039c 00F0     		.short	-4096
 5589 039e 0088     		.short	-30720
 5590 03a0 0088     		.short	-30720
 5591 03a2 00F0     		.short	-4096
 5592 03a4 0088     		.short	-30720
 5593 03a6 0088     		.short	-30720
 5594 03a8 00F0     		.short	-4096
 5595 03aa 0078     		.short	30720
 5596 03ac 0080     		.short	-32768
 5597 03ae 0080     		.short	-32768
 5598 03b0 0080     		.short	-32768
 5599 03b2 0080     		.short	-32768
 5600 03b4 0080     		.short	-32768
 5601 03b6 0078     		.short	30720
ARM GAS  C:\Users\arist\AppData\Local\Temp\ccUERo53.s 			page 131


 5602 03b8 00E0     		.short	-8192
 5603 03ba 0090     		.short	-28672
 5604 03bc 0088     		.short	-30720
 5605 03be 0088     		.short	-30720
 5606 03c0 0088     		.short	-30720
 5607 03c2 0090     		.short	-28672
 5608 03c4 00E0     		.short	-8192
 5609 03c6 0078     		.short	30720
 5610 03c8 0080     		.short	-32768
 5611 03ca 0080     		.short	-32768
 5612 03cc 00F0     		.short	-4096
 5613 03ce 0080     		.short	-32768
 5614 03d0 0080     		.short	-32768
 5615 03d2 0078     		.short	30720
 5616 03d4 0078     		.short	30720
 5617 03d6 0080     		.short	-32768
 5618 03d8 0080     		.short	-32768
 5619 03da 00F0     		.short	-4096
 5620 03dc 0080     		.short	-32768
 5621 03de 0080     		.short	-32768
 5622 03e0 0080     		.short	-32768
 5623 03e2 0070     		.short	28672
 5624 03e4 0088     		.short	-30720
 5625 03e6 0080     		.short	-32768
 5626 03e8 00B8     		.short	-18432
 5627 03ea 0088     		.short	-30720
 5628 03ec 0088     		.short	-30720
 5629 03ee 0070     		.short	28672
 5630 03f0 0088     		.short	-30720
 5631 03f2 0088     		.short	-30720
 5632 03f4 0088     		.short	-30720
 5633 03f6 0070     		.short	28672
 5634 03f8 0088     		.short	-30720
 5635 03fa 0088     		.short	-30720
 5636 03fc 0088     		.short	-30720
 5637 03fe 00F8     		.short	-2048
 5638 0400 0020     		.short	8192
 5639 0402 0020     		.short	8192
 5640 0404 0020     		.short	8192
 5641 0406 0020     		.short	8192
 5642 0408 0020     		.short	8192
 5643 040a 00F8     		.short	-2048
 5644 040c 00F8     		.short	-2048
 5645 040e 0020     		.short	8192
 5646 0410 0020     		.short	8192
 5647 0412 0020     		.short	8192
 5648 0414 00A0     		.short	-24576
 5649 0416 00A0     		.short	-24576
 5650 0418 0040     		.short	16384
 5651 041a 0090     		.short	-28672
 5652 041c 0090     		.short	-28672
 5653 041e 00A0     		.short	-24576
 5654 0420 00C0     		.short	-16384
 5655 0422 00A0     		.short	-24576
 5656 0424 0090     		.short	-28672
 5657 0426 0088     		.short	-30720
 5658 0428 0080     		.short	-32768
ARM GAS  C:\Users\arist\AppData\Local\Temp\ccUERo53.s 			page 132


 5659 042a 0080     		.short	-32768
 5660 042c 0080     		.short	-32768
 5661 042e 0080     		.short	-32768
 5662 0430 0080     		.short	-32768
 5663 0432 0080     		.short	-32768
 5664 0434 00F8     		.short	-2048
 5665 0436 0088     		.short	-30720
 5666 0438 00D8     		.short	-10240
 5667 043a 00A8     		.short	-22528
 5668 043c 00A8     		.short	-22528
 5669 043e 0088     		.short	-30720
 5670 0440 0088     		.short	-30720
 5671 0442 0088     		.short	-30720
 5672 0444 0088     		.short	-30720
 5673 0446 0088     		.short	-30720
 5674 0448 00C8     		.short	-14336
 5675 044a 00A8     		.short	-22528
 5676 044c 0098     		.short	-26624
 5677 044e 0088     		.short	-30720
 5678 0450 0088     		.short	-30720
 5679 0452 0070     		.short	28672
 5680 0454 0088     		.short	-30720
 5681 0456 0088     		.short	-30720
 5682 0458 0088     		.short	-30720
 5683 045a 0088     		.short	-30720
 5684 045c 0088     		.short	-30720
 5685 045e 0070     		.short	28672
 5686 0460 00F0     		.short	-4096
 5687 0462 0088     		.short	-30720
 5688 0464 0088     		.short	-30720
 5689 0466 00F0     		.short	-4096
 5690 0468 0080     		.short	-32768
 5691 046a 0080     		.short	-32768
 5692 046c 0080     		.short	-32768
 5693 046e 0070     		.short	28672
 5694 0470 0088     		.short	-30720
 5695 0472 0088     		.short	-30720
 5696 0474 0088     		.short	-30720
 5697 0476 00A8     		.short	-22528
 5698 0478 0070     		.short	28672
 5699 047a 0018     		.short	6144
 5700 047c 00F0     		.short	-4096
 5701 047e 0088     		.short	-30720
 5702 0480 0088     		.short	-30720
 5703 0482 00F0     		.short	-4096
 5704 0484 00A0     		.short	-24576
 5705 0486 0090     		.short	-28672
 5706 0488 0088     		.short	-30720
 5707 048a 0078     		.short	30720
 5708 048c 0080     		.short	-32768
 5709 048e 0080     		.short	-32768
 5710 0490 0070     		.short	28672
 5711 0492 0008     		.short	2048
 5712 0494 0008     		.short	2048
 5713 0496 00F0     		.short	-4096
 5714 0498 00F8     		.short	-2048
 5715 049a 0020     		.short	8192
ARM GAS  C:\Users\arist\AppData\Local\Temp\ccUERo53.s 			page 133


 5716 049c 0020     		.short	8192
 5717 049e 0020     		.short	8192
 5718 04a0 0020     		.short	8192
 5719 04a2 0020     		.short	8192
 5720 04a4 0020     		.short	8192
 5721 04a6 0088     		.short	-30720
 5722 04a8 0088     		.short	-30720
 5723 04aa 0088     		.short	-30720
 5724 04ac 0088     		.short	-30720
 5725 04ae 0088     		.short	-30720
 5726 04b0 0088     		.short	-30720
 5727 04b2 0070     		.short	28672
 5728 04b4 0088     		.short	-30720
 5729 04b6 0088     		.short	-30720
 5730 04b8 0088     		.short	-30720
 5731 04ba 0088     		.short	-30720
 5732 04bc 0088     		.short	-30720
 5733 04be 0050     		.short	20480
 5734 04c0 0020     		.short	8192
 5735 04c2 0088     		.short	-30720
 5736 04c4 0088     		.short	-30720
 5737 04c6 0088     		.short	-30720
 5738 04c8 00A8     		.short	-22528
 5739 04ca 00A8     		.short	-22528
 5740 04cc 00A8     		.short	-22528
 5741 04ce 0050     		.short	20480
 5742 04d0 0088     		.short	-30720
 5743 04d2 0088     		.short	-30720
 5744 04d4 0050     		.short	20480
 5745 04d6 0020     		.short	8192
 5746 04d8 0050     		.short	20480
 5747 04da 0088     		.short	-30720
 5748 04dc 0088     		.short	-30720
 5749 04de 0088     		.short	-30720
 5750 04e0 0088     		.short	-30720
 5751 04e2 0050     		.short	20480
 5752 04e4 0020     		.short	8192
 5753 04e6 0020     		.short	8192
 5754 04e8 0020     		.short	8192
 5755 04ea 0070     		.short	28672
 5756 04ec 00F8     		.short	-2048
 5757 04ee 0008     		.short	2048
 5758 04f0 0010     		.short	4096
 5759 04f2 0020     		.short	8192
 5760 04f4 0040     		.short	16384
 5761 04f6 0080     		.short	-32768
 5762 04f8 00F8     		.short	-2048
 5763 04fa 0070     		.short	28672
 5764 04fc 0040     		.short	16384
 5765 04fe 0040     		.short	16384
 5766 0500 0040     		.short	16384
 5767 0502 0040     		.short	16384
 5768 0504 0040     		.short	16384
 5769 0506 0070     		.short	28672
 5770 0508 0000     		.short	0
 5771 050a 0080     		.short	-32768
 5772 050c 0040     		.short	16384
ARM GAS  C:\Users\arist\AppData\Local\Temp\ccUERo53.s 			page 134


 5773 050e 0020     		.short	8192
 5774 0510 0010     		.short	4096
 5775 0512 0008     		.short	2048
 5776 0514 0000     		.short	0
 5777 0516 0070     		.short	28672
 5778 0518 0010     		.short	4096
 5779 051a 0010     		.short	4096
 5780 051c 0010     		.short	4096
 5781 051e 0010     		.short	4096
 5782 0520 0010     		.short	4096
 5783 0522 0070     		.short	28672
 5784 0524 0020     		.short	8192
 5785 0526 0050     		.short	20480
 5786 0528 0000     		.short	0
 5787 052a 0000     		.short	0
 5788 052c 0000     		.short	0
 5789 052e 0000     		.short	0
 5790 0530 0000     		.short	0
 5791 0532 0000     		.short	0
 5792 0534 0000     		.short	0
 5793 0536 0000     		.short	0
 5794 0538 0000     		.short	0
 5795 053a 0000     		.short	0
 5796 053c 0000     		.short	0
 5797 053e 00F8     		.short	-2048
 5798 0540 0020     		.short	8192
 5799 0542 0010     		.short	4096
 5800 0544 0000     		.short	0
 5801 0546 0000     		.short	0
 5802 0548 0000     		.short	0
 5803 054a 0000     		.short	0
 5804 054c 0000     		.short	0
 5805 054e 0000     		.short	0
 5806 0550 0000     		.short	0
 5807 0552 0070     		.short	28672
 5808 0554 0008     		.short	2048
 5809 0556 0078     		.short	30720
 5810 0558 0088     		.short	-30720
 5811 055a 0070     		.short	28672
 5812 055c 0080     		.short	-32768
 5813 055e 0080     		.short	-32768
 5814 0560 00B0     		.short	-20480
 5815 0562 00C8     		.short	-14336
 5816 0564 0088     		.short	-30720
 5817 0566 0088     		.short	-30720
 5818 0568 0070     		.short	28672
 5819 056a 0000     		.short	0
 5820 056c 0000     		.short	0
 5821 056e 0078     		.short	30720
 5822 0570 0080     		.short	-32768
 5823 0572 0080     		.short	-32768
 5824 0574 0080     		.short	-32768
 5825 0576 0078     		.short	30720
 5826 0578 0008     		.short	2048
 5827 057a 0008     		.short	2048
 5828 057c 0068     		.short	26624
 5829 057e 0098     		.short	-26624
ARM GAS  C:\Users\arist\AppData\Local\Temp\ccUERo53.s 			page 135


 5830 0580 0088     		.short	-30720
 5831 0582 0088     		.short	-30720
 5832 0584 0070     		.short	28672
 5833 0586 0000     		.short	0
 5834 0588 0000     		.short	0
 5835 058a 0070     		.short	28672
 5836 058c 0088     		.short	-30720
 5837 058e 00F0     		.short	-4096
 5838 0590 0080     		.short	-32768
 5839 0592 0070     		.short	28672
 5840 0594 0018     		.short	6144
 5841 0596 0020     		.short	8192
 5842 0598 0070     		.short	28672
 5843 059a 0020     		.short	8192
 5844 059c 0020     		.short	8192
 5845 059e 0020     		.short	8192
 5846 05a0 0070     		.short	28672
 5847 05a2 0000     		.short	0
 5848 05a4 0070     		.short	28672
 5849 05a6 0088     		.short	-30720
 5850 05a8 0088     		.short	-30720
 5851 05aa 0078     		.short	30720
 5852 05ac 0008     		.short	2048
 5853 05ae 0070     		.short	28672
 5854 05b0 0080     		.short	-32768
 5855 05b2 0080     		.short	-32768
 5856 05b4 00B0     		.short	-20480
 5857 05b6 00C8     		.short	-14336
 5858 05b8 0088     		.short	-30720
 5859 05ba 0088     		.short	-30720
 5860 05bc 0088     		.short	-30720
 5861 05be 0000     		.short	0
 5862 05c0 0020     		.short	8192
 5863 05c2 0000     		.short	0
 5864 05c4 0060     		.short	24576
 5865 05c6 0020     		.short	8192
 5866 05c8 0020     		.short	8192
 5867 05ca 0070     		.short	28672
 5868 05cc 0000     		.short	0
 5869 05ce 0010     		.short	4096
 5870 05d0 0000     		.short	0
 5871 05d2 0070     		.short	28672
 5872 05d4 0010     		.short	4096
 5873 05d6 0090     		.short	-28672
 5874 05d8 0060     		.short	24576
 5875 05da 0080     		.short	-32768
 5876 05dc 0080     		.short	-32768
 5877 05de 0090     		.short	-28672
 5878 05e0 00A0     		.short	-24576
 5879 05e2 00C0     		.short	-16384
 5880 05e4 00A0     		.short	-24576
 5881 05e6 0090     		.short	-28672
 5882 05e8 0060     		.short	24576
 5883 05ea 0020     		.short	8192
 5884 05ec 0020     		.short	8192
 5885 05ee 0020     		.short	8192
 5886 05f0 0020     		.short	8192
ARM GAS  C:\Users\arist\AppData\Local\Temp\ccUERo53.s 			page 136


 5887 05f2 0020     		.short	8192
 5888 05f4 0070     		.short	28672
 5889 05f6 0000     		.short	0
 5890 05f8 0000     		.short	0
 5891 05fa 0050     		.short	20480
 5892 05fc 00A8     		.short	-22528
 5893 05fe 00A8     		.short	-22528
 5894 0600 00A8     		.short	-22528
 5895 0602 00A8     		.short	-22528
 5896 0604 0000     		.short	0
 5897 0606 0000     		.short	0
 5898 0608 00B0     		.short	-20480
 5899 060a 00C8     		.short	-14336
 5900 060c 0088     		.short	-30720
 5901 060e 0088     		.short	-30720
 5902 0610 0088     		.short	-30720
 5903 0612 0000     		.short	0
 5904 0614 0000     		.short	0
 5905 0616 0070     		.short	28672
 5906 0618 0088     		.short	-30720
 5907 061a 0088     		.short	-30720
 5908 061c 0088     		.short	-30720
 5909 061e 0070     		.short	28672
 5910 0620 0000     		.short	0
 5911 0622 0000     		.short	0
 5912 0624 0070     		.short	28672
 5913 0626 0088     		.short	-30720
 5914 0628 0088     		.short	-30720
 5915 062a 00F0     		.short	-4096
 5916 062c 0080     		.short	-32768
 5917 062e 0000     		.short	0
 5918 0630 0000     		.short	0
 5919 0632 0070     		.short	28672
 5920 0634 0088     		.short	-30720
 5921 0636 0088     		.short	-30720
 5922 0638 0078     		.short	30720
 5923 063a 0008     		.short	2048
 5924 063c 0000     		.short	0
 5925 063e 0000     		.short	0
 5926 0640 0068     		.short	26624
 5927 0642 0030     		.short	12288
 5928 0644 0020     		.short	8192
 5929 0646 0020     		.short	8192
 5930 0648 0070     		.short	28672
 5931 064a 0000     		.short	0
 5932 064c 0000     		.short	0
 5933 064e 0078     		.short	30720
 5934 0650 0080     		.short	-32768
 5935 0652 0070     		.short	28672
 5936 0654 0008     		.short	2048
 5937 0656 00F0     		.short	-4096
 5938 0658 0000     		.short	0
 5939 065a 0040     		.short	16384
 5940 065c 00F0     		.short	-4096
 5941 065e 0040     		.short	16384
 5942 0660 0040     		.short	16384
 5943 0662 0040     		.short	16384
ARM GAS  C:\Users\arist\AppData\Local\Temp\ccUERo53.s 			page 137


 5944 0664 0030     		.short	12288
 5945 0666 0000     		.short	0
 5946 0668 0000     		.short	0
 5947 066a 0088     		.short	-30720
 5948 066c 0088     		.short	-30720
 5949 066e 0088     		.short	-30720
 5950 0670 0098     		.short	-26624
 5951 0672 0068     		.short	26624
 5952 0674 0000     		.short	0
 5953 0676 0000     		.short	0
 5954 0678 0088     		.short	-30720
 5955 067a 0088     		.short	-30720
 5956 067c 0088     		.short	-30720
 5957 067e 0050     		.short	20480
 5958 0680 0020     		.short	8192
 5959 0682 0000     		.short	0
 5960 0684 0000     		.short	0
 5961 0686 0088     		.short	-30720
 5962 0688 0088     		.short	-30720
 5963 068a 00A8     		.short	-22528
 5964 068c 00A8     		.short	-22528
 5965 068e 0050     		.short	20480
 5966 0690 0000     		.short	0
 5967 0692 0000     		.short	0
 5968 0694 0088     		.short	-30720
 5969 0696 0050     		.short	20480
 5970 0698 0020     		.short	8192
 5971 069a 0050     		.short	20480
 5972 069c 0088     		.short	-30720
 5973 069e 0000     		.short	0
 5974 06a0 0000     		.short	0
 5975 06a2 0088     		.short	-30720
 5976 06a4 0050     		.short	20480
 5977 06a6 0020     		.short	8192
 5978 06a8 0020     		.short	8192
 5979 06aa 00C0     		.short	-16384
 5980 06ac 0000     		.short	0
 5981 06ae 0000     		.short	0
 5982 06b0 00F8     		.short	-2048
 5983 06b2 0010     		.short	4096
 5984 06b4 0020     		.short	8192
 5985 06b6 0040     		.short	16384
 5986 06b8 00F8     		.short	-2048
 5987 06ba 0010     		.short	4096
 5988 06bc 0020     		.short	8192
 5989 06be 0020     		.short	8192
 5990 06c0 0040     		.short	16384
 5991 06c2 0020     		.short	8192
 5992 06c4 0020     		.short	8192
 5993 06c6 0010     		.short	4096
 5994 06c8 0020     		.short	8192
 5995 06ca 0020     		.short	8192
 5996 06cc 0020     		.short	8192
 5997 06ce 0020     		.short	8192
 5998 06d0 0020     		.short	8192
 5999 06d2 0020     		.short	8192
 6000 06d4 0020     		.short	8192
ARM GAS  C:\Users\arist\AppData\Local\Temp\ccUERo53.s 			page 138


 6001 06d6 0040     		.short	16384
 6002 06d8 0020     		.short	8192
 6003 06da 0020     		.short	8192
 6004 06dc 0010     		.short	4096
 6005 06de 0020     		.short	8192
 6006 06e0 0020     		.short	8192
 6007 06e2 0040     		.short	16384
 6008 06e4 0000     		.short	0
 6009 06e6 0000     		.short	0
 6010 06e8 0040     		.short	16384
 6011 06ea 00A8     		.short	-22528
 6012 06ec 0010     		.short	4096
 6013 06ee 0000     		.short	0
 6014 06f0 0000     		.short	0
 6015 06f2 0078     		.short	30720
 6016 06f4 0080     		.short	-32768
 6017 06f6 0080     		.short	-32768
 6018 06f8 0080     		.short	-32768
 6019 06fa 0080     		.short	-32768
 6020 06fc 0078     		.short	30720
 6021 06fe 0020     		.short	8192
 6022 0700 0050     		.short	20480
 6023 0702 0000     		.short	0
 6024 0704 0088     		.short	-30720
 6025 0706 0088     		.short	-30720
 6026 0708 0088     		.short	-30720
 6027 070a 0098     		.short	-26624
 6028 070c 0068     		.short	26624
 6029 070e 0010     		.short	4096
 6030 0710 0020     		.short	8192
 6031 0712 0070     		.short	28672
 6032 0714 0088     		.short	-30720
 6033 0716 00F0     		.short	-4096
 6034 0718 0080     		.short	-32768
 6035 071a 0070     		.short	28672
 6036 071c 0020     		.short	8192
 6037 071e 0050     		.short	20480
 6038 0720 0070     		.short	28672
 6039 0722 0008     		.short	2048
 6040 0724 0078     		.short	30720
 6041 0726 0088     		.short	-30720
 6042 0728 0070     		.short	28672
 6043 072a 0050     		.short	20480
 6044 072c 0000     		.short	0
 6045 072e 0070     		.short	28672
 6046 0730 0008     		.short	2048
 6047 0732 0078     		.short	30720
 6048 0734 0088     		.short	-30720
 6049 0736 0070     		.short	28672
 6050 0738 0040     		.short	16384
 6051 073a 0020     		.short	8192
 6052 073c 0070     		.short	28672
 6053 073e 0008     		.short	2048
 6054 0740 0078     		.short	30720
 6055 0742 0088     		.short	-30720
 6056 0744 0070     		.short	28672
 6057 0746 0020     		.short	8192
ARM GAS  C:\Users\arist\AppData\Local\Temp\ccUERo53.s 			page 139


 6058 0748 0000     		.short	0
 6059 074a 0070     		.short	28672
 6060 074c 0008     		.short	2048
 6061 074e 0078     		.short	30720
 6062 0750 0088     		.short	-30720
 6063 0752 0070     		.short	28672
 6064 0754 0000     		.short	0
 6065 0756 0000     		.short	0
 6066 0758 0078     		.short	30720
 6067 075a 0080     		.short	-32768
 6068 075c 0080     		.short	-32768
 6069 075e 0078     		.short	30720
 6070 0760 0020     		.short	8192
 6071 0762 0020     		.short	8192
 6072 0764 0050     		.short	20480
 6073 0766 0070     		.short	28672
 6074 0768 0088     		.short	-30720
 6075 076a 00F0     		.short	-4096
 6076 076c 0080     		.short	-32768
 6077 076e 0070     		.short	28672
 6078 0770 0050     		.short	20480
 6079 0772 0000     		.short	0
 6080 0774 0070     		.short	28672
 6081 0776 0088     		.short	-30720
 6082 0778 00F0     		.short	-4096
 6083 077a 0080     		.short	-32768
 6084 077c 0070     		.short	28672
 6085 077e 0040     		.short	16384
 6086 0780 0020     		.short	8192
 6087 0782 0070     		.short	28672
 6088 0784 0088     		.short	-30720
 6089 0786 00F0     		.short	-4096
 6090 0788 0080     		.short	-32768
 6091 078a 0070     		.short	28672
 6092 078c 0050     		.short	20480
 6093 078e 0000     		.short	0
 6094 0790 0000     		.short	0
 6095 0792 0060     		.short	24576
 6096 0794 0020     		.short	8192
 6097 0796 0020     		.short	8192
 6098 0798 0070     		.short	28672
 6099 079a 0020     		.short	8192
 6100 079c 0050     		.short	20480
 6101 079e 0000     		.short	0
 6102 07a0 0060     		.short	24576
 6103 07a2 0020     		.short	8192
 6104 07a4 0020     		.short	8192
 6105 07a6 0070     		.short	28672
 6106 07a8 0040     		.short	16384
 6107 07aa 0020     		.short	8192
 6108 07ac 0000     		.short	0
 6109 07ae 0060     		.short	24576
 6110 07b0 0020     		.short	8192
 6111 07b2 0020     		.short	8192
 6112 07b4 0070     		.short	28672
 6113 07b6 0050     		.short	20480
 6114 07b8 0000     		.short	0
ARM GAS  C:\Users\arist\AppData\Local\Temp\ccUERo53.s 			page 140


 6115 07ba 0070     		.short	28672
 6116 07bc 0088     		.short	-30720
 6117 07be 00F8     		.short	-2048
 6118 07c0 0088     		.short	-30720
 6119 07c2 0088     		.short	-30720
 6120 07c4 0020     		.short	8192
 6121 07c6 0000     		.short	0
 6122 07c8 0070     		.short	28672
 6123 07ca 0088     		.short	-30720
 6124 07cc 00F8     		.short	-2048
 6125 07ce 0088     		.short	-30720
 6126 07d0 0088     		.short	-30720
 6127 07d2 0010     		.short	4096
 6128 07d4 0020     		.short	8192
 6129 07d6 00F8     		.short	-2048
 6130 07d8 0080     		.short	-32768
 6131 07da 00F0     		.short	-4096
 6132 07dc 0080     		.short	-32768
 6133 07de 00F8     		.short	-2048
 6134 07e0 0000     		.short	0
 6135 07e2 0000     		.short	0
 6136 07e4 00D0     		.short	-12288
 6137 07e6 0028     		.short	10240
 6138 07e8 0070     		.short	28672
 6139 07ea 00A0     		.short	-24576
 6140 07ec 0058     		.short	22528
 6141 07ee 0078     		.short	30720
 6142 07f0 00A0     		.short	-24576
 6143 07f2 00A0     		.short	-24576
 6144 07f4 00F8     		.short	-2048
 6145 07f6 00A0     		.short	-24576
 6146 07f8 00A0     		.short	-24576
 6147 07fa 00B8     		.short	-18432
 6148 07fc 0020     		.short	8192
 6149 07fe 0050     		.short	20480
 6150 0800 0070     		.short	28672
 6151 0802 0088     		.short	-30720
 6152 0804 0088     		.short	-30720
 6153 0806 0088     		.short	-30720
 6154 0808 0070     		.short	28672
 6155 080a 0050     		.short	20480
 6156 080c 0000     		.short	0
 6157 080e 0070     		.short	28672
 6158 0810 0088     		.short	-30720
 6159 0812 0088     		.short	-30720
 6160 0814 0088     		.short	-30720
 6161 0816 0070     		.short	28672
 6162 0818 0040     		.short	16384
 6163 081a 0020     		.short	8192
 6164 081c 0070     		.short	28672
 6165 081e 0088     		.short	-30720
 6166 0820 0088     		.short	-30720
 6167 0822 0088     		.short	-30720
 6168 0824 0070     		.short	28672
 6169 0826 0020     		.short	8192
 6170 0828 0050     		.short	20480
 6171 082a 0088     		.short	-30720
ARM GAS  C:\Users\arist\AppData\Local\Temp\ccUERo53.s 			page 141


 6172 082c 0088     		.short	-30720
 6173 082e 0088     		.short	-30720
 6174 0830 0098     		.short	-26624
 6175 0832 0068     		.short	26624
 6176 0834 0040     		.short	16384
 6177 0836 0020     		.short	8192
 6178 0838 0088     		.short	-30720
 6179 083a 0088     		.short	-30720
 6180 083c 0088     		.short	-30720
 6181 083e 0098     		.short	-26624
 6182 0840 0068     		.short	26624
 6183 0842 0050     		.short	20480
 6184 0844 0000     		.short	0
 6185 0846 0088     		.short	-30720
 6186 0848 0050     		.short	20480
 6187 084a 0020     		.short	8192
 6188 084c 0020     		.short	8192
 6189 084e 00C0     		.short	-16384
 6190 0850 0050     		.short	20480
 6191 0852 0070     		.short	28672
 6192 0854 0088     		.short	-30720
 6193 0856 0088     		.short	-30720
 6194 0858 0088     		.short	-30720
 6195 085a 0088     		.short	-30720
 6196 085c 0070     		.short	28672
 6197 085e 0050     		.short	20480
 6198 0860 0088     		.short	-30720
 6199 0862 0088     		.short	-30720
 6200 0864 0088     		.short	-30720
 6201 0866 0088     		.short	-30720
 6202 0868 0088     		.short	-30720
 6203 086a 0070     		.short	28672
 6204 086c 0000     		.short	0
 6205 086e 0000     		.short	0
 6206 0870 0070     		.short	28672
 6207 0872 0098     		.short	-26624
 6208 0874 00A8     		.short	-22528
 6209 0876 00C8     		.short	-14336
 6210 0878 0070     		.short	28672
 6211 087a 0030     		.short	12288
 6212 087c 0040     		.short	16384
 6213 087e 0020     		.short	8192
 6214 0880 00F0     		.short	-4096
 6215 0882 0040     		.short	16384
 6216 0884 0080     		.short	-32768
 6217 0886 00F8     		.short	-2048
 6218 0888 0070     		.short	28672
 6219 088a 0088     		.short	-30720
 6220 088c 0098     		.short	-26624
 6221 088e 00A8     		.short	-22528
 6222 0890 00C8     		.short	-14336
 6223 0892 0088     		.short	-30720
 6224 0894 0070     		.short	28672
 6225 0896 0050     		.short	20480
 6226 0898 0020     		.short	8192
 6227 089a 0050     		.short	20480
 6228 089c 0000     		.short	0
ARM GAS  C:\Users\arist\AppData\Local\Temp\ccUERo53.s 			page 142


 6229 089e 0000     		.short	0
 6230 08a0 0000     		.short	0
 6231 08a2 0000     		.short	0
 6232 08a4 0018     		.short	6144
 6233 08a6 0020     		.short	8192
 6234 08a8 0020     		.short	8192
 6235 08aa 0070     		.short	28672
 6236 08ac 0020     		.short	8192
 6237 08ae 0020     		.short	8192
 6238 08b0 00C0     		.short	-16384
 6239 08b2 0010     		.short	4096
 6240 08b4 0020     		.short	8192
 6241 08b6 0070     		.short	28672
 6242 08b8 0008     		.short	2048
 6243 08ba 0078     		.short	30720
 6244 08bc 0088     		.short	-30720
 6245 08be 0070     		.short	28672
 6246 08c0 0010     		.short	4096
 6247 08c2 0020     		.short	8192
 6248 08c4 0000     		.short	0
 6249 08c6 0060     		.short	24576
 6250 08c8 0020     		.short	8192
 6251 08ca 0020     		.short	8192
 6252 08cc 0070     		.short	28672
 6253 08ce 0010     		.short	4096
 6254 08d0 0020     		.short	8192
 6255 08d2 0070     		.short	28672
 6256 08d4 0088     		.short	-30720
 6257 08d6 0088     		.short	-30720
 6258 08d8 0088     		.short	-30720
 6259 08da 0070     		.short	28672
 6260 08dc 0010     		.short	4096
 6261 08de 0020     		.short	8192
 6262 08e0 0088     		.short	-30720
 6263 08e2 0088     		.short	-30720
 6264 08e4 0088     		.short	-30720
 6265 08e6 0098     		.short	-26624
 6266 08e8 0068     		.short	26624
 6267 08ea 0028     		.short	10240
 6268 08ec 0050     		.short	20480
 6269 08ee 00B0     		.short	-20480
 6270 08f0 00C8     		.short	-14336
 6271 08f2 0088     		.short	-30720
 6272 08f4 0088     		.short	-30720
 6273 08f6 0088     		.short	-30720
 6274 08f8 0028     		.short	10240
 6275 08fa 0050     		.short	20480
 6276 08fc 0088     		.short	-30720
 6277 08fe 00C8     		.short	-14336
 6278 0900 00A8     		.short	-22528
 6279 0902 0098     		.short	-26624
 6280 0904 0088     		.short	-30720
 6281 0906 0060     		.short	24576
 6282 0908 0010     		.short	4096
 6283 090a 0030     		.short	12288
 6284 090c 0050     		.short	20480
 6285 090e 0020     		.short	8192
ARM GAS  C:\Users\arist\AppData\Local\Temp\ccUERo53.s 			page 143


 6286 0910 0000     		.short	0
 6287 0912 0000     		.short	0
 6288 0914 0020     		.short	8192
 6289 0916 0050     		.short	20480
 6290 0918 0020     		.short	8192
 6291 091a 0000     		.short	0
 6292 091c 0000     		.short	0
 6293 091e 0000     		.short	0
 6294 0920 0000     		.short	0
 6295 0922 0020     		.short	8192
 6296 0924 0000     		.short	0
 6297 0926 0020     		.short	8192
 6298 0928 0020     		.short	8192
 6299 092a 0090     		.short	-28672
 6300 092c 0090     		.short	-28672
 6301 092e 0060     		.short	24576
 6302 0930 0000     		.short	0
 6303 0932 0070     		.short	28672
 6304 0934 00A8     		.short	-22528
 6305 0936 00B8     		.short	-18432
 6306 0938 00A8     		.short	-22528
 6307 093a 0070     		.short	28672
 6308 093c 0000     		.short	0
 6309 093e 0000     		.short	0
 6310 0940 0000     		.short	0
 6311 0942 0000     		.short	0
 6312 0944 00F8     		.short	-2048
 6313 0946 0008     		.short	2048
 6314 0948 0000     		.short	0
 6315 094a 0000     		.short	0
 6316 094c 0000     		.short	0
 6317 094e 0048     		.short	18432
 6318 0950 0010     		.short	4096
 6319 0952 0020     		.short	8192
 6320 0954 0048     		.short	18432
 6321 0956 0088     		.short	-30720
 6322 0958 0000     		.short	0
 6323 095a 0000     		.short	0
 6324 095c 0048     		.short	18432
 6325 095e 0010     		.short	4096
 6326 0960 0020     		.short	8192
 6327 0962 0058     		.short	22528
 6328 0964 0098     		.short	-26624
 6329 0966 0000     		.short	0
 6330 0968 0000     		.short	0
 6331 096a 0000     		.short	0
 6332 096c 0020     		.short	8192
 6333 096e 0000     		.short	0
 6334 0970 0020     		.short	8192
 6335 0972 0020     		.short	8192
 6336 0974 0020     		.short	8192
 6337 0976 0000     		.short	0
 6338 0978 0028     		.short	10240
 6339 097a 0050     		.short	20480
 6340 097c 00A0     		.short	-24576
 6341 097e 0050     		.short	20480
 6342 0980 0028     		.short	10240
ARM GAS  C:\Users\arist\AppData\Local\Temp\ccUERo53.s 			page 144


 6343 0982 0000     		.short	0
 6344 0984 0000     		.short	0
 6345 0986 00A0     		.short	-24576
 6346 0988 0050     		.short	20480
 6347 098a 0028     		.short	10240
 6348 098c 0050     		.short	20480
 6349 098e 00A0     		.short	-24576
 6350 0990 0000     		.short	0
 6351 0992 00A8     		.short	-22528
 6352 0994 0050     		.short	20480
 6353 0996 00A8     		.short	-22528
 6354 0998 0050     		.short	20480
 6355 099a 00A8     		.short	-22528
 6356 099c 0050     		.short	20480
 6357 099e 00A8     		.short	-22528
 6358 09a0 00F8     		.short	-2048
 6359 09a2 0000     		.short	0
 6360 09a4 0000     		.short	0
 6361 09a6 00F8     		.short	-2048
 6362 09a8 0000     		.short	0
 6363 09aa 0000     		.short	0
 6364 09ac 00F8     		.short	-2048
 6365 09ae 00F8     		.short	-2048
 6366 09b0 0000     		.short	0
 6367 09b2 00F8     		.short	-2048
 6368 09b4 0000     		.short	0
 6369 09b6 00F8     		.short	-2048
 6370 09b8 0000     		.short	0
 6371 09ba 00F8     		.short	-2048
 6372 09bc 0020     		.short	8192
 6373 09be 0020     		.short	8192
 6374 09c0 0020     		.short	8192
 6375 09c2 0020     		.short	8192
 6376 09c4 0020     		.short	8192
 6377 09c6 0020     		.short	8192
 6378 09c8 0020     		.short	8192
 6379 09ca 0020     		.short	8192
 6380 09cc 0020     		.short	8192
 6381 09ce 0020     		.short	8192
 6382 09d0 00E0     		.short	-8192
 6383 09d2 0020     		.short	8192
 6384 09d4 0020     		.short	8192
 6385 09d6 0020     		.short	8192
 6386 09d8 0010     		.short	4096
 6387 09da 0020     		.short	8192
 6388 09dc 0070     		.short	28672
 6389 09de 0088     		.short	-30720
 6390 09e0 00F8     		.short	-2048
 6391 09e2 0088     		.short	-30720
 6392 09e4 0088     		.short	-30720
 6393 09e6 0020     		.short	8192
 6394 09e8 0050     		.short	20480
 6395 09ea 0070     		.short	28672
 6396 09ec 0088     		.short	-30720
 6397 09ee 00F8     		.short	-2048
 6398 09f0 0088     		.short	-30720
 6399 09f2 0088     		.short	-30720
ARM GAS  C:\Users\arist\AppData\Local\Temp\ccUERo53.s 			page 145


 6400 09f4 0040     		.short	16384
 6401 09f6 0020     		.short	8192
 6402 09f8 0070     		.short	28672
 6403 09fa 0088     		.short	-30720
 6404 09fc 00F8     		.short	-2048
 6405 09fe 0088     		.short	-30720
 6406 0a00 0088     		.short	-30720
 6407 0a02 0000     		.short	0
 6408 0a04 0070     		.short	28672
 6409 0a06 00A8     		.short	-22528
 6410 0a08 00C8     		.short	-14336
 6411 0a0a 00A8     		.short	-22528
 6412 0a0c 0070     		.short	28672
 6413 0a0e 0000     		.short	0
 6414 0a10 0050     		.short	20480
 6415 0a12 0050     		.short	20480
 6416 0a14 00D0     		.short	-12288
 6417 0a16 0010     		.short	4096
 6418 0a18 00D0     		.short	-12288
 6419 0a1a 0050     		.short	20480
 6420 0a1c 0050     		.short	20480
 6421 0a1e 0050     		.short	20480
 6422 0a20 0050     		.short	20480
 6423 0a22 0050     		.short	20480
 6424 0a24 0050     		.short	20480
 6425 0a26 0050     		.short	20480
 6426 0a28 0050     		.short	20480
 6427 0a2a 0050     		.short	20480
 6428 0a2c 0000     		.short	0
 6429 0a2e 0000     		.short	0
 6430 0a30 00F0     		.short	-4096
 6431 0a32 0010     		.short	4096
 6432 0a34 00D0     		.short	-12288
 6433 0a36 0050     		.short	20480
 6434 0a38 0050     		.short	20480
 6435 0a3a 0050     		.short	20480
 6436 0a3c 0050     		.short	20480
 6437 0a3e 00D0     		.short	-12288
 6438 0a40 0001     		.short	256
 6439 0a42 00F0     		.short	-4096
 6440 0a44 0000     		.short	0
 6441 0a46 0000     		.short	0
 6442 0a48 0002     		.short	512
 6443 0a4a 0078     		.short	30720
 6444 0a4c 0080     		.short	-32768
 6445 0a4e 0080     		.short	-32768
 6446 0a50 0080     		.short	-32768
 6447 0a52 0078     		.short	30720
 6448 0a54 0020     		.short	8192
 6449 0a56 0050     		.short	20480
 6450 0a58 0050     		.short	20480
 6451 0a5a 0020     		.short	8192
 6452 0a5c 0070     		.short	28672
 6453 0a5e 0020     		.short	8192
 6454 0a60 0070     		.short	28672
 6455 0a62 0020     		.short	8192
 6456 0a64 0000     		.short	0
ARM GAS  C:\Users\arist\AppData\Local\Temp\ccUERo53.s 			page 146


 6457 0a66 0000     		.short	0
 6458 0a68 0000     		.short	0
 6459 0a6a 00E0     		.short	-8192
 6460 0a6c 0020     		.short	8192
 6461 0a6e 0020     		.short	8192
 6462 0a70 0020     		.short	8192
 6463 0a72 0020     		.short	8192
 6464 0a74 0020     		.short	8192
 6465 0a76 0020     		.short	8192
 6466 0a78 0038     		.short	14336
 6467 0a7a 0000     		.short	0
 6468 0a7c 0000     		.short	0
 6469 0a7e 0000     		.short	0
 6470 0a80 0020     		.short	8192
 6471 0a82 0020     		.short	8192
 6472 0a84 0020     		.short	8192
 6473 0a86 00F8     		.short	-2048
 6474 0a88 0000     		.short	0
 6475 0a8a 0000     		.short	0
 6476 0a8c 0000     		.short	0
 6477 0a8e 0000     		.short	0
 6478 0a90 0000     		.short	0
 6479 0a92 0000     		.short	0
 6480 0a94 00F8     		.short	-2048
 6481 0a96 0020     		.short	8192
 6482 0a98 0020     		.short	8192
 6483 0a9a 0020     		.short	8192
 6484 0a9c 0020     		.short	8192
 6485 0a9e 0020     		.short	8192
 6486 0aa0 0020     		.short	8192
 6487 0aa2 0038     		.short	14336
 6488 0aa4 0020     		.short	8192
 6489 0aa6 0020     		.short	8192
 6490 0aa8 0020     		.short	8192
 6491 0aaa 0000     		.short	0
 6492 0aac 0000     		.short	0
 6493 0aae 0000     		.short	0
 6494 0ab0 00F8     		.short	-2048
 6495 0ab2 0000     		.short	0
 6496 0ab4 0000     		.short	0
 6497 0ab6 0000     		.short	0
 6498 0ab8 0020     		.short	8192
 6499 0aba 0020     		.short	8192
 6500 0abc 0020     		.short	8192
 6501 0abe 00F8     		.short	-2048
 6502 0ac0 0020     		.short	8192
 6503 0ac2 0020     		.short	8192
 6504 0ac4 0020     		.short	8192
 6505 0ac6 0028     		.short	10240
 6506 0ac8 0050     		.short	20480
 6507 0aca 0070     		.short	28672
 6508 0acc 0008     		.short	2048
 6509 0ace 0078     		.short	30720
 6510 0ad0 0088     		.short	-30720
 6511 0ad2 0070     		.short	28672
 6512 0ad4 0028     		.short	10240
 6513 0ad6 0050     		.short	20480
ARM GAS  C:\Users\arist\AppData\Local\Temp\ccUERo53.s 			page 147


 6514 0ad8 0070     		.short	28672
 6515 0ada 0088     		.short	-30720
 6516 0adc 00F8     		.short	-2048
 6517 0ade 0088     		.short	-30720
 6518 0ae0 0088     		.short	-30720
 6519 0ae2 0050     		.short	20480
 6520 0ae4 0050     		.short	20480
 6521 0ae6 0058     		.short	22528
 6522 0ae8 0040     		.short	16384
 6523 0aea 0078     		.short	30720
 6524 0aec 0000     		.short	0
 6525 0aee 0000     		.short	0
 6526 0af0 0000     		.short	0
 6527 0af2 0000     		.short	0
 6528 0af4 0078     		.short	30720
 6529 0af6 0040     		.short	16384
 6530 0af8 0058     		.short	22528
 6531 0afa 0050     		.short	20480
 6532 0afc 0050     		.short	20480
 6533 0afe 0050     		.short	20480
 6534 0b00 0050     		.short	20480
 6535 0b02 00D8     		.short	-10240
 6536 0b04 0000     		.short	0
 6537 0b06 00F8     		.short	-2048
 6538 0b08 0000     		.short	0
 6539 0b0a 0000     		.short	0
 6540 0b0c 0000     		.short	0
 6541 0b0e 0000     		.short	0
 6542 0b10 00F8     		.short	-2048
 6543 0b12 0000     		.short	0
 6544 0b14 00D8     		.short	-10240
 6545 0b16 0050     		.short	20480
 6546 0b18 0050     		.short	20480
 6547 0b1a 0050     		.short	20480
 6548 0b1c 0050     		.short	20480
 6549 0b1e 0058     		.short	22528
 6550 0b20 0040     		.short	16384
 6551 0b22 0058     		.short	22528
 6552 0b24 0050     		.short	20480
 6553 0b26 0050     		.short	20480
 6554 0b28 0000     		.short	0
 6555 0b2a 0000     		.short	0
 6556 0b2c 00F8     		.short	-2048
 6557 0b2e 0000     		.short	0
 6558 0b30 00F8     		.short	-2048
 6559 0b32 0000     		.short	0
 6560 0b34 0000     		.short	0
 6561 0b36 0050     		.short	20480
 6562 0b38 0050     		.short	20480
 6563 0b3a 00D8     		.short	-10240
 6564 0b3c 0000     		.short	0
 6565 0b3e 00D8     		.short	-10240
 6566 0b40 0050     		.short	20480
 6567 0b42 0050     		.short	20480
 6568 0b44 00F8     		.short	-2048
 6569 0b46 0050     		.short	20480
 6570 0b48 0050     		.short	20480
ARM GAS  C:\Users\arist\AppData\Local\Temp\ccUERo53.s 			page 148


 6571 0b4a 00F8     		.short	-2048
 6572 0b4c 0000     		.short	0
 6573 0b4e 0000     		.short	0
 6574 0b50 0000     		.short	0
 6575 0b52 0050     		.short	20480
 6576 0b54 0020     		.short	8192
 6577 0b56 0070     		.short	28672
 6578 0b58 0088     		.short	-30720
 6579 0b5a 0088     		.short	-30720
 6580 0b5c 0088     		.short	-30720
 6581 0b5e 0070     		.short	28672
 6582 0b60 0070     		.short	28672
 6583 0b62 0048     		.short	18432
 6584 0b64 0048     		.short	18432
 6585 0b66 00E8     		.short	-6144
 6586 0b68 0048     		.short	18432
 6587 0b6a 0048     		.short	18432
 6588 0b6c 0070     		.short	28672
 6589 0b6e 0020     		.short	8192
 6590 0b70 0050     		.short	20480
 6591 0b72 00F8     		.short	-2048
 6592 0b74 0080     		.short	-32768
 6593 0b76 00F0     		.short	-4096
 6594 0b78 0080     		.short	-32768
 6595 0b7a 00F8     		.short	-2048
 6596 0b7c 0050     		.short	20480
 6597 0b7e 0000     		.short	0
 6598 0b80 00F8     		.short	-2048
 6599 0b82 0080     		.short	-32768
 6600 0b84 00F0     		.short	-4096
 6601 0b86 0080     		.short	-32768
 6602 0b88 00F8     		.short	-2048
 6603 0b8a 0040     		.short	16384
 6604 0b8c 0020     		.short	8192
 6605 0b8e 00F8     		.short	-2048
 6606 0b90 0080     		.short	-32768
 6607 0b92 00F0     		.short	-4096
 6608 0b94 0080     		.short	-32768
 6609 0b96 00F8     		.short	-2048
 6610 0b98 0000     		.short	0
 6611 0b9a 0000     		.short	0
 6612 0b9c 0000     		.short	0
 6613 0b9e 0060     		.short	24576
 6614 0ba0 0020     		.short	8192
 6615 0ba2 0020     		.short	8192
 6616 0ba4 0070     		.short	28672
 6617 0ba6 0010     		.short	4096
 6618 0ba8 0020     		.short	8192
 6619 0baa 00F8     		.short	-2048
 6620 0bac 0020     		.short	8192
 6621 0bae 0020     		.short	8192
 6622 0bb0 0020     		.short	8192
 6623 0bb2 00F8     		.short	-2048
 6624 0bb4 0020     		.short	8192
 6625 0bb6 0050     		.short	20480
 6626 0bb8 00F8     		.short	-2048
 6627 0bba 0020     		.short	8192
ARM GAS  C:\Users\arist\AppData\Local\Temp\ccUERo53.s 			page 149


 6628 0bbc 0020     		.short	8192
 6629 0bbe 0020     		.short	8192
 6630 0bc0 00F8     		.short	-2048
 6631 0bc2 0050     		.short	20480
 6632 0bc4 0000     		.short	0
 6633 0bc6 00F8     		.short	-2048
 6634 0bc8 0020     		.short	8192
 6635 0bca 0020     		.short	8192
 6636 0bcc 0020     		.short	8192
 6637 0bce 00F8     		.short	-2048
 6638 0bd0 0020     		.short	8192
 6639 0bd2 0020     		.short	8192
 6640 0bd4 0020     		.short	8192
 6641 0bd6 00E0     		.short	-8192
 6642 0bd8 0000     		.short	0
 6643 0bda 0000     		.short	0
 6644 0bdc 0000     		.short	0
 6645 0bde 0000     		.short	0
 6646 0be0 0000     		.short	0
 6647 0be2 0000     		.short	0
 6648 0be4 0038     		.short	14336
 6649 0be6 0020     		.short	8192
 6650 0be8 0020     		.short	8192
 6651 0bea 0020     		.short	8192
 6652 0bec 00F8     		.short	-2048
 6653 0bee 00F8     		.short	-2048
 6654 0bf0 00F8     		.short	-2048
 6655 0bf2 00F8     		.short	-2048
 6656 0bf4 00F8     		.short	-2048
 6657 0bf6 00F8     		.short	-2048
 6658 0bf8 00F8     		.short	-2048
 6659 0bfa 0000     		.short	0
 6660 0bfc 0000     		.short	0
 6661 0bfe 0000     		.short	0
 6662 0c00 0000     		.short	0
 6663 0c02 00F8     		.short	-2048
 6664 0c04 00F8     		.short	-2048
 6665 0c06 00F8     		.short	-2048
 6666 0c08 0000     		.short	0
 6667 0c0a 0020     		.short	8192
 6668 0c0c 0020     		.short	8192
 6669 0c0e 0000     		.short	0
 6670 0c10 0020     		.short	8192
 6671 0c12 0020     		.short	8192
 6672 0c14 0000     		.short	0
 6673 0c16 0000     		.short	0
 6674 0c18 0000     		.short	0
 6675 0c1a 00F8     		.short	-2048
 6676 0c1c 00F8     		.short	-2048
 6677 0c1e 00F8     		.short	-2048
 6678 0c20 0000     		.short	0
 6679 0c22 0000     		.short	0
 6680 0c24 00F8     		.short	-2048
 6681 0c26 00F8     		.short	-2048
 6682 0c28 00F8     		.short	-2048
 6683 0c2a 00F8     		.short	-2048
 6684 0c2c 0000     		.short	0
ARM GAS  C:\Users\arist\AppData\Local\Temp\ccUERo53.s 			page 150


 6685 0c2e 0000     		.short	0
 6686 0c30 0000     		.short	0
 6687 0c32 0010     		.short	4096
 6688 0c34 0020     		.short	8192
 6689 0c36 0078     		.short	30720
 6690 0c38 0088     		.short	-30720
 6691 0c3a 0088     		.short	-30720
 6692 0c3c 0088     		.short	-30720
 6693 0c3e 0070     		.short	28672
 6694 0c40 00E0     		.short	-8192
 6695 0c42 0090     		.short	-28672
 6696 0c44 00E0     		.short	-8192
 6697 0c46 0090     		.short	-28672
 6698 0c48 0088     		.short	-30720
 6699 0c4a 0088     		.short	-30720
 6700 0c4c 00F0     		.short	-4096
 6701 0c4e 0020     		.short	8192
 6702 0c50 0050     		.short	20480
 6703 0c52 0078     		.short	30720
 6704 0c54 0088     		.short	-30720
 6705 0c56 0088     		.short	-30720
 6706 0c58 0088     		.short	-30720
 6707 0c5a 0070     		.short	28672
 6708 0c5c 0040     		.short	16384
 6709 0c5e 0020     		.short	8192
 6710 0c60 0078     		.short	30720
 6711 0c62 0088     		.short	-30720
 6712 0c64 0088     		.short	-30720
 6713 0c66 0088     		.short	-30720
 6714 0c68 0070     		.short	28672
 6715 0c6a 0028     		.short	10240
 6716 0c6c 0050     		.short	20480
 6717 0c6e 0078     		.short	30720
 6718 0c70 0088     		.short	-30720
 6719 0c72 0088     		.short	-30720
 6720 0c74 0088     		.short	-30720
 6721 0c76 0070     		.short	28672
 6722 0c78 0028     		.short	10240
 6723 0c7a 0050     		.short	20480
 6724 0c7c 0078     		.short	30720
 6725 0c7e 0088     		.short	-30720
 6726 0c80 0088     		.short	-30720
 6727 0c82 0088     		.short	-30720
 6728 0c84 0070     		.short	28672
 6729 0c86 0000     		.short	0
 6730 0c88 0000     		.short	0
 6731 0c8a 0088     		.short	-30720
 6732 0c8c 0088     		.short	-30720
 6733 0c8e 00C8     		.short	-14336
 6734 0c90 00B0     		.short	-20480
 6735 0c92 0080     		.short	-32768
 6736 0c94 00C0     		.short	-16384
 6737 0c96 0050     		.short	20480
 6738 0c98 0068     		.short	26624
 6739 0c9a 0068     		.short	26624
 6740 0c9c 0050     		.short	20480
 6741 0c9e 0040     		.short	16384
ARM GAS  C:\Users\arist\AppData\Local\Temp\ccUERo53.s 			page 151


 6742 0ca0 00E0     		.short	-8192
 6743 0ca2 00E0     		.short	-8192
 6744 0ca4 0040     		.short	16384
 6745 0ca6 0070     		.short	28672
 6746 0ca8 0048     		.short	18432
 6747 0caa 0070     		.short	28672
 6748 0cac 0040     		.short	16384
 6749 0cae 00E0     		.short	-8192
 6750 0cb0 0010     		.short	4096
 6751 0cb2 00A8     		.short	-22528
 6752 0cb4 0088     		.short	-30720
 6753 0cb6 0088     		.short	-30720
 6754 0cb8 0088     		.short	-30720
 6755 0cba 0088     		.short	-30720
 6756 0cbc 0070     		.short	28672
 6757 0cbe 0020     		.short	8192
 6758 0cc0 0050     		.short	20480
 6759 0cc2 0088     		.short	-30720
 6760 0cc4 0088     		.short	-30720
 6761 0cc6 0088     		.short	-30720
 6762 0cc8 0088     		.short	-30720
 6763 0cca 0070     		.short	28672
 6764 0ccc 0040     		.short	16384
 6765 0cce 00A8     		.short	-22528
 6766 0cd0 0088     		.short	-30720
 6767 0cd2 0088     		.short	-30720
 6768 0cd4 0088     		.short	-30720
 6769 0cd6 0088     		.short	-30720
 6770 0cd8 0070     		.short	28672
 6771 0cda 0010     		.short	4096
 6772 0cdc 0020     		.short	8192
 6773 0cde 0088     		.short	-30720
 6774 0ce0 0050     		.short	20480
 6775 0ce2 0020     		.short	8192
 6776 0ce4 0020     		.short	8192
 6777 0ce6 00C0     		.short	-16384
 6778 0ce8 0010     		.short	4096
 6779 0cea 0020     		.short	8192
 6780 0cec 0088     		.short	-30720
 6781 0cee 0050     		.short	20480
 6782 0cf0 0020     		.short	8192
 6783 0cf2 0020     		.short	8192
 6784 0cf4 0070     		.short	28672
 6785 0cf6 00F8     		.short	-2048
 6786 0cf8 0000     		.short	0
 6787 0cfa 0000     		.short	0
 6788 0cfc 0000     		.short	0
 6789 0cfe 0000     		.short	0
 6790 0d00 0000     		.short	0
 6791 0d02 0000     		.short	0
 6792 0d04 0010     		.short	4096
 6793 0d06 0020     		.short	8192
 6794 0d08 0000     		.short	0
 6795 0d0a 0000     		.short	0
 6796 0d0c 0000     		.short	0
 6797 0d0e 0000     		.short	0
 6798 0d10 0008     		.short	2048
ARM GAS  C:\Users\arist\AppData\Local\Temp\ccUERo53.s 			page 152


 6799 0d12 0000     		.short	0
 6800 0d14 0000     		.short	0
 6801 0d16 0000     		.short	0
 6802 0d18 0070     		.short	28672
 6803 0d1a 0000     		.short	0
 6804 0d1c 0000     		.short	0
 6805 0d1e 0000     		.short	0
 6806 0d20 0020     		.short	8192
 6807 0d22 0020     		.short	8192
 6808 0d24 00F8     		.short	-2048
 6809 0d26 0020     		.short	8192
 6810 0d28 0020     		.short	8192
 6811 0d2a 0000     		.short	0
 6812 0d2c 00F8     		.short	-2048
 6813 0d2e 0000     		.short	0
 6814 0d30 0000     		.short	0
 6815 0d32 0000     		.short	0
 6816 0d34 0000     		.short	0
 6817 0d36 00F8     		.short	-2048
 6818 0d38 0000     		.short	0
 6819 0d3a 00F8     		.short	-2048
 6820 0d3c 0000     		.short	0
 6821 0d3e 0048     		.short	18432
 6822 0d40 00D0     		.short	-12288
 6823 0d42 0020     		.short	8192
 6824 0d44 0058     		.short	22528
 6825 0d46 0098     		.short	-26624
 6826 0d48 0000     		.short	0
 6827 0d4a 0078     		.short	30720
 6828 0d4c 0098     		.short	-26624
 6829 0d4e 0098     		.short	-26624
 6830 0d50 0078     		.short	30720
 6831 0d52 0018     		.short	6144
 6832 0d54 0018     		.short	6144
 6833 0d56 0078     		.short	30720
 6834 0d58 0078     		.short	30720
 6835 0d5a 00A0     		.short	-24576
 6836 0d5c 0090     		.short	-28672
 6837 0d5e 0088     		.short	-30720
 6838 0d60 0048     		.short	18432
 6839 0d62 0028     		.short	10240
 6840 0d64 00F0     		.short	-4096
 6841 0d66 0000     		.short	0
 6842 0d68 0020     		.short	8192
 6843 0d6a 0000     		.short	0
 6844 0d6c 00F8     		.short	-2048
 6845 0d6e 0000     		.short	0
 6846 0d70 0020     		.short	8192
 6847 0d72 0000     		.short	0
 6848 0d74 0000     		.short	0
 6849 0d76 0000     		.short	0
 6850 0d78 0000     		.short	0
 6851 0d7a 0000     		.short	0
 6852 0d7c 0030     		.short	12288
 6853 0d7e 0030     		.short	12288
 6854 0d80 0060     		.short	24576
 6855 0d82 0020     		.short	8192
ARM GAS  C:\Users\arist\AppData\Local\Temp\ccUERo53.s 			page 153


 6856 0d84 0050     		.short	20480
 6857 0d86 0020     		.short	8192
 6858 0d88 0000     		.short	0
 6859 0d8a 0000     		.short	0
 6860 0d8c 0000     		.short	0
 6861 0d8e 0000     		.short	0
 6862 0d90 0050     		.short	20480
 6863 0d92 0000     		.short	0
 6864 0d94 0000     		.short	0
 6865 0d96 0000     		.short	0
 6866 0d98 0000     		.short	0
 6867 0d9a 0000     		.short	0
 6868 0d9c 0000     		.short	0
 6869 0d9e 0000     		.short	0
 6870 0da0 0030     		.short	12288
 6871 0da2 0030     		.short	12288
 6872 0da4 0000     		.short	0
 6873 0da6 0000     		.short	0
 6874 0da8 0000     		.short	0
 6875 0daa 0000     		.short	0
 6876 0dac 0020     		.short	8192
 6877 0dae 0060     		.short	24576
 6878 0db0 0020     		.short	8192
 6879 0db2 0020     		.short	8192
 6880 0db4 0070     		.short	28672
 6881 0db6 0000     		.short	0
 6882 0db8 0000     		.short	0
 6883 0dba 0060     		.short	24576
 6884 0dbc 0010     		.short	4096
 6885 0dbe 0020     		.short	8192
 6886 0dc0 0010     		.short	4096
 6887 0dc2 0030     		.short	12288
 6888 0dc4 0000     		.short	0
 6889 0dc6 0000     		.short	0
 6890 0dc8 0060     		.short	24576
 6891 0dca 0010     		.short	4096
 6892 0dcc 0030     		.short	12288
 6893 0dce 0040     		.short	16384
 6894 0dd0 0070     		.short	28672
 6895 0dd2 0000     		.short	0
 6896 0dd4 0000     		.short	0
 6897 0dd6 00F8     		.short	-2048
 6898 0dd8 00F8     		.short	-2048
 6899 0dda 00F8     		.short	-2048
 6900 0ddc 00F8     		.short	-2048
 6901 0dde 0000     		.short	0
 6902 0de0 0000     		.short	0
 6903 0de2 0000     		.short	0
 6904 0de4 00000000 		.space	28
 6904      00000000 
 6904      00000000 
 6904      00000000 
 6904      00000000 
 6905              		.global	font_m
 6906              		.section	.data.font_m,"aw"
 6907              		.align	2
 6910              	font_m:
ARM GAS  C:\Users\arist\AppData\Local\Temp\ccUERo53.s 			page 154


 6911 0000 C0FF     		.short	-64
 6912 0002 C0FF     		.short	-64
 6913 0004 C0FF     		.short	-64
 6914 0006 C0FF     		.short	-64
 6915 0008 C0FF     		.short	-64
 6916 000a C0FF     		.short	-64
 6917 000c C0FF     		.short	-64
 6918 000e C0FF     		.short	-64
 6919 0010 C0FF     		.short	-64
 6920 0012 C0FF     		.short	-64
 6921 0014 C0FF     		.short	-64
 6922 0016 C0FF     		.short	-64
 6923 0018 C0FF     		.short	-64
 6924 001a C0FF     		.short	-64
 6925 001c 0000     		.short	0
 6926 001e 001E     		.short	7680
 6927 0020 0021     		.short	8448
 6928 0022 8040     		.short	16512
 6929 0024 40B3     		.short	-19648
 6930 0026 40B3     		.short	-19648
 6931 0028 4080     		.short	-32704
 6932 002a 4080     		.short	-32704
 6933 002c 40A1     		.short	-24256
 6934 002e 409E     		.short	-25024
 6935 0030 8040     		.short	16512
 6936 0032 0021     		.short	8448
 6937 0034 001E     		.short	7680
 6938 0036 0000     		.short	0
 6939 0038 0000     		.short	0
 6940 003a 001E     		.short	7680
 6941 003c 003F     		.short	16128
 6942 003e 807F     		.short	32640
 6943 0040 C0CC     		.short	-13120
 6944 0042 C0CC     		.short	-13120
 6945 0044 C0FF     		.short	-64
 6946 0046 C0FF     		.short	-64
 6947 0048 C0DE     		.short	-8512
 6948 004a C0E1     		.short	-7744
 6949 004c 807F     		.short	32640
 6950 004e 003F     		.short	16128
 6951 0050 001E     		.short	7680
 6952 0052 0000     		.short	0
 6953 0054 0000     		.short	0
 6954 0056 8061     		.short	24960
 6955 0058 C0F3     		.short	-3136
 6956 005a C0FF     		.short	-64
 6957 005c C0FF     		.short	-64
 6958 005e C0FF     		.short	-64
 6959 0060 C0FF     		.short	-64
 6960 0062 807F     		.short	32640
 6961 0064 807F     		.short	32640
 6962 0066 003F     		.short	16128
 6963 0068 003F     		.short	16128
 6964 006a 001E     		.short	7680
 6965 006c 000C     		.short	3072
 6966 006e 0000     		.short	0
 6967 0070 0000     		.short	0
ARM GAS  C:\Users\arist\AppData\Local\Temp\ccUERo53.s 			page 155


 6968 0072 0000     		.short	0
 6969 0074 000C     		.short	3072
 6970 0076 001E     		.short	7680
 6971 0078 003F     		.short	16128
 6972 007a 807F     		.short	32640
 6973 007c C0FF     		.short	-64
 6974 007e C0FF     		.short	-64
 6975 0080 807F     		.short	32640
 6976 0082 003F     		.short	16128
 6977 0084 001E     		.short	7680
 6978 0086 000C     		.short	3072
 6979 0088 0000     		.short	0
 6980 008a 0000     		.short	0
 6981 008c 0000     		.short	0
 6982 008e 000C     		.short	3072
 6983 0090 001E     		.short	7680
 6984 0092 001E     		.short	7680
 6985 0094 001E     		.short	7680
 6986 0096 806D     		.short	28032
 6987 0098 C0FF     		.short	-64
 6988 009a C0FF     		.short	-64
 6989 009c C0FF     		.short	-64
 6990 009e 806D     		.short	28032
 6991 00a0 000C     		.short	3072
 6992 00a2 001E     		.short	7680
 6993 00a4 003F     		.short	16128
 6994 00a6 0000     		.short	0
 6995 00a8 0000     		.short	0
 6996 00aa 000C     		.short	3072
 6997 00ac 001E     		.short	7680
 6998 00ae 003F     		.short	16128
 6999 00b0 003F     		.short	16128
 7000 00b2 807F     		.short	32640
 7001 00b4 807F     		.short	32640
 7002 00b6 C0FF     		.short	-64
 7003 00b8 C0FF     		.short	-64
 7004 00ba C0FF     		.short	-64
 7005 00bc 806D     		.short	28032
 7006 00be 001E     		.short	7680
 7007 00c0 003F     		.short	16128
 7008 00c2 0000     		.short	0
 7009 00c4 0000     		.short	0
 7010 00c6 0000     		.short	0
 7011 00c8 0000     		.short	0
 7012 00ca 001E     		.short	7680
 7013 00cc 003F     		.short	16128
 7014 00ce 807F     		.short	32640
 7015 00d0 807F     		.short	32640
 7016 00d2 807F     		.short	32640
 7017 00d4 807F     		.short	32640
 7018 00d6 003F     		.short	16128
 7019 00d8 001E     		.short	7680
 7020 00da 0000     		.short	0
 7021 00dc 0000     		.short	0
 7022 00de 0000     		.short	0
 7023 00e0 C0FF     		.short	-64
 7024 00e2 C0FF     		.short	-64
ARM GAS  C:\Users\arist\AppData\Local\Temp\ccUERo53.s 			page 156


 7025 00e4 C0FF     		.short	-64
 7026 00e6 C0E1     		.short	-7744
 7027 00e8 C0C0     		.short	-16192
 7028 00ea 7080     		.short	-32656
 7029 00ec 7080     		.short	-32656
 7030 00ee 7080     		.short	-32656
 7031 00f0 7080     		.short	-32656
 7032 00f2 C0C0     		.short	-16192
 7033 00f4 C0E1     		.short	-7744
 7034 00f6 C0FF     		.short	-64
 7035 00f8 C0FF     		.short	-64
 7036 00fa C0FF     		.short	-64
 7037 00fc 0000     		.short	0
 7038 00fe 0000     		.short	0
 7039 0100 0000     		.short	0
 7040 0102 001E     		.short	7680
 7041 0104 0021     		.short	8448
 7042 0106 8040     		.short	16512
 7043 0108 8040     		.short	16512
 7044 010a 8040     		.short	16512
 7045 010c 8040     		.short	16512
 7046 010e 0021     		.short	8448
 7047 0110 001E     		.short	7680
 7048 0112 0000     		.short	0
 7049 0114 0000     		.short	0
 7050 0116 0000     		.short	0
 7051 0118 C0FF     		.short	-64
 7052 011a C0FF     		.short	-64
 7053 011c C0FF     		.short	-64
 7054 011e C0E1     		.short	-7744
 7055 0120 C0DE     		.short	-8512
 7056 0122 70BF     		.short	-16528
 7057 0124 70BF     		.short	-16528
 7058 0126 70BF     		.short	-16528
 7059 0128 70BF     		.short	-16528
 7060 012a C0DE     		.short	-8512
 7061 012c C0E1     		.short	-7744
 7062 012e C0FF     		.short	-64
 7063 0130 C0FF     		.short	-64
 7064 0132 C0FF     		.short	-64
 7065 0134 0000     		.short	0
 7066 0136 C003     		.short	960
 7067 0138 C000     		.short	192
 7068 013a 4001     		.short	320
 7069 013c 403E     		.short	15936
 7070 013e 0042     		.short	16896
 7071 0140 0081     		.short	-32512
 7072 0142 0081     		.short	-32512
 7073 0144 0081     		.short	-32512
 7074 0146 0081     		.short	-32512
 7075 0148 0042     		.short	16896
 7076 014a 403E     		.short	15936
 7077 014c 0000     		.short	0
 7078 014e 0000     		.short	0
 7079 0150 0000     		.short	0
 7080 0152 0000     		.short	0
 7081 0154 001C     		.short	7168
ARM GAS  C:\Users\arist\AppData\Local\Temp\ccUERo53.s 			page 157


 7082 0156 0022     		.short	8704
 7083 0158 0041     		.short	16640
 7084 015a 0041     		.short	16640
 7085 015c 0041     		.short	16640
 7086 015e 0022     		.short	8704
 7087 0160 001C     		.short	7168
 7088 0162 0008     		.short	2048
 7089 0164 0008     		.short	2048
 7090 0166 003E     		.short	15872
 7091 0168 0008     		.short	2048
 7092 016a 0000     		.short	0
 7093 016c 0000     		.short	0
 7094 016e 0004     		.short	1024
 7095 0170 0006     		.short	1536
 7096 0172 0006     		.short	1536
 7097 0174 0005     		.short	1280
 7098 0176 0005     		.short	1280
 7099 0178 8004     		.short	1152
 7100 017a 8004     		.short	1152
 7101 017c 003C     		.short	15360
 7102 017e 0044     		.short	17408
 7103 0180 0044     		.short	17408
 7104 0182 0044     		.short	17408
 7105 0184 0038     		.short	14336
 7106 0186 0000     		.short	0
 7107 0188 0000     		.short	0
 7108 018a C000     		.short	192
 7109 018c C001     		.short	448
 7110 018e 4003     		.short	832
 7111 0190 4006     		.short	1600
 7112 0192 800C     		.short	3200
 7113 0194 C00B     		.short	3008
 7114 0196 400C     		.short	3136
 7115 0198 807C     		.short	31872
 7116 019a 808C     		.short	-29568
 7117 019c 808B     		.short	-29824
 7118 019e 0088     		.short	-30720
 7119 01a0 0070     		.short	28672
 7120 01a2 0000     		.short	0
 7121 01a4 0000     		.short	0
 7122 01a6 0000     		.short	0
 7123 01a8 0000     		.short	0
 7124 01aa 0008     		.short	2048
 7125 01ac 0049     		.short	18688
 7126 01ae 003E     		.short	15872
 7127 01b0 0022     		.short	8704
 7128 01b2 80E3     		.short	-7296
 7129 01b4 0022     		.short	8704
 7130 01b6 003E     		.short	15872
 7131 01b8 0049     		.short	18688
 7132 01ba 0008     		.short	2048
 7133 01bc 0000     		.short	0
 7134 01be 0000     		.short	0
 7135 01c0 0000     		.short	0
 7136 01c2 0020     		.short	8192
 7137 01c4 0030     		.short	12288
 7138 01c6 0030     		.short	12288
ARM GAS  C:\Users\arist\AppData\Local\Temp\ccUERo53.s 			page 158


 7139 01c8 003C     		.short	15360
 7140 01ca 003E     		.short	15872
 7141 01cc 003F     		.short	16128
 7142 01ce 003F     		.short	16128
 7143 01d0 003E     		.short	15872
 7144 01d2 003C     		.short	15360
 7145 01d4 0038     		.short	14336
 7146 01d6 0030     		.short	12288
 7147 01d8 0020     		.short	8192
 7148 01da 0000     		.short	0
 7149 01dc 0000     		.short	0
 7150 01de 0001     		.short	256
 7151 01e0 0003     		.short	768
 7152 01e2 0007     		.short	1792
 7153 01e4 000F     		.short	3840
 7154 01e6 001F     		.short	7936
 7155 01e8 003F     		.short	16128
 7156 01ea 003F     		.short	16128
 7157 01ec 001F     		.short	7936
 7158 01ee 000F     		.short	3840
 7159 01f0 0007     		.short	1792
 7160 01f2 0003     		.short	768
 7161 01f4 0001     		.short	256
 7162 01f6 0000     		.short	0
 7163 01f8 0000     		.short	0
 7164 01fa 0000     		.short	0
 7165 01fc 0008     		.short	2048
 7166 01fe 001C     		.short	7168
 7167 0200 002A     		.short	10752
 7168 0202 0008     		.short	2048
 7169 0204 0008     		.short	2048
 7170 0206 0008     		.short	2048
 7171 0208 0008     		.short	2048
 7172 020a 002A     		.short	10752
 7173 020c 001C     		.short	7168
 7174 020e 0008     		.short	2048
 7175 0210 0000     		.short	0
 7176 0212 0000     		.short	0
 7177 0214 0000     		.short	0
 7178 0216 0000     		.short	0
 7179 0218 0012     		.short	4608
 7180 021a 0012     		.short	4608
 7181 021c 0012     		.short	4608
 7182 021e 0012     		.short	4608
 7183 0220 0012     		.short	4608
 7184 0222 0012     		.short	4608
 7185 0224 0012     		.short	4608
 7186 0226 0012     		.short	4608
 7187 0228 0000     		.short	0
 7188 022a 0012     		.short	4608
 7189 022c 0000     		.short	0
 7190 022e 0000     		.short	0
 7191 0230 0000     		.short	0
 7192 0232 0000     		.short	0
 7193 0234 0033     		.short	13056
 7194 0236 0033     		.short	13056
 7195 0238 0033     		.short	13056
ARM GAS  C:\Users\arist\AppData\Local\Temp\ccUERo53.s 			page 159


 7196 023a 0033     		.short	13056
 7197 023c 0033     		.short	13056
 7198 023e 0033     		.short	13056
 7199 0240 0033     		.short	13056
 7200 0242 0033     		.short	13056
 7201 0244 0033     		.short	13056
 7202 0246 0033     		.short	13056
 7203 0248 0000     		.short	0
 7204 024a 0000     		.short	0
 7205 024c 0000     		.short	0
 7206 024e 0000     		.short	0
 7207 0250 0008     		.short	2048
 7208 0252 0008     		.short	2048
 7209 0254 0049     		.short	18688
 7210 0256 8088     		.short	-30592
 7211 0258 8088     		.short	-30592
 7212 025a 8088     		.short	-30592
 7213 025c 8080     		.short	-32640
 7214 025e 8080     		.short	-32640
 7215 0260 0041     		.short	16640
 7216 0262 003E     		.short	15872
 7217 0264 0000     		.short	0
 7218 0266 0000     		.short	0
 7219 0268 0000     		.short	0
 7220 026a 0000     		.short	0
 7221 026c 8007     		.short	1920
 7222 026e 0006     		.short	1536
 7223 0270 0045     		.short	17664
 7224 0272 8084     		.short	-31616
 7225 0274 8080     		.short	-32640
 7226 0276 8080     		.short	-32640
 7227 0278 8080     		.short	-32640
 7228 027a 8080     		.short	-32640
 7229 027c 0041     		.short	16640
 7230 027e 003E     		.short	15872
 7231 0280 0000     		.short	0
 7232 0282 0000     		.short	0
 7233 0284 0000     		.short	0
 7234 0286 0000     		.short	0
 7235 0288 0008     		.short	2048
 7236 028a 001C     		.short	7168
 7237 028c 002A     		.short	10752
 7238 028e 0008     		.short	2048
 7239 0290 0008     		.short	2048
 7240 0292 0008     		.short	2048
 7241 0294 002A     		.short	10752
 7242 0296 001C     		.short	7168
 7243 0298 0008     		.short	2048
 7244 029a 003E     		.short	15872
 7245 029c 0000     		.short	0
 7246 029e 0000     		.short	0
 7247 02a0 0000     		.short	0
 7248 02a2 0000     		.short	0
 7249 02a4 0008     		.short	2048
 7250 02a6 001C     		.short	7168
 7251 02a8 002A     		.short	10752
 7252 02aa 0008     		.short	2048
ARM GAS  C:\Users\arist\AppData\Local\Temp\ccUERo53.s 			page 160


 7253 02ac 0008     		.short	2048
 7254 02ae 0008     		.short	2048
 7255 02b0 0008     		.short	2048
 7256 02b2 0008     		.short	2048
 7257 02b4 0008     		.short	2048
 7258 02b6 0008     		.short	2048
 7259 02b8 0000     		.short	0
 7260 02ba 0000     		.short	0
 7261 02bc 0000     		.short	0
 7262 02be 0000     		.short	0
 7263 02c0 0008     		.short	2048
 7264 02c2 0008     		.short	2048
 7265 02c4 0008     		.short	2048
 7266 02c6 0008     		.short	2048
 7267 02c8 0008     		.short	2048
 7268 02ca 0008     		.short	2048
 7269 02cc 0008     		.short	2048
 7270 02ce 002A     		.short	10752
 7271 02d0 001C     		.short	7168
 7272 02d2 0008     		.short	2048
 7273 02d4 0000     		.short	0
 7274 02d6 0000     		.short	0
 7275 02d8 0000     		.short	0
 7276 02da 0000     		.short	0
 7277 02dc 0000     		.short	0
 7278 02de 0000     		.short	0
 7279 02e0 0002     		.short	512
 7280 02e2 0001     		.short	256
 7281 02e4 807F     		.short	32640
 7282 02e6 0001     		.short	256
 7283 02e8 0002     		.short	512
 7284 02ea 0000     		.short	0
 7285 02ec 0000     		.short	0
 7286 02ee 0000     		.short	0
 7287 02f0 0000     		.short	0
 7288 02f2 0000     		.short	0
 7289 02f4 0000     		.short	0
 7290 02f6 0000     		.short	0
 7291 02f8 0000     		.short	0
 7292 02fa 0000     		.short	0
 7293 02fc 0001     		.short	256
 7294 02fe 0002     		.short	512
 7295 0300 807F     		.short	32640
 7296 0302 0002     		.short	512
 7297 0304 0001     		.short	256
 7298 0306 0000     		.short	0
 7299 0308 0000     		.short	0
 7300 030a 0000     		.short	0
 7301 030c 0000     		.short	0
 7302 030e 0000     		.short	0
 7303 0310 0000     		.short	0
 7304 0312 0040     		.short	16384
 7305 0314 0040     		.short	16384
 7306 0316 0040     		.short	16384
 7307 0318 0040     		.short	16384
 7308 031a 0040     		.short	16384
 7309 031c 0040     		.short	16384
ARM GAS  C:\Users\arist\AppData\Local\Temp\ccUERo53.s 			page 161


 7310 031e 0040     		.short	16384
 7311 0320 0040     		.short	16384
 7312 0322 0040     		.short	16384
 7313 0324 0040     		.short	16384
 7314 0326 0040     		.short	16384
 7315 0328 807F     		.short	32640
 7316 032a 0000     		.short	0
 7317 032c 0000     		.short	0
 7318 032e 0000     		.short	0
 7319 0330 0000     		.short	0
 7320 0332 0000     		.short	0
 7321 0334 2001     		.short	288
 7322 0336 0021     		.short	8448
 7323 0338 807F     		.short	32640
 7324 033a 0021     		.short	8448
 7325 033c 0012     		.short	4608
 7326 033e 0000     		.short	0
 7327 0340 0000     		.short	0
 7328 0342 0000     		.short	0
 7329 0344 0000     		.short	0
 7330 0346 0000     		.short	0
 7331 0348 0000     		.short	0
 7332 034a 0000     		.short	0
 7333 034c 0000     		.short	0
 7334 034e 0000     		.short	0
 7335 0350 000C     		.short	3072
 7336 0352 E001     		.short	480
 7337 0354 003F     		.short	16128
 7338 0356 807F     		.short	32640
 7339 0358 C0FF     		.short	-64
 7340 035a C0FF     		.short	-64
 7341 035c 0000     		.short	0
 7342 035e 0000     		.short	0
 7343 0360 0000     		.short	0
 7344 0362 0000     		.short	0
 7345 0364 0000     		.short	0
 7346 0366 0000     		.short	0
 7347 0368 0000     		.short	0
 7348 036a 0000     		.short	0
 7349 036c C0FF     		.short	-64
 7350 036e C0FF     		.short	-64
 7351 0370 807F     		.short	32640
 7352 0372 003F     		.short	16128
 7353 0374 E001     		.short	480
 7354 0376 000C     		.short	3072
 7355 0378 0000     		.short	0
 7356 037a 0000     		.short	0
 7357 037c 0000     		.short	0
 7358 037e 0000     		.short	0
 7359 0380 0000     		.short	0
 7360 0382 0000     		.short	0
 7361 0384 0000     		.short	0
 7362 0386 0000     		.short	0
 7363 0388 0000     		.short	0
 7364 038a 0000     		.short	0
 7365 038c 0000     		.short	0
 7366 038e 0000     		.short	0
ARM GAS  C:\Users\arist\AppData\Local\Temp\ccUERo53.s 			page 162


 7367 0390 0000     		.short	0
 7368 0392 0000     		.short	0
 7369 0394 0000     		.short	0
 7370 0396 0000     		.short	0
 7371 0398 0000     		.short	0
 7372 039a 0000     		.short	0
 7373 039c 0000     		.short	0
 7374 039e 0000     		.short	0
 7375 03a0 0008     		.short	2048
 7376 03a2 0008     		.short	2048
 7377 03a4 0008     		.short	2048
 7378 03a6 0008     		.short	2048
 7379 03a8 0008     		.short	2048
 7380 03aa 0008     		.short	2048
 7381 03ac 0008     		.short	2048
 7382 03ae 0008     		.short	2048
 7383 03b0 0000     		.short	0
 7384 03b2 0008     		.short	2048
 7385 03b4 0000     		.short	0
 7386 03b6 0000     		.short	0
 7387 03b8 0012     		.short	4608
 7388 03ba 0012     		.short	4608
 7389 03bc 0012     		.short	4608
 7390 03be 0012     		.short	4608
 7391 03c0 0000     		.short	0
 7392 03c2 0000     		.short	0
 7393 03c4 0000     		.short	0
 7394 03c6 0000     		.short	0
 7395 03c8 0000     		.short	0
 7396 03ca 0000     		.short	0
 7397 03cc 0000     		.short	0
 7398 03ce 0000     		.short	0
 7399 03d0 0000     		.short	0
 7400 03d2 0000     		.short	0
 7401 03d4 0000     		.short	0
 7402 03d6 0000     		.short	0
 7403 03d8 0000     		.short	0
 7404 03da 0012     		.short	4608
 7405 03dc 0012     		.short	4608
 7406 03de 807F     		.short	32640
 7407 03e0 0012     		.short	4608
 7408 03e2 0012     		.short	4608
 7409 03e4 807F     		.short	32640
 7410 03e6 0012     		.short	4608
 7411 03e8 0012     		.short	4608
 7412 03ea 0000     		.short	0
 7413 03ec 0000     		.short	0
 7414 03ee 0000     		.short	0
 7415 03f0 0000     		.short	0
 7416 03f2 0008     		.short	2048
 7417 03f4 0008     		.short	2048
 7418 03f6 003F     		.short	16128
 7419 03f8 0048     		.short	18432
 7420 03fa 0048     		.short	18432
 7421 03fc 003C     		.short	15360
 7422 03fe 000A     		.short	2560
 7423 0400 0009     		.short	2304
ARM GAS  C:\Users\arist\AppData\Local\Temp\ccUERo53.s 			page 163


 7424 0402 0009     		.short	2304
 7425 0404 007E     		.short	32256
 7426 0406 0008     		.short	2048
 7427 0408 0008     		.short	2048
 7428 040a 0000     		.short	0
 7429 040c 0000     		.short	0
 7430 040e 0000     		.short	0
 7431 0410 0070     		.short	28672
 7432 0412 8088     		.short	-30592
 7433 0414 0089     		.short	-30464
 7434 0416 008A     		.short	-30208
 7435 0418 0074     		.short	29696
 7436 041a 0008     		.short	2048
 7437 041c 0017     		.short	5888
 7438 041e 8028     		.short	10368
 7439 0420 8048     		.short	18560
 7440 0422 8088     		.short	-30592
 7441 0424 0007     		.short	1792
 7442 0426 0000     		.short	0
 7443 0428 0000     		.short	0
 7444 042a 001C     		.short	7168
 7445 042c 0044     		.short	17408
 7446 042e 0044     		.short	17408
 7447 0430 0044     		.short	17408
 7448 0432 0044     		.short	17408
 7449 0434 001C     		.short	7168
 7450 0436 0038     		.short	14336
 7451 0438 0048     		.short	18432
 7452 043a 4084     		.short	-31680
 7453 043c 8082     		.short	-32128
 7454 043e 0081     		.short	-32512
 7455 0440 8042     		.short	17024
 7456 0442 403C     		.short	15424
 7457 0444 0008     		.short	2048
 7458 0446 0008     		.short	2048
 7459 0448 0008     		.short	2048
 7460 044a 0008     		.short	2048
 7461 044c 0000     		.short	0
 7462 044e 0000     		.short	0
 7463 0450 0000     		.short	0
 7464 0452 0000     		.short	0
 7465 0454 0000     		.short	0
 7466 0456 0000     		.short	0
 7467 0458 0000     		.short	0
 7468 045a 0000     		.short	0
 7469 045c 0000     		.short	0
 7470 045e 0000     		.short	0
 7471 0460 0006     		.short	1536
 7472 0462 0008     		.short	2048
 7473 0464 0010     		.short	4096
 7474 0466 0010     		.short	4096
 7475 0468 0020     		.short	8192
 7476 046a 0020     		.short	8192
 7477 046c 0020     		.short	8192
 7478 046e 0020     		.short	8192
 7479 0470 0020     		.short	8192
 7480 0472 0020     		.short	8192
ARM GAS  C:\Users\arist\AppData\Local\Temp\ccUERo53.s 			page 164


 7481 0474 0010     		.short	4096
 7482 0476 0010     		.short	4096
 7483 0478 0008     		.short	2048
 7484 047a 0006     		.short	1536
 7485 047c 0018     		.short	6144
 7486 047e 0004     		.short	1024
 7487 0480 0002     		.short	512
 7488 0482 0002     		.short	512
 7489 0484 0001     		.short	256
 7490 0486 0001     		.short	256
 7491 0488 0001     		.short	256
 7492 048a 0001     		.short	256
 7493 048c 0001     		.short	256
 7494 048e 0001     		.short	256
 7495 0490 0002     		.short	512
 7496 0492 0002     		.short	512
 7497 0494 0004     		.short	1024
 7498 0496 0018     		.short	6144
 7499 0498 0000     		.short	0
 7500 049a 002A     		.short	10752
 7501 049c 001C     		.short	7168
 7502 049e 003E     		.short	15872
 7503 04a0 001C     		.short	7168
 7504 04a2 002A     		.short	10752
 7505 04a4 0000     		.short	0
 7506 04a6 0000     		.short	0
 7507 04a8 0000     		.short	0
 7508 04aa 0000     		.short	0
 7509 04ac 0000     		.short	0
 7510 04ae 0000     		.short	0
 7511 04b0 0000     		.short	0
 7512 04b2 0000     		.short	0
 7513 04b4 0000     		.short	0
 7514 04b6 0000     		.short	0
 7515 04b8 0000     		.short	0
 7516 04ba 0008     		.short	2048
 7517 04bc 0008     		.short	2048
 7518 04be 0008     		.short	2048
 7519 04c0 007F     		.short	32512
 7520 04c2 0008     		.short	2048
 7521 04c4 0008     		.short	2048
 7522 04c6 0008     		.short	2048
 7523 04c8 0000     		.short	0
 7524 04ca 0000     		.short	0
 7525 04cc 0000     		.short	0
 7526 04ce 0000     		.short	0
 7527 04d0 0000     		.short	0
 7528 04d2 0000     		.short	0
 7529 04d4 0000     		.short	0
 7530 04d6 0000     		.short	0
 7531 04d8 0000     		.short	0
 7532 04da 0000     		.short	0
 7533 04dc 0000     		.short	0
 7534 04de 0000     		.short	0
 7535 04e0 0000     		.short	0
 7536 04e2 0000     		.short	0
 7537 04e4 0000     		.short	0
ARM GAS  C:\Users\arist\AppData\Local\Temp\ccUERo53.s 			page 165


 7538 04e6 0004     		.short	1024
 7539 04e8 0004     		.short	1024
 7540 04ea 0008     		.short	2048
 7541 04ec 0000     		.short	0
 7542 04ee 0000     		.short	0
 7543 04f0 0000     		.short	0
 7544 04f2 0000     		.short	0
 7545 04f4 0000     		.short	0
 7546 04f6 0000     		.short	0
 7547 04f8 007F     		.short	32512
 7548 04fa 0000     		.short	0
 7549 04fc 0000     		.short	0
 7550 04fe 0000     		.short	0
 7551 0500 0000     		.short	0
 7552 0502 0000     		.short	0
 7553 0504 0000     		.short	0
 7554 0506 0000     		.short	0
 7555 0508 0000     		.short	0
 7556 050a 0000     		.short	0
 7557 050c 0000     		.short	0
 7558 050e 0000     		.short	0
 7559 0510 0000     		.short	0
 7560 0512 0000     		.short	0
 7561 0514 0000     		.short	0
 7562 0516 0000     		.short	0
 7563 0518 0000     		.short	0
 7564 051a 0000     		.short	0
 7565 051c 0000     		.short	0
 7566 051e 0000     		.short	0
 7567 0520 000C     		.short	3072
 7568 0522 000C     		.short	3072
 7569 0524 0000     		.short	0
 7570 0526 8000     		.short	128
 7571 0528 8000     		.short	128
 7572 052a 0001     		.short	256
 7573 052c 0002     		.short	512
 7574 052e 0004     		.short	1024
 7575 0530 0004     		.short	1024
 7576 0532 0008     		.short	2048
 7577 0534 0010     		.short	4096
 7578 0536 0010     		.short	4096
 7579 0538 0020     		.short	8192
 7580 053a 0004     		.short	1024
 7581 053c 0004     		.short	1024
 7582 053e 0000     		.short	0
 7583 0540 0000     		.short	0
 7584 0542 003E     		.short	15872
 7585 0544 0041     		.short	16640
 7586 0546 8080     		.short	-32640
 7587 0548 8081     		.short	-32384
 7588 054a 8082     		.short	-32128
 7589 054c 8084     		.short	-31616
 7590 054e 8088     		.short	-30592
 7591 0550 8090     		.short	-28544
 7592 0552 80A0     		.short	-24448
 7593 0554 80C0     		.short	-16256
 7594 0556 8080     		.short	-32640
ARM GAS  C:\Users\arist\AppData\Local\Temp\ccUERo53.s 			page 166


 7595 0558 0041     		.short	16640
 7596 055a 003E     		.short	15872
 7597 055c 0000     		.short	0
 7598 055e 0008     		.short	2048
 7599 0560 0018     		.short	6144
 7600 0562 0028     		.short	10240
 7601 0564 0048     		.short	18432
 7602 0566 0088     		.short	-30720
 7603 0568 0008     		.short	2048
 7604 056a 0008     		.short	2048
 7605 056c 0008     		.short	2048
 7606 056e 0008     		.short	2048
 7607 0570 0008     		.short	2048
 7608 0572 0008     		.short	2048
 7609 0574 0008     		.short	2048
 7610 0576 80FF     		.short	-128
 7611 0578 0000     		.short	0
 7612 057a 003E     		.short	15872
 7613 057c 0041     		.short	16640
 7614 057e 8080     		.short	-32640
 7615 0580 8080     		.short	-32640
 7616 0582 8000     		.short	128
 7617 0584 0001     		.short	256
 7618 0586 0002     		.short	512
 7619 0588 0004     		.short	1024
 7620 058a 0008     		.short	2048
 7621 058c 0010     		.short	4096
 7622 058e 0020     		.short	8192
 7623 0590 0040     		.short	16384
 7624 0592 80FF     		.short	-128
 7625 0594 0000     		.short	0
 7626 0596 003E     		.short	15872
 7627 0598 0041     		.short	16640
 7628 059a 8080     		.short	-32640
 7629 059c 8080     		.short	-32640
 7630 059e 8000     		.short	128
 7631 05a0 0001     		.short	256
 7632 05a2 000E     		.short	3584
 7633 05a4 0001     		.short	256
 7634 05a6 8000     		.short	128
 7635 05a8 8080     		.short	-32640
 7636 05aa 8080     		.short	-32640
 7637 05ac 0041     		.short	16640
 7638 05ae 003E     		.short	15872
 7639 05b0 0000     		.short	0
 7640 05b2 0002     		.short	512
 7641 05b4 0006     		.short	1536
 7642 05b6 000A     		.short	2560
 7643 05b8 0012     		.short	4608
 7644 05ba 0022     		.short	8704
 7645 05bc 0042     		.short	16896
 7646 05be 0082     		.short	-32256
 7647 05c0 80FF     		.short	-128
 7648 05c2 0002     		.short	512
 7649 05c4 0002     		.short	512
 7650 05c6 0002     		.short	512
 7651 05c8 0002     		.short	512
ARM GAS  C:\Users\arist\AppData\Local\Temp\ccUERo53.s 			page 167


 7652 05ca 0002     		.short	512
 7653 05cc 0000     		.short	0
 7654 05ce 80FF     		.short	-128
 7655 05d0 0080     		.short	-32768
 7656 05d2 0080     		.short	-32768
 7657 05d4 0080     		.short	-32768
 7658 05d6 0080     		.short	-32768
 7659 05d8 007E     		.short	32256
 7660 05da 0001     		.short	256
 7661 05dc 8000     		.short	128
 7662 05de 8000     		.short	128
 7663 05e0 8080     		.short	-32640
 7664 05e2 8080     		.short	-32640
 7665 05e4 0041     		.short	16640
 7666 05e6 003E     		.short	15872
 7667 05e8 0000     		.short	0
 7668 05ea 003F     		.short	16128
 7669 05ec 8040     		.short	16512
 7670 05ee 0080     		.short	-32768
 7671 05f0 0080     		.short	-32768
 7672 05f2 0080     		.short	-32768
 7673 05f4 00BE     		.short	-16896
 7674 05f6 00C1     		.short	-16128
 7675 05f8 8080     		.short	-32640
 7676 05fa 8080     		.short	-32640
 7677 05fc 8080     		.short	-32640
 7678 05fe 8080     		.short	-32640
 7679 0600 0041     		.short	16640
 7680 0602 003E     		.short	15872
 7681 0604 0000     		.short	0
 7682 0606 00FF     		.short	-256
 7683 0608 8000     		.short	128
 7684 060a 8000     		.short	128
 7685 060c 8000     		.short	128
 7686 060e 0001     		.short	256
 7687 0610 0002     		.short	512
 7688 0612 0004     		.short	1024
 7689 0614 0008     		.short	2048
 7690 0616 0008     		.short	2048
 7691 0618 0008     		.short	2048
 7692 061a 0008     		.short	2048
 7693 061c 0008     		.short	2048
 7694 061e 0008     		.short	2048
 7695 0620 0000     		.short	0
 7696 0622 003E     		.short	15872
 7697 0624 0041     		.short	16640
 7698 0626 8080     		.short	-32640
 7699 0628 8080     		.short	-32640
 7700 062a 8080     		.short	-32640
 7701 062c 0041     		.short	16640
 7702 062e 003E     		.short	15872
 7703 0630 0041     		.short	16640
 7704 0632 8080     		.short	-32640
 7705 0634 8080     		.short	-32640
 7706 0636 8080     		.short	-32640
 7707 0638 0041     		.short	16640
 7708 063a 003E     		.short	15872
ARM GAS  C:\Users\arist\AppData\Local\Temp\ccUERo53.s 			page 168


 7709 063c 0000     		.short	0
 7710 063e 003E     		.short	15872
 7711 0640 0041     		.short	16640
 7712 0642 8080     		.short	-32640
 7713 0644 8080     		.short	-32640
 7714 0646 8080     		.short	-32640
 7715 0648 8080     		.short	-32640
 7716 064a 8041     		.short	16768
 7717 064c 803E     		.short	16000
 7718 064e 8000     		.short	128
 7719 0650 8000     		.short	128
 7720 0652 8000     		.short	128
 7721 0654 0081     		.short	-32512
 7722 0656 007E     		.short	32256
 7723 0658 0000     		.short	0
 7724 065a 0000     		.short	0
 7725 065c 0000     		.short	0
 7726 065e 0000     		.short	0
 7727 0660 0018     		.short	6144
 7728 0662 0018     		.short	6144
 7729 0664 0000     		.short	0
 7730 0666 0000     		.short	0
 7731 0668 0000     		.short	0
 7732 066a 0000     		.short	0
 7733 066c 0018     		.short	6144
 7734 066e 0018     		.short	6144
 7735 0670 0000     		.short	0
 7736 0672 0000     		.short	0
 7737 0674 0000     		.short	0
 7738 0676 0000     		.short	0
 7739 0678 0000     		.short	0
 7740 067a 0000     		.short	0
 7741 067c 0018     		.short	6144
 7742 067e 0018     		.short	6144
 7743 0680 0000     		.short	0
 7744 0682 0000     		.short	0
 7745 0684 0000     		.short	0
 7746 0686 0018     		.short	6144
 7747 0688 0018     		.short	6144
 7748 068a 0008     		.short	2048
 7749 068c 0008     		.short	2048
 7750 068e 0010     		.short	4096
 7751 0690 0000     		.short	0
 7752 0692 0000     		.short	0
 7753 0694 0002     		.short	512
 7754 0696 0004     		.short	1024
 7755 0698 0008     		.short	2048
 7756 069a 0010     		.short	4096
 7757 069c 0020     		.short	8192
 7758 069e 0040     		.short	16384
 7759 06a0 0020     		.short	8192
 7760 06a2 0010     		.short	4096
 7761 06a4 0008     		.short	2048
 7762 06a6 0004     		.short	1024
 7763 06a8 0002     		.short	512
 7764 06aa 0000     		.short	0
 7765 06ac 0000     		.short	0
ARM GAS  C:\Users\arist\AppData\Local\Temp\ccUERo53.s 			page 169


 7766 06ae 0000     		.short	0
 7767 06b0 0000     		.short	0
 7768 06b2 0000     		.short	0
 7769 06b4 0000     		.short	0
 7770 06b6 007F     		.short	32512
 7771 06b8 0000     		.short	0
 7772 06ba 0000     		.short	0
 7773 06bc 007F     		.short	32512
 7774 06be 0000     		.short	0
 7775 06c0 0000     		.short	0
 7776 06c2 0000     		.short	0
 7777 06c4 0000     		.short	0
 7778 06c6 0000     		.short	0
 7779 06c8 0000     		.short	0
 7780 06ca 0000     		.short	0
 7781 06cc 0040     		.short	16384
 7782 06ce 0020     		.short	8192
 7783 06d0 0010     		.short	4096
 7784 06d2 0008     		.short	2048
 7785 06d4 0004     		.short	1024
 7786 06d6 0002     		.short	512
 7787 06d8 0004     		.short	1024
 7788 06da 0008     		.short	2048
 7789 06dc 0010     		.short	4096
 7790 06de 0020     		.short	8192
 7791 06e0 0040     		.short	16384
 7792 06e2 0000     		.short	0
 7793 06e4 003E     		.short	15872
 7794 06e6 0041     		.short	16640
 7795 06e8 8080     		.short	-32640
 7796 06ea 8080     		.short	-32640
 7797 06ec 8000     		.short	128
 7798 06ee 0001     		.short	256
 7799 06f0 0002     		.short	512
 7800 06f2 0004     		.short	1024
 7801 06f4 0008     		.short	2048
 7802 06f6 0008     		.short	2048
 7803 06f8 0008     		.short	2048
 7804 06fa 0000     		.short	0
 7805 06fc 0000     		.short	0
 7806 06fe 0008     		.short	2048
 7807 0700 003E     		.short	15872
 7808 0702 0041     		.short	16640
 7809 0704 8080     		.short	-32640
 7810 0706 4080     		.short	-32704
 7811 0708 4080     		.short	-32704
 7812 070a 4080     		.short	-32704
 7813 070c 408E     		.short	-29120
 7814 070e 4092     		.short	-28096
 7815 0710 40A2     		.short	-24000
 7816 0712 40A2     		.short	-24000
 7817 0714 4092     		.short	-28096
 7818 0716 808F     		.short	-28800
 7819 0718 0040     		.short	16384
 7820 071a 003F     		.short	16128
 7821 071c 003F     		.short	16128
 7822 071e 8040     		.short	16512
ARM GAS  C:\Users\arist\AppData\Local\Temp\ccUERo53.s 			page 170


 7823 0720 4080     		.short	-32704
 7824 0722 4080     		.short	-32704
 7825 0724 4080     		.short	-32704
 7826 0726 4080     		.short	-32704
 7827 0728 4080     		.short	-32704
 7828 072a C0FF     		.short	-64
 7829 072c 4080     		.short	-32704
 7830 072e 4080     		.short	-32704
 7831 0730 4080     		.short	-32704
 7832 0732 4080     		.short	-32704
 7833 0734 4080     		.short	-32704
 7834 0736 4080     		.short	-32704
 7835 0738 00FF     		.short	-256
 7836 073a 8080     		.short	-32640
 7837 073c 4080     		.short	-32704
 7838 073e 4080     		.short	-32704
 7839 0740 4080     		.short	-32704
 7840 0742 8080     		.short	-32640
 7841 0744 80FF     		.short	-128
 7842 0746 8080     		.short	-32640
 7843 0748 4080     		.short	-32704
 7844 074a 4080     		.short	-32704
 7845 074c 4080     		.short	-32704
 7846 074e 4080     		.short	-32704
 7847 0750 8080     		.short	-32640
 7848 0752 00FF     		.short	-256
 7849 0754 803F     		.short	16256
 7850 0756 4040     		.short	16448
 7851 0758 0080     		.short	-32768
 7852 075a 0080     		.short	-32768
 7853 075c 0080     		.short	-32768
 7854 075e 0080     		.short	-32768
 7855 0760 0080     		.short	-32768
 7856 0762 0080     		.short	-32768
 7857 0764 0080     		.short	-32768
 7858 0766 0080     		.short	-32768
 7859 0768 0080     		.short	-32768
 7860 076a 0080     		.short	-32768
 7861 076c 4040     		.short	16448
 7862 076e 803F     		.short	16256
 7863 0770 00FE     		.short	-512
 7864 0772 0081     		.short	-32512
 7865 0774 8080     		.short	-32640
 7866 0776 4080     		.short	-32704
 7867 0778 4080     		.short	-32704
 7868 077a 4080     		.short	-32704
 7869 077c 4080     		.short	-32704
 7870 077e 4080     		.short	-32704
 7871 0780 4080     		.short	-32704
 7872 0782 4080     		.short	-32704
 7873 0784 4080     		.short	-32704
 7874 0786 4080     		.short	-32704
 7875 0788 8080     		.short	-32640
 7876 078a 00FF     		.short	-256
 7877 078c C07F     		.short	32704
 7878 078e 0080     		.short	-32768
 7879 0790 0080     		.short	-32768
ARM GAS  C:\Users\arist\AppData\Local\Temp\ccUERo53.s 			page 171


 7880 0792 0080     		.short	-32768
 7881 0794 0080     		.short	-32768
 7882 0796 0080     		.short	-32768
 7883 0798 007C     		.short	31744
 7884 079a 0080     		.short	-32768
 7885 079c 0080     		.short	-32768
 7886 079e 0080     		.short	-32768
 7887 07a0 0080     		.short	-32768
 7888 07a2 0080     		.short	-32768
 7889 07a4 0080     		.short	-32768
 7890 07a6 C07F     		.short	32704
 7891 07a8 C07F     		.short	32704
 7892 07aa 0080     		.short	-32768
 7893 07ac 0080     		.short	-32768
 7894 07ae 0080     		.short	-32768
 7895 07b0 0080     		.short	-32768
 7896 07b2 0080     		.short	-32768
 7897 07b4 007C     		.short	31744
 7898 07b6 0080     		.short	-32768
 7899 07b8 0080     		.short	-32768
 7900 07ba 0080     		.short	-32768
 7901 07bc 0080     		.short	-32768
 7902 07be 0080     		.short	-32768
 7903 07c0 0080     		.short	-32768
 7904 07c2 0080     		.short	-32768
 7905 07c4 003F     		.short	16128
 7906 07c6 8040     		.short	16512
 7907 07c8 4080     		.short	-32704
 7908 07ca 0080     		.short	-32768
 7909 07cc 0080     		.short	-32768
 7910 07ce 0080     		.short	-32768
 7911 07d0 0080     		.short	-32768
 7912 07d2 C08F     		.short	-28736
 7913 07d4 4080     		.short	-32704
 7914 07d6 4080     		.short	-32704
 7915 07d8 4080     		.short	-32704
 7916 07da 4080     		.short	-32704
 7917 07dc 8040     		.short	16512
 7918 07de 003F     		.short	16128
 7919 07e0 4080     		.short	-32704
 7920 07e2 4080     		.short	-32704
 7921 07e4 4080     		.short	-32704
 7922 07e6 4080     		.short	-32704
 7923 07e8 4080     		.short	-32704
 7924 07ea 4080     		.short	-32704
 7925 07ec 807F     		.short	32640
 7926 07ee 4080     		.short	-32704
 7927 07f0 4080     		.short	-32704
 7928 07f2 4080     		.short	-32704
 7929 07f4 4080     		.short	-32704
 7930 07f6 4080     		.short	-32704
 7931 07f8 4080     		.short	-32704
 7932 07fa 4080     		.short	-32704
 7933 07fc 007F     		.short	32512
 7934 07fe 0008     		.short	2048
 7935 0800 0008     		.short	2048
 7936 0802 0008     		.short	2048
ARM GAS  C:\Users\arist\AppData\Local\Temp\ccUERo53.s 			page 172


 7937 0804 0008     		.short	2048
 7938 0806 0008     		.short	2048
 7939 0808 0008     		.short	2048
 7940 080a 0008     		.short	2048
 7941 080c 0008     		.short	2048
 7942 080e 0008     		.short	2048
 7943 0810 0008     		.short	2048
 7944 0812 0008     		.short	2048
 7945 0814 0008     		.short	2048
 7946 0816 007F     		.short	32512
 7947 0818 C0FF     		.short	-64
 7948 081a 0002     		.short	512
 7949 081c 0002     		.short	512
 7950 081e 0002     		.short	512
 7951 0820 0002     		.short	512
 7952 0822 0002     		.short	512
 7953 0824 0002     		.short	512
 7954 0826 0002     		.short	512
 7955 0828 0002     		.short	512
 7956 082a 0082     		.short	-32256
 7957 082c 0082     		.short	-32256
 7958 082e 0082     		.short	-32256
 7959 0830 0044     		.short	17408
 7960 0832 0038     		.short	14336
 7961 0834 0081     		.short	-32512
 7962 0836 0081     		.short	-32512
 7963 0838 0081     		.short	-32512
 7964 083a 0082     		.short	-32256
 7965 083c 0084     		.short	-31744
 7966 083e 0088     		.short	-30720
 7967 0840 00F0     		.short	-4096
 7968 0842 0088     		.short	-30720
 7969 0844 0084     		.short	-31744
 7970 0846 0082     		.short	-32256
 7971 0848 0081     		.short	-32512
 7972 084a 8080     		.short	-32640
 7973 084c 4080     		.short	-32704
 7974 084e 4080     		.short	-32704
 7975 0850 0080     		.short	-32768
 7976 0852 0080     		.short	-32768
 7977 0854 0080     		.short	-32768
 7978 0856 0080     		.short	-32768
 7979 0858 0080     		.short	-32768
 7980 085a 0080     		.short	-32768
 7981 085c 0080     		.short	-32768
 7982 085e 0080     		.short	-32768
 7983 0860 0080     		.short	-32768
 7984 0862 0080     		.short	-32768
 7985 0864 0080     		.short	-32768
 7986 0866 0080     		.short	-32768
 7987 0868 0080     		.short	-32768
 7988 086a C0FF     		.short	-64
 7989 086c 4080     		.short	-32704
 7990 086e C0C0     		.short	-16192
 7991 0870 40A1     		.short	-24256
 7992 0872 40A1     		.short	-24256
 7993 0874 4092     		.short	-28096
ARM GAS  C:\Users\arist\AppData\Local\Temp\ccUERo53.s 			page 173


 7994 0876 4092     		.short	-28096
 7995 0878 408C     		.short	-29632
 7996 087a 4080     		.short	-32704
 7997 087c 4080     		.short	-32704
 7998 087e 4080     		.short	-32704
 7999 0880 4080     		.short	-32704
 8000 0882 4080     		.short	-32704
 8001 0884 4080     		.short	-32704
 8002 0886 4080     		.short	-32704
 8003 0888 4080     		.short	-32704
 8004 088a 4080     		.short	-32704
 8005 088c 40C0     		.short	-16320
 8006 088e 40A0     		.short	-24512
 8007 0890 4090     		.short	-28608
 8008 0892 4088     		.short	-30656
 8009 0894 4084     		.short	-31680
 8010 0896 4082     		.short	-32192
 8011 0898 4081     		.short	-32448
 8012 089a C080     		.short	-32576
 8013 089c 4080     		.short	-32704
 8014 089e 4080     		.short	-32704
 8015 08a0 4080     		.short	-32704
 8016 08a2 4080     		.short	-32704
 8017 08a4 003F     		.short	16128
 8018 08a6 8040     		.short	16512
 8019 08a8 4080     		.short	-32704
 8020 08aa 4080     		.short	-32704
 8021 08ac 4080     		.short	-32704
 8022 08ae 4080     		.short	-32704
 8023 08b0 4080     		.short	-32704
 8024 08b2 4080     		.short	-32704
 8025 08b4 4080     		.short	-32704
 8026 08b6 4080     		.short	-32704
 8027 08b8 4080     		.short	-32704
 8028 08ba 4080     		.short	-32704
 8029 08bc 8040     		.short	16512
 8030 08be 003F     		.short	16128
 8031 08c0 00FF     		.short	-256
 8032 08c2 8080     		.short	-32640
 8033 08c4 4080     		.short	-32704
 8034 08c6 4080     		.short	-32704
 8035 08c8 4080     		.short	-32704
 8036 08ca 4080     		.short	-32704
 8037 08cc 8080     		.short	-32640
 8038 08ce 00FF     		.short	-256
 8039 08d0 0080     		.short	-32768
 8040 08d2 0080     		.short	-32768
 8041 08d4 0080     		.short	-32768
 8042 08d6 0080     		.short	-32768
 8043 08d8 0080     		.short	-32768
 8044 08da 0080     		.short	-32768
 8045 08dc 003F     		.short	16128
 8046 08de 8040     		.short	16512
 8047 08e0 4080     		.short	-32704
 8048 08e2 4080     		.short	-32704
 8049 08e4 4080     		.short	-32704
 8050 08e6 4080     		.short	-32704
ARM GAS  C:\Users\arist\AppData\Local\Temp\ccUERo53.s 			page 174


 8051 08e8 4080     		.short	-32704
 8052 08ea 4080     		.short	-32704
 8053 08ec 4080     		.short	-32704
 8054 08ee 4088     		.short	-30656
 8055 08f0 8048     		.short	18560
 8056 08f2 003F     		.short	16128
 8057 08f4 0004     		.short	1024
 8058 08f6 C003     		.short	960
 8059 08f8 00FF     		.short	-256
 8060 08fa 8080     		.short	-32640
 8061 08fc 4080     		.short	-32704
 8062 08fe 4080     		.short	-32704
 8063 0900 4080     		.short	-32704
 8064 0902 4080     		.short	-32704
 8065 0904 8080     		.short	-32640
 8066 0906 00FF     		.short	-256
 8067 0908 0088     		.short	-30720
 8068 090a 0084     		.short	-31744
 8069 090c 0082     		.short	-32256
 8070 090e 0081     		.short	-32512
 8071 0910 8080     		.short	-32640
 8072 0912 4080     		.short	-32704
 8073 0914 C03F     		.short	16320
 8074 0916 0040     		.short	16384
 8075 0918 0080     		.short	-32768
 8076 091a 0080     		.short	-32768
 8077 091c 0080     		.short	-32768
 8078 091e 0040     		.short	16384
 8079 0920 0038     		.short	14336
 8080 0922 0007     		.short	1792
 8081 0924 8000     		.short	128
 8082 0926 4000     		.short	64
 8083 0928 4000     		.short	64
 8084 092a 4000     		.short	64
 8085 092c 8000     		.short	128
 8086 092e 00FF     		.short	-256
 8087 0930 80FF     		.short	-128
 8088 0932 0008     		.short	2048
 8089 0934 0008     		.short	2048
 8090 0936 0008     		.short	2048
 8091 0938 0008     		.short	2048
 8092 093a 0008     		.short	2048
 8093 093c 0008     		.short	2048
 8094 093e 0008     		.short	2048
 8095 0940 0008     		.short	2048
 8096 0942 0008     		.short	2048
 8097 0944 0008     		.short	2048
 8098 0946 0008     		.short	2048
 8099 0948 0008     		.short	2048
 8100 094a 0008     		.short	2048
 8101 094c 4080     		.short	-32704
 8102 094e 4080     		.short	-32704
 8103 0950 4080     		.short	-32704
 8104 0952 4080     		.short	-32704
 8105 0954 4080     		.short	-32704
 8106 0956 4080     		.short	-32704
 8107 0958 4080     		.short	-32704
ARM GAS  C:\Users\arist\AppData\Local\Temp\ccUERo53.s 			page 175


 8108 095a 4080     		.short	-32704
 8109 095c 4080     		.short	-32704
 8110 095e 4080     		.short	-32704
 8111 0960 4080     		.short	-32704
 8112 0962 4080     		.short	-32704
 8113 0964 8040     		.short	16512
 8114 0966 003F     		.short	16128
 8115 0968 4080     		.short	-32704
 8116 096a 4080     		.short	-32704
 8117 096c 4080     		.short	-32704
 8118 096e 4080     		.short	-32704
 8119 0970 4080     		.short	-32704
 8120 0972 4080     		.short	-32704
 8121 0974 4080     		.short	-32704
 8122 0976 4080     		.short	-32704
 8123 0978 4080     		.short	-32704
 8124 097a 8040     		.short	16512
 8125 097c 0021     		.short	8448
 8126 097e 0021     		.short	8448
 8127 0980 0012     		.short	4608
 8128 0982 000C     		.short	3072
 8129 0984 4080     		.short	-32704
 8130 0986 4080     		.short	-32704
 8131 0988 4080     		.short	-32704
 8132 098a 4080     		.short	-32704
 8133 098c 4080     		.short	-32704
 8134 098e 4080     		.short	-32704
 8135 0990 4080     		.short	-32704
 8136 0992 4080     		.short	-32704
 8137 0994 4080     		.short	-32704
 8138 0996 4080     		.short	-32704
 8139 0998 4080     		.short	-32704
 8140 099a 408C     		.short	-29632
 8141 099c 8052     		.short	21120
 8142 099e 0021     		.short	8448
 8143 09a0 4080     		.short	-32704
 8144 09a2 4080     		.short	-32704
 8145 09a4 4080     		.short	-32704
 8146 09a6 8040     		.short	16512
 8147 09a8 0021     		.short	8448
 8148 09aa 0012     		.short	4608
 8149 09ac 000C     		.short	3072
 8150 09ae 000C     		.short	3072
 8151 09b0 0012     		.short	4608
 8152 09b2 0021     		.short	8448
 8153 09b4 8040     		.short	16512
 8154 09b6 4080     		.short	-32704
 8155 09b8 4080     		.short	-32704
 8156 09ba 4080     		.short	-32704
 8157 09bc 8080     		.short	-32640
 8158 09be 8080     		.short	-32640
 8159 09c0 8080     		.short	-32640
 8160 09c2 8080     		.short	-32640
 8161 09c4 0041     		.short	16640
 8162 09c6 0022     		.short	8704
 8163 09c8 0014     		.short	5120
 8164 09ca 0008     		.short	2048
ARM GAS  C:\Users\arist\AppData\Local\Temp\ccUERo53.s 			page 176


 8165 09cc 0008     		.short	2048
 8166 09ce 0008     		.short	2048
 8167 09d0 0008     		.short	2048
 8168 09d2 0008     		.short	2048
 8169 09d4 0008     		.short	2048
 8170 09d6 007F     		.short	32512
 8171 09d8 C0FF     		.short	-64
 8172 09da 4000     		.short	64
 8173 09dc 4000     		.short	64
 8174 09de 8000     		.short	128
 8175 09e0 0001     		.short	256
 8176 09e2 0002     		.short	512
 8177 09e4 0004     		.short	1024
 8178 09e6 0008     		.short	2048
 8179 09e8 0010     		.short	4096
 8180 09ea 0020     		.short	8192
 8181 09ec 0040     		.short	16384
 8182 09ee 0080     		.short	-32768
 8183 09f0 0080     		.short	-32768
 8184 09f2 C0FF     		.short	-64
 8185 09f4 003F     		.short	16128
 8186 09f6 0020     		.short	8192
 8187 09f8 0020     		.short	8192
 8188 09fa 0020     		.short	8192
 8189 09fc 0020     		.short	8192
 8190 09fe 0020     		.short	8192
 8191 0a00 0020     		.short	8192
 8192 0a02 0020     		.short	8192
 8193 0a04 0020     		.short	8192
 8194 0a06 0020     		.short	8192
 8195 0a08 0020     		.short	8192
 8196 0a0a 0020     		.short	8192
 8197 0a0c 0020     		.short	8192
 8198 0a0e 003F     		.short	16128
 8199 0a10 0000     		.short	0
 8200 0a12 0040     		.short	16384
 8201 0a14 0040     		.short	16384
 8202 0a16 0020     		.short	8192
 8203 0a18 0010     		.short	4096
 8204 0a1a 0010     		.short	4096
 8205 0a1c 0008     		.short	2048
 8206 0a1e 0004     		.short	1024
 8207 0a20 0002     		.short	512
 8208 0a22 0002     		.short	512
 8209 0a24 0001     		.short	256
 8210 0a26 8000     		.short	128
 8211 0a28 8000     		.short	128
 8212 0a2a 0000     		.short	0
 8213 0a2c 003F     		.short	16128
 8214 0a2e 0001     		.short	256
 8215 0a30 0001     		.short	256
 8216 0a32 0001     		.short	256
 8217 0a34 0001     		.short	256
 8218 0a36 0001     		.short	256
 8219 0a38 0001     		.short	256
 8220 0a3a 0001     		.short	256
 8221 0a3c 0001     		.short	256
ARM GAS  C:\Users\arist\AppData\Local\Temp\ccUERo53.s 			page 177


 8222 0a3e 0001     		.short	256
 8223 0a40 0001     		.short	256
 8224 0a42 0001     		.short	256
 8225 0a44 0001     		.short	256
 8226 0a46 003F     		.short	16128
 8227 0a48 000C     		.short	3072
 8228 0a4a 0012     		.short	4608
 8229 0a4c 0021     		.short	8448
 8230 0a4e 0000     		.short	0
 8231 0a50 0000     		.short	0
 8232 0a52 0000     		.short	0
 8233 0a54 0000     		.short	0
 8234 0a56 0000     		.short	0
 8235 0a58 0000     		.short	0
 8236 0a5a 0000     		.short	0
 8237 0a5c 0000     		.short	0
 8238 0a5e 0000     		.short	0
 8239 0a60 0000     		.short	0
 8240 0a62 0000     		.short	0
 8241 0a64 0000     		.short	0
 8242 0a66 0000     		.short	0
 8243 0a68 0000     		.short	0
 8244 0a6a 0000     		.short	0
 8245 0a6c 0000     		.short	0
 8246 0a6e 0000     		.short	0
 8247 0a70 0000     		.short	0
 8248 0a72 0000     		.short	0
 8249 0a74 0000     		.short	0
 8250 0a76 0000     		.short	0
 8251 0a78 0000     		.short	0
 8252 0a7a 0000     		.short	0
 8253 0a7c 0000     		.short	0
 8254 0a7e 807F     		.short	32640
 8255 0a80 0008     		.short	2048
 8256 0a82 0008     		.short	2048
 8257 0a84 0008     		.short	2048
 8258 0a86 0008     		.short	2048
 8259 0a88 0000     		.short	0
 8260 0a8a 0000     		.short	0
 8261 0a8c 0000     		.short	0
 8262 0a8e 0000     		.short	0
 8263 0a90 0000     		.short	0
 8264 0a92 0000     		.short	0
 8265 0a94 0000     		.short	0
 8266 0a96 0000     		.short	0
 8267 0a98 0000     		.short	0
 8268 0a9a 0000     		.short	0
 8269 0a9c 0000     		.short	0
 8270 0a9e 0000     		.short	0
 8271 0aa0 0000     		.short	0
 8272 0aa2 0000     		.short	0
 8273 0aa4 003E     		.short	15872
 8274 0aa6 0041     		.short	16640
 8275 0aa8 8000     		.short	128
 8276 0aaa 803E     		.short	16000
 8277 0aac 8041     		.short	16768
 8278 0aae 8080     		.short	-32640
ARM GAS  C:\Users\arist\AppData\Local\Temp\ccUERo53.s 			page 178


 8279 0ab0 8080     		.short	-32640
 8280 0ab2 8080     		.short	-32640
 8281 0ab4 0041     		.short	16640
 8282 0ab6 003E     		.short	15872
 8283 0ab8 0080     		.short	-32768
 8284 0aba 0080     		.short	-32768
 8285 0abc 0080     		.short	-32768
 8286 0abe 0080     		.short	-32768
 8287 0ac0 00BE     		.short	-16896
 8288 0ac2 00C1     		.short	-16128
 8289 0ac4 8080     		.short	-32640
 8290 0ac6 8080     		.short	-32640
 8291 0ac8 8080     		.short	-32640
 8292 0aca 8080     		.short	-32640
 8293 0acc 8080     		.short	-32640
 8294 0ace 8080     		.short	-32640
 8295 0ad0 0041     		.short	16640
 8296 0ad2 003E     		.short	15872
 8297 0ad4 0000     		.short	0
 8298 0ad6 0000     		.short	0
 8299 0ad8 0000     		.short	0
 8300 0ada 0000     		.short	0
 8301 0adc 003F     		.short	16128
 8302 0ade 0040     		.short	16384
 8303 0ae0 0080     		.short	-32768
 8304 0ae2 0080     		.short	-32768
 8305 0ae4 0080     		.short	-32768
 8306 0ae6 0080     		.short	-32768
 8307 0ae8 0080     		.short	-32768
 8308 0aea 0080     		.short	-32768
 8309 0aec 0040     		.short	16384
 8310 0aee 003F     		.short	16128
 8311 0af0 8000     		.short	128
 8312 0af2 8000     		.short	128
 8313 0af4 8000     		.short	128
 8314 0af6 8000     		.short	128
 8315 0af8 803E     		.short	16000
 8316 0afa 8041     		.short	16768
 8317 0afc 8080     		.short	-32640
 8318 0afe 8080     		.short	-32640
 8319 0b00 8080     		.short	-32640
 8320 0b02 8080     		.short	-32640
 8321 0b04 8080     		.short	-32640
 8322 0b06 8080     		.short	-32640
 8323 0b08 0041     		.short	16640
 8324 0b0a 003E     		.short	15872
 8325 0b0c 0000     		.short	0
 8326 0b0e 0000     		.short	0
 8327 0b10 0000     		.short	0
 8328 0b12 0000     		.short	0
 8329 0b14 003E     		.short	15872
 8330 0b16 0041     		.short	16640
 8331 0b18 8080     		.short	-32640
 8332 0b1a 8080     		.short	-32640
 8333 0b1c 8080     		.short	-32640
 8334 0b1e 00C1     		.short	-16128
 8335 0b20 00BE     		.short	-16896
ARM GAS  C:\Users\arist\AppData\Local\Temp\ccUERo53.s 			page 179


 8336 0b22 0080     		.short	-32768
 8337 0b24 8040     		.short	16512
 8338 0b26 003F     		.short	16128
 8339 0b28 0006     		.short	1536
 8340 0b2a 0009     		.short	2304
 8341 0b2c 8010     		.short	4224
 8342 0b2e 8010     		.short	4224
 8343 0b30 0010     		.short	4096
 8344 0b32 007C     		.short	31744
 8345 0b34 0010     		.short	4096
 8346 0b36 0010     		.short	4096
 8347 0b38 0010     		.short	4096
 8348 0b3a 0010     		.short	4096
 8349 0b3c 0010     		.short	4096
 8350 0b3e 0010     		.short	4096
 8351 0b40 0010     		.short	4096
 8352 0b42 007C     		.short	31744
 8353 0b44 0000     		.short	0
 8354 0b46 0000     		.short	0
 8355 0b48 0000     		.short	0
 8356 0b4a 0000     		.short	0
 8357 0b4c 803E     		.short	16000
 8358 0b4e 8041     		.short	16768
 8359 0b50 8080     		.short	-32640
 8360 0b52 8080     		.short	-32640
 8361 0b54 8080     		.short	-32640
 8362 0b56 8041     		.short	16768
 8363 0b58 803E     		.short	16000
 8364 0b5a 8000     		.short	128
 8365 0b5c 0041     		.short	16640
 8366 0b5e 003E     		.short	15872
 8367 0b60 0080     		.short	-32768
 8368 0b62 0080     		.short	-32768
 8369 0b64 0080     		.short	-32768
 8370 0b66 0080     		.short	-32768
 8371 0b68 009E     		.short	-25088
 8372 0b6a 00A1     		.short	-24320
 8373 0b6c 80C0     		.short	-16256
 8374 0b6e 8080     		.short	-32640
 8375 0b70 8080     		.short	-32640
 8376 0b72 8080     		.short	-32640
 8377 0b74 8080     		.short	-32640
 8378 0b76 8080     		.short	-32640
 8379 0b78 8080     		.short	-32640
 8380 0b7a 8080     		.short	-32640
 8381 0b7c 0000     		.short	0
 8382 0b7e 0000     		.short	0
 8383 0b80 0000     		.short	0
 8384 0b82 0000     		.short	0
 8385 0b84 0008     		.short	2048
 8386 0b86 0000     		.short	0
 8387 0b88 0000     		.short	0
 8388 0b8a 0038     		.short	14336
 8389 0b8c 0008     		.short	2048
 8390 0b8e 0008     		.short	2048
 8391 0b90 0008     		.short	2048
 8392 0b92 0008     		.short	2048
ARM GAS  C:\Users\arist\AppData\Local\Temp\ccUERo53.s 			page 180


 8393 0b94 0008     		.short	2048
 8394 0b96 003E     		.short	15872
 8395 0b98 0000     		.short	0
 8396 0b9a 0000     		.short	0
 8397 0b9c 0000     		.short	0
 8398 0b9e 0000     		.short	0
 8399 0ba0 0002     		.short	512
 8400 0ba2 0000     		.short	0
 8401 0ba4 003E     		.short	15872
 8402 0ba6 0002     		.short	512
 8403 0ba8 0002     		.short	512
 8404 0baa 0002     		.short	512
 8405 0bac 0042     		.short	16896
 8406 0bae 0042     		.short	16896
 8407 0bb0 0022     		.short	8704
 8408 0bb2 0018     		.short	6144
 8409 0bb4 0080     		.short	-32768
 8410 0bb6 0080     		.short	-32768
 8411 0bb8 0080     		.short	-32768
 8412 0bba 0080     		.short	-32768
 8413 0bbc 0081     		.short	-32512
 8414 0bbe 0082     		.short	-32256
 8415 0bc0 0084     		.short	-31744
 8416 0bc2 0088     		.short	-30720
 8417 0bc4 0090     		.short	-28672
 8418 0bc6 00F8     		.short	-2048
 8419 0bc8 0084     		.short	-31744
 8420 0bca 0082     		.short	-32256
 8421 0bcc 0081     		.short	-32512
 8422 0bce 8080     		.short	-32640
 8423 0bd0 0000     		.short	0
 8424 0bd2 0038     		.short	14336
 8425 0bd4 0008     		.short	2048
 8426 0bd6 0008     		.short	2048
 8427 0bd8 0008     		.short	2048
 8428 0bda 0008     		.short	2048
 8429 0bdc 0008     		.short	2048
 8430 0bde 0008     		.short	2048
 8431 0be0 0008     		.short	2048
 8432 0be2 0008     		.short	2048
 8433 0be4 0008     		.short	2048
 8434 0be6 0008     		.short	2048
 8435 0be8 0008     		.short	2048
 8436 0bea 003E     		.short	15872
 8437 0bec 0000     		.short	0
 8438 0bee 0000     		.short	0
 8439 0bf0 0000     		.short	0
 8440 0bf2 0000     		.short	0
 8441 0bf4 0036     		.short	13824
 8442 0bf6 0049     		.short	18688
 8443 0bf8 8088     		.short	-30592
 8444 0bfa 8088     		.short	-30592
 8445 0bfc 8088     		.short	-30592
 8446 0bfe 8080     		.short	-32640
 8447 0c00 8080     		.short	-32640
 8448 0c02 8080     		.short	-32640
 8449 0c04 8080     		.short	-32640
ARM GAS  C:\Users\arist\AppData\Local\Temp\ccUERo53.s 			page 181


 8450 0c06 8080     		.short	-32640
 8451 0c08 0000     		.short	0
 8452 0c0a 0000     		.short	0
 8453 0c0c 0000     		.short	0
 8454 0c0e 0000     		.short	0
 8455 0c10 009E     		.short	-25088
 8456 0c12 00A1     		.short	-24320
 8457 0c14 80C0     		.short	-16256
 8458 0c16 8080     		.short	-32640
 8459 0c18 8080     		.short	-32640
 8460 0c1a 8080     		.short	-32640
 8461 0c1c 8080     		.short	-32640
 8462 0c1e 8080     		.short	-32640
 8463 0c20 8080     		.short	-32640
 8464 0c22 8080     		.short	-32640
 8465 0c24 0000     		.short	0
 8466 0c26 0000     		.short	0
 8467 0c28 0000     		.short	0
 8468 0c2a 0000     		.short	0
 8469 0c2c 003E     		.short	15872
 8470 0c2e 0041     		.short	16640
 8471 0c30 8080     		.short	-32640
 8472 0c32 8080     		.short	-32640
 8473 0c34 8080     		.short	-32640
 8474 0c36 8080     		.short	-32640
 8475 0c38 8080     		.short	-32640
 8476 0c3a 8080     		.short	-32640
 8477 0c3c 0041     		.short	16640
 8478 0c3e 003E     		.short	15872
 8479 0c40 0000     		.short	0
 8480 0c42 0000     		.short	0
 8481 0c44 0000     		.short	0
 8482 0c46 0000     		.short	0
 8483 0c48 00BE     		.short	-16896
 8484 0c4a 00C1     		.short	-16128
 8485 0c4c 8080     		.short	-32640
 8486 0c4e 8080     		.short	-32640
 8487 0c50 8080     		.short	-32640
 8488 0c52 00C1     		.short	-16128
 8489 0c54 00BE     		.short	-16896
 8490 0c56 0080     		.short	-32768
 8491 0c58 0080     		.short	-32768
 8492 0c5a 0080     		.short	-32768
 8493 0c5c 0000     		.short	0
 8494 0c5e 0000     		.short	0
 8495 0c60 0000     		.short	0
 8496 0c62 0000     		.short	0
 8497 0c64 803E     		.short	16000
 8498 0c66 8041     		.short	16768
 8499 0c68 8080     		.short	-32640
 8500 0c6a 8080     		.short	-32640
 8501 0c6c 8080     		.short	-32640
 8502 0c6e 8041     		.short	16768
 8503 0c70 803E     		.short	16000
 8504 0c72 8000     		.short	128
 8505 0c74 8000     		.short	128
 8506 0c76 8000     		.short	128
ARM GAS  C:\Users\arist\AppData\Local\Temp\ccUERo53.s 			page 182


 8507 0c78 0000     		.short	0
 8508 0c7a 0000     		.short	0
 8509 0c7c 0000     		.short	0
 8510 0c7e 0000     		.short	0
 8511 0c80 8027     		.short	10112
 8512 0c82 4028     		.short	10304
 8513 0c84 4010     		.short	4160
 8514 0c86 0010     		.short	4096
 8515 0c88 0010     		.short	4096
 8516 0c8a 0010     		.short	4096
 8517 0c8c 0010     		.short	4096
 8518 0c8e 0010     		.short	4096
 8519 0c90 0010     		.short	4096
 8520 0c92 007C     		.short	31744
 8521 0c94 0000     		.short	0
 8522 0c96 0000     		.short	0
 8523 0c98 0000     		.short	0
 8524 0c9a 0000     		.short	0
 8525 0c9c 803F     		.short	16256
 8526 0c9e 0040     		.short	16384
 8527 0ca0 0080     		.short	-32768
 8528 0ca2 0080     		.short	-32768
 8529 0ca4 0078     		.short	30720
 8530 0ca6 000F     		.short	3840
 8531 0ca8 8000     		.short	128
 8532 0caa 8000     		.short	128
 8533 0cac 0001     		.short	256
 8534 0cae 00FE     		.short	-512
 8535 0cb0 0000     		.short	0
 8536 0cb2 0000     		.short	0
 8537 0cb4 0008     		.short	2048
 8538 0cb6 0018     		.short	6144
 8539 0cb8 807F     		.short	32640
 8540 0cba 0008     		.short	2048
 8541 0cbc 0008     		.short	2048
 8542 0cbe 0008     		.short	2048
 8543 0cc0 0008     		.short	2048
 8544 0cc2 0008     		.short	2048
 8545 0cc4 0008     		.short	2048
 8546 0cc6 0008     		.short	2048
 8547 0cc8 0008     		.short	2048
 8548 0cca 0007     		.short	1792
 8549 0ccc 0000     		.short	0
 8550 0cce 0000     		.short	0
 8551 0cd0 0000     		.short	0
 8552 0cd2 0000     		.short	0
 8553 0cd4 8080     		.short	-32640
 8554 0cd6 8080     		.short	-32640
 8555 0cd8 8080     		.short	-32640
 8556 0cda 8080     		.short	-32640
 8557 0cdc 8080     		.short	-32640
 8558 0cde 8080     		.short	-32640
 8559 0ce0 8080     		.short	-32640
 8560 0ce2 8080     		.short	-32640
 8561 0ce4 0041     		.short	16640
 8562 0ce6 003E     		.short	15872
 8563 0ce8 0000     		.short	0
ARM GAS  C:\Users\arist\AppData\Local\Temp\ccUERo53.s 			page 183


 8564 0cea 0000     		.short	0
 8565 0cec 0000     		.short	0
 8566 0cee 0000     		.short	0
 8567 0cf0 8080     		.short	-32640
 8568 0cf2 8080     		.short	-32640
 8569 0cf4 8080     		.short	-32640
 8570 0cf6 8080     		.short	-32640
 8571 0cf8 8080     		.short	-32640
 8572 0cfa 8080     		.short	-32640
 8573 0cfc 0041     		.short	16640
 8574 0cfe 0022     		.short	8704
 8575 0d00 0014     		.short	5120
 8576 0d02 0008     		.short	2048
 8577 0d04 0000     		.short	0
 8578 0d06 0000     		.short	0
 8579 0d08 0000     		.short	0
 8580 0d0a 0000     		.short	0
 8581 0d0c 8080     		.short	-32640
 8582 0d0e 8080     		.short	-32640
 8583 0d10 8080     		.short	-32640
 8584 0d12 8080     		.short	-32640
 8585 0d14 8080     		.short	-32640
 8586 0d16 8088     		.short	-30592
 8587 0d18 8088     		.short	-30592
 8588 0d1a 8088     		.short	-30592
 8589 0d1c 0055     		.short	21760
 8590 0d1e 0022     		.short	8704
 8591 0d20 0000     		.short	0
 8592 0d22 0000     		.short	0
 8593 0d24 0000     		.short	0
 8594 0d26 0000     		.short	0
 8595 0d28 8080     		.short	-32640
 8596 0d2a 8080     		.short	-32640
 8597 0d2c 0041     		.short	16640
 8598 0d2e 0022     		.short	8704
 8599 0d30 001C     		.short	7168
 8600 0d32 001C     		.short	7168
 8601 0d34 0022     		.short	8704
 8602 0d36 0041     		.short	16640
 8603 0d38 8080     		.short	-32640
 8604 0d3a 8080     		.short	-32640
 8605 0d3c 0000     		.short	0
 8606 0d3e 0000     		.short	0
 8607 0d40 0000     		.short	0
 8608 0d42 0000     		.short	0
 8609 0d44 8080     		.short	-32640
 8610 0d46 8080     		.short	-32640
 8611 0d48 0041     		.short	16640
 8612 0d4a 0022     		.short	8704
 8613 0d4c 0014     		.short	5120
 8614 0d4e 0008     		.short	2048
 8615 0d50 0008     		.short	2048
 8616 0d52 0008     		.short	2048
 8617 0d54 0008     		.short	2048
 8618 0d56 0070     		.short	28672
 8619 0d58 0000     		.short	0
 8620 0d5a 0000     		.short	0
ARM GAS  C:\Users\arist\AppData\Local\Temp\ccUERo53.s 			page 184


 8621 0d5c 0000     		.short	0
 8622 0d5e 0000     		.short	0
 8623 0d60 80FF     		.short	-128
 8624 0d62 8000     		.short	128
 8625 0d64 0001     		.short	256
 8626 0d66 0002     		.short	512
 8627 0d68 0004     		.short	1024
 8628 0d6a 0018     		.short	6144
 8629 0d6c 0020     		.short	8192
 8630 0d6e 0040     		.short	16384
 8631 0d70 0080     		.short	-32768
 8632 0d72 80FF     		.short	-128
 8633 0d74 000E     		.short	3584
 8634 0d76 0010     		.short	4096
 8635 0d78 0010     		.short	4096
 8636 0d7a 0020     		.short	8192
 8637 0d7c 0020     		.short	8192
 8638 0d7e 0020     		.short	8192
 8639 0d80 0040     		.short	16384
 8640 0d82 0040     		.short	16384
 8641 0d84 0020     		.short	8192
 8642 0d86 0020     		.short	8192
 8643 0d88 0020     		.short	8192
 8644 0d8a 0010     		.short	4096
 8645 0d8c 0010     		.short	4096
 8646 0d8e 000E     		.short	3584
 8647 0d90 0008     		.short	2048
 8648 0d92 0008     		.short	2048
 8649 0d94 0008     		.short	2048
 8650 0d96 0008     		.short	2048
 8651 0d98 0008     		.short	2048
 8652 0d9a 0008     		.short	2048
 8653 0d9c 0008     		.short	2048
 8654 0d9e 0008     		.short	2048
 8655 0da0 0008     		.short	2048
 8656 0da2 0008     		.short	2048
 8657 0da4 0008     		.short	2048
 8658 0da6 0008     		.short	2048
 8659 0da8 0008     		.short	2048
 8660 0daa 0008     		.short	2048
 8661 0dac 001C     		.short	7168
 8662 0dae 0002     		.short	512
 8663 0db0 0002     		.short	512
 8664 0db2 0001     		.short	256
 8665 0db4 0001     		.short	256
 8666 0db6 0001     		.short	256
 8667 0db8 8000     		.short	128
 8668 0dba 8000     		.short	128
 8669 0dbc 0001     		.short	256
 8670 0dbe 0001     		.short	256
 8671 0dc0 0001     		.short	256
 8672 0dc2 0002     		.short	512
 8673 0dc4 0002     		.short	512
 8674 0dc6 001C     		.short	7168
 8675 0dc8 0000     		.short	0
 8676 0dca 0000     		.short	0
 8677 0dcc 0000     		.short	0
ARM GAS  C:\Users\arist\AppData\Local\Temp\ccUERo53.s 			page 185


 8678 0dce 0000     		.short	0
 8679 0dd0 0000     		.short	0
 8680 0dd2 8070     		.short	28800
 8681 0dd4 8088     		.short	-30592
 8682 0dd6 0087     		.short	-30976
 8683 0dd8 0000     		.short	0
 8684 0dda 0000     		.short	0
 8685 0ddc 0000     		.short	0
 8686 0dde 0000     		.short	0
 8687 0de0 0000     		.short	0
 8688 0de2 0000     		.short	0
 8689 0de4 0078     		.short	30720
 8690 0de6 0080     		.short	-32768
 8691 0de8 0080     		.short	-32768
 8692 0dea 0080     		.short	-32768
 8693 0dec 0080     		.short	-32768
 8694 0dee 0078     		.short	30720
 8695 0df0 0020     		.short	8192
 8696 0df2 00000000 		.space	14
 8696      00000000 
 8696      00000000 
 8696      0000
 8697 0e00 0050     		.short	20480
 8698 0e02 0000     		.short	0
 8699 0e04 0088     		.short	-30720
 8700 0e06 0088     		.short	-30720
 8701 0e08 0088     		.short	-30720
 8702 0e0a 0098     		.short	-26624
 8703 0e0c 0068     		.short	26624
 8704 0e0e 00000000 		.space	14
 8704      00000000 
 8704      00000000 
 8704      0000
 8705 0e1c 0010     		.short	4096
 8706 0e1e 0020     		.short	8192
 8707 0e20 0070     		.short	28672
 8708 0e22 0088     		.short	-30720
 8709 0e24 00F0     		.short	-4096
 8710 0e26 0080     		.short	-32768
 8711 0e28 0070     		.short	28672
 8712 0e2a 00000000 		.space	14
 8712      00000000 
 8712      00000000 
 8712      0000
 8713 0e38 0020     		.short	8192
 8714 0e3a 0050     		.short	20480
 8715 0e3c 0070     		.short	28672
 8716 0e3e 0008     		.short	2048
 8717 0e40 0078     		.short	30720
 8718 0e42 0088     		.short	-30720
 8719 0e44 0070     		.short	28672
 8720 0e46 00000000 		.space	14
 8720      00000000 
 8720      00000000 
 8720      0000
 8721 0e54 0050     		.short	20480
 8722 0e56 0000     		.short	0
ARM GAS  C:\Users\arist\AppData\Local\Temp\ccUERo53.s 			page 186


 8723 0e58 0070     		.short	28672
 8724 0e5a 0008     		.short	2048
 8725 0e5c 0078     		.short	30720
 8726 0e5e 0088     		.short	-30720
 8727 0e60 0070     		.short	28672
 8728 0e62 00000000 		.space	14
 8728      00000000 
 8728      00000000 
 8728      0000
 8729 0e70 0040     		.short	16384
 8730 0e72 0020     		.short	8192
 8731 0e74 0070     		.short	28672
 8732 0e76 0008     		.short	2048
 8733 0e78 0078     		.short	30720
 8734 0e7a 0088     		.short	-30720
 8735 0e7c 0070     		.short	28672
 8736 0e7e 00000000 		.space	14
 8736      00000000 
 8736      00000000 
 8736      0000
 8737 0e8c 0020     		.short	8192
 8738 0e8e 0000     		.short	0
 8739 0e90 0070     		.short	28672
 8740 0e92 0008     		.short	2048
 8741 0e94 0078     		.short	30720
 8742 0e96 0088     		.short	-30720
 8743 0e98 0070     		.short	28672
 8744 0e9a 00000000 		.space	14
 8744      00000000 
 8744      00000000 
 8744      0000
 8745 0ea8 0000     		.short	0
 8746 0eaa 0000     		.short	0
 8747 0eac 0078     		.short	30720
 8748 0eae 0080     		.short	-32768
 8749 0eb0 0080     		.short	-32768
 8750 0eb2 0078     		.short	30720
 8751 0eb4 0020     		.short	8192
 8752 0eb6 00000000 		.space	14
 8752      00000000 
 8752      00000000 
 8752      0000
 8753 0ec4 0020     		.short	8192
 8754 0ec6 0050     		.short	20480
 8755 0ec8 0070     		.short	28672
 8756 0eca 0088     		.short	-30720
 8757 0ecc 00F0     		.short	-4096
 8758 0ece 0080     		.short	-32768
 8759 0ed0 0070     		.short	28672
 8760 0ed2 00000000 		.space	14
 8760      00000000 
 8760      00000000 
 8760      0000
 8761 0ee0 0050     		.short	20480
 8762 0ee2 0000     		.short	0
 8763 0ee4 0070     		.short	28672
 8764 0ee6 0088     		.short	-30720
ARM GAS  C:\Users\arist\AppData\Local\Temp\ccUERo53.s 			page 187


 8765 0ee8 00F0     		.short	-4096
 8766 0eea 0080     		.short	-32768
 8767 0eec 0070     		.short	28672
 8768 0eee 00000000 		.space	14
 8768      00000000 
 8768      00000000 
 8768      0000
 8769 0efc 0040     		.short	16384
 8770 0efe 0020     		.short	8192
 8771 0f00 0070     		.short	28672
 8772 0f02 0088     		.short	-30720
 8773 0f04 00F0     		.short	-4096
 8774 0f06 0080     		.short	-32768
 8775 0f08 0070     		.short	28672
 8776 0f0a 00000000 		.space	14
 8776      00000000 
 8776      00000000 
 8776      0000
 8777 0f18 0050     		.short	20480
 8778 0f1a 0000     		.short	0
 8779 0f1c 0000     		.short	0
 8780 0f1e 0060     		.short	24576
 8781 0f20 0020     		.short	8192
 8782 0f22 0020     		.short	8192
 8783 0f24 0070     		.short	28672
 8784 0f26 00000000 		.space	14
 8784      00000000 
 8784      00000000 
 8784      0000
 8785 0f34 0020     		.short	8192
 8786 0f36 0050     		.short	20480
 8787 0f38 0000     		.short	0
 8788 0f3a 0060     		.short	24576
 8789 0f3c 0020     		.short	8192
 8790 0f3e 0020     		.short	8192
 8791 0f40 0070     		.short	28672
 8792 0f42 00000000 		.space	14
 8792      00000000 
 8792      00000000 
 8792      0000
 8793 0f50 0040     		.short	16384
 8794 0f52 0020     		.short	8192
 8795 0f54 0000     		.short	0
 8796 0f56 0060     		.short	24576
 8797 0f58 0020     		.short	8192
 8798 0f5a 0020     		.short	8192
 8799 0f5c 0070     		.short	28672
 8800 0f5e 00000000 		.space	14
 8800      00000000 
 8800      00000000 
 8800      0000
 8801 0f6c 0050     		.short	20480
 8802 0f6e 0000     		.short	0
 8803 0f70 0070     		.short	28672
 8804 0f72 0088     		.short	-30720
 8805 0f74 00F8     		.short	-2048
 8806 0f76 0088     		.short	-30720
ARM GAS  C:\Users\arist\AppData\Local\Temp\ccUERo53.s 			page 188


 8807 0f78 0088     		.short	-30720
 8808 0f7a 00000000 		.space	14
 8808      00000000 
 8808      00000000 
 8808      0000
 8809 0f88 0020     		.short	8192
 8810 0f8a 0000     		.short	0
 8811 0f8c 0070     		.short	28672
 8812 0f8e 0088     		.short	-30720
 8813 0f90 00F8     		.short	-2048
 8814 0f92 0088     		.short	-30720
 8815 0f94 0088     		.short	-30720
 8816 0f96 00000000 		.space	14
 8816      00000000 
 8816      00000000 
 8816      0000
 8817 0fa4 0010     		.short	4096
 8818 0fa6 0020     		.short	8192
 8819 0fa8 00F8     		.short	-2048
 8820 0faa 0080     		.short	-32768
 8821 0fac 00F0     		.short	-4096
 8822 0fae 0080     		.short	-32768
 8823 0fb0 00F8     		.short	-2048
 8824 0fb2 00000000 		.space	14
 8824      00000000 
 8824      00000000 
 8824      0000
 8825 0fc0 0000     		.short	0
 8826 0fc2 0000     		.short	0
 8827 0fc4 00D0     		.short	-12288
 8828 0fc6 0028     		.short	10240
 8829 0fc8 0070     		.short	28672
 8830 0fca 00A0     		.short	-24576
 8831 0fcc 0058     		.short	22528
 8832 0fce 00000000 		.space	14
 8832      00000000 
 8832      00000000 
 8832      0000
 8833 0fdc 0078     		.short	30720
 8834 0fde 00A0     		.short	-24576
 8835 0fe0 00A0     		.short	-24576
 8836 0fe2 00F8     		.short	-2048
 8837 0fe4 00A0     		.short	-24576
 8838 0fe6 00A0     		.short	-24576
 8839 0fe8 00B8     		.short	-18432
 8840 0fea 00000000 		.space	14
 8840      00000000 
 8840      00000000 
 8840      0000
 8841 0ff8 0020     		.short	8192
 8842 0ffa 0050     		.short	20480
 8843 0ffc 0070     		.short	28672
 8844 0ffe 0088     		.short	-30720
 8845 1000 0088     		.short	-30720
 8846 1002 0088     		.short	-30720
 8847 1004 0070     		.short	28672
 8848 1006 00000000 		.space	14
ARM GAS  C:\Users\arist\AppData\Local\Temp\ccUERo53.s 			page 189


 8848      00000000 
 8848      00000000 
 8848      0000
 8849 1014 0050     		.short	20480
 8850 1016 0000     		.short	0
 8851 1018 0070     		.short	28672
 8852 101a 0088     		.short	-30720
 8853 101c 0088     		.short	-30720
 8854 101e 0088     		.short	-30720
 8855 1020 0070     		.short	28672
 8856 1022 00000000 		.space	14
 8856      00000000 
 8856      00000000 
 8856      0000
 8857 1030 0040     		.short	16384
 8858 1032 0020     		.short	8192
 8859 1034 0070     		.short	28672
 8860 1036 0088     		.short	-30720
 8861 1038 0088     		.short	-30720
 8862 103a 0088     		.short	-30720
 8863 103c 0070     		.short	28672
 8864 103e 00000000 		.space	14
 8864      00000000 
 8864      00000000 
 8864      0000
 8865 104c 0020     		.short	8192
 8866 104e 0050     		.short	20480
 8867 1050 0088     		.short	-30720
 8868 1052 0088     		.short	-30720
 8869 1054 0088     		.short	-30720
 8870 1056 0098     		.short	-26624
 8871 1058 0068     		.short	26624
 8872 105a 00000000 		.space	14
 8872      00000000 
 8872      00000000 
 8872      0000
 8873 1068 0040     		.short	16384
 8874 106a 0020     		.short	8192
 8875 106c 0088     		.short	-30720
 8876 106e 0088     		.short	-30720
 8877 1070 0088     		.short	-30720
 8878 1072 0098     		.short	-26624
 8879 1074 0068     		.short	26624
 8880 1076 00000000 		.space	14
 8880      00000000 
 8880      00000000 
 8880      0000
 8881 1084 0050     		.short	20480
 8882 1086 0000     		.short	0
 8883 1088 0088     		.short	-30720
 8884 108a 0050     		.short	20480
 8885 108c 0020     		.short	8192
 8886 108e 0020     		.short	8192
 8887 1090 00C0     		.short	-16384
 8888 1092 00000000 		.space	14
 8888      00000000 
 8888      00000000 
ARM GAS  C:\Users\arist\AppData\Local\Temp\ccUERo53.s 			page 190


 8888      0000
 8889 10a0 0050     		.short	20480
 8890 10a2 0070     		.short	28672
 8891 10a4 0088     		.short	-30720
 8892 10a6 0088     		.short	-30720
 8893 10a8 0088     		.short	-30720
 8894 10aa 0088     		.short	-30720
 8895 10ac 0070     		.short	28672
 8896 10ae 00000000 		.space	14
 8896      00000000 
 8896      00000000 
 8896      0000
 8897 10bc 0050     		.short	20480
 8898 10be 0088     		.short	-30720
 8899 10c0 0088     		.short	-30720
 8900 10c2 0088     		.short	-30720
 8901 10c4 0088     		.short	-30720
 8902 10c6 0088     		.short	-30720
 8903 10c8 0070     		.short	28672
 8904 10ca 00000000 		.space	14
 8904      00000000 
 8904      00000000 
 8904      0000
 8905 10d8 0000     		.short	0
 8906 10da 0000     		.short	0
 8907 10dc 0070     		.short	28672
 8908 10de 0098     		.short	-26624
 8909 10e0 00A8     		.short	-22528
 8910 10e2 00C8     		.short	-14336
 8911 10e4 0070     		.short	28672
 8912 10e6 00000000 		.space	14
 8912      00000000 
 8912      00000000 
 8912      0000
 8913 10f4 0030     		.short	12288
 8914 10f6 0040     		.short	16384
 8915 10f8 0020     		.short	8192
 8916 10fa 00F0     		.short	-4096
 8917 10fc 0040     		.short	16384
 8918 10fe 0080     		.short	-32768
 8919 1100 00F8     		.short	-2048
 8920 1102 00000000 		.space	14
 8920      00000000 
 8920      00000000 
 8920      0000
 8921 1110 0070     		.short	28672
 8922 1112 0088     		.short	-30720
 8923 1114 0098     		.short	-26624
 8924 1116 00A8     		.short	-22528
 8925 1118 00C8     		.short	-14336
 8926 111a 0088     		.short	-30720
 8927 111c 0070     		.short	28672
 8928 111e 00000000 		.space	14
 8928      00000000 
 8928      00000000 
 8928      0000
 8929 112c 0050     		.short	20480
ARM GAS  C:\Users\arist\AppData\Local\Temp\ccUERo53.s 			page 191


 8930 112e 0020     		.short	8192
 8931 1130 0050     		.short	20480
 8932 1132 0000     		.short	0
 8933 1134 0000     		.short	0
 8934 1136 0000     		.short	0
 8935 1138 0000     		.short	0
 8936 113a 00000000 		.space	14
 8936      00000000 
 8936      00000000 
 8936      0000
 8937 1148 0018     		.short	6144
 8938 114a 0020     		.short	8192
 8939 114c 0020     		.short	8192
 8940 114e 0070     		.short	28672
 8941 1150 0020     		.short	8192
 8942 1152 0020     		.short	8192
 8943 1154 00C0     		.short	-16384
 8944 1156 00000000 		.space	14
 8944      00000000 
 8944      00000000 
 8944      0000
 8945 1164 0010     		.short	4096
 8946 1166 0020     		.short	8192
 8947 1168 0070     		.short	28672
 8948 116a 0008     		.short	2048
 8949 116c 0078     		.short	30720
 8950 116e 0088     		.short	-30720
 8951 1170 0070     		.short	28672
 8952 1172 00000000 		.space	14
 8952      00000000 
 8952      00000000 
 8952      0000
 8953 1180 0010     		.short	4096
 8954 1182 0020     		.short	8192
 8955 1184 0000     		.short	0
 8956 1186 0060     		.short	24576
 8957 1188 0020     		.short	8192
 8958 118a 0020     		.short	8192
 8959 118c 0070     		.short	28672
 8960 118e 00000000 		.space	14
 8960      00000000 
 8960      00000000 
 8960      0000
 8961 119c 0010     		.short	4096
 8962 119e 0020     		.short	8192
 8963 11a0 0070     		.short	28672
 8964 11a2 0088     		.short	-30720
 8965 11a4 0088     		.short	-30720
 8966 11a6 0088     		.short	-30720
 8967 11a8 0070     		.short	28672
 8968 11aa 00000000 		.space	14
 8968      00000000 
 8968      00000000 
 8968      0000
 8969 11b8 0010     		.short	4096
 8970 11ba 0020     		.short	8192
 8971 11bc 0088     		.short	-30720
ARM GAS  C:\Users\arist\AppData\Local\Temp\ccUERo53.s 			page 192


 8972 11be 0088     		.short	-30720
 8973 11c0 0088     		.short	-30720
 8974 11c2 0098     		.short	-26624
 8975 11c4 0068     		.short	26624
 8976 11c6 00000000 		.space	14
 8976      00000000 
 8976      00000000 
 8976      0000
 8977 11d4 0028     		.short	10240
 8978 11d6 0050     		.short	20480
 8979 11d8 00B0     		.short	-20480
 8980 11da 00C8     		.short	-14336
 8981 11dc 0088     		.short	-30720
 8982 11de 0088     		.short	-30720
 8983 11e0 0088     		.short	-30720
 8984 11e2 00000000 		.space	14
 8984      00000000 
 8984      00000000 
 8984      0000
 8985 11f0 0028     		.short	10240
 8986 11f2 0050     		.short	20480
 8987 11f4 0088     		.short	-30720
 8988 11f6 00C8     		.short	-14336
 8989 11f8 00A8     		.short	-22528
 8990 11fa 0098     		.short	-26624
 8991 11fc 0088     		.short	-30720
 8992 11fe 00000000 		.space	14
 8992      00000000 
 8992      00000000 
 8992      0000
 8993 120c 0060     		.short	24576
 8994 120e 0010     		.short	4096
 8995 1210 0030     		.short	12288
 8996 1212 0050     		.short	20480
 8997 1214 0020     		.short	8192
 8998 1216 0000     		.short	0
 8999 1218 0000     		.short	0
 9000 121a 00000000 		.space	14
 9000      00000000 
 9000      00000000 
 9000      0000
 9001 1228 0020     		.short	8192
 9002 122a 0050     		.short	20480
 9003 122c 0020     		.short	8192
 9004 122e 0000     		.short	0
 9005 1230 0000     		.short	0
 9006 1232 0000     		.short	0
 9007 1234 0000     		.short	0
 9008 1236 00000000 		.space	14
 9008      00000000 
 9008      00000000 
 9008      0000
 9009 1244 0020     		.short	8192
 9010 1246 0000     		.short	0
 9011 1248 0020     		.short	8192
 9012 124a 0020     		.short	8192
 9013 124c 0090     		.short	-28672
ARM GAS  C:\Users\arist\AppData\Local\Temp\ccUERo53.s 			page 193


 9014 124e 0090     		.short	-28672
 9015 1250 0060     		.short	24576
 9016 1252 00000000 		.space	14
 9016      00000000 
 9016      00000000 
 9016      0000
 9017 1260 0000     		.short	0
 9018 1262 0070     		.short	28672
 9019 1264 00A8     		.short	-22528
 9020 1266 00B8     		.short	-18432
 9021 1268 00A8     		.short	-22528
 9022 126a 0070     		.short	28672
 9023 126c 0000     		.short	0
 9024 126e 00000000 		.space	14
 9024      00000000 
 9024      00000000 
 9024      0000
 9025 127c 0000     		.short	0
 9026 127e 0000     		.short	0
 9027 1280 0000     		.short	0
 9028 1282 00F8     		.short	-2048
 9029 1284 0008     		.short	2048
 9030 1286 0000     		.short	0
 9031 1288 0000     		.short	0
 9032 128a 00000000 		.space	14
 9032      00000000 
 9032      00000000 
 9032      0000
 9033 1298 0000     		.short	0
 9034 129a 0048     		.short	18432
 9035 129c 0010     		.short	4096
 9036 129e 0020     		.short	8192
 9037 12a0 0048     		.short	18432
 9038 12a2 0088     		.short	-30720
 9039 12a4 0000     		.short	0
 9040 12a6 00000000 		.space	14
 9040      00000000 
 9040      00000000 
 9040      0000
 9041 12b4 0000     		.short	0
 9042 12b6 0048     		.short	18432
 9043 12b8 0010     		.short	4096
 9044 12ba 0020     		.short	8192
 9045 12bc 0058     		.short	22528
 9046 12be 0098     		.short	-26624
 9047 12c0 0000     		.short	0
 9048 12c2 00000000 		.space	14
 9048      00000000 
 9048      00000000 
 9048      0000
 9049 12d0 0000     		.short	0
 9050 12d2 0000     		.short	0
 9051 12d4 0020     		.short	8192
 9052 12d6 0000     		.short	0
 9053 12d8 0020     		.short	8192
 9054 12da 0020     		.short	8192
 9055 12dc 0020     		.short	8192
ARM GAS  C:\Users\arist\AppData\Local\Temp\ccUERo53.s 			page 194


 9056 12de 00000000 		.space	14
 9056      00000000 
 9056      00000000 
 9056      0000
 9057 12ec 0000     		.short	0
 9058 12ee 0028     		.short	10240
 9059 12f0 0050     		.short	20480
 9060 12f2 00A0     		.short	-24576
 9061 12f4 0050     		.short	20480
 9062 12f6 0028     		.short	10240
 9063 12f8 0000     		.short	0
 9064 12fa 00000000 		.space	14
 9064      00000000 
 9064      00000000 
 9064      0000
 9065 1308 0000     		.short	0
 9066 130a 00A0     		.short	-24576
 9067 130c 0050     		.short	20480
 9068 130e 0028     		.short	10240
 9069 1310 0050     		.short	20480
 9070 1312 00A0     		.short	-24576
 9071 1314 0000     		.short	0
 9072 1316 00000000 		.space	14
 9072      00000000 
 9072      00000000 
 9072      0000
 9073 1324 00A8     		.short	-22528
 9074 1326 0050     		.short	20480
 9075 1328 00A8     		.short	-22528
 9076 132a 0050     		.short	20480
 9077 132c 00A8     		.short	-22528
 9078 132e 0050     		.short	20480
 9079 1330 00A8     		.short	-22528
 9080 1332 00000000 		.space	14
 9080      00000000 
 9080      00000000 
 9080      0000
 9081 1340 00F8     		.short	-2048
 9082 1342 0000     		.short	0
 9083 1344 0000     		.short	0
 9084 1346 00F8     		.short	-2048
 9085 1348 0000     		.short	0
 9086 134a 0000     		.short	0
 9087 134c 00F8     		.short	-2048
 9088 134e 00000000 		.space	14
 9088      00000000 
 9088      00000000 
 9088      0000
 9089 135c 00F8     		.short	-2048
 9090 135e 0000     		.short	0
 9091 1360 00F8     		.short	-2048
 9092 1362 0000     		.short	0
 9093 1364 00F8     		.short	-2048
 9094 1366 0000     		.short	0
 9095 1368 00F8     		.short	-2048
 9096 136a 00000000 		.space	14
 9096      00000000 
ARM GAS  C:\Users\arist\AppData\Local\Temp\ccUERo53.s 			page 195


 9096      00000000 
 9096      0000
 9097 1378 0020     		.short	8192
 9098 137a 0020     		.short	8192
 9099 137c 0020     		.short	8192
 9100 137e 0020     		.short	8192
 9101 1380 0020     		.short	8192
 9102 1382 0020     		.short	8192
 9103 1384 0020     		.short	8192
 9104 1386 00000000 		.space	14
 9104      00000000 
 9104      00000000 
 9104      0000
 9105 1394 0020     		.short	8192
 9106 1396 0020     		.short	8192
 9107 1398 0020     		.short	8192
 9108 139a 00E0     		.short	-8192
 9109 139c 0020     		.short	8192
 9110 139e 0020     		.short	8192
 9111 13a0 0020     		.short	8192
 9112 13a2 00000000 		.space	14
 9112      00000000 
 9112      00000000 
 9112      0000
 9113 13b0 0010     		.short	4096
 9114 13b2 0020     		.short	8192
 9115 13b4 0070     		.short	28672
 9116 13b6 0088     		.short	-30720
 9117 13b8 00F8     		.short	-2048
 9118 13ba 0088     		.short	-30720
 9119 13bc 0088     		.short	-30720
 9120 13be 00000000 		.space	14
 9120      00000000 
 9120      00000000 
 9120      0000
 9121 13cc 0020     		.short	8192
 9122 13ce 0050     		.short	20480
 9123 13d0 0070     		.short	28672
 9124 13d2 0088     		.short	-30720
 9125 13d4 00F8     		.short	-2048
 9126 13d6 0088     		.short	-30720
 9127 13d8 0088     		.short	-30720
 9128 13da 00000000 		.space	14
 9128      00000000 
 9128      00000000 
 9128      0000
 9129 13e8 0040     		.short	16384
 9130 13ea 0020     		.short	8192
 9131 13ec 0070     		.short	28672
 9132 13ee 0088     		.short	-30720
 9133 13f0 00F8     		.short	-2048
 9134 13f2 0088     		.short	-30720
 9135 13f4 0088     		.short	-30720
 9136 13f6 00000000 		.space	14
 9136      00000000 
 9136      00000000 
 9136      0000
ARM GAS  C:\Users\arist\AppData\Local\Temp\ccUERo53.s 			page 196


 9137 1404 0000     		.short	0
 9138 1406 0070     		.short	28672
 9139 1408 00A8     		.short	-22528
 9140 140a 00C8     		.short	-14336
 9141 140c 00A8     		.short	-22528
 9142 140e 0070     		.short	28672
 9143 1410 0000     		.short	0
 9144 1412 00000000 		.space	14
 9144      00000000 
 9144      00000000 
 9144      0000
 9145 1420 0050     		.short	20480
 9146 1422 0050     		.short	20480
 9147 1424 00D0     		.short	-12288
 9148 1426 0010     		.short	4096
 9149 1428 00D0     		.short	-12288
 9150 142a 0050     		.short	20480
 9151 142c 0050     		.short	20480
 9152 142e 00000000 		.space	14
 9152      00000000 
 9152      00000000 
 9152      0000
 9153 143c 0050     		.short	20480
 9154 143e 0050     		.short	20480
 9155 1440 0050     		.short	20480
 9156 1442 0050     		.short	20480
 9157 1444 0050     		.short	20480
 9158 1446 0050     		.short	20480
 9159 1448 0050     		.short	20480
 9160 144a 00000000 		.space	14
 9160      00000000 
 9160      00000000 
 9160      0000
 9161 1458 0000     		.short	0
 9162 145a 0000     		.short	0
 9163 145c 00F0     		.short	-4096
 9164 145e 0010     		.short	4096
 9165 1460 00D0     		.short	-12288
 9166 1462 0050     		.short	20480
 9167 1464 0050     		.short	20480
 9168 1466 00000000 		.space	14
 9168      00000000 
 9168      00000000 
 9168      0000
 9169 1474 0050     		.short	20480
 9170 1476 0050     		.short	20480
 9171 1478 00D0     		.short	-12288
 9172 147a 0001     		.short	256
 9173 147c 00F0     		.short	-4096
 9174 147e 0000     		.short	0
 9175 1480 0000     		.short	0
 9176 1482 00000000 		.space	14
 9176      00000000 
 9176      00000000 
 9176      0000
 9177 1490 0002     		.short	512
 9178 1492 0078     		.short	30720
ARM GAS  C:\Users\arist\AppData\Local\Temp\ccUERo53.s 			page 197


 9179 1494 0080     		.short	-32768
 9180 1496 0080     		.short	-32768
 9181 1498 0080     		.short	-32768
 9182 149a 0078     		.short	30720
 9183 149c 0020     		.short	8192
 9184 149e 00000000 		.space	14
 9184      00000000 
 9184      00000000 
 9184      0000
 9185 14ac 0050     		.short	20480
 9186 14ae 0050     		.short	20480
 9187 14b0 0020     		.short	8192
 9188 14b2 0070     		.short	28672
 9189 14b4 0020     		.short	8192
 9190 14b6 0070     		.short	28672
 9191 14b8 0020     		.short	8192
 9192 14ba 00000000 		.space	14
 9192      00000000 
 9192      00000000 
 9192      0000
 9193 14c8 0000     		.short	0
 9194 14ca 0000     		.short	0
 9195 14cc 0000     		.short	0
 9196 14ce 00E0     		.short	-8192
 9197 14d0 0020     		.short	8192
 9198 14d2 0020     		.short	8192
 9199 14d4 0020     		.short	8192
 9200 14d6 00000000 		.space	14
 9200      00000000 
 9200      00000000 
 9200      0000
 9201 14e4 0020     		.short	8192
 9202 14e6 0020     		.short	8192
 9203 14e8 0020     		.short	8192
 9204 14ea 0038     		.short	14336
 9205 14ec 0000     		.short	0
 9206 14ee 0000     		.short	0
 9207 14f0 0000     		.short	0
 9208 14f2 00000000 		.space	14
 9208      00000000 
 9208      00000000 
 9208      0000
 9209 1500 0020     		.short	8192
 9210 1502 0020     		.short	8192
 9211 1504 0020     		.short	8192
 9212 1506 00F8     		.short	-2048
 9213 1508 0000     		.short	0
 9214 150a 0000     		.short	0
 9215 150c 0000     		.short	0
 9216 150e 00000000 		.space	14
 9216      00000000 
 9216      00000000 
 9216      0000
 9217 151c 0000     		.short	0
 9218 151e 0000     		.short	0
 9219 1520 0000     		.short	0
 9220 1522 00F8     		.short	-2048
ARM GAS  C:\Users\arist\AppData\Local\Temp\ccUERo53.s 			page 198


 9221 1524 0020     		.short	8192
 9222 1526 0020     		.short	8192
 9223 1528 0020     		.short	8192
 9224 152a 00000000 		.space	14
 9224      00000000 
 9224      00000000 
 9224      0000
 9225 1538 0020     		.short	8192
 9226 153a 0020     		.short	8192
 9227 153c 0020     		.short	8192
 9228 153e 0038     		.short	14336
 9229 1540 0020     		.short	8192
 9230 1542 0020     		.short	8192
 9231 1544 0020     		.short	8192
 9232 1546 00000000 		.space	14
 9232      00000000 
 9232      00000000 
 9232      0000
 9233 1554 0000     		.short	0
 9234 1556 0000     		.short	0
 9235 1558 0000     		.short	0
 9236 155a 00F8     		.short	-2048
 9237 155c 0000     		.short	0
 9238 155e 0000     		.short	0
 9239 1560 0000     		.short	0
 9240 1562 00000000 		.space	14
 9240      00000000 
 9240      00000000 
 9240      0000
 9241 1570 0020     		.short	8192
 9242 1572 0020     		.short	8192
 9243 1574 0020     		.short	8192
 9244 1576 00F8     		.short	-2048
 9245 1578 0020     		.short	8192
 9246 157a 0020     		.short	8192
 9247 157c 0020     		.short	8192
 9248 157e 00000000 		.space	14
 9248      00000000 
 9248      00000000 
 9248      0000
 9249 158c 0028     		.short	10240
 9250 158e 0050     		.short	20480
 9251 1590 0070     		.short	28672
 9252 1592 0008     		.short	2048
 9253 1594 0078     		.short	30720
 9254 1596 0088     		.short	-30720
 9255 1598 0070     		.short	28672
 9256 159a 00000000 		.space	14
 9256      00000000 
 9256      00000000 
 9256      0000
 9257 15a8 0028     		.short	10240
 9258 15aa 0050     		.short	20480
 9259 15ac 0070     		.short	28672
 9260 15ae 0088     		.short	-30720
 9261 15b0 00F8     		.short	-2048
 9262 15b2 0088     		.short	-30720
ARM GAS  C:\Users\arist\AppData\Local\Temp\ccUERo53.s 			page 199


 9263 15b4 0088     		.short	-30720
 9264 15b6 00000000 		.space	14
 9264      00000000 
 9264      00000000 
 9264      0000
 9265 15c4 0050     		.short	20480
 9266 15c6 0050     		.short	20480
 9267 15c8 0058     		.short	22528
 9268 15ca 0040     		.short	16384
 9269 15cc 0078     		.short	30720
 9270 15ce 0000     		.short	0
 9271 15d0 0000     		.short	0
 9272 15d2 00000000 		.space	14
 9272      00000000 
 9272      00000000 
 9272      0000
 9273 15e0 0000     		.short	0
 9274 15e2 0000     		.short	0
 9275 15e4 0078     		.short	30720
 9276 15e6 0040     		.short	16384
 9277 15e8 0058     		.short	22528
 9278 15ea 0050     		.short	20480
 9279 15ec 0050     		.short	20480
 9280 15ee 00000000 		.space	14
 9280      00000000 
 9280      00000000 
 9280      0000
 9281 15fc 0050     		.short	20480
 9282 15fe 0050     		.short	20480
 9283 1600 00D8     		.short	-10240
 9284 1602 0000     		.short	0
 9285 1604 00F8     		.short	-2048
 9286 1606 0000     		.short	0
 9287 1608 0000     		.short	0
 9288 160a 00000000 		.space	14
 9288      00000000 
 9288      00000000 
 9288      0000
 9289 1618 0000     		.short	0
 9290 161a 0000     		.short	0
 9291 161c 00F8     		.short	-2048
 9292 161e 0000     		.short	0
 9293 1620 00D8     		.short	-10240
 9294 1622 0050     		.short	20480
 9295 1624 0050     		.short	20480
 9296 1626 00000000 		.space	14
 9296      00000000 
 9296      00000000 
 9296      0000
 9297 1634 0050     		.short	20480
 9298 1636 0050     		.short	20480
 9299 1638 0058     		.short	22528
 9300 163a 0040     		.short	16384
 9301 163c 0058     		.short	22528
 9302 163e 0050     		.short	20480
 9303 1640 0050     		.short	20480
 9304 1642 00000000 		.space	14
ARM GAS  C:\Users\arist\AppData\Local\Temp\ccUERo53.s 			page 200


 9304      00000000 
 9304      00000000 
 9304      0000
 9305 1650 0000     		.short	0
 9306 1652 0000     		.short	0
 9307 1654 00F8     		.short	-2048
 9308 1656 0000     		.short	0
 9309 1658 00F8     		.short	-2048
 9310 165a 0000     		.short	0
 9311 165c 0000     		.short	0
 9312 165e 00000000 		.space	14
 9312      00000000 
 9312      00000000 
 9312      0000
 9313 166c 0050     		.short	20480
 9314 166e 0050     		.short	20480
 9315 1670 00D8     		.short	-10240
 9316 1672 0000     		.short	0
 9317 1674 00D8     		.short	-10240
 9318 1676 0050     		.short	20480
 9319 1678 0050     		.short	20480
 9320 167a 00000000 		.space	14
 9320      00000000 
 9320      00000000 
 9320      0000
 9321 1688 00F8     		.short	-2048
 9322 168a 0050     		.short	20480
 9323 168c 0050     		.short	20480
 9324 168e 00F8     		.short	-2048
 9325 1690 0000     		.short	0
 9326 1692 0000     		.short	0
 9327 1694 0000     		.short	0
 9328 1696 00000000 		.space	14
 9328      00000000 
 9328      00000000 
 9328      0000
 9329 16a4 0050     		.short	20480
 9330 16a6 0020     		.short	8192
 9331 16a8 0070     		.short	28672
 9332 16aa 0088     		.short	-30720
 9333 16ac 0088     		.short	-30720
 9334 16ae 0088     		.short	-30720
 9335 16b0 0070     		.short	28672
 9336 16b2 00000000 		.space	14
 9336      00000000 
 9336      00000000 
 9336      0000
 9337 16c0 0070     		.short	28672
 9338 16c2 0048     		.short	18432
 9339 16c4 0048     		.short	18432
 9340 16c6 00E8     		.short	-6144
 9341 16c8 0048     		.short	18432
 9342 16ca 0048     		.short	18432
 9343 16cc 0070     		.short	28672
 9344 16ce 00000000 		.space	14
 9344      00000000 
 9344      00000000 
ARM GAS  C:\Users\arist\AppData\Local\Temp\ccUERo53.s 			page 201


 9344      0000
 9345 16dc 0020     		.short	8192
 9346 16de 0050     		.short	20480
 9347 16e0 00F8     		.short	-2048
 9348 16e2 0080     		.short	-32768
 9349 16e4 00F0     		.short	-4096
 9350 16e6 0080     		.short	-32768
 9351 16e8 00F8     		.short	-2048
 9352 16ea 00000000 		.space	14
 9352      00000000 
 9352      00000000 
 9352      0000
 9353 16f8 0050     		.short	20480
 9354 16fa 0000     		.short	0
 9355 16fc 00F8     		.short	-2048
 9356 16fe 0080     		.short	-32768
 9357 1700 00F0     		.short	-4096
 9358 1702 0080     		.short	-32768
 9359 1704 00F8     		.short	-2048
 9360 1706 00000000 		.space	14
 9360      00000000 
 9360      00000000 
 9360      0000
 9361 1714 0040     		.short	16384
 9362 1716 0020     		.short	8192
 9363 1718 00F8     		.short	-2048
 9364 171a 0080     		.short	-32768
 9365 171c 00F0     		.short	-4096
 9366 171e 0080     		.short	-32768
 9367 1720 00F8     		.short	-2048
 9368 1722 00000000 		.space	14
 9368      00000000 
 9368      00000000 
 9368      0000
 9369 1730 0000     		.short	0
 9370 1732 0000     		.short	0
 9371 1734 0000     		.short	0
 9372 1736 0060     		.short	24576
 9373 1738 0020     		.short	8192
 9374 173a 0020     		.short	8192
 9375 173c 0070     		.short	28672
 9376 173e 00000000 		.space	14
 9376      00000000 
 9376      00000000 
 9376      0000
 9377 174c 0010     		.short	4096
 9378 174e 0020     		.short	8192
 9379 1750 00F8     		.short	-2048
 9380 1752 0020     		.short	8192
 9381 1754 0020     		.short	8192
 9382 1756 0020     		.short	8192
 9383 1758 00F8     		.short	-2048
 9384 175a 00000000 		.space	14
 9384      00000000 
 9384      00000000 
 9384      0000
 9385 1768 0020     		.short	8192
ARM GAS  C:\Users\arist\AppData\Local\Temp\ccUERo53.s 			page 202


 9386 176a 0050     		.short	20480
 9387 176c 00F8     		.short	-2048
 9388 176e 0020     		.short	8192
 9389 1770 0020     		.short	8192
 9390 1772 0020     		.short	8192
 9391 1774 00F8     		.short	-2048
 9392 1776 00000000 		.space	14
 9392      00000000 
 9392      00000000 
 9392      0000
 9393 1784 0050     		.short	20480
 9394 1786 0000     		.short	0
 9395 1788 00F8     		.short	-2048
 9396 178a 0020     		.short	8192
 9397 178c 0020     		.short	8192
 9398 178e 0020     		.short	8192
 9399 1790 00F8     		.short	-2048
 9400 1792 00000000 		.space	14
 9400      00000000 
 9400      00000000 
 9400      0000
 9401 17a0 0020     		.short	8192
 9402 17a2 0020     		.short	8192
 9403 17a4 0020     		.short	8192
 9404 17a6 00E0     		.short	-8192
 9405 17a8 0000     		.short	0
 9406 17aa 0000     		.short	0
 9407 17ac 0000     		.short	0
 9408 17ae 00000000 		.space	14
 9408      00000000 
 9408      00000000 
 9408      0000
 9409 17bc 0000     		.short	0
 9410 17be 0000     		.short	0
 9411 17c0 0000     		.short	0
 9412 17c2 0038     		.short	14336
 9413 17c4 0020     		.short	8192
 9414 17c6 0020     		.short	8192
 9415 17c8 0020     		.short	8192
 9416 17ca 00000000 		.space	14
 9416      00000000 
 9416      00000000 
 9416      0000
 9417 17d8 00F8     		.short	-2048
 9418 17da 00F8     		.short	-2048
 9419 17dc 00F8     		.short	-2048
 9420 17de 00F8     		.short	-2048
 9421 17e0 00F8     		.short	-2048
 9422 17e2 00F8     		.short	-2048
 9423 17e4 00F8     		.short	-2048
 9424 17e6 00000000 		.space	14
 9424      00000000 
 9424      00000000 
 9424      0000
 9425 17f4 0000     		.short	0
 9426 17f6 0000     		.short	0
 9427 17f8 0000     		.short	0
ARM GAS  C:\Users\arist\AppData\Local\Temp\ccUERo53.s 			page 203


 9428 17fa 0000     		.short	0
 9429 17fc 00F8     		.short	-2048
 9430 17fe 00F8     		.short	-2048
 9431 1800 00F8     		.short	-2048
 9432 1802 00000000 		.space	14
 9432      00000000 
 9432      00000000 
 9432      0000
 9433 1810 0000     		.short	0
 9434 1812 0020     		.short	8192
 9435 1814 0020     		.short	8192
 9436 1816 0000     		.short	0
 9437 1818 0020     		.short	8192
 9438 181a 0020     		.short	8192
 9439 181c 0000     		.short	0
 9440 181e 00000000 		.space	14
 9440      00000000 
 9440      00000000 
 9440      0000
 9441 182c 0000     		.short	0
 9442 182e 0000     		.short	0
 9443 1830 00F8     		.short	-2048
 9444 1832 00F8     		.short	-2048
 9445 1834 00F8     		.short	-2048
 9446 1836 0000     		.short	0
 9447 1838 0000     		.short	0
 9448 183a 00000000 		.space	14
 9448      00000000 
 9448      00000000 
 9448      0000
 9449 1848 00F8     		.short	-2048
 9450 184a 00F8     		.short	-2048
 9451 184c 00F8     		.short	-2048
 9452 184e 00F8     		.short	-2048
 9453 1850 0000     		.short	0
 9454 1852 0000     		.short	0
 9455 1854 0000     		.short	0
 9456 1856 00000000 		.space	14
 9456      00000000 
 9456      00000000 
 9456      0000
 9457 1864 0010     		.short	4096
 9458 1866 0020     		.short	8192
 9459 1868 0078     		.short	30720
 9460 186a 0088     		.short	-30720
 9461 186c 0088     		.short	-30720
 9462 186e 0088     		.short	-30720
 9463 1870 0070     		.short	28672
 9464 1872 00000000 		.space	14
 9464      00000000 
 9464      00000000 
 9464      0000
 9465 1880 00E0     		.short	-8192
 9466 1882 0090     		.short	-28672
 9467 1884 00E0     		.short	-8192
 9468 1886 0090     		.short	-28672
 9469 1888 0088     		.short	-30720
ARM GAS  C:\Users\arist\AppData\Local\Temp\ccUERo53.s 			page 204


 9470 188a 0088     		.short	-30720
 9471 188c 00F0     		.short	-4096
 9472 188e 00000000 		.space	14
 9472      00000000 
 9472      00000000 
 9472      0000
 9473 189c 0020     		.short	8192
 9474 189e 0050     		.short	20480
 9475 18a0 0078     		.short	30720
 9476 18a2 0088     		.short	-30720
 9477 18a4 0088     		.short	-30720
 9478 18a6 0088     		.short	-30720
 9479 18a8 0070     		.short	28672
 9480 18aa 00000000 		.space	14
 9480      00000000 
 9480      00000000 
 9480      0000
 9481 18b8 0040     		.short	16384
 9482 18ba 0020     		.short	8192
 9483 18bc 0078     		.short	30720
 9484 18be 0088     		.short	-30720
 9485 18c0 0088     		.short	-30720
 9486 18c2 0088     		.short	-30720
 9487 18c4 0070     		.short	28672
 9488 18c6 00000000 		.space	14
 9488      00000000 
 9488      00000000 
 9488      0000
 9489 18d4 0028     		.short	10240
 9490 18d6 0050     		.short	20480
 9491 18d8 0078     		.short	30720
 9492 18da 0088     		.short	-30720
 9493 18dc 0088     		.short	-30720
 9494 18de 0088     		.short	-30720
 9495 18e0 0070     		.short	28672
 9496 18e2 00000000 		.space	14
 9496      00000000 
 9496      00000000 
 9496      0000
 9497 18f0 0028     		.short	10240
 9498 18f2 0050     		.short	20480
 9499 18f4 0078     		.short	30720
 9500 18f6 0088     		.short	-30720
 9501 18f8 0088     		.short	-30720
 9502 18fa 0088     		.short	-30720
 9503 18fc 0070     		.short	28672
 9504 18fe 00000000 		.space	14
 9504      00000000 
 9504      00000000 
 9504      0000
 9505 190c 0000     		.short	0
 9506 190e 0000     		.short	0
 9507 1910 0088     		.short	-30720
 9508 1912 0088     		.short	-30720
 9509 1914 00C8     		.short	-14336
 9510 1916 00B0     		.short	-20480
 9511 1918 0080     		.short	-32768
ARM GAS  C:\Users\arist\AppData\Local\Temp\ccUERo53.s 			page 205


 9512 191a 00000000 		.space	14
 9512      00000000 
 9512      00000000 
 9512      0000
 9513 1928 00C0     		.short	-16384
 9514 192a 0050     		.short	20480
 9515 192c 0068     		.short	26624
 9516 192e 0068     		.short	26624
 9517 1930 0050     		.short	20480
 9518 1932 0040     		.short	16384
 9519 1934 00E0     		.short	-8192
 9520 1936 00000000 		.space	14
 9520      00000000 
 9520      00000000 
 9520      0000
 9521 1944 00E0     		.short	-8192
 9522 1946 0040     		.short	16384
 9523 1948 0070     		.short	28672
 9524 194a 0048     		.short	18432
 9525 194c 0070     		.short	28672
 9526 194e 0040     		.short	16384
 9527 1950 00E0     		.short	-8192
 9528 1952 00000000 		.space	14
 9528      00000000 
 9528      00000000 
 9528      0000
 9529 1960 0010     		.short	4096
 9530 1962 00A8     		.short	-22528
 9531 1964 0088     		.short	-30720
 9532 1966 0088     		.short	-30720
 9533 1968 0088     		.short	-30720
 9534 196a 0088     		.short	-30720
 9535 196c 0070     		.short	28672
 9536 196e 00000000 		.space	14
 9536      00000000 
 9536      00000000 
 9536      0000
 9537 197c 0020     		.short	8192
 9538 197e 0050     		.short	20480
 9539 1980 0088     		.short	-30720
 9540 1982 0088     		.short	-30720
 9541 1984 0088     		.short	-30720
 9542 1986 0088     		.short	-30720
 9543 1988 0070     		.short	28672
 9544 198a 00000000 		.space	14
 9544      00000000 
 9544      00000000 
 9544      0000
 9545 1998 0040     		.short	16384
 9546 199a 00A8     		.short	-22528
 9547 199c 0088     		.short	-30720
 9548 199e 0088     		.short	-30720
 9549 19a0 0088     		.short	-30720
 9550 19a2 0088     		.short	-30720
 9551 19a4 0070     		.short	28672
 9552 19a6 00000000 		.space	14
 9552      00000000 
ARM GAS  C:\Users\arist\AppData\Local\Temp\ccUERo53.s 			page 206


 9552      00000000 
 9552      0000
 9553 19b4 0010     		.short	4096
 9554 19b6 0020     		.short	8192
 9555 19b8 0088     		.short	-30720
 9556 19ba 0050     		.short	20480
 9557 19bc 0020     		.short	8192
 9558 19be 0020     		.short	8192
 9559 19c0 00C0     		.short	-16384
 9560 19c2 00000000 		.space	14
 9560      00000000 
 9560      00000000 
 9560      0000
 9561 19d0 0010     		.short	4096
 9562 19d2 0020     		.short	8192
 9563 19d4 0088     		.short	-30720
 9564 19d6 0050     		.short	20480
 9565 19d8 0020     		.short	8192
 9566 19da 0020     		.short	8192
 9567 19dc 0070     		.short	28672
 9568 19de 00000000 		.space	14
 9568      00000000 
 9568      00000000 
 9568      0000
 9569 19ec 00F8     		.short	-2048
 9570 19ee 0000     		.short	0
 9571 19f0 0000     		.short	0
 9572 19f2 0000     		.short	0
 9573 19f4 0000     		.short	0
 9574 19f6 0000     		.short	0
 9575 19f8 0000     		.short	0
 9576 19fa 00000000 		.space	14
 9576      00000000 
 9576      00000000 
 9576      0000
 9577 1a08 0010     		.short	4096
 9578 1a0a 0020     		.short	8192
 9579 1a0c 0000     		.short	0
 9580 1a0e 0000     		.short	0
 9581 1a10 0000     		.short	0
 9582 1a12 0000     		.short	0
 9583 1a14 0008     		.short	2048
 9584 1a16 00000000 		.space	14
 9584      00000000 
 9584      00000000 
 9584      0000
 9585 1a24 0000     		.short	0
 9586 1a26 0000     		.short	0
 9587 1a28 0000     		.short	0
 9588 1a2a 0070     		.short	28672
 9589 1a2c 0000     		.short	0
 9590 1a2e 0000     		.short	0
 9591 1a30 0000     		.short	0
 9592 1a32 00000000 		.space	14
 9592      00000000 
 9592      00000000 
 9592      0000
ARM GAS  C:\Users\arist\AppData\Local\Temp\ccUERo53.s 			page 207


 9593 1a40 0020     		.short	8192
 9594 1a42 0020     		.short	8192
 9595 1a44 00F8     		.short	-2048
 9596 1a46 0020     		.short	8192
 9597 1a48 0020     		.short	8192
 9598 1a4a 0000     		.short	0
 9599 1a4c 00F8     		.short	-2048
 9600 1a4e 00000000 		.space	14
 9600      00000000 
 9600      00000000 
 9600      0000
 9601 1a5c 0000     		.short	0
 9602 1a5e 0000     		.short	0
 9603 1a60 0000     		.short	0
 9604 1a62 0000     		.short	0
 9605 1a64 00F8     		.short	-2048
 9606 1a66 0000     		.short	0
 9607 1a68 00F8     		.short	-2048
 9608 1a6a 00000000 		.space	14
 9608      00000000 
 9608      00000000 
 9608      0000
 9609 1a78 0000     		.short	0
 9610 1a7a 0048     		.short	18432
 9611 1a7c 00D0     		.short	-12288
 9612 1a7e 0020     		.short	8192
 9613 1a80 0058     		.short	22528
 9614 1a82 0098     		.short	-26624
 9615 1a84 0000     		.short	0
 9616 1a86 00000000 		.space	14
 9616      00000000 
 9616      00000000 
 9616      0000
 9617 1a94 0078     		.short	30720
 9618 1a96 0098     		.short	-26624
 9619 1a98 0098     		.short	-26624
 9620 1a9a 0078     		.short	30720
 9621 1a9c 0018     		.short	6144
 9622 1a9e 0018     		.short	6144
 9623 1aa0 0078     		.short	30720
 9624 1aa2 00000000 		.space	14
 9624      00000000 
 9624      00000000 
 9624      0000
 9625 1ab0 0078     		.short	30720
 9626 1ab2 00A0     		.short	-24576
 9627 1ab4 0090     		.short	-28672
 9628 1ab6 0088     		.short	-30720
 9629 1ab8 0048     		.short	18432
 9630 1aba 0028     		.short	10240
 9631 1abc 00F0     		.short	-4096
 9632 1abe 00000000 		.space	14
 9632      00000000 
 9632      00000000 
 9632      0000
 9633 1acc 0000     		.short	0
 9634 1ace 0020     		.short	8192
ARM GAS  C:\Users\arist\AppData\Local\Temp\ccUERo53.s 			page 208


 9635 1ad0 0000     		.short	0
 9636 1ad2 00F8     		.short	-2048
 9637 1ad4 0000     		.short	0
 9638 1ad6 0020     		.short	8192
 9639 1ad8 0000     		.short	0
 9640 1ada 00000000 		.space	14
 9640      00000000 
 9640      00000000 
 9640      0000
 9641 1ae8 0000     		.short	0
 9642 1aea 0000     		.short	0
 9643 1aec 0000     		.short	0
 9644 1aee 0000     		.short	0
 9645 1af0 0030     		.short	12288
 9646 1af2 0030     		.short	12288
 9647 1af4 0060     		.short	24576
 9648 1af6 00000000 		.space	14
 9648      00000000 
 9648      00000000 
 9648      0000
 9649 1b04 0020     		.short	8192
 9650 1b06 0050     		.short	20480
 9651 1b08 0020     		.short	8192
 9652 1b0a 0000     		.short	0
 9653 1b0c 0000     		.short	0
 9654 1b0e 0000     		.short	0
 9655 1b10 0000     		.short	0
 9656 1b12 00000000 		.space	14
 9656      00000000 
 9656      00000000 
 9656      0000
 9657 1b20 0050     		.short	20480
 9658 1b22 0000     		.short	0
 9659 1b24 0000     		.short	0
 9660 1b26 0000     		.short	0
 9661 1b28 0000     		.short	0
 9662 1b2a 0000     		.short	0
 9663 1b2c 0000     		.short	0
 9664 1b2e 00000000 		.space	14
 9664      00000000 
 9664      00000000 
 9664      0000
 9665 1b3c 0000     		.short	0
 9666 1b3e 0030     		.short	12288
 9667 1b40 0030     		.short	12288
 9668 1b42 0000     		.short	0
 9669 1b44 0000     		.short	0
 9670 1b46 0000     		.short	0
 9671 1b48 0000     		.short	0
 9672 1b4a 00000000 		.space	14
 9672      00000000 
 9672      00000000 
 9672      0000
 9673 1b58 0020     		.short	8192
 9674 1b5a 0060     		.short	24576
 9675 1b5c 0020     		.short	8192
 9676 1b5e 0020     		.short	8192
ARM GAS  C:\Users\arist\AppData\Local\Temp\ccUERo53.s 			page 209


 9677 1b60 0070     		.short	28672
 9678 1b62 0000     		.short	0
 9679 1b64 0000     		.short	0
 9680 1b66 00000000 		.space	14
 9680      00000000 
 9680      00000000 
 9680      0000
 9681 1b74 0060     		.short	24576
 9682 1b76 0010     		.short	4096
 9683 1b78 0020     		.short	8192
 9684 1b7a 0010     		.short	4096
 9685 1b7c 0030     		.short	12288
 9686 1b7e 0000     		.short	0
 9687 1b80 0000     		.short	0
 9688 1b82 00000000 		.space	14
 9688      00000000 
 9688      00000000 
 9688      0000
 9689 1b90 0060     		.short	24576
 9690 1b92 0010     		.short	4096
 9691 1b94 0030     		.short	12288
 9692 1b96 0040     		.short	16384
 9693 1b98 0070     		.short	28672
 9694 1b9a 0000     		.short	0
 9695 1b9c 0000     		.short	0
 9696 1b9e 00000000 		.space	14
 9696      00000000 
 9696      00000000 
 9696      0000
 9697 1bac 00F8     		.short	-2048
 9698 1bae 00F8     		.short	-2048
 9699 1bb0 00F8     		.short	-2048
 9700 1bb2 00F8     		.short	-2048
 9701 1bb4 0000     		.short	0
 9702 1bb6 0000     		.short	0
 9703 1bb8 0000     		.short	0
 9704 1bba 00000000 		.space	14
 9704      00000000 
 9704      00000000 
 9704      0000
 9705 1bc8 00000000 		.space	56
 9705      00000000 
 9705      00000000 
 9705      00000000 
 9705      00000000 
 9706              		.global	font_s
 9707              		.section	.data.font_s,"aw"
 9708              		.align	2
 9711              	font_s:
 9712 0000 00F8     		.short	-2048
 9713 0002 00F8     		.short	-2048
 9714 0004 00F8     		.short	-2048
 9715 0006 00F8     		.short	-2048
 9716 0008 00F8     		.short	-2048
 9717 000a 00F8     		.short	-2048
 9718 000c 00F8     		.short	-2048
 9719 000e 0070     		.short	28672
ARM GAS  C:\Users\arist\AppData\Local\Temp\ccUERo53.s 			page 210


 9720 0010 0088     		.short	-30720
 9721 0012 00D8     		.short	-10240
 9722 0014 0088     		.short	-30720
 9723 0016 00A8     		.short	-22528
 9724 0018 0088     		.short	-30720
 9725 001a 0070     		.short	28672
 9726 001c 0070     		.short	28672
 9727 001e 00F8     		.short	-2048
 9728 0020 00A8     		.short	-22528
 9729 0022 00F8     		.short	-2048
 9730 0024 00D8     		.short	-10240
 9731 0026 00F8     		.short	-2048
 9732 0028 0070     		.short	28672
 9733 002a 0050     		.short	20480
 9734 002c 00F8     		.short	-2048
 9735 002e 00F8     		.short	-2048
 9736 0030 00F8     		.short	-2048
 9737 0032 0070     		.short	28672
 9738 0034 0020     		.short	8192
 9739 0036 0000     		.short	0
 9740 0038 0000     		.short	0
 9741 003a 0020     		.short	8192
 9742 003c 0070     		.short	28672
 9743 003e 00F8     		.short	-2048
 9744 0040 0070     		.short	28672
 9745 0042 0020     		.short	8192
 9746 0044 0000     		.short	0
 9747 0046 0070     		.short	28672
 9748 0048 0070     		.short	28672
 9749 004a 00F8     		.short	-2048
 9750 004c 00F8     		.short	-2048
 9751 004e 0020     		.short	8192
 9752 0050 00F8     		.short	-2048
 9753 0052 0000     		.short	0
 9754 0054 0020     		.short	8192
 9755 0056 0070     		.short	28672
 9756 0058 00F8     		.short	-2048
 9757 005a 00F8     		.short	-2048
 9758 005c 00F8     		.short	-2048
 9759 005e 0020     		.short	8192
 9760 0060 00F8     		.short	-2048
 9761 0062 0000     		.short	0
 9762 0064 0000     		.short	0
 9763 0066 0070     		.short	28672
 9764 0068 0070     		.short	28672
 9765 006a 0070     		.short	28672
 9766 006c 0000     		.short	0
 9767 006e 0000     		.short	0
 9768 0070 0000     		.short	0
 9769 0072 00F8     		.short	-2048
 9770 0074 0088     		.short	-30720
 9771 0076 0088     		.short	-30720
 9772 0078 0088     		.short	-30720
 9773 007a 00F8     		.short	-2048
 9774 007c 0000     		.short	0
 9775 007e 0000     		.short	0
 9776 0080 0070     		.short	28672
ARM GAS  C:\Users\arist\AppData\Local\Temp\ccUERo53.s 			page 211


 9777 0082 0088     		.short	-30720
 9778 0084 0088     		.short	-30720
 9779 0086 0088     		.short	-30720
 9780 0088 0070     		.short	28672
 9781 008a 0000     		.short	0
 9782 008c 00F8     		.short	-2048
 9783 008e 0088     		.short	-30720
 9784 0090 0070     		.short	28672
 9785 0092 0070     		.short	28672
 9786 0094 0070     		.short	28672
 9787 0096 0088     		.short	-30720
 9788 0098 00F8     		.short	-2048
 9789 009a 0000     		.short	0
 9790 009c 0038     		.short	14336
 9791 009e 0018     		.short	6144
 9792 00a0 0068     		.short	26624
 9793 00a2 00A0     		.short	-24576
 9794 00a4 0040     		.short	16384
 9795 00a6 0000     		.short	0
 9796 00a8 0070     		.short	28672
 9797 00aa 0088     		.short	-30720
 9798 00ac 0088     		.short	-30720
 9799 00ae 0070     		.short	28672
 9800 00b0 0020     		.short	8192
 9801 00b2 0070     		.short	28672
 9802 00b4 0020     		.short	8192
 9803 00b6 0020     		.short	8192
 9804 00b8 0030     		.short	12288
 9805 00ba 0028     		.short	10240
 9806 00bc 0020     		.short	8192
 9807 00be 0060     		.short	24576
 9808 00c0 00E0     		.short	-8192
 9809 00c2 0040     		.short	16384
 9810 00c4 0008     		.short	2048
 9811 00c6 0018     		.short	6144
 9812 00c8 0028     		.short	10240
 9813 00ca 0048     		.short	18432
 9814 00cc 0058     		.short	22528
 9815 00ce 00D8     		.short	-10240
 9816 00d0 00C0     		.short	-16384
 9817 00d2 0000     		.short	0
 9818 00d4 00A8     		.short	-22528
 9819 00d6 0070     		.short	28672
 9820 00d8 00D8     		.short	-10240
 9821 00da 0070     		.short	28672
 9822 00dc 00A8     		.short	-22528
 9823 00de 0000     		.short	0
 9824 00e0 0000     		.short	0
 9825 00e2 0040     		.short	16384
 9826 00e4 0060     		.short	24576
 9827 00e6 0070     		.short	28672
 9828 00e8 0060     		.short	24576
 9829 00ea 0040     		.short	16384
 9830 00ec 0000     		.short	0
 9831 00ee 0000     		.short	0
 9832 00f0 0010     		.short	4096
 9833 00f2 0030     		.short	12288
ARM GAS  C:\Users\arist\AppData\Local\Temp\ccUERo53.s 			page 212


 9834 00f4 0070     		.short	28672
 9835 00f6 0030     		.short	12288
 9836 00f8 0010     		.short	4096
 9837 00fa 0000     		.short	0
 9838 00fc 0020     		.short	8192
 9839 00fe 0070     		.short	28672
 9840 0100 0020     		.short	8192
 9841 0102 0020     		.short	8192
 9842 0104 0070     		.short	28672
 9843 0106 0020     		.short	8192
 9844 0108 0000     		.short	0
 9845 010a 0050     		.short	20480
 9846 010c 0050     		.short	20480
 9847 010e 0050     		.short	20480
 9848 0110 0050     		.short	20480
 9849 0112 0050     		.short	20480
 9850 0114 0000     		.short	0
 9851 0116 0050     		.short	20480
 9852 0118 00D8     		.short	-10240
 9853 011a 00D8     		.short	-10240
 9854 011c 00D8     		.short	-10240
 9855 011e 00D8     		.short	-10240
 9856 0120 00D8     		.short	-10240
 9857 0122 00D8     		.short	-10240
 9858 0124 00D8     		.short	-10240
 9859 0126 0000     		.short	0
 9860 0128 0020     		.short	8192
 9861 012a 00A8     		.short	-22528
 9862 012c 00A8     		.short	-22528
 9863 012e 0088     		.short	-30720
 9864 0130 0070     		.short	28672
 9865 0132 0000     		.short	0
 9866 0134 0000     		.short	0
 9867 0136 0038     		.short	14336
 9868 0138 0030     		.short	12288
 9869 013a 00A8     		.short	-22528
 9870 013c 0088     		.short	-30720
 9871 013e 0088     		.short	-30720
 9872 0140 0070     		.short	28672
 9873 0142 0000     		.short	0
 9874 0144 0020     		.short	8192
 9875 0146 0070     		.short	28672
 9876 0148 0020     		.short	8192
 9877 014a 0070     		.short	28672
 9878 014c 0020     		.short	8192
 9879 014e 0070     		.short	28672
 9880 0150 0000     		.short	0
 9881 0152 0020     		.short	8192
 9882 0154 0070     		.short	28672
 9883 0156 0020     		.short	8192
 9884 0158 0020     		.short	8192
 9885 015a 0020     		.short	8192
 9886 015c 0000     		.short	0
 9887 015e 0000     		.short	0
 9888 0160 0020     		.short	8192
 9889 0162 0020     		.short	8192
 9890 0164 0020     		.short	8192
ARM GAS  C:\Users\arist\AppData\Local\Temp\ccUERo53.s 			page 213


 9891 0166 0070     		.short	28672
 9892 0168 0020     		.short	8192
 9893 016a 0000     		.short	0
 9894 016c 0000     		.short	0
 9895 016e 0000     		.short	0
 9896 0170 0010     		.short	4096
 9897 0172 00F8     		.short	-2048
 9898 0174 0010     		.short	4096
 9899 0176 0000     		.short	0
 9900 0178 0000     		.short	0
 9901 017a 0000     		.short	0
 9902 017c 0000     		.short	0
 9903 017e 0040     		.short	16384
 9904 0180 00F8     		.short	-2048
 9905 0182 0040     		.short	16384
 9906 0184 0000     		.short	0
 9907 0186 0000     		.short	0
 9908 0188 0080     		.short	-32768
 9909 018a 0080     		.short	-32768
 9910 018c 0080     		.short	-32768
 9911 018e 0080     		.short	-32768
 9912 0190 0080     		.short	-32768
 9913 0192 0080     		.short	-32768
 9914 0194 00F8     		.short	-2048
 9915 0196 0000     		.short	0
 9916 0198 0000     		.short	0
 9917 019a 0050     		.short	20480
 9918 019c 00F8     		.short	-2048
 9919 019e 0050     		.short	20480
 9920 01a0 0000     		.short	0
 9921 01a2 0000     		.short	0
 9922 01a4 0000     		.short	0
 9923 01a6 0000     		.short	0
 9924 01a8 0020     		.short	8192
 9925 01aa 0070     		.short	28672
 9926 01ac 00F8     		.short	-2048
 9927 01ae 0000     		.short	0
 9928 01b0 0000     		.short	0
 9929 01b2 0000     		.short	0
 9930 01b4 0000     		.short	0
 9931 01b6 00F8     		.short	-2048
 9932 01b8 0070     		.short	28672
 9933 01ba 0020     		.short	8192
 9934 01bc 0000     		.short	0
 9935 01be 0000     		.short	0
 9936 01c0 0000     		.short	0
 9937 01c2 0000     		.short	0
 9938 01c4 0000     		.short	0
 9939 01c6 0000     		.short	0
 9940 01c8 0000     		.short	0
 9941 01ca 0000     		.short	0
 9942 01cc 0000     		.short	0
 9943 01ce 0020     		.short	8192
 9944 01d0 0020     		.short	8192
 9945 01d2 0020     		.short	8192
 9946 01d4 0020     		.short	8192
 9947 01d6 0020     		.short	8192
ARM GAS  C:\Users\arist\AppData\Local\Temp\ccUERo53.s 			page 214


 9948 01d8 0000     		.short	0
 9949 01da 0020     		.short	8192
 9950 01dc 0050     		.short	20480
 9951 01de 0050     		.short	20480
 9952 01e0 0050     		.short	20480
 9953 01e2 0000     		.short	0
 9954 01e4 0000     		.short	0
 9955 01e6 0000     		.short	0
 9956 01e8 0000     		.short	0
 9957 01ea 0000     		.short	0
 9958 01ec 0050     		.short	20480
 9959 01ee 00F8     		.short	-2048
 9960 01f0 0050     		.short	20480
 9961 01f2 00F8     		.short	-2048
 9962 01f4 0050     		.short	20480
 9963 01f6 0000     		.short	0
 9964 01f8 0020     		.short	8192
 9965 01fa 0070     		.short	28672
 9966 01fc 0080     		.short	-32768
 9967 01fe 0070     		.short	28672
 9968 0200 0008     		.short	2048
 9969 0202 0070     		.short	28672
 9970 0204 0020     		.short	8192
 9971 0206 0000     		.short	0
 9972 0208 00C8     		.short	-14336
 9973 020a 00D0     		.short	-12288
 9974 020c 0020     		.short	8192
 9975 020e 0058     		.short	22528
 9976 0210 0098     		.short	-26624
 9977 0212 0000     		.short	0
 9978 0214 0020     		.short	8192
 9979 0216 0050     		.short	20480
 9980 0218 0050     		.short	20480
 9981 021a 0020     		.short	8192
 9982 021c 0050     		.short	20480
 9983 021e 00F8     		.short	-2048
 9984 0220 0010     		.short	4096
 9985 0222 0020     		.short	8192
 9986 0224 0020     		.short	8192
 9987 0226 0020     		.short	8192
 9988 0228 0000     		.short	0
 9989 022a 0000     		.short	0
 9990 022c 0000     		.short	0
 9991 022e 0000     		.short	0
 9992 0230 0010     		.short	4096
 9993 0232 0020     		.short	8192
 9994 0234 0040     		.short	16384
 9995 0236 0040     		.short	16384
 9996 0238 0040     		.short	16384
 9997 023a 0020     		.short	8192
 9998 023c 0010     		.short	4096
 9999 023e 0040     		.short	16384
 10000 0240 0020     		.short	8192
 10001 0242 0010     		.short	4096
 10002 0244 0010     		.short	4096
 10003 0246 0010     		.short	4096
 10004 0248 0020     		.short	8192
ARM GAS  C:\Users\arist\AppData\Local\Temp\ccUERo53.s 			page 215


 10005 024a 0040     		.short	16384
 10006 024c 0000     		.short	0
 10007 024e 0020     		.short	8192
 10008 0250 0070     		.short	28672
 10009 0252 0020     		.short	8192
 10010 0254 0050     		.short	20480
 10011 0256 0000     		.short	0
 10012 0258 0000     		.short	0
 10013 025a 0000     		.short	0
 10014 025c 0020     		.short	8192
 10015 025e 0020     		.short	8192
 10016 0260 00F8     		.short	-2048
 10017 0262 0020     		.short	8192
 10018 0264 0020     		.short	8192
 10019 0266 0000     		.short	0
 10020 0268 0000     		.short	0
 10021 026a 0000     		.short	0
 10022 026c 0000     		.short	0
 10023 026e 0000     		.short	0
 10024 0270 0020     		.short	8192
 10025 0272 0020     		.short	8192
 10026 0274 0040     		.short	16384
 10027 0276 0000     		.short	0
 10028 0278 0000     		.short	0
 10029 027a 0000     		.short	0
 10030 027c 00F8     		.short	-2048
 10031 027e 0000     		.short	0
 10032 0280 0000     		.short	0
 10033 0282 0000     		.short	0
 10034 0284 0000     		.short	0
 10035 0286 0000     		.short	0
 10036 0288 0000     		.short	0
 10037 028a 0000     		.short	0
 10038 028c 0000     		.short	0
 10039 028e 0000     		.short	0
 10040 0290 0020     		.short	8192
 10041 0292 0000     		.short	0
 10042 0294 0008     		.short	2048
 10043 0296 0010     		.short	4096
 10044 0298 0020     		.short	8192
 10045 029a 0040     		.short	16384
 10046 029c 0080     		.short	-32768
 10047 029e 0000     		.short	0
 10048 02a0 0060     		.short	24576
 10049 02a2 0090     		.short	-28672
 10050 02a4 0090     		.short	-28672
 10051 02a6 0090     		.short	-28672
 10052 02a8 0090     		.short	-28672
 10053 02aa 0090     		.short	-28672
 10054 02ac 0060     		.short	24576
 10055 02ae 0020     		.short	8192
 10056 02b0 0060     		.short	24576
 10057 02b2 0020     		.short	8192
 10058 02b4 0020     		.short	8192
 10059 02b6 0020     		.short	8192
 10060 02b8 0020     		.short	8192
 10061 02ba 0070     		.short	28672
ARM GAS  C:\Users\arist\AppData\Local\Temp\ccUERo53.s 			page 216


 10062 02bc 0060     		.short	24576
 10063 02be 0090     		.short	-28672
 10064 02c0 0010     		.short	4096
 10065 02c2 0020     		.short	8192
 10066 02c4 0040     		.short	16384
 10067 02c6 0080     		.short	-32768
 10068 02c8 00F0     		.short	-4096
 10069 02ca 0060     		.short	24576
 10070 02cc 0090     		.short	-28672
 10071 02ce 0010     		.short	4096
 10072 02d0 0020     		.short	8192
 10073 02d2 0010     		.short	4096
 10074 02d4 0090     		.short	-28672
 10075 02d6 0060     		.short	24576
 10076 02d8 0020     		.short	8192
 10077 02da 0060     		.short	24576
 10078 02dc 00A0     		.short	-24576
 10079 02de 00F0     		.short	-4096
 10080 02e0 0020     		.short	8192
 10081 02e2 0020     		.short	8192
 10082 02e4 0070     		.short	28672
 10083 02e6 00F0     		.short	-4096
 10084 02e8 0080     		.short	-32768
 10085 02ea 0080     		.short	-32768
 10086 02ec 0060     		.short	24576
 10087 02ee 0010     		.short	4096
 10088 02f0 0090     		.short	-28672
 10089 02f2 0060     		.short	24576
 10090 02f4 0060     		.short	24576
 10091 02f6 0090     		.short	-28672
 10092 02f8 0080     		.short	-32768
 10093 02fa 00E0     		.short	-8192
 10094 02fc 0090     		.short	-28672
 10095 02fe 0090     		.short	-28672
 10096 0300 0060     		.short	24576
 10097 0302 00E0     		.short	-8192
 10098 0304 0010     		.short	4096
 10099 0306 0010     		.short	4096
 10100 0308 0020     		.short	8192
 10101 030a 0040     		.short	16384
 10102 030c 0040     		.short	16384
 10103 030e 0040     		.short	16384
 10104 0310 0060     		.short	24576
 10105 0312 0090     		.short	-28672
 10106 0314 0090     		.short	-28672
 10107 0316 0060     		.short	24576
 10108 0318 0090     		.short	-28672
 10109 031a 0090     		.short	-28672
 10110 031c 0060     		.short	24576
 10111 031e 0060     		.short	24576
 10112 0320 0090     		.short	-28672
 10113 0322 0090     		.short	-28672
 10114 0324 0070     		.short	28672
 10115 0326 0010     		.short	4096
 10116 0328 0090     		.short	-28672
 10117 032a 0060     		.short	24576
 10118 032c 0000     		.short	0
ARM GAS  C:\Users\arist\AppData\Local\Temp\ccUERo53.s 			page 217


 10119 032e 0000     		.short	0
 10120 0330 0020     		.short	8192
 10121 0332 0000     		.short	0
 10122 0334 0020     		.short	8192
 10123 0336 0000     		.short	0
 10124 0338 0000     		.short	0
 10125 033a 0000     		.short	0
 10126 033c 0000     		.short	0
 10127 033e 0020     		.short	8192
 10128 0340 0000     		.short	0
 10129 0342 0020     		.short	8192
 10130 0344 0020     		.short	8192
 10131 0346 0040     		.short	16384
 10132 0348 0000     		.short	0
 10133 034a 0020     		.short	8192
 10134 034c 0040     		.short	16384
 10135 034e 0080     		.short	-32768
 10136 0350 0040     		.short	16384
 10137 0352 0020     		.short	8192
 10138 0354 0000     		.short	0
 10139 0356 0000     		.short	0
 10140 0358 0000     		.short	0
 10141 035a 0070     		.short	28672
 10142 035c 0000     		.short	0
 10143 035e 0070     		.short	28672
 10144 0360 0000     		.short	0
 10145 0362 0000     		.short	0
 10146 0364 0000     		.short	0
 10147 0366 0020     		.short	8192
 10148 0368 0010     		.short	4096
 10149 036a 0008     		.short	2048
 10150 036c 0010     		.short	4096
 10151 036e 0020     		.short	8192
 10152 0370 0000     		.short	0
 10153 0372 0060     		.short	24576
 10154 0374 0090     		.short	-28672
 10155 0376 0090     		.short	-28672
 10156 0378 0020     		.short	8192
 10157 037a 0020     		.short	8192
 10158 037c 0000     		.short	0
 10159 037e 0020     		.short	8192
 10160 0380 0070     		.short	28672
 10161 0382 0088     		.short	-30720
 10162 0384 0098     		.short	-26624
 10163 0386 00A8     		.short	-22528
 10164 0388 00B0     		.short	-20480
 10165 038a 0080     		.short	-32768
 10166 038c 0070     		.short	28672
 10167 038e 0070     		.short	28672
 10168 0390 0088     		.short	-30720
 10169 0392 0088     		.short	-30720
 10170 0394 00F8     		.short	-2048
 10171 0396 0088     		.short	-30720
 10172 0398 0088     		.short	-30720
 10173 039a 0088     		.short	-30720
 10174 039c 00F0     		.short	-4096
 10175 039e 0088     		.short	-30720
ARM GAS  C:\Users\arist\AppData\Local\Temp\ccUERo53.s 			page 218


 10176 03a0 0088     		.short	-30720
 10177 03a2 00F0     		.short	-4096
 10178 03a4 0088     		.short	-30720
 10179 03a6 0088     		.short	-30720
 10180 03a8 00F0     		.short	-4096
 10181 03aa 0078     		.short	30720
 10182 03ac 0080     		.short	-32768
 10183 03ae 0080     		.short	-32768
 10184 03b0 0080     		.short	-32768
 10185 03b2 0080     		.short	-32768
 10186 03b4 0080     		.short	-32768
 10187 03b6 0078     		.short	30720
 10188 03b8 00E0     		.short	-8192
 10189 03ba 0090     		.short	-28672
 10190 03bc 0088     		.short	-30720
 10191 03be 0088     		.short	-30720
 10192 03c0 0088     		.short	-30720
 10193 03c2 0090     		.short	-28672
 10194 03c4 00E0     		.short	-8192
 10195 03c6 0078     		.short	30720
 10196 03c8 0080     		.short	-32768
 10197 03ca 0080     		.short	-32768
 10198 03cc 00F0     		.short	-4096
 10199 03ce 0080     		.short	-32768
 10200 03d0 0080     		.short	-32768
 10201 03d2 0078     		.short	30720
 10202 03d4 0078     		.short	30720
 10203 03d6 0080     		.short	-32768
 10204 03d8 0080     		.short	-32768
 10205 03da 00F0     		.short	-4096
 10206 03dc 0080     		.short	-32768
 10207 03de 0080     		.short	-32768
 10208 03e0 0080     		.short	-32768
 10209 03e2 0070     		.short	28672
 10210 03e4 0088     		.short	-30720
 10211 03e6 0080     		.short	-32768
 10212 03e8 00B8     		.short	-18432
 10213 03ea 0088     		.short	-30720
 10214 03ec 0088     		.short	-30720
 10215 03ee 0070     		.short	28672
 10216 03f0 0088     		.short	-30720
 10217 03f2 0088     		.short	-30720
 10218 03f4 0088     		.short	-30720
 10219 03f6 0070     		.short	28672
 10220 03f8 0088     		.short	-30720
 10221 03fa 0088     		.short	-30720
 10222 03fc 0088     		.short	-30720
 10223 03fe 00F8     		.short	-2048
 10224 0400 0020     		.short	8192
 10225 0402 0020     		.short	8192
 10226 0404 0020     		.short	8192
 10227 0406 0020     		.short	8192
 10228 0408 0020     		.short	8192
 10229 040a 00F8     		.short	-2048
 10230 040c 00F8     		.short	-2048
 10231 040e 0020     		.short	8192
 10232 0410 0020     		.short	8192
ARM GAS  C:\Users\arist\AppData\Local\Temp\ccUERo53.s 			page 219


 10233 0412 0020     		.short	8192
 10234 0414 00A0     		.short	-24576
 10235 0416 00A0     		.short	-24576
 10236 0418 0040     		.short	16384
 10237 041a 0090     		.short	-28672
 10238 041c 0090     		.short	-28672
 10239 041e 00A0     		.short	-24576
 10240 0420 00C0     		.short	-16384
 10241 0422 00A0     		.short	-24576
 10242 0424 0090     		.short	-28672
 10243 0426 0088     		.short	-30720
 10244 0428 0080     		.short	-32768
 10245 042a 0080     		.short	-32768
 10246 042c 0080     		.short	-32768
 10247 042e 0080     		.short	-32768
 10248 0430 0080     		.short	-32768
 10249 0432 0080     		.short	-32768
 10250 0434 00F8     		.short	-2048
 10251 0436 0088     		.short	-30720
 10252 0438 00D8     		.short	-10240
 10253 043a 00A8     		.short	-22528
 10254 043c 00A8     		.short	-22528
 10255 043e 0088     		.short	-30720
 10256 0440 0088     		.short	-30720
 10257 0442 0088     		.short	-30720
 10258 0444 0088     		.short	-30720
 10259 0446 0088     		.short	-30720
 10260 0448 00C8     		.short	-14336
 10261 044a 00A8     		.short	-22528
 10262 044c 0098     		.short	-26624
 10263 044e 0088     		.short	-30720
 10264 0450 0088     		.short	-30720
 10265 0452 0070     		.short	28672
 10266 0454 0088     		.short	-30720
 10267 0456 0088     		.short	-30720
 10268 0458 0088     		.short	-30720
 10269 045a 0088     		.short	-30720
 10270 045c 0088     		.short	-30720
 10271 045e 0070     		.short	28672
 10272 0460 00F0     		.short	-4096
 10273 0462 0088     		.short	-30720
 10274 0464 0088     		.short	-30720
 10275 0466 00F0     		.short	-4096
 10276 0468 0080     		.short	-32768
 10277 046a 0080     		.short	-32768
 10278 046c 0080     		.short	-32768
 10279 046e 0070     		.short	28672
 10280 0470 0088     		.short	-30720
 10281 0472 0088     		.short	-30720
 10282 0474 0088     		.short	-30720
 10283 0476 00A8     		.short	-22528
 10284 0478 0070     		.short	28672
 10285 047a 0018     		.short	6144
 10286 047c 00F0     		.short	-4096
 10287 047e 0088     		.short	-30720
 10288 0480 0088     		.short	-30720
 10289 0482 00F0     		.short	-4096
ARM GAS  C:\Users\arist\AppData\Local\Temp\ccUERo53.s 			page 220


 10290 0484 00A0     		.short	-24576
 10291 0486 0090     		.short	-28672
 10292 0488 0088     		.short	-30720
 10293 048a 0078     		.short	30720
 10294 048c 0080     		.short	-32768
 10295 048e 0080     		.short	-32768
 10296 0490 0070     		.short	28672
 10297 0492 0008     		.short	2048
 10298 0494 0008     		.short	2048
 10299 0496 00F0     		.short	-4096
 10300 0498 00F8     		.short	-2048
 10301 049a 0020     		.short	8192
 10302 049c 0020     		.short	8192
 10303 049e 0020     		.short	8192
 10304 04a0 0020     		.short	8192
 10305 04a2 0020     		.short	8192
 10306 04a4 0020     		.short	8192
 10307 04a6 0088     		.short	-30720
 10308 04a8 0088     		.short	-30720
 10309 04aa 0088     		.short	-30720
 10310 04ac 0088     		.short	-30720
 10311 04ae 0088     		.short	-30720
 10312 04b0 0088     		.short	-30720
 10313 04b2 0070     		.short	28672
 10314 04b4 0088     		.short	-30720
 10315 04b6 0088     		.short	-30720
 10316 04b8 0088     		.short	-30720
 10317 04ba 0088     		.short	-30720
 10318 04bc 0088     		.short	-30720
 10319 04be 0050     		.short	20480
 10320 04c0 0020     		.short	8192
 10321 04c2 0088     		.short	-30720
 10322 04c4 0088     		.short	-30720
 10323 04c6 0088     		.short	-30720
 10324 04c8 00A8     		.short	-22528
 10325 04ca 00A8     		.short	-22528
 10326 04cc 00A8     		.short	-22528
 10327 04ce 0050     		.short	20480
 10328 04d0 0088     		.short	-30720
 10329 04d2 0088     		.short	-30720
 10330 04d4 0050     		.short	20480
 10331 04d6 0020     		.short	8192
 10332 04d8 0050     		.short	20480
 10333 04da 0088     		.short	-30720
 10334 04dc 0088     		.short	-30720
 10335 04de 0088     		.short	-30720
 10336 04e0 0088     		.short	-30720
 10337 04e2 0050     		.short	20480
 10338 04e4 0020     		.short	8192
 10339 04e6 0020     		.short	8192
 10340 04e8 0020     		.short	8192
 10341 04ea 0070     		.short	28672
 10342 04ec 00F8     		.short	-2048
 10343 04ee 0008     		.short	2048
 10344 04f0 0010     		.short	4096
 10345 04f2 0020     		.short	8192
 10346 04f4 0040     		.short	16384
ARM GAS  C:\Users\arist\AppData\Local\Temp\ccUERo53.s 			page 221


 10347 04f6 0080     		.short	-32768
 10348 04f8 00F8     		.short	-2048
 10349 04fa 0070     		.short	28672
 10350 04fc 0040     		.short	16384
 10351 04fe 0040     		.short	16384
 10352 0500 0040     		.short	16384
 10353 0502 0040     		.short	16384
 10354 0504 0040     		.short	16384
 10355 0506 0070     		.short	28672
 10356 0508 0000     		.short	0
 10357 050a 0080     		.short	-32768
 10358 050c 0040     		.short	16384
 10359 050e 0020     		.short	8192
 10360 0510 0010     		.short	4096
 10361 0512 0008     		.short	2048
 10362 0514 0000     		.short	0
 10363 0516 0070     		.short	28672
 10364 0518 0010     		.short	4096
 10365 051a 0010     		.short	4096
 10366 051c 0010     		.short	4096
 10367 051e 0010     		.short	4096
 10368 0520 0010     		.short	4096
 10369 0522 0070     		.short	28672
 10370 0524 0020     		.short	8192
 10371 0526 0050     		.short	20480
 10372 0528 0000     		.short	0
 10373 052a 0000     		.short	0
 10374 052c 0000     		.short	0
 10375 052e 0000     		.short	0
 10376 0530 0000     		.short	0
 10377 0532 0000     		.short	0
 10378 0534 0000     		.short	0
 10379 0536 0000     		.short	0
 10380 0538 0000     		.short	0
 10381 053a 0000     		.short	0
 10382 053c 0000     		.short	0
 10383 053e 00F8     		.short	-2048
 10384 0540 0020     		.short	8192
 10385 0542 0010     		.short	4096
 10386 0544 0000     		.short	0
 10387 0546 0000     		.short	0
 10388 0548 0000     		.short	0
 10389 054a 0000     		.short	0
 10390 054c 0000     		.short	0
 10391 054e 0000     		.short	0
 10392 0550 0000     		.short	0
 10393 0552 0070     		.short	28672
 10394 0554 0008     		.short	2048
 10395 0556 0078     		.short	30720
 10396 0558 0088     		.short	-30720
 10397 055a 0070     		.short	28672
 10398 055c 0080     		.short	-32768
 10399 055e 0080     		.short	-32768
 10400 0560 00B0     		.short	-20480
 10401 0562 00C8     		.short	-14336
 10402 0564 0088     		.short	-30720
 10403 0566 0088     		.short	-30720
ARM GAS  C:\Users\arist\AppData\Local\Temp\ccUERo53.s 			page 222


 10404 0568 0070     		.short	28672
 10405 056a 0000     		.short	0
 10406 056c 0000     		.short	0
 10407 056e 0078     		.short	30720
 10408 0570 0080     		.short	-32768
 10409 0572 0080     		.short	-32768
 10410 0574 0080     		.short	-32768
 10411 0576 0078     		.short	30720
 10412 0578 0008     		.short	2048
 10413 057a 0008     		.short	2048
 10414 057c 0068     		.short	26624
 10415 057e 0098     		.short	-26624
 10416 0580 0088     		.short	-30720
 10417 0582 0088     		.short	-30720
 10418 0584 0070     		.short	28672
 10419 0586 0000     		.short	0
 10420 0588 0000     		.short	0
 10421 058a 0070     		.short	28672
 10422 058c 0088     		.short	-30720
 10423 058e 00F0     		.short	-4096
 10424 0590 0080     		.short	-32768
 10425 0592 0070     		.short	28672
 10426 0594 0018     		.short	6144
 10427 0596 0020     		.short	8192
 10428 0598 0070     		.short	28672
 10429 059a 0020     		.short	8192
 10430 059c 0020     		.short	8192
 10431 059e 0020     		.short	8192
 10432 05a0 0070     		.short	28672
 10433 05a2 0000     		.short	0
 10434 05a4 0070     		.short	28672
 10435 05a6 0088     		.short	-30720
 10436 05a8 0088     		.short	-30720
 10437 05aa 0078     		.short	30720
 10438 05ac 0008     		.short	2048
 10439 05ae 0070     		.short	28672
 10440 05b0 0080     		.short	-32768
 10441 05b2 0080     		.short	-32768
 10442 05b4 00B0     		.short	-20480
 10443 05b6 00C8     		.short	-14336
 10444 05b8 0088     		.short	-30720
 10445 05ba 0088     		.short	-30720
 10446 05bc 0088     		.short	-30720
 10447 05be 0000     		.short	0
 10448 05c0 0020     		.short	8192
 10449 05c2 0000     		.short	0
 10450 05c4 0060     		.short	24576
 10451 05c6 0020     		.short	8192
 10452 05c8 0020     		.short	8192
 10453 05ca 0070     		.short	28672
 10454 05cc 0000     		.short	0
 10455 05ce 0010     		.short	4096
 10456 05d0 0000     		.short	0
 10457 05d2 0070     		.short	28672
 10458 05d4 0010     		.short	4096
 10459 05d6 0090     		.short	-28672
 10460 05d8 0060     		.short	24576
ARM GAS  C:\Users\arist\AppData\Local\Temp\ccUERo53.s 			page 223


 10461 05da 0080     		.short	-32768
 10462 05dc 0080     		.short	-32768
 10463 05de 0090     		.short	-28672
 10464 05e0 00A0     		.short	-24576
 10465 05e2 00C0     		.short	-16384
 10466 05e4 00A0     		.short	-24576
 10467 05e6 0090     		.short	-28672
 10468 05e8 0060     		.short	24576
 10469 05ea 0020     		.short	8192
 10470 05ec 0020     		.short	8192
 10471 05ee 0020     		.short	8192
 10472 05f0 0020     		.short	8192
 10473 05f2 0020     		.short	8192
 10474 05f4 0070     		.short	28672
 10475 05f6 0000     		.short	0
 10476 05f8 0000     		.short	0
 10477 05fa 0050     		.short	20480
 10478 05fc 00A8     		.short	-22528
 10479 05fe 00A8     		.short	-22528
 10480 0600 00A8     		.short	-22528
 10481 0602 00A8     		.short	-22528
 10482 0604 0000     		.short	0
 10483 0606 0000     		.short	0
 10484 0608 00B0     		.short	-20480
 10485 060a 00C8     		.short	-14336
 10486 060c 0088     		.short	-30720
 10487 060e 0088     		.short	-30720
 10488 0610 0088     		.short	-30720
 10489 0612 0000     		.short	0
 10490 0614 0000     		.short	0
 10491 0616 0070     		.short	28672
 10492 0618 0088     		.short	-30720
 10493 061a 0088     		.short	-30720
 10494 061c 0088     		.short	-30720
 10495 061e 0070     		.short	28672
 10496 0620 0000     		.short	0
 10497 0622 0000     		.short	0
 10498 0624 0070     		.short	28672
 10499 0626 0088     		.short	-30720
 10500 0628 0088     		.short	-30720
 10501 062a 00F0     		.short	-4096
 10502 062c 0080     		.short	-32768
 10503 062e 0000     		.short	0
 10504 0630 0000     		.short	0
 10505 0632 0070     		.short	28672
 10506 0634 0088     		.short	-30720
 10507 0636 0088     		.short	-30720
 10508 0638 0078     		.short	30720
 10509 063a 0008     		.short	2048
 10510 063c 0000     		.short	0
 10511 063e 0000     		.short	0
 10512 0640 0068     		.short	26624
 10513 0642 0030     		.short	12288
 10514 0644 0020     		.short	8192
 10515 0646 0020     		.short	8192
 10516 0648 0070     		.short	28672
 10517 064a 0000     		.short	0
ARM GAS  C:\Users\arist\AppData\Local\Temp\ccUERo53.s 			page 224


 10518 064c 0000     		.short	0
 10519 064e 0078     		.short	30720
 10520 0650 0080     		.short	-32768
 10521 0652 0070     		.short	28672
 10522 0654 0008     		.short	2048
 10523 0656 00F0     		.short	-4096
 10524 0658 0000     		.short	0
 10525 065a 0040     		.short	16384
 10526 065c 00F0     		.short	-4096
 10527 065e 0040     		.short	16384
 10528 0660 0040     		.short	16384
 10529 0662 0040     		.short	16384
 10530 0664 0030     		.short	12288
 10531 0666 0000     		.short	0
 10532 0668 0000     		.short	0
 10533 066a 0088     		.short	-30720
 10534 066c 0088     		.short	-30720
 10535 066e 0088     		.short	-30720
 10536 0670 0098     		.short	-26624
 10537 0672 0068     		.short	26624
 10538 0674 0000     		.short	0
 10539 0676 0000     		.short	0
 10540 0678 0088     		.short	-30720
 10541 067a 0088     		.short	-30720
 10542 067c 0088     		.short	-30720
 10543 067e 0050     		.short	20480
 10544 0680 0020     		.short	8192
 10545 0682 0000     		.short	0
 10546 0684 0000     		.short	0
 10547 0686 0088     		.short	-30720
 10548 0688 0088     		.short	-30720
 10549 068a 00A8     		.short	-22528
 10550 068c 00A8     		.short	-22528
 10551 068e 0050     		.short	20480
 10552 0690 0000     		.short	0
 10553 0692 0000     		.short	0
 10554 0694 0088     		.short	-30720
 10555 0696 0050     		.short	20480
 10556 0698 0020     		.short	8192
 10557 069a 0050     		.short	20480
 10558 069c 0088     		.short	-30720
 10559 069e 0000     		.short	0
 10560 06a0 0000     		.short	0
 10561 06a2 0088     		.short	-30720
 10562 06a4 0050     		.short	20480
 10563 06a6 0020     		.short	8192
 10564 06a8 0020     		.short	8192
 10565 06aa 00C0     		.short	-16384
 10566 06ac 0000     		.short	0
 10567 06ae 0000     		.short	0
 10568 06b0 00F8     		.short	-2048
 10569 06b2 0010     		.short	4096
 10570 06b4 0020     		.short	8192
 10571 06b6 0040     		.short	16384
 10572 06b8 00F8     		.short	-2048
 10573 06ba 0010     		.short	4096
 10574 06bc 0020     		.short	8192
ARM GAS  C:\Users\arist\AppData\Local\Temp\ccUERo53.s 			page 225


 10575 06be 0020     		.short	8192
 10576 06c0 0040     		.short	16384
 10577 06c2 0020     		.short	8192
 10578 06c4 0020     		.short	8192
 10579 06c6 0010     		.short	4096
 10580 06c8 0020     		.short	8192
 10581 06ca 0020     		.short	8192
 10582 06cc 0020     		.short	8192
 10583 06ce 0020     		.short	8192
 10584 06d0 0020     		.short	8192
 10585 06d2 0020     		.short	8192
 10586 06d4 0020     		.short	8192
 10587 06d6 0040     		.short	16384
 10588 06d8 0020     		.short	8192
 10589 06da 0020     		.short	8192
 10590 06dc 0010     		.short	4096
 10591 06de 0020     		.short	8192
 10592 06e0 0020     		.short	8192
 10593 06e2 0040     		.short	16384
 10594 06e4 0000     		.short	0
 10595 06e6 0000     		.short	0
 10596 06e8 0040     		.short	16384
 10597 06ea 00A8     		.short	-22528
 10598 06ec 0010     		.short	4096
 10599 06ee 0000     		.short	0
 10600 06f0 0000     		.short	0
 10601 06f2 0078     		.short	30720
 10602 06f4 0080     		.short	-32768
 10603 06f6 0080     		.short	-32768
 10604 06f8 0080     		.short	-32768
 10605 06fa 0080     		.short	-32768
 10606 06fc 0078     		.short	30720
 10607 06fe 0020     		.short	8192
 10608 0700 0050     		.short	20480
 10609 0702 0000     		.short	0
 10610 0704 0088     		.short	-30720
 10611 0706 0088     		.short	-30720
 10612 0708 0088     		.short	-30720
 10613 070a 0098     		.short	-26624
 10614 070c 0068     		.short	26624
 10615 070e 0010     		.short	4096
 10616 0710 0020     		.short	8192
 10617 0712 0070     		.short	28672
 10618 0714 0088     		.short	-30720
 10619 0716 00F0     		.short	-4096
 10620 0718 0080     		.short	-32768
 10621 071a 0070     		.short	28672
 10622 071c 0020     		.short	8192
 10623 071e 0050     		.short	20480
 10624 0720 0070     		.short	28672
 10625 0722 0008     		.short	2048
 10626 0724 0078     		.short	30720
 10627 0726 0088     		.short	-30720
 10628 0728 0070     		.short	28672
 10629 072a 0050     		.short	20480
 10630 072c 0000     		.short	0
 10631 072e 0070     		.short	28672
ARM GAS  C:\Users\arist\AppData\Local\Temp\ccUERo53.s 			page 226


 10632 0730 0008     		.short	2048
 10633 0732 0078     		.short	30720
 10634 0734 0088     		.short	-30720
 10635 0736 0070     		.short	28672
 10636 0738 0040     		.short	16384
 10637 073a 0020     		.short	8192
 10638 073c 0070     		.short	28672
 10639 073e 0008     		.short	2048
 10640 0740 0078     		.short	30720
 10641 0742 0088     		.short	-30720
 10642 0744 0070     		.short	28672
 10643 0746 0020     		.short	8192
 10644 0748 0000     		.short	0
 10645 074a 0070     		.short	28672
 10646 074c 0008     		.short	2048
 10647 074e 0078     		.short	30720
 10648 0750 0088     		.short	-30720
 10649 0752 0070     		.short	28672
 10650 0754 0000     		.short	0
 10651 0756 0000     		.short	0
 10652 0758 0078     		.short	30720
 10653 075a 0080     		.short	-32768
 10654 075c 0080     		.short	-32768
 10655 075e 0078     		.short	30720
 10656 0760 0020     		.short	8192
 10657 0762 0020     		.short	8192
 10658 0764 0050     		.short	20480
 10659 0766 0070     		.short	28672
 10660 0768 0088     		.short	-30720
 10661 076a 00F0     		.short	-4096
 10662 076c 0080     		.short	-32768
 10663 076e 0070     		.short	28672
 10664 0770 0050     		.short	20480
 10665 0772 0000     		.short	0
 10666 0774 0070     		.short	28672
 10667 0776 0088     		.short	-30720
 10668 0778 00F0     		.short	-4096
 10669 077a 0080     		.short	-32768
 10670 077c 0070     		.short	28672
 10671 077e 0040     		.short	16384
 10672 0780 0020     		.short	8192
 10673 0782 0070     		.short	28672
 10674 0784 0088     		.short	-30720
 10675 0786 00F0     		.short	-4096
 10676 0788 0080     		.short	-32768
 10677 078a 0070     		.short	28672
 10678 078c 0050     		.short	20480
 10679 078e 0000     		.short	0
 10680 0790 0000     		.short	0
 10681 0792 0060     		.short	24576
 10682 0794 0020     		.short	8192
 10683 0796 0020     		.short	8192
 10684 0798 0070     		.short	28672
 10685 079a 0020     		.short	8192
 10686 079c 0050     		.short	20480
 10687 079e 0000     		.short	0
 10688 07a0 0060     		.short	24576
ARM GAS  C:\Users\arist\AppData\Local\Temp\ccUERo53.s 			page 227


 10689 07a2 0020     		.short	8192
 10690 07a4 0020     		.short	8192
 10691 07a6 0070     		.short	28672
 10692 07a8 0040     		.short	16384
 10693 07aa 0020     		.short	8192
 10694 07ac 0000     		.short	0
 10695 07ae 0060     		.short	24576
 10696 07b0 0020     		.short	8192
 10697 07b2 0020     		.short	8192
 10698 07b4 0070     		.short	28672
 10699 07b6 0050     		.short	20480
 10700 07b8 0000     		.short	0
 10701 07ba 0070     		.short	28672
 10702 07bc 0088     		.short	-30720
 10703 07be 00F8     		.short	-2048
 10704 07c0 0088     		.short	-30720
 10705 07c2 0088     		.short	-30720
 10706 07c4 0020     		.short	8192
 10707 07c6 0000     		.short	0
 10708 07c8 0070     		.short	28672
 10709 07ca 0088     		.short	-30720
 10710 07cc 00F8     		.short	-2048
 10711 07ce 0088     		.short	-30720
 10712 07d0 0088     		.short	-30720
 10713 07d2 0010     		.short	4096
 10714 07d4 0020     		.short	8192
 10715 07d6 00F8     		.short	-2048
 10716 07d8 0080     		.short	-32768
 10717 07da 00F0     		.short	-4096
 10718 07dc 0080     		.short	-32768
 10719 07de 00F8     		.short	-2048
 10720 07e0 0000     		.short	0
 10721 07e2 0000     		.short	0
 10722 07e4 00D0     		.short	-12288
 10723 07e6 0028     		.short	10240
 10724 07e8 0070     		.short	28672
 10725 07ea 00A0     		.short	-24576
 10726 07ec 0058     		.short	22528
 10727 07ee 0078     		.short	30720
 10728 07f0 00A0     		.short	-24576
 10729 07f2 00A0     		.short	-24576
 10730 07f4 00F8     		.short	-2048
 10731 07f6 00A0     		.short	-24576
 10732 07f8 00A0     		.short	-24576
 10733 07fa 00B8     		.short	-18432
 10734 07fc 0020     		.short	8192
 10735 07fe 0050     		.short	20480
 10736 0800 0070     		.short	28672
 10737 0802 0088     		.short	-30720
 10738 0804 0088     		.short	-30720
 10739 0806 0088     		.short	-30720
 10740 0808 0070     		.short	28672
 10741 080a 0050     		.short	20480
 10742 080c 0000     		.short	0
 10743 080e 0070     		.short	28672
 10744 0810 0088     		.short	-30720
 10745 0812 0088     		.short	-30720
ARM GAS  C:\Users\arist\AppData\Local\Temp\ccUERo53.s 			page 228


 10746 0814 0088     		.short	-30720
 10747 0816 0070     		.short	28672
 10748 0818 0040     		.short	16384
 10749 081a 0020     		.short	8192
 10750 081c 0070     		.short	28672
 10751 081e 0088     		.short	-30720
 10752 0820 0088     		.short	-30720
 10753 0822 0088     		.short	-30720
 10754 0824 0070     		.short	28672
 10755 0826 0020     		.short	8192
 10756 0828 0050     		.short	20480
 10757 082a 0088     		.short	-30720
 10758 082c 0088     		.short	-30720
 10759 082e 0088     		.short	-30720
 10760 0830 0098     		.short	-26624
 10761 0832 0068     		.short	26624
 10762 0834 0040     		.short	16384
 10763 0836 0020     		.short	8192
 10764 0838 0088     		.short	-30720
 10765 083a 0088     		.short	-30720
 10766 083c 0088     		.short	-30720
 10767 083e 0098     		.short	-26624
 10768 0840 0068     		.short	26624
 10769 0842 0050     		.short	20480
 10770 0844 0000     		.short	0
 10771 0846 0088     		.short	-30720
 10772 0848 0050     		.short	20480
 10773 084a 0020     		.short	8192
 10774 084c 0020     		.short	8192
 10775 084e 00C0     		.short	-16384
 10776 0850 0050     		.short	20480
 10777 0852 0070     		.short	28672
 10778 0854 0088     		.short	-30720
 10779 0856 0088     		.short	-30720
 10780 0858 0088     		.short	-30720
 10781 085a 0088     		.short	-30720
 10782 085c 0070     		.short	28672
 10783 085e 0050     		.short	20480
 10784 0860 0088     		.short	-30720
 10785 0862 0088     		.short	-30720
 10786 0864 0088     		.short	-30720
 10787 0866 0088     		.short	-30720
 10788 0868 0088     		.short	-30720
 10789 086a 0070     		.short	28672
 10790 086c 0000     		.short	0
 10791 086e 0000     		.short	0
 10792 0870 0070     		.short	28672
 10793 0872 0098     		.short	-26624
 10794 0874 00A8     		.short	-22528
 10795 0876 00C8     		.short	-14336
 10796 0878 0070     		.short	28672
 10797 087a 0030     		.short	12288
 10798 087c 0040     		.short	16384
 10799 087e 0020     		.short	8192
 10800 0880 00F0     		.short	-4096
 10801 0882 0040     		.short	16384
 10802 0884 0080     		.short	-32768
ARM GAS  C:\Users\arist\AppData\Local\Temp\ccUERo53.s 			page 229


 10803 0886 00F8     		.short	-2048
 10804 0888 0070     		.short	28672
 10805 088a 0088     		.short	-30720
 10806 088c 0098     		.short	-26624
 10807 088e 00A8     		.short	-22528
 10808 0890 00C8     		.short	-14336
 10809 0892 0088     		.short	-30720
 10810 0894 0070     		.short	28672
 10811 0896 0050     		.short	20480
 10812 0898 0020     		.short	8192
 10813 089a 0050     		.short	20480
 10814 089c 0000     		.short	0
 10815 089e 0000     		.short	0
 10816 08a0 0000     		.short	0
 10817 08a2 0000     		.short	0
 10818 08a4 0018     		.short	6144
 10819 08a6 0020     		.short	8192
 10820 08a8 0020     		.short	8192
 10821 08aa 0070     		.short	28672
 10822 08ac 0020     		.short	8192
 10823 08ae 0020     		.short	8192
 10824 08b0 00C0     		.short	-16384
 10825 08b2 0010     		.short	4096
 10826 08b4 0020     		.short	8192
 10827 08b6 0070     		.short	28672
 10828 08b8 0008     		.short	2048
 10829 08ba 0078     		.short	30720
 10830 08bc 0088     		.short	-30720
 10831 08be 0070     		.short	28672
 10832 08c0 0010     		.short	4096
 10833 08c2 0020     		.short	8192
 10834 08c4 0000     		.short	0
 10835 08c6 0060     		.short	24576
 10836 08c8 0020     		.short	8192
 10837 08ca 0020     		.short	8192
 10838 08cc 0070     		.short	28672
 10839 08ce 0010     		.short	4096
 10840 08d0 0020     		.short	8192
 10841 08d2 0070     		.short	28672
 10842 08d4 0088     		.short	-30720
 10843 08d6 0088     		.short	-30720
 10844 08d8 0088     		.short	-30720
 10845 08da 0070     		.short	28672
 10846 08dc 0010     		.short	4096
 10847 08de 0020     		.short	8192
 10848 08e0 0088     		.short	-30720
 10849 08e2 0088     		.short	-30720
 10850 08e4 0088     		.short	-30720
 10851 08e6 0098     		.short	-26624
 10852 08e8 0068     		.short	26624
 10853 08ea 0028     		.short	10240
 10854 08ec 0050     		.short	20480
 10855 08ee 00B0     		.short	-20480
 10856 08f0 00C8     		.short	-14336
 10857 08f2 0088     		.short	-30720
 10858 08f4 0088     		.short	-30720
 10859 08f6 0088     		.short	-30720
ARM GAS  C:\Users\arist\AppData\Local\Temp\ccUERo53.s 			page 230


 10860 08f8 0028     		.short	10240
 10861 08fa 0050     		.short	20480
 10862 08fc 0088     		.short	-30720
 10863 08fe 00C8     		.short	-14336
 10864 0900 00A8     		.short	-22528
 10865 0902 0098     		.short	-26624
 10866 0904 0088     		.short	-30720
 10867 0906 0060     		.short	24576
 10868 0908 0010     		.short	4096
 10869 090a 0030     		.short	12288
 10870 090c 0050     		.short	20480
 10871 090e 0020     		.short	8192
 10872 0910 0000     		.short	0
 10873 0912 0000     		.short	0
 10874 0914 0020     		.short	8192
 10875 0916 0050     		.short	20480
 10876 0918 0020     		.short	8192
 10877 091a 0000     		.short	0
 10878 091c 0000     		.short	0
 10879 091e 0000     		.short	0
 10880 0920 0000     		.short	0
 10881 0922 0020     		.short	8192
 10882 0924 0000     		.short	0
 10883 0926 0020     		.short	8192
 10884 0928 0020     		.short	8192
 10885 092a 0090     		.short	-28672
 10886 092c 0090     		.short	-28672
 10887 092e 0060     		.short	24576
 10888 0930 0000     		.short	0
 10889 0932 0070     		.short	28672
 10890 0934 00A8     		.short	-22528
 10891 0936 00B8     		.short	-18432
 10892 0938 00A8     		.short	-22528
 10893 093a 0070     		.short	28672
 10894 093c 0000     		.short	0
 10895 093e 0000     		.short	0
 10896 0940 0000     		.short	0
 10897 0942 0000     		.short	0
 10898 0944 00F8     		.short	-2048
 10899 0946 0008     		.short	2048
 10900 0948 0000     		.short	0
 10901 094a 0000     		.short	0
 10902 094c 0000     		.short	0
 10903 094e 0048     		.short	18432
 10904 0950 0010     		.short	4096
 10905 0952 0020     		.short	8192
 10906 0954 0048     		.short	18432
 10907 0956 0088     		.short	-30720
 10908 0958 0000     		.short	0
 10909 095a 0000     		.short	0
 10910 095c 0048     		.short	18432
 10911 095e 0010     		.short	4096
 10912 0960 0020     		.short	8192
 10913 0962 0058     		.short	22528
 10914 0964 0098     		.short	-26624
 10915 0966 0000     		.short	0
 10916 0968 0000     		.short	0
ARM GAS  C:\Users\arist\AppData\Local\Temp\ccUERo53.s 			page 231


 10917 096a 0000     		.short	0
 10918 096c 0020     		.short	8192
 10919 096e 0000     		.short	0
 10920 0970 0020     		.short	8192
 10921 0972 0020     		.short	8192
 10922 0974 0020     		.short	8192
 10923 0976 0000     		.short	0
 10924 0978 0028     		.short	10240
 10925 097a 0050     		.short	20480
 10926 097c 00A0     		.short	-24576
 10927 097e 0050     		.short	20480
 10928 0980 0028     		.short	10240
 10929 0982 0000     		.short	0
 10930 0984 0000     		.short	0
 10931 0986 00A0     		.short	-24576
 10932 0988 0050     		.short	20480
 10933 098a 0028     		.short	10240
 10934 098c 0050     		.short	20480
 10935 098e 00A0     		.short	-24576
 10936 0990 0000     		.short	0
 10937 0992 00A8     		.short	-22528
 10938 0994 0050     		.short	20480
 10939 0996 00A8     		.short	-22528
 10940 0998 0050     		.short	20480
 10941 099a 00A8     		.short	-22528
 10942 099c 0050     		.short	20480
 10943 099e 00A8     		.short	-22528
 10944 09a0 00F8     		.short	-2048
 10945 09a2 0000     		.short	0
 10946 09a4 0000     		.short	0
 10947 09a6 00F8     		.short	-2048
 10948 09a8 0000     		.short	0
 10949 09aa 0000     		.short	0
 10950 09ac 00F8     		.short	-2048
 10951 09ae 00F8     		.short	-2048
 10952 09b0 0000     		.short	0
 10953 09b2 00F8     		.short	-2048
 10954 09b4 0000     		.short	0
 10955 09b6 00F8     		.short	-2048
 10956 09b8 0000     		.short	0
 10957 09ba 00F8     		.short	-2048
 10958 09bc 0020     		.short	8192
 10959 09be 0020     		.short	8192
 10960 09c0 0020     		.short	8192
 10961 09c2 0020     		.short	8192
 10962 09c4 0020     		.short	8192
 10963 09c6 0020     		.short	8192
 10964 09c8 0020     		.short	8192
 10965 09ca 0020     		.short	8192
 10966 09cc 0020     		.short	8192
 10967 09ce 0020     		.short	8192
 10968 09d0 00E0     		.short	-8192
 10969 09d2 0020     		.short	8192
 10970 09d4 0020     		.short	8192
 10971 09d6 0020     		.short	8192
 10972 09d8 0010     		.short	4096
 10973 09da 0020     		.short	8192
ARM GAS  C:\Users\arist\AppData\Local\Temp\ccUERo53.s 			page 232


 10974 09dc 0070     		.short	28672
 10975 09de 0088     		.short	-30720
 10976 09e0 00F8     		.short	-2048
 10977 09e2 0088     		.short	-30720
 10978 09e4 0088     		.short	-30720
 10979 09e6 0020     		.short	8192
 10980 09e8 0050     		.short	20480
 10981 09ea 0070     		.short	28672
 10982 09ec 0088     		.short	-30720
 10983 09ee 00F8     		.short	-2048
 10984 09f0 0088     		.short	-30720
 10985 09f2 0088     		.short	-30720
 10986 09f4 0040     		.short	16384
 10987 09f6 0020     		.short	8192
 10988 09f8 0070     		.short	28672
 10989 09fa 0088     		.short	-30720
 10990 09fc 00F8     		.short	-2048
 10991 09fe 0088     		.short	-30720
 10992 0a00 0088     		.short	-30720
 10993 0a02 0000     		.short	0
 10994 0a04 0070     		.short	28672
 10995 0a06 00A8     		.short	-22528
 10996 0a08 00C8     		.short	-14336
 10997 0a0a 00A8     		.short	-22528
 10998 0a0c 0070     		.short	28672
 10999 0a0e 0000     		.short	0
 11000 0a10 0050     		.short	20480
 11001 0a12 0050     		.short	20480
 11002 0a14 00D0     		.short	-12288
 11003 0a16 0010     		.short	4096
 11004 0a18 00D0     		.short	-12288
 11005 0a1a 0050     		.short	20480
 11006 0a1c 0050     		.short	20480
 11007 0a1e 0050     		.short	20480
 11008 0a20 0050     		.short	20480
 11009 0a22 0050     		.short	20480
 11010 0a24 0050     		.short	20480
 11011 0a26 0050     		.short	20480
 11012 0a28 0050     		.short	20480
 11013 0a2a 0050     		.short	20480
 11014 0a2c 0000     		.short	0
 11015 0a2e 0000     		.short	0
 11016 0a30 00F0     		.short	-4096
 11017 0a32 0010     		.short	4096
 11018 0a34 00D0     		.short	-12288
 11019 0a36 0050     		.short	20480
 11020 0a38 0050     		.short	20480
 11021 0a3a 0050     		.short	20480
 11022 0a3c 0050     		.short	20480
 11023 0a3e 00D0     		.short	-12288
 11024 0a40 0001     		.short	256
 11025 0a42 00F0     		.short	-4096
 11026 0a44 0000     		.short	0
 11027 0a46 0000     		.short	0
 11028 0a48 0002     		.short	512
 11029 0a4a 0078     		.short	30720
 11030 0a4c 0080     		.short	-32768
ARM GAS  C:\Users\arist\AppData\Local\Temp\ccUERo53.s 			page 233


 11031 0a4e 0080     		.short	-32768
 11032 0a50 0080     		.short	-32768
 11033 0a52 0078     		.short	30720
 11034 0a54 0020     		.short	8192
 11035 0a56 0050     		.short	20480
 11036 0a58 0050     		.short	20480
 11037 0a5a 0020     		.short	8192
 11038 0a5c 0070     		.short	28672
 11039 0a5e 0020     		.short	8192
 11040 0a60 0070     		.short	28672
 11041 0a62 0020     		.short	8192
 11042 0a64 0000     		.short	0
 11043 0a66 0000     		.short	0
 11044 0a68 0000     		.short	0
 11045 0a6a 00E0     		.short	-8192
 11046 0a6c 0020     		.short	8192
 11047 0a6e 0020     		.short	8192
 11048 0a70 0020     		.short	8192
 11049 0a72 0020     		.short	8192
 11050 0a74 0020     		.short	8192
 11051 0a76 0020     		.short	8192
 11052 0a78 0038     		.short	14336
 11053 0a7a 0000     		.short	0
 11054 0a7c 0000     		.short	0
 11055 0a7e 0000     		.short	0
 11056 0a80 0020     		.short	8192
 11057 0a82 0020     		.short	8192
 11058 0a84 0020     		.short	8192
 11059 0a86 00F8     		.short	-2048
 11060 0a88 0000     		.short	0
 11061 0a8a 0000     		.short	0
 11062 0a8c 0000     		.short	0
 11063 0a8e 0000     		.short	0
 11064 0a90 0000     		.short	0
 11065 0a92 0000     		.short	0
 11066 0a94 00F8     		.short	-2048
 11067 0a96 0020     		.short	8192
 11068 0a98 0020     		.short	8192
 11069 0a9a 0020     		.short	8192
 11070 0a9c 0020     		.short	8192
 11071 0a9e 0020     		.short	8192
 11072 0aa0 0020     		.short	8192
 11073 0aa2 0038     		.short	14336
 11074 0aa4 0020     		.short	8192
 11075 0aa6 0020     		.short	8192
 11076 0aa8 0020     		.short	8192
 11077 0aaa 0000     		.short	0
 11078 0aac 0000     		.short	0
 11079 0aae 0000     		.short	0
 11080 0ab0 00F8     		.short	-2048
 11081 0ab2 0000     		.short	0
 11082 0ab4 0000     		.short	0
 11083 0ab6 0000     		.short	0
 11084 0ab8 0020     		.short	8192
 11085 0aba 0020     		.short	8192
 11086 0abc 0020     		.short	8192
 11087 0abe 00F8     		.short	-2048
ARM GAS  C:\Users\arist\AppData\Local\Temp\ccUERo53.s 			page 234


 11088 0ac0 0020     		.short	8192
 11089 0ac2 0020     		.short	8192
 11090 0ac4 0020     		.short	8192
 11091 0ac6 0028     		.short	10240
 11092 0ac8 0050     		.short	20480
 11093 0aca 0070     		.short	28672
 11094 0acc 0008     		.short	2048
 11095 0ace 0078     		.short	30720
 11096 0ad0 0088     		.short	-30720
 11097 0ad2 0070     		.short	28672
 11098 0ad4 0028     		.short	10240
 11099 0ad6 0050     		.short	20480
 11100 0ad8 0070     		.short	28672
 11101 0ada 0088     		.short	-30720
 11102 0adc 00F8     		.short	-2048
 11103 0ade 0088     		.short	-30720
 11104 0ae0 0088     		.short	-30720
 11105 0ae2 0050     		.short	20480
 11106 0ae4 0050     		.short	20480
 11107 0ae6 0058     		.short	22528
 11108 0ae8 0040     		.short	16384
 11109 0aea 0078     		.short	30720
 11110 0aec 0000     		.short	0
 11111 0aee 0000     		.short	0
 11112 0af0 0000     		.short	0
 11113 0af2 0000     		.short	0
 11114 0af4 0078     		.short	30720
 11115 0af6 0040     		.short	16384
 11116 0af8 0058     		.short	22528
 11117 0afa 0050     		.short	20480
 11118 0afc 0050     		.short	20480
 11119 0afe 0050     		.short	20480
 11120 0b00 0050     		.short	20480
 11121 0b02 00D8     		.short	-10240
 11122 0b04 0000     		.short	0
 11123 0b06 00F8     		.short	-2048
 11124 0b08 0000     		.short	0
 11125 0b0a 0000     		.short	0
 11126 0b0c 0000     		.short	0
 11127 0b0e 0000     		.short	0
 11128 0b10 00F8     		.short	-2048
 11129 0b12 0000     		.short	0
 11130 0b14 00D8     		.short	-10240
 11131 0b16 0050     		.short	20480
 11132 0b18 0050     		.short	20480
 11133 0b1a 0050     		.short	20480
 11134 0b1c 0050     		.short	20480
 11135 0b1e 0058     		.short	22528
 11136 0b20 0040     		.short	16384
 11137 0b22 0058     		.short	22528
 11138 0b24 0050     		.short	20480
 11139 0b26 0050     		.short	20480
 11140 0b28 0000     		.short	0
 11141 0b2a 0000     		.short	0
 11142 0b2c 00F8     		.short	-2048
 11143 0b2e 0000     		.short	0
 11144 0b30 00F8     		.short	-2048
ARM GAS  C:\Users\arist\AppData\Local\Temp\ccUERo53.s 			page 235


 11145 0b32 0000     		.short	0
 11146 0b34 0000     		.short	0
 11147 0b36 0050     		.short	20480
 11148 0b38 0050     		.short	20480
 11149 0b3a 00D8     		.short	-10240
 11150 0b3c 0000     		.short	0
 11151 0b3e 00D8     		.short	-10240
 11152 0b40 0050     		.short	20480
 11153 0b42 0050     		.short	20480
 11154 0b44 00F8     		.short	-2048
 11155 0b46 0050     		.short	20480
 11156 0b48 0050     		.short	20480
 11157 0b4a 00F8     		.short	-2048
 11158 0b4c 0000     		.short	0
 11159 0b4e 0000     		.short	0
 11160 0b50 0000     		.short	0
 11161 0b52 0050     		.short	20480
 11162 0b54 0020     		.short	8192
 11163 0b56 0070     		.short	28672
 11164 0b58 0088     		.short	-30720
 11165 0b5a 0088     		.short	-30720
 11166 0b5c 0088     		.short	-30720
 11167 0b5e 0070     		.short	28672
 11168 0b60 0070     		.short	28672
 11169 0b62 0048     		.short	18432
 11170 0b64 0048     		.short	18432
 11171 0b66 00E8     		.short	-6144
 11172 0b68 0048     		.short	18432
 11173 0b6a 0048     		.short	18432
 11174 0b6c 0070     		.short	28672
 11175 0b6e 0020     		.short	8192
 11176 0b70 0050     		.short	20480
 11177 0b72 00F8     		.short	-2048
 11178 0b74 0080     		.short	-32768
 11179 0b76 00F0     		.short	-4096
 11180 0b78 0080     		.short	-32768
 11181 0b7a 00F8     		.short	-2048
 11182 0b7c 0050     		.short	20480
 11183 0b7e 0000     		.short	0
 11184 0b80 00F8     		.short	-2048
 11185 0b82 0080     		.short	-32768
 11186 0b84 00F0     		.short	-4096
 11187 0b86 0080     		.short	-32768
 11188 0b88 00F8     		.short	-2048
 11189 0b8a 0040     		.short	16384
 11190 0b8c 0020     		.short	8192
 11191 0b8e 00F8     		.short	-2048
 11192 0b90 0080     		.short	-32768
 11193 0b92 00F0     		.short	-4096
 11194 0b94 0080     		.short	-32768
 11195 0b96 00F8     		.short	-2048
 11196 0b98 0000     		.short	0
 11197 0b9a 0000     		.short	0
 11198 0b9c 0000     		.short	0
 11199 0b9e 0060     		.short	24576
 11200 0ba0 0020     		.short	8192
 11201 0ba2 0020     		.short	8192
ARM GAS  C:\Users\arist\AppData\Local\Temp\ccUERo53.s 			page 236


 11202 0ba4 0070     		.short	28672
 11203 0ba6 0010     		.short	4096
 11204 0ba8 0020     		.short	8192
 11205 0baa 00F8     		.short	-2048
 11206 0bac 0020     		.short	8192
 11207 0bae 0020     		.short	8192
 11208 0bb0 0020     		.short	8192
 11209 0bb2 00F8     		.short	-2048
 11210 0bb4 0020     		.short	8192
 11211 0bb6 0050     		.short	20480
 11212 0bb8 00F8     		.short	-2048
 11213 0bba 0020     		.short	8192
 11214 0bbc 0020     		.short	8192
 11215 0bbe 0020     		.short	8192
 11216 0bc0 00F8     		.short	-2048
 11217 0bc2 0050     		.short	20480
 11218 0bc4 0000     		.short	0
 11219 0bc6 00F8     		.short	-2048
 11220 0bc8 0020     		.short	8192
 11221 0bca 0020     		.short	8192
 11222 0bcc 0020     		.short	8192
 11223 0bce 00F8     		.short	-2048
 11224 0bd0 0020     		.short	8192
 11225 0bd2 0020     		.short	8192
 11226 0bd4 0020     		.short	8192
 11227 0bd6 00E0     		.short	-8192
 11228 0bd8 0000     		.short	0
 11229 0bda 0000     		.short	0
 11230 0bdc 0000     		.short	0
 11231 0bde 0000     		.short	0
 11232 0be0 0000     		.short	0
 11233 0be2 0000     		.short	0
 11234 0be4 0038     		.short	14336
 11235 0be6 0020     		.short	8192
 11236 0be8 0020     		.short	8192
 11237 0bea 0020     		.short	8192
 11238 0bec 00F8     		.short	-2048
 11239 0bee 00F8     		.short	-2048
 11240 0bf0 00F8     		.short	-2048
 11241 0bf2 00F8     		.short	-2048
 11242 0bf4 00F8     		.short	-2048
 11243 0bf6 00F8     		.short	-2048
 11244 0bf8 00F8     		.short	-2048
 11245 0bfa 0000     		.short	0
 11246 0bfc 0000     		.short	0
 11247 0bfe 0000     		.short	0
 11248 0c00 0000     		.short	0
 11249 0c02 00F8     		.short	-2048
 11250 0c04 00F8     		.short	-2048
 11251 0c06 00F8     		.short	-2048
 11252 0c08 0000     		.short	0
 11253 0c0a 0020     		.short	8192
 11254 0c0c 0020     		.short	8192
 11255 0c0e 0000     		.short	0
 11256 0c10 0020     		.short	8192
 11257 0c12 0020     		.short	8192
 11258 0c14 0000     		.short	0
ARM GAS  C:\Users\arist\AppData\Local\Temp\ccUERo53.s 			page 237


 11259 0c16 0000     		.short	0
 11260 0c18 0000     		.short	0
 11261 0c1a 00F8     		.short	-2048
 11262 0c1c 00F8     		.short	-2048
 11263 0c1e 00F8     		.short	-2048
 11264 0c20 0000     		.short	0
 11265 0c22 0000     		.short	0
 11266 0c24 00F8     		.short	-2048
 11267 0c26 00F8     		.short	-2048
 11268 0c28 00F8     		.short	-2048
 11269 0c2a 00F8     		.short	-2048
 11270 0c2c 0000     		.short	0
 11271 0c2e 0000     		.short	0
 11272 0c30 0000     		.short	0
 11273 0c32 0010     		.short	4096
 11274 0c34 0020     		.short	8192
 11275 0c36 0078     		.short	30720
 11276 0c38 0088     		.short	-30720
 11277 0c3a 0088     		.short	-30720
 11278 0c3c 0088     		.short	-30720
 11279 0c3e 0070     		.short	28672
 11280 0c40 00E0     		.short	-8192
 11281 0c42 0090     		.short	-28672
 11282 0c44 00E0     		.short	-8192
 11283 0c46 0090     		.short	-28672
 11284 0c48 0088     		.short	-30720
 11285 0c4a 0088     		.short	-30720
 11286 0c4c 00F0     		.short	-4096
 11287 0c4e 0020     		.short	8192
 11288 0c50 0050     		.short	20480
 11289 0c52 0078     		.short	30720
 11290 0c54 0088     		.short	-30720
 11291 0c56 0088     		.short	-30720
 11292 0c58 0088     		.short	-30720
 11293 0c5a 0070     		.short	28672
 11294 0c5c 0040     		.short	16384
 11295 0c5e 0020     		.short	8192
 11296 0c60 0078     		.short	30720
 11297 0c62 0088     		.short	-30720
 11298 0c64 0088     		.short	-30720
 11299 0c66 0088     		.short	-30720
 11300 0c68 0070     		.short	28672
 11301 0c6a 0028     		.short	10240
 11302 0c6c 0050     		.short	20480
 11303 0c6e 0078     		.short	30720
 11304 0c70 0088     		.short	-30720
 11305 0c72 0088     		.short	-30720
 11306 0c74 0088     		.short	-30720
 11307 0c76 0070     		.short	28672
 11308 0c78 0028     		.short	10240
 11309 0c7a 0050     		.short	20480
 11310 0c7c 0078     		.short	30720
 11311 0c7e 0088     		.short	-30720
 11312 0c80 0088     		.short	-30720
 11313 0c82 0088     		.short	-30720
 11314 0c84 0070     		.short	28672
 11315 0c86 0000     		.short	0
ARM GAS  C:\Users\arist\AppData\Local\Temp\ccUERo53.s 			page 238


 11316 0c88 0000     		.short	0
 11317 0c8a 0088     		.short	-30720
 11318 0c8c 0088     		.short	-30720
 11319 0c8e 00C8     		.short	-14336
 11320 0c90 00B0     		.short	-20480
 11321 0c92 0080     		.short	-32768
 11322 0c94 00C0     		.short	-16384
 11323 0c96 0050     		.short	20480
 11324 0c98 0068     		.short	26624
 11325 0c9a 0068     		.short	26624
 11326 0c9c 0050     		.short	20480
 11327 0c9e 0040     		.short	16384
 11328 0ca0 00E0     		.short	-8192
 11329 0ca2 00E0     		.short	-8192
 11330 0ca4 0040     		.short	16384
 11331 0ca6 0070     		.short	28672
 11332 0ca8 0048     		.short	18432
 11333 0caa 0070     		.short	28672
 11334 0cac 0040     		.short	16384
 11335 0cae 00E0     		.short	-8192
 11336 0cb0 0010     		.short	4096
 11337 0cb2 00A8     		.short	-22528
 11338 0cb4 0088     		.short	-30720
 11339 0cb6 0088     		.short	-30720
 11340 0cb8 0088     		.short	-30720
 11341 0cba 0088     		.short	-30720
 11342 0cbc 0070     		.short	28672
 11343 0cbe 0020     		.short	8192
 11344 0cc0 0050     		.short	20480
 11345 0cc2 0088     		.short	-30720
 11346 0cc4 0088     		.short	-30720
 11347 0cc6 0088     		.short	-30720
 11348 0cc8 0088     		.short	-30720
 11349 0cca 0070     		.short	28672
 11350 0ccc 0040     		.short	16384
 11351 0cce 00A8     		.short	-22528
 11352 0cd0 0088     		.short	-30720
 11353 0cd2 0088     		.short	-30720
 11354 0cd4 0088     		.short	-30720
 11355 0cd6 0088     		.short	-30720
 11356 0cd8 0070     		.short	28672
 11357 0cda 0010     		.short	4096
 11358 0cdc 0020     		.short	8192
 11359 0cde 0088     		.short	-30720
 11360 0ce0 0050     		.short	20480
 11361 0ce2 0020     		.short	8192
 11362 0ce4 0020     		.short	8192
 11363 0ce6 00C0     		.short	-16384
 11364 0ce8 0010     		.short	4096
 11365 0cea 0020     		.short	8192
 11366 0cec 0088     		.short	-30720
 11367 0cee 0050     		.short	20480
 11368 0cf0 0020     		.short	8192
 11369 0cf2 0020     		.short	8192
 11370 0cf4 0070     		.short	28672
 11371 0cf6 00F8     		.short	-2048
 11372 0cf8 0000     		.short	0
ARM GAS  C:\Users\arist\AppData\Local\Temp\ccUERo53.s 			page 239


 11373 0cfa 0000     		.short	0
 11374 0cfc 0000     		.short	0
 11375 0cfe 0000     		.short	0
 11376 0d00 0000     		.short	0
 11377 0d02 0000     		.short	0
 11378 0d04 0010     		.short	4096
 11379 0d06 0020     		.short	8192
 11380 0d08 0000     		.short	0
 11381 0d0a 0000     		.short	0
 11382 0d0c 0000     		.short	0
 11383 0d0e 0000     		.short	0
 11384 0d10 0008     		.short	2048
 11385 0d12 0000     		.short	0
 11386 0d14 0000     		.short	0
 11387 0d16 0000     		.short	0
 11388 0d18 0070     		.short	28672
 11389 0d1a 0000     		.short	0
 11390 0d1c 0000     		.short	0
 11391 0d1e 0000     		.short	0
 11392 0d20 0020     		.short	8192
 11393 0d22 0020     		.short	8192
 11394 0d24 00F8     		.short	-2048
 11395 0d26 0020     		.short	8192
 11396 0d28 0020     		.short	8192
 11397 0d2a 0000     		.short	0
 11398 0d2c 00F8     		.short	-2048
 11399 0d2e 0000     		.short	0
 11400 0d30 0000     		.short	0
 11401 0d32 0000     		.short	0
 11402 0d34 0000     		.short	0
 11403 0d36 00F8     		.short	-2048
 11404 0d38 0000     		.short	0
 11405 0d3a 00F8     		.short	-2048
 11406 0d3c 0000     		.short	0
 11407 0d3e 0048     		.short	18432
 11408 0d40 00D0     		.short	-12288
 11409 0d42 0020     		.short	8192
 11410 0d44 0058     		.short	22528
 11411 0d46 0098     		.short	-26624
 11412 0d48 0000     		.short	0
 11413 0d4a 0078     		.short	30720
 11414 0d4c 0098     		.short	-26624
 11415 0d4e 0098     		.short	-26624
 11416 0d50 0078     		.short	30720
 11417 0d52 0018     		.short	6144
 11418 0d54 0018     		.short	6144
 11419 0d56 0078     		.short	30720
 11420 0d58 0078     		.short	30720
 11421 0d5a 00A0     		.short	-24576
 11422 0d5c 0090     		.short	-28672
 11423 0d5e 0088     		.short	-30720
 11424 0d60 0048     		.short	18432
 11425 0d62 0028     		.short	10240
 11426 0d64 00F0     		.short	-4096
 11427 0d66 0000     		.short	0
 11428 0d68 0020     		.short	8192
 11429 0d6a 0000     		.short	0
ARM GAS  C:\Users\arist\AppData\Local\Temp\ccUERo53.s 			page 240


 11430 0d6c 00F8     		.short	-2048
 11431 0d6e 0000     		.short	0
 11432 0d70 0020     		.short	8192
 11433 0d72 0000     		.short	0
 11434 0d74 0000     		.short	0
 11435 0d76 0000     		.short	0
 11436 0d78 0000     		.short	0
 11437 0d7a 0000     		.short	0
 11438 0d7c 0030     		.short	12288
 11439 0d7e 0030     		.short	12288
 11440 0d80 0060     		.short	24576
 11441 0d82 0020     		.short	8192
 11442 0d84 0050     		.short	20480
 11443 0d86 0020     		.short	8192
 11444 0d88 0000     		.short	0
 11445 0d8a 0000     		.short	0
 11446 0d8c 0000     		.short	0
 11447 0d8e 0000     		.short	0
 11448 0d90 0050     		.short	20480
 11449 0d92 0000     		.short	0
 11450 0d94 0000     		.short	0
 11451 0d96 0000     		.short	0
 11452 0d98 0000     		.short	0
 11453 0d9a 0000     		.short	0
 11454 0d9c 0000     		.short	0
 11455 0d9e 0000     		.short	0
 11456 0da0 0030     		.short	12288
 11457 0da2 0030     		.short	12288
 11458 0da4 0000     		.short	0
 11459 0da6 0000     		.short	0
 11460 0da8 0000     		.short	0
 11461 0daa 0000     		.short	0
 11462 0dac 0020     		.short	8192
 11463 0dae 0060     		.short	24576
 11464 0db0 0020     		.short	8192
 11465 0db2 0020     		.short	8192
 11466 0db4 0070     		.short	28672
 11467 0db6 0000     		.short	0
 11468 0db8 0000     		.short	0
 11469 0dba 0060     		.short	24576
 11470 0dbc 0010     		.short	4096
 11471 0dbe 0020     		.short	8192
 11472 0dc0 0010     		.short	4096
 11473 0dc2 0030     		.short	12288
 11474 0dc4 0000     		.short	0
 11475 0dc6 0000     		.short	0
 11476 0dc8 0060     		.short	24576
 11477 0dca 0010     		.short	4096
 11478 0dcc 0030     		.short	12288
 11479 0dce 0040     		.short	16384
 11480 0dd0 0070     		.short	28672
 11481 0dd2 0000     		.short	0
 11482 0dd4 0000     		.short	0
 11483 0dd6 00F8     		.short	-2048
 11484 0dd8 00F8     		.short	-2048
 11485 0dda 00F8     		.short	-2048
 11486 0ddc 00F8     		.short	-2048
ARM GAS  C:\Users\arist\AppData\Local\Temp\ccUERo53.s 			page 241


 11487 0dde 0000     		.short	0
 11488 0de0 0000     		.short	0
 11489 0de2 0000     		.short	0
 11490 0de4 00000000 		.space	28
 11490      00000000 
 11490      00000000 
 11490      00000000 
 11490      00000000 
 11491              		.global	font_width
 11492              		.section	.bss.font_width,"aw",%nobits
 11495              	font_width:
 11496 0000 00       		.space	1
 11497              		.global	font_height
 11498              		.section	.bss.font_height,"aw",%nobits
 11501              	font_height:
 11502 0000 00       		.space	1
 11503              		.text
 11504              	.Letext0:
 11505              		.file 2 "c:\\users\\arist\\appdata\\roaming\\code\\user\\globalstorage\\bmd.stm32-for-vscode\\@xpa
 11506              		.file 3 "c:\\users\\arist\\appdata\\roaming\\code\\user\\globalstorage\\bmd.stm32-for-vscode\\@xpa
 11507              		.file 4 "c:\\users\\arist\\appdata\\roaming\\code\\user\\globalstorage\\bmd.stm32-for-vscode\\@xpa
 11508              		.file 5 "Core/Inc/GEVA.h"
 11509              		.file 6 "Core/Inc/GEVA_font.h"
 11510              		.file 7 "c:\\users\\arist\\appdata\\roaming\\code\\user\\globalstorage\\bmd.stm32-for-vscode\\@xpa
 11511              		.file 8 "c:\\users\\arist\\appdata\\roaming\\code\\user\\globalstorage\\bmd.stm32-for-vscode\\@xpa
ARM GAS  C:\Users\arist\AppData\Local\Temp\ccUERo53.s 			page 242


DEFINED SYMBOLS
                            *ABS*:00000000 GEVA.c
C:\Users\arist\AppData\Local\Temp\ccUERo53.s:19     .text.set_mode:00000000 $t
C:\Users\arist\AppData\Local\Temp\ccUERo53.s:25     .text.set_mode:00000000 set_mode
C:\Users\arist\AppData\Local\Temp\ccUERo53.s:80     .text.set_orientation:00000000 $t
C:\Users\arist\AppData\Local\Temp\ccUERo53.s:86     .text.set_orientation:00000000 set_orientation
C:\Users\arist\AppData\Local\Temp\ccUERo53.s:248    .text.clr_buffer:00000000 $t
C:\Users\arist\AppData\Local\Temp\ccUERo53.s:254    .text.clr_buffer:00000000 clr_buffer
C:\Users\arist\AppData\Local\Temp\ccUERo53.s:308    .text.byte_col_cnt:00000000 $t
C:\Users\arist\AppData\Local\Temp\ccUERo53.s:314    .text.byte_col_cnt:00000000 byte_col_cnt
C:\Users\arist\AppData\Local\Temp\ccUERo53.s:345    .text.buffer_byte_cnt:00000000 $t
C:\Users\arist\AppData\Local\Temp\ccUERo53.s:351    .text.buffer_byte_cnt:00000000 buffer_byte_cnt
C:\Users\arist\AppData\Local\Temp\ccUERo53.s:374    .text.init_buf:00000000 $t
C:\Users\arist\AppData\Local\Temp\ccUERo53.s:380    .text.init_buf:00000000 init_buf
C:\Users\arist\AppData\Local\Temp\ccUERo53.s:465    .text.get_buffer_index:00000000 $t
C:\Users\arist\AppData\Local\Temp\ccUERo53.s:471    .text.get_buffer_index:00000000 get_buffer_index
C:\Users\arist\AppData\Local\Temp\ccUERo53.s:496    .text.put_vbc:00000000 $t
C:\Users\arist\AppData\Local\Temp\ccUERo53.s:502    .text.put_vbc:00000000 put_vbc
C:\Users\arist\AppData\Local\Temp\ccUERo53.s:767    .text.normalize_pos:00000000 $t
C:\Users\arist\AppData\Local\Temp\ccUERo53.s:773    .text.normalize_pos:00000000 normalize_pos
C:\Users\arist\AppData\Local\Temp\ccUERo53.s:839    .text.put_pixel:00000000 $t
C:\Users\arist\AppData\Local\Temp\ccUERo53.s:845    .text.put_pixel:00000000 put_pixel
C:\Users\arist\AppData\Local\Temp\ccUERo53.s:1004   .text.put_circle:00000000 $t
C:\Users\arist\AppData\Local\Temp\ccUERo53.s:1010   .text.put_circle:00000000 put_circle
C:\Users\arist\AppData\Local\Temp\ccUERo53.s:1172   .text.reverse_byte:00000000 $t
C:\Users\arist\AppData\Local\Temp\ccUERo53.s:1178   .text.reverse_byte:00000000 reverse_byte
C:\Users\arist\AppData\Local\Temp\ccUERo53.s:1251   .text.reverse_byte:00000040 $d
C:\Users\arist\AppData\Local\Temp\ccUERo53.s:1261   .text.rotate_char:00000000 $t
C:\Users\arist\AppData\Local\Temp\ccUERo53.s:1267   .text.rotate_char:00000000 rotate_char
C:\Users\arist\AppData\Local\Temp\ccUERo53.s:1549   .text.rotate_char:000000ec $d
C:\Users\arist\AppData\Local\Temp\ccUERo53.s:11501  .bss.font_height:00000000 font_height
C:\Users\arist\AppData\Local\Temp\ccUERo53.s:11495  .bss.font_width:00000000 font_width
C:\Users\arist\AppData\Local\Temp\ccUERo53.s:1555   .text.put_char:00000000 $t
C:\Users\arist\AppData\Local\Temp\ccUERo53.s:1561   .text.put_char:00000000 put_char
C:\Users\arist\AppData\Local\Temp\ccUERo53.s:2012   .text.put_char:000001b0 $d
C:\Users\arist\AppData\Local\Temp\ccUERo53.s:9711   .data.font_s:00000000 font_s
C:\Users\arist\AppData\Local\Temp\ccUERo53.s:6910   .data.font_m:00000000 font_m
C:\Users\arist\AppData\Local\Temp\ccUERo53.s:2021   .text.put_string:00000000 $t
C:\Users\arist\AppData\Local\Temp\ccUERo53.s:2027   .text.put_string:00000000 put_string
C:\Users\arist\AppData\Local\Temp\ccUERo53.s:2162   .text.put_string:00000078 $d
C:\Users\arist\AppData\Local\Temp\ccUERo53.s:2168   .text.modulo:00000000 $t
C:\Users\arist\AppData\Local\Temp\ccUERo53.s:2174   .text.modulo:00000000 modulo
C:\Users\arist\AppData\Local\Temp\ccUERo53.s:2197   .text.clear_sector:00000000 $t
C:\Users\arist\AppData\Local\Temp\ccUERo53.s:2203   .text.clear_sector:00000000 clear_sector
C:\Users\arist\AppData\Local\Temp\ccUERo53.s:2829   .text.calculate_y:00000000 $t
C:\Users\arist\AppData\Local\Temp\ccUERo53.s:2835   .text.calculate_y:00000000 calculate_y
C:\Users\arist\AppData\Local\Temp\ccUERo53.s:2879   .text.put_line:00000000 $t
C:\Users\arist\AppData\Local\Temp\ccUERo53.s:2885   .text.put_line:00000000 put_line
C:\Users\arist\AppData\Local\Temp\ccUERo53.s:3217   .text.put_rect:00000000 $t
C:\Users\arist\AppData\Local\Temp\ccUERo53.s:3223   .text.put_rect:00000000 put_rect
C:\Users\arist\AppData\Local\Temp\ccUERo53.s:3303   .text.put_triangle:00000000 $t
C:\Users\arist\AppData\Local\Temp\ccUERo53.s:3309   .text.put_triangle:00000000 put_triangle
C:\Users\arist\AppData\Local\Temp\ccUERo53.s:3401   .text.put_pos_COL:00000000 $t
C:\Users\arist\AppData\Local\Temp\ccUERo53.s:3407   .text.put_pos_COL:00000000 put_pos_COL
C:\Users\arist\AppData\Local\Temp\ccUERo53.s:3620   .text.put_neg_COL:00000000 $t
C:\Users\arist\AppData\Local\Temp\ccUERo53.s:3626   .text.put_neg_COL:00000000 put_neg_COL
C:\Users\arist\AppData\Local\Temp\ccUERo53.s:3819   .text.update_COL:00000000 $t
ARM GAS  C:\Users\arist\AppData\Local\Temp\ccUERo53.s 			page 243


C:\Users\arist\AppData\Local\Temp\ccUERo53.s:3825   .text.update_COL:00000000 update_COL
C:\Users\arist\AppData\Local\Temp\ccUERo53.s:3864   .text.update_BAR:00000000 $t
C:\Users\arist\AppData\Local\Temp\ccUERo53.s:3870   .text.update_BAR:00000000 update_BAR
C:\Users\arist\AppData\Local\Temp\ccUERo53.s:4085   .text.update_LINE:00000000 $t
C:\Users\arist\AppData\Local\Temp\ccUERo53.s:4091   .text.update_LINE:00000000 update_LINE
C:\Users\arist\AppData\Local\Temp\ccUERo53.s:4411   .text.update_LINE:00000170 $d
C:\Users\arist\AppData\Local\Temp\ccUERo53.s:5118   .bss.dx.7:00000000 dx.7
C:\Users\arist\AppData\Local\Temp\ccUERo53.s:5113   .bss.x_cnt.6:00000000 x_cnt.6
C:\Users\arist\AppData\Local\Temp\ccUERo53.s:5108   .bss.old_data.5:00000000 old_data.5
C:\Users\arist\AppData\Local\Temp\ccUERo53.s:5103   .bss.x.4:00000000 x.4
C:\Users\arist\AppData\Local\Temp\ccUERo53.s:4419   .text.update_SCATTER:00000000 $t
C:\Users\arist\AppData\Local\Temp\ccUERo53.s:4425   .text.update_SCATTER:00000000 update_SCATTER
C:\Users\arist\AppData\Local\Temp\ccUERo53.s:4728   .text.update_SCATTER:00000154 $d
C:\Users\arist\AppData\Local\Temp\ccUERo53.s:5098   .bss.dx.3:00000000 dx.3
C:\Users\arist\AppData\Local\Temp\ccUERo53.s:5093   .bss.x_cnt.2:00000000 x_cnt.2
C:\Users\arist\AppData\Local\Temp\ccUERo53.s:5088   .bss.old_data.1:00000000 old_data.1
C:\Users\arist\AppData\Local\Temp\ccUERo53.s:5083   .bss.x.0:00000000 x.0
C:\Users\arist\AppData\Local\Temp\ccUERo53.s:4736   .text.update_XY:00000000 $t
C:\Users\arist\AppData\Local\Temp\ccUERo53.s:4742   .text.update_XY:00000000 update_XY
C:\Users\arist\AppData\Local\Temp\ccUERo53.s:4973   .text.update_chart:00000000 $t
C:\Users\arist\AppData\Local\Temp\ccUERo53.s:4979   .text.update_chart:00000000 update_chart
C:\Users\arist\AppData\Local\Temp\ccUERo53.s:5012   .rodata.update_chart:00000000 $d
C:\Users\arist\AppData\Local\Temp\ccUERo53.s:5076   .text.update_chart:00000044 $d
C:\Users\arist\AppData\Local\Temp\ccUERo53.s:5084   .bss.x.0:00000000 $d
C:\Users\arist\AppData\Local\Temp\ccUERo53.s:5089   .bss.old_data.1:00000000 $d
C:\Users\arist\AppData\Local\Temp\ccUERo53.s:5094   .bss.x_cnt.2:00000000 $d
C:\Users\arist\AppData\Local\Temp\ccUERo53.s:5099   .bss.dx.3:00000000 $d
C:\Users\arist\AppData\Local\Temp\ccUERo53.s:5104   .bss.x.4:00000000 $d
C:\Users\arist\AppData\Local\Temp\ccUERo53.s:5109   .bss.old_data.5:00000000 $d
C:\Users\arist\AppData\Local\Temp\ccUERo53.s:5114   .bss.x_cnt.6:00000000 $d
C:\Users\arist\AppData\Local\Temp\ccUERo53.s:5119   .bss.dx.7:00000000 $d
C:\Users\arist\AppData\Local\Temp\ccUERo53.s:5125   .data.font_l:00000000 font_l
C:\Users\arist\AppData\Local\Temp\ccUERo53.s:5122   .data.font_l:00000000 $d
C:\Users\arist\AppData\Local\Temp\ccUERo53.s:6907   .data.font_m:00000000 $d
C:\Users\arist\AppData\Local\Temp\ccUERo53.s:9708   .data.font_s:00000000 $d
C:\Users\arist\AppData\Local\Temp\ccUERo53.s:11496  .bss.font_width:00000000 $d
C:\Users\arist\AppData\Local\Temp\ccUERo53.s:11502  .bss.font_height:00000000 $d

UNDEFINED SYMBOLS
memset
malloc
memmove
free
strlen
__aeabi_idiv
__aeabi_fcmpeq
__aeabi_fcmple
__aeabi_i2f
__aeabi_fadd
__aeabi_fcmpge
__aeabi_fcmpgt
__aeabi_fmul
__aeabi_fdiv
__aeabi_f2uiz
__aeabi_fcmplt
__aeabi_f2iz
__aeabi_uidiv
ARM GAS  C:\Users\arist\AppData\Local\Temp\ccUERo53.s 			page 244


