ARM GAS  C:\Users\arist\AppData\Local\Temp\ccSjK9zC.s 			page 1


   1              		.syntax unified
   2              		.cpu cortex-m3
   3              		.fpu softvfp
   4              		.eabi_attribute 20, 1
   5              		.eabi_attribute 21, 1
   6              		.eabi_attribute 23, 3
   7              		.eabi_attribute 24, 1
   8              		.eabi_attribute 25, 1
   9              		.eabi_attribute 26, 1
  10              		.eabi_attribute 30, 1
  11              		.eabi_attribute 34, 1
  12              		.eabi_attribute 18, 4
  13              		.thumb
  14              		.syntax unified
  15              		.file	"GEVA.c"
  16              		.text
  17              	.Ltext0:
  18              		.cfi_sections	.debug_frame
  19              		.section	.text.set_mode,"ax",%progbits
  20              		.align	2
  21              		.global	set_mode
  22              		.thumb
  23              		.thumb_func
  24              		.type	set_mode, %function
  25              	set_mode:
  26              	.LFB1:
  27              		.file 1 "display\\GEVA.c"
   1:display/GEVA.c **** #include "GEVA.h"
   2:display/GEVA.c **** #include "GEVA_font.h"
   3:display/GEVA.c **** #include <string.h>
   4:display/GEVA.c **** 
   5:display/GEVA.c **** /*
   6:display/GEVA.c **** * TO-DO : better error handling
   7:display/GEVA.c **** */
   8:display/GEVA.c **** 
   9:display/GEVA.c **** //internal function
  10:display/GEVA.c **** uint8_t byte_col_cnt(uint8_t size_x);
  11:display/GEVA.c **** uint16_t buffer_byte_cnt(video_buffer* buf);
  12:display/GEVA.c **** uint16_t get_buffer_index(uint8_t pos_x, uint8_t pos_y, uint8_t row_byte_cnt);
  13:display/GEVA.c **** uint8_t* normalize_pos(uint8_t pos_x, uint8_t pos_y, video_buffer* buf);
  14:display/GEVA.c **** uint16_t* rotate_char(uint16_t *chr, video_buffer* buf);
  15:display/GEVA.c **** uint8_t calculate_y(uint8_t x, uint8_t x0, uint8_t x1, uint8_t y0, uint8_t y1);
  16:display/GEVA.c **** uint8_t modulo(int8_t n);
  17:display/GEVA.c **** uint16_t reverse_byte(uint16_t b);
  18:display/GEVA.c **** 
  19:display/GEVA.c **** uint8_t update_LINE(data_container* c, video_buffer* buf);
  20:display/GEVA.c **** uint8_t update_COL(data_container* c, video_buffer* buf);
  21:display/GEVA.c **** uint8_t update_BAR(data_container* c, video_buffer* buf);
  22:display/GEVA.c **** uint8_t update_SCATTER(data_container* c, video_buffer* buf);
  23:display/GEVA.c **** uint8_t update_XY(data_container* c, video_buffer* buf);
  24:display/GEVA.c **** 
  25:display/GEVA.c **** /*Initialize buffer memory
  26:display/GEVA.c **** * return error code
  27:display/GEVA.c **** * error code list:
  28:display/GEVA.c **** * 1 error allocating memory
  29:display/GEVA.c **** */
  30:display/GEVA.c **** uint8_t init_buf(video_buffer *buf, uint8_t size_x, uint8_t size_y) {
ARM GAS  C:\Users\arist\AppData\Local\Temp\ccSjK9zC.s 			page 2


  31:display/GEVA.c ****     uint8_t error = 0;
  32:display/GEVA.c ****     buf->size_x = size_x;
  33:display/GEVA.c ****     buf->size_y = size_y;
  34:display/GEVA.c ****     buf->byte_col_cnt = byte_col_cnt(size_x);
  35:display/GEVA.c ****     buf->byte_buffer_cnt = buffer_byte_cnt(buf);
  36:display/GEVA.c ****     buf->vid_buf = (uint8_t *)malloc(buf->byte_buffer_cnt);
  37:display/GEVA.c ****     
  38:display/GEVA.c ****     /*initialize default pointer values*/
  39:display/GEVA.c ****     buf->origin[0] = 0;
  40:display/GEVA.c ****     buf->origin[1] = 0;
  41:display/GEVA.c ****     buf->r_matrix[0] = 0;
  42:display/GEVA.c ****     buf->r_matrix[1] = 0;
  43:display/GEVA.c ****     buf->r_matrix[2] = 0;
  44:display/GEVA.c ****     buf->r_matrix[3] = 0;
  45:display/GEVA.c **** 
  46:display/GEVA.c ****     clr_buffer(buf);
  47:display/GEVA.c ****     set_mode(NORMAL, buf);
  48:display/GEVA.c ****     set_orientation(LANDSCAPE, buf);
  49:display/GEVA.c ****     return error;
  50:display/GEVA.c **** }
  51:display/GEVA.c **** 
  52:display/GEVA.c **** /* Set buffer mode between NORMAL and INVERTED and adjust buffer accordingly*/
  53:display/GEVA.c **** void set_mode(enum mode mode, video_buffer *buf) {
  28              		.loc 1 53 0
  29              		.cfi_startproc
  30              		@ args = 0, pretend = 0, frame = 0
  31              		@ frame_needed = 0, uses_anonymous_args = 0
  32              		@ link register save eliminated.
  33              	.LVL0:
  54:display/GEVA.c ****     
  55:display/GEVA.c ****     buf->mode = mode;
  34              		.loc 1 55 0
  35 0000 0873     		strb	r0, [r1, #12]
  56:display/GEVA.c **** 
  57:display/GEVA.c ****     if (mode) {
  36              		.loc 1 57 0
  37 0002 38B9     		cbnz	r0, .L5
  38              	.LBB2:
  39 0004 7047     		bx	lr
  40              	.LVL1:
  41              	.L4:
  58:display/GEVA.c ****         for (uint16_t i = 0; i < buf->byte_buffer_cnt; i++) {
  59:display/GEVA.c ****             buf->vid_buf[i] = ~buf->vid_buf[i];
  42              		.loc 1 59 0 discriminator 3
  43 0006 4868     		ldr	r0, [r1, #4]
  44 0008 C25C     		ldrb	r2, [r0, r3]	@ zero_extendqisi2
  45 000a D243     		mvns	r2, r2
  46 000c C254     		strb	r2, [r0, r3]
  58:display/GEVA.c ****         for (uint16_t i = 0; i < buf->byte_buffer_cnt; i++) {
  47              		.loc 1 58 0 discriminator 3
  48 000e 0133     		adds	r3, r3, #1
  49              	.LVL2:
  50 0010 9BB2     		uxth	r3, r3
  51              	.LVL3:
  52 0012 00E0     		b	.L2
  53              	.LVL4:
  54              	.L5:
ARM GAS  C:\Users\arist\AppData\Local\Temp\ccSjK9zC.s 			page 3


  55              	.LBE2:
  56 0014 0023     		movs	r3, #0
  57              	.LVL5:
  58              	.L2:
  59              	.LBB3:
  58:display/GEVA.c ****         for (uint16_t i = 0; i < buf->byte_buffer_cnt; i++) {
  60              		.loc 1 58 0 is_stmt 0 discriminator 1
  61 0016 4A89     		ldrh	r2, [r1, #10]
  62 0018 9342     		cmp	r3, r2
  63 001a F4D3     		bcc	.L4
  64 001c 7047     		bx	lr
  65              	.LBE3:
  66              		.cfi_endproc
  67              	.LFE1:
  68              		.size	set_mode, .-set_mode
  69 001e 00BF     		.section	.text.set_orientation,"ax",%progbits
  70              		.align	2
  71              		.global	set_orientation
  72              		.thumb
  73              		.thumb_func
  74              		.type	set_orientation, %function
  75              	set_orientation:
  76              	.LFB2:
  60:display/GEVA.c ****         }
  61:display/GEVA.c ****     }
  62:display/GEVA.c **** }
  63:display/GEVA.c **** 
  64:display/GEVA.c **** /* Adjust rotation matrix according to orientation */
  65:display/GEVA.c **** void set_orientation(enum orientation o, video_buffer* buf) {
  77              		.loc 1 65 0 is_stmt 1
  78              		.cfi_startproc
  79              		@ args = 0, pretend = 0, frame = 0
  80              		@ frame_needed = 0, uses_anonymous_args = 0
  81              		@ link register save eliminated.
  82              	.LVL6:
  66:display/GEVA.c ****     
  67:display/GEVA.c ****     buf->orient = o;
  83              		.loc 1 67 0
  84 0000 4873     		strb	r0, [r1, #13]
  68:display/GEVA.c ****     switch (o) {
  85              		.loc 1 68 0
  86 0002 0328     		cmp	r0, #3
  87 0004 31D8     		bhi	.L7
  88 0006 DFE800F0 		tbb	[pc, r0]
  89              	.L9:
  90 000a 02       		.byte	(.L8-.L9)/2
  91 000b 17       		.byte	(.L10-.L9)/2
  92 000c 0B       		.byte	(.L11-.L9)/2
  93 000d 24       		.byte	(.L12-.L9)/2
  94              		.p2align 1
  95              	.L8:
  69:display/GEVA.c **** 
  70:display/GEVA.c ****     case LANDSCAPE:
  71:display/GEVA.c ****         buf->origin[X] = 0;
  96              		.loc 1 71 0
  97 000e 0023     		movs	r3, #0
  98 0010 8B73     		strb	r3, [r1, #14]
ARM GAS  C:\Users\arist\AppData\Local\Temp\ccSjK9zC.s 			page 4


  72:display/GEVA.c ****         buf->origin[Y] = 0;
  99              		.loc 1 72 0
 100 0012 CB73     		strb	r3, [r1, #15]
  73:display/GEVA.c ****         buf->r_matrix[_A] = 1;
 101              		.loc 1 73 0
 102 0014 0122     		movs	r2, #1
 103 0016 0A74     		strb	r2, [r1, #16]
  74:display/GEVA.c ****         buf->r_matrix[_B] = 0;
 104              		.loc 1 74 0
 105 0018 4B74     		strb	r3, [r1, #17]
  75:display/GEVA.c ****         buf->r_matrix[_C] = 0;
 106              		.loc 1 75 0
 107 001a 8B74     		strb	r3, [r1, #18]
  76:display/GEVA.c ****         buf->r_matrix[_D] = 1;
 108              		.loc 1 76 0
 109 001c CA74     		strb	r2, [r1, #19]
  77:display/GEVA.c **** 
  78:display/GEVA.c ****         break;
 110              		.loc 1 78 0
 111 001e 7047     		bx	lr
 112              	.L11:
  79:display/GEVA.c ****     case PORTRAIT:
  80:display/GEVA.c ****         buf->origin[X] = buf->size_x-1;
 113              		.loc 1 80 0
 114 0020 0B78     		ldrb	r3, [r1]	@ zero_extendqisi2
 115 0022 013B     		subs	r3, r3, #1
 116 0024 8B73     		strb	r3, [r1, #14]
  81:display/GEVA.c ****         buf->origin[Y] = 0;
 117              		.loc 1 81 0
 118 0026 0023     		movs	r3, #0
 119 0028 CB73     		strb	r3, [r1, #15]
  82:display/GEVA.c ****         buf->r_matrix[_A] = 0;
 120              		.loc 1 82 0
 121 002a 0B74     		strb	r3, [r1, #16]
  83:display/GEVA.c ****         buf->r_matrix[_B] = -1;
 122              		.loc 1 83 0
 123 002c FF22     		movs	r2, #255
 124 002e 4A74     		strb	r2, [r1, #17]
  84:display/GEVA.c ****         buf->r_matrix[_C] = 1;
 125              		.loc 1 84 0
 126 0030 0122     		movs	r2, #1
 127 0032 8A74     		strb	r2, [r1, #18]
  85:display/GEVA.c ****         buf->r_matrix[_D] = 0;
 128              		.loc 1 85 0
 129 0034 CB74     		strb	r3, [r1, #19]
  86:display/GEVA.c ****         break;
 130              		.loc 1 86 0
 131 0036 7047     		bx	lr
 132              	.L10:
  87:display/GEVA.c ****     case LANDSCAPE_INVERTED:
  88:display/GEVA.c ****         buf->origin[X] = buf->size_x-1;
 133              		.loc 1 88 0
 134 0038 0B78     		ldrb	r3, [r1]	@ zero_extendqisi2
 135 003a 013B     		subs	r3, r3, #1
 136 003c 8B73     		strb	r3, [r1, #14]
  89:display/GEVA.c ****         buf->origin[Y] = buf->size_y-1;
 137              		.loc 1 89 0
ARM GAS  C:\Users\arist\AppData\Local\Temp\ccSjK9zC.s 			page 5


 138 003e 4B78     		ldrb	r3, [r1, #1]	@ zero_extendqisi2
 139 0040 013B     		subs	r3, r3, #1
 140 0042 CB73     		strb	r3, [r1, #15]
  90:display/GEVA.c ****         buf->r_matrix[_A] = -1;
 141              		.loc 1 90 0
 142 0044 FF23     		movs	r3, #255
 143 0046 0B74     		strb	r3, [r1, #16]
  91:display/GEVA.c ****         buf->r_matrix[_B] = 0;
 144              		.loc 1 91 0
 145 0048 0022     		movs	r2, #0
 146 004a 4A74     		strb	r2, [r1, #17]
  92:display/GEVA.c ****         buf->r_matrix[_C] = 0;
 147              		.loc 1 92 0
 148 004c 8A74     		strb	r2, [r1, #18]
  93:display/GEVA.c ****         buf->r_matrix[_D] = -1;
 149              		.loc 1 93 0
 150 004e CB74     		strb	r3, [r1, #19]
  94:display/GEVA.c ****         break;
 151              		.loc 1 94 0
 152 0050 7047     		bx	lr
 153              	.L12:
  95:display/GEVA.c ****     case PORTRAIT_INVERTED:
  96:display/GEVA.c ****         buf->origin[X] = 0;
 154              		.loc 1 96 0
 155 0052 0023     		movs	r3, #0
 156 0054 8B73     		strb	r3, [r1, #14]
  97:display/GEVA.c ****         buf->origin[Y] = buf->size_y-1;
 157              		.loc 1 97 0
 158 0056 4A78     		ldrb	r2, [r1, #1]	@ zero_extendqisi2
 159 0058 013A     		subs	r2, r2, #1
 160 005a CA73     		strb	r2, [r1, #15]
  98:display/GEVA.c ****         buf->r_matrix[_A] = 0;
 161              		.loc 1 98 0
 162 005c 0B74     		strb	r3, [r1, #16]
  99:display/GEVA.c ****         buf->r_matrix[_B] = 1;
 163              		.loc 1 99 0
 164 005e 0122     		movs	r2, #1
 165 0060 4A74     		strb	r2, [r1, #17]
 100:display/GEVA.c ****         buf->r_matrix[_C] = -1;
 166              		.loc 1 100 0
 167 0062 FF22     		movs	r2, #255
 168 0064 8A74     		strb	r2, [r1, #18]
 101:display/GEVA.c ****         buf->r_matrix[_D] = 0;
 169              		.loc 1 101 0
 170 0066 CB74     		strb	r3, [r1, #19]
 102:display/GEVA.c ****         break;
 171              		.loc 1 102 0
 172 0068 7047     		bx	lr
 173              	.L7:
 103:display/GEVA.c ****     default:
 104:display/GEVA.c ****         buf->origin[X] = 0;
 174              		.loc 1 104 0
 175 006a 0023     		movs	r3, #0
 176 006c 8B73     		strb	r3, [r1, #14]
 105:display/GEVA.c ****         buf->origin[Y] = 0;
 177              		.loc 1 105 0
 178 006e CB73     		strb	r3, [r1, #15]
ARM GAS  C:\Users\arist\AppData\Local\Temp\ccSjK9zC.s 			page 6


 106:display/GEVA.c ****         buf->r_matrix[_A] = 1;
 179              		.loc 1 106 0
 180 0070 0122     		movs	r2, #1
 181 0072 0A74     		strb	r2, [r1, #16]
 107:display/GEVA.c ****         buf->r_matrix[_B] = 0;
 182              		.loc 1 107 0
 183 0074 4B74     		strb	r3, [r1, #17]
 108:display/GEVA.c ****         buf->r_matrix[_C] = 0;
 184              		.loc 1 108 0
 185 0076 8B74     		strb	r3, [r1, #18]
 109:display/GEVA.c ****         buf->r_matrix[_D] = 1;
 186              		.loc 1 109 0
 187 0078 CA74     		strb	r2, [r1, #19]
 188 007a 7047     		bx	lr
 189              		.cfi_endproc
 190              	.LFE2:
 191              		.size	set_orientation, .-set_orientation
 192              		.section	.text.clr_buffer,"ax",%progbits
 193              		.align	2
 194              		.global	clr_buffer
 195              		.thumb
 196              		.thumb_func
 197              		.type	clr_buffer, %function
 198              	clr_buffer:
 199              	.LFB3:
 110:display/GEVA.c ****         break;
 111:display/GEVA.c ****     }
 112:display/GEVA.c **** }
 113:display/GEVA.c **** 
 114:display/GEVA.c **** /* ===========================================GRAPHIC FUNCTIONS====================================
 115:display/GEVA.c **** 
 116:display/GEVA.c **** /*Reset buffer to default value according to MODE*/
 117:display/GEVA.c **** 
 118:display/GEVA.c **** uint8_t clr_buffer(video_buffer* buf) {
 200              		.loc 1 118 0
 201              		.cfi_startproc
 202              		@ args = 0, pretend = 0, frame = 0
 203              		@ frame_needed = 0, uses_anonymous_args = 0
 204              	.LVL7:
 205 0000 10B5     		push	{r4, lr}
 206              		.cfi_def_cfa_offset 8
 207              		.cfi_offset 4, -8
 208              		.cfi_offset 14, -4
 119:display/GEVA.c ****     
 120:display/GEVA.c ****     uint8_t def = (buf->mode == NORMAL) ? 0x00 : 0xff;
 209              		.loc 1 120 0
 210 0002 037B     		ldrb	r3, [r0, #12]	@ zero_extendqisi2
 211 0004 0BB9     		cbnz	r3, .L17
 212 0006 0021     		movs	r1, #0
 213 0008 00E0     		b	.L15
 214              	.L17:
 215 000a FF21     		movs	r1, #255
 216              	.L15:
 217              	.LVL8:
 121:display/GEVA.c ****     uint8_t error = 1;
 122:display/GEVA.c ****     if (buf->vid_buf != NULL) {
 218              		.loc 1 122 0 discriminator 4
ARM GAS  C:\Users\arist\AppData\Local\Temp\ccSjK9zC.s 			page 7


 219 000c 4468     		ldr	r4, [r0, #4]
 220 000e 2CB1     		cbz	r4, .L18
 123:display/GEVA.c ****         memset(buf->vid_buf, def, buf->byte_buffer_cnt);
 221              		.loc 1 123 0
 222 0010 4289     		ldrh	r2, [r0, #10]
 223 0012 2046     		mov	r0, r4
 224              	.LVL9:
 225 0014 FFF7FEFF 		bl	memset
 226              	.LVL10:
 124:display/GEVA.c ****         error = 0;
 227              		.loc 1 124 0
 228 0018 0020     		movs	r0, #0
 229 001a 10BD     		pop	{r4, pc}
 230              	.LVL11:
 231              	.L18:
 121:display/GEVA.c ****     uint8_t error = 1;
 232              		.loc 1 121 0
 233 001c 0120     		movs	r0, #1
 234              	.LVL12:
 125:display/GEVA.c ****     }
 126:display/GEVA.c ****     return error;
 127:display/GEVA.c **** }
 235              		.loc 1 127 0
 236 001e 10BD     		pop	{r4, pc}
 237              		.cfi_endproc
 238              	.LFE3:
 239              		.size	clr_buffer, .-clr_buffer
 240              		.section	.text.byte_col_cnt,"ax",%progbits
 241              		.align	2
 242              		.global	byte_col_cnt
 243              		.thumb
 244              		.thumb_func
 245              		.type	byte_col_cnt, %function
 246              	byte_col_cnt:
 247              	.LFB14:
 128:display/GEVA.c **** 
 129:display/GEVA.c **** /* Draw pixel black or white in a specific location on the screen
 130:display/GEVA.c ****  * return error code
 131:display/GEVA.c ****  * error code list:
 132:display/GEVA.c ****  * 4 point out of scope
 133:display/GEVA.c ****  */
 134:display/GEVA.c **** uint8_t put_pixel(uint8_t pos_x, uint8_t pos_y, enum color color, video_buffer* buf) {
 135:display/GEVA.c **** 
 136:display/GEVA.c ****     uint8_t error = 0;
 137:display/GEVA.c ****     uint8_t *n_pos = normalize_pos(pos_x, pos_y, buf);
 138:display/GEVA.c **** 
 139:display/GEVA.c ****     if ((n_pos[Y] < 0) || (n_pos[Y] > buf->size_y - 1) || (n_pos[X] < 0) || (n_pos[X] > buf->size_x
 140:display/GEVA.c ****         error = 4;
 141:display/GEVA.c ****     else {
 142:display/GEVA.c ****         if (buf->mode & color)
 143:display/GEVA.c ****             color = CLEAR;
 144:display/GEVA.c ****         else if (buf->mode & ~color)
 145:display/GEVA.c ****             color = SET;
 146:display/GEVA.c **** 
 147:display/GEVA.c ****         if (color)
 148:display/GEVA.c ****             buf->vid_buf[get_buffer_index(n_pos[X], (buf->size_y - n_pos[Y] - 1), buf->byte_col_cnt
 149:display/GEVA.c ****         else
ARM GAS  C:\Users\arist\AppData\Local\Temp\ccSjK9zC.s 			page 8


 150:display/GEVA.c ****             buf->vid_buf[get_buffer_index(n_pos[X], (buf->size_y - n_pos[Y] - 1), buf->byte_col_cnt
 151:display/GEVA.c ****     }
 152:display/GEVA.c ****     free(n_pos);
 153:display/GEVA.c ****     return error;
 154:display/GEVA.c **** }
 155:display/GEVA.c **** 
 156:display/GEVA.c **** 
 157:display/GEVA.c **** /* Draw line between to points
 158:display/GEVA.c ****  * return error code
 159:display/GEVA.c ****  * error code list:
 160:display/GEVA.c ****  * 4 point out of scope
 161:display/GEVA.c **** */
 162:display/GEVA.c **** uint8_t put_line(uint8_t pos_x1, uint8_t pos_y1, uint8_t pos_x2, uint8_t pos_y2, video_buffer* buf)
 163:display/GEVA.c **** 
 164:display/GEVA.c ****     uint8_t error = 0;
 165:display/GEVA.c ****     uint8_t firstx = 0;
 166:display/GEVA.c ****     uint8_t lastx = 0;
 167:display/GEVA.c ****     uint8_t firsty = 0;
 168:display/GEVA.c ****     uint8_t lasty = 0;
 169:display/GEVA.c **** 
 170:display/GEVA.c ****     if (pos_x1 == pos_x2) { //vertical line
 171:display/GEVA.c **** 
 172:display/GEVA.c ****         uint8_t line_lenght = 0;
 173:display/GEVA.c **** 
 174:display/GEVA.c ****         if (pos_y1 > pos_y2) {
 175:display/GEVA.c ****             line_lenght = (pos_y1 - pos_y2) + 1;
 176:display/GEVA.c ****             firsty = pos_y2;
 177:display/GEVA.c ****         }
 178:display/GEVA.c ****         else {
 179:display/GEVA.c ****             line_lenght = (pos_y2 - pos_y1) + 1;
 180:display/GEVA.c ****             firsty = pos_y1;
 181:display/GEVA.c ****         }
 182:display/GEVA.c ****         for (uint8_t i = 0; i < line_lenght; i++) {
 183:display/GEVA.c ****             error = put_pixel(pos_x1, firsty + i, SET, buf);
 184:display/GEVA.c ****         }
 185:display/GEVA.c ****     }
 186:display/GEVA.c ****     else {
 187:display/GEVA.c ****         if (pos_x1 > pos_x2) {
 188:display/GEVA.c ****             firstx = pos_x2;
 189:display/GEVA.c ****             lastx = pos_x1;
 190:display/GEVA.c ****             firsty = pos_y2;
 191:display/GEVA.c ****             lasty = pos_y1;
 192:display/GEVA.c ****         }
 193:display/GEVA.c ****         else {
 194:display/GEVA.c ****             firstx = pos_x1;
 195:display/GEVA.c ****             lastx = pos_x2;
 196:display/GEVA.c ****             firsty = pos_y1;
 197:display/GEVA.c ****             lasty = pos_y2;
 198:display/GEVA.c ****         }
 199:display/GEVA.c **** 
 200:display/GEVA.c ****         int8_t slope_addendum = (firsty > lasty) ? -1 : 1;
 201:display/GEVA.c **** 
 202:display/GEVA.c ****         uint8_t y = firsty;
 203:display/GEVA.c ****         uint8_t nexty = 0;
 204:display/GEVA.c ****         int8_t y_todrw = 0;
 205:display/GEVA.c ****         uint8_t fill_y = 0;
 206:display/GEVA.c **** 
ARM GAS  C:\Users\arist\AppData\Local\Temp\ccSjK9zC.s 			page 9


 207:display/GEVA.c ****         for (uint8_t x = firstx; x < lastx + 1; x++) {
 208:display/GEVA.c **** 
 209:display/GEVA.c ****             y = calculate_y(x, firstx, lastx, firsty, lasty);
 210:display/GEVA.c ****             nexty = calculate_y(x + 1, firstx, lastx, firsty, lasty);
 211:display/GEVA.c ****             fill_y = 0;
 212:display/GEVA.c **** 
 213:display/GEVA.c ****             do { 
 214:display/GEVA.c ****                y_todrw = y + (slope_addendum * fill_y);
 215:display/GEVA.c ****               
 216:display/GEVA.c ****                if (y_todrw < 0)
 217:display/GEVA.c ****                    y_todrw = 0;
 218:display/GEVA.c **** 
 219:display/GEVA.c ****                error = put_pixel(x, y_todrw, SET, buf);
 220:display/GEVA.c ****                fill_y++;
 221:display/GEVA.c **** 
 222:display/GEVA.c ****                if (y_todrw == pos_y2 && pos_y1 != pos_y2)
 223:display/GEVA.c ****                    return error;
 224:display/GEVA.c **** 
 225:display/GEVA.c ****             } while ( fill_y < modulo(y - nexty));
 226:display/GEVA.c ****         }
 227:display/GEVA.c ****     }
 228:display/GEVA.c ****     return error;
 229:display/GEVA.c **** }
 230:display/GEVA.c **** 
 231:display/GEVA.c **** 
 232:display/GEVA.c **** /* Clear part of the display buffer memory
 233:display/GEVA.c ****  * return error code
 234:display/GEVA.c ****  * error code list:
 235:display/GEVA.c ****  * 
 236:display/GEVA.c ****  * 2 dimension mismatch
 237:display/GEVA.c ****  * 
 238:display/GEVA.c ****  * 4 starting point out of scope
 239:display/GEVA.c **** */
 240:display/GEVA.c **** uint8_t clear_sector(uint8_t pos_x, uint8_t pos_y, uint8_t width, uint8_t height, video_buffer* buf
 241:display/GEVA.c **** 
 242:display/GEVA.c ****     uint8_t error = 0;
 243:display/GEVA.c ****     uint8_t startx_ptr = 0; // pos_x;
 244:display/GEVA.c ****     uint8_t starty_ptr = 0; // pos_y;
 245:display/GEVA.c ****     uint8_t endx_ptr = 0;   //pos_x + width;
 246:display/GEVA.c ****     uint8_t endy_ptr = 0;   // pos_y + height;
 247:display/GEVA.c ****     uint8_t n_width = 0;    //normalized width
 248:display/GEVA.c ****     uint8_t* n_pos_ptr = normalize_pos(pos_x, pos_y, buf);
 249:display/GEVA.c ****     
 250:display/GEVA.c ****     switch (buf->orient) {
 251:display/GEVA.c **** 
 252:display/GEVA.c ****     case LANDSCAPE:
 253:display/GEVA.c ****         n_width = width;
 254:display/GEVA.c ****         startx_ptr = n_pos_ptr[X];
 255:display/GEVA.c ****         starty_ptr = n_pos_ptr[Y];
 256:display/GEVA.c ****         endx_ptr = startx_ptr + width;
 257:display/GEVA.c ****         endy_ptr = starty_ptr + height;
 258:display/GEVA.c ****         break;
 259:display/GEVA.c **** 
 260:display/GEVA.c ****     case LANDSCAPE_INVERTED:
 261:display/GEVA.c ****         n_width = width;
 262:display/GEVA.c ****         startx_ptr = n_pos_ptr[X] - width + 1;
 263:display/GEVA.c ****         starty_ptr = n_pos_ptr[Y] - height + 1;
ARM GAS  C:\Users\arist\AppData\Local\Temp\ccSjK9zC.s 			page 10


 264:display/GEVA.c ****         endx_ptr = n_pos_ptr[X] + 1;
 265:display/GEVA.c ****         endy_ptr = n_pos_ptr[Y] + 1;
 266:display/GEVA.c ****         break;
 267:display/GEVA.c **** 
 268:display/GEVA.c ****     case PORTRAIT:
 269:display/GEVA.c ****         n_width = height;
 270:display/GEVA.c ****         startx_ptr = n_pos_ptr[X] - height + 1;
 271:display/GEVA.c ****         starty_ptr = n_pos_ptr[Y];
 272:display/GEVA.c ****         endx_ptr = n_pos_ptr[X] + 1;
 273:display/GEVA.c ****         endy_ptr = starty_ptr + width;
 274:display/GEVA.c ****         break;
 275:display/GEVA.c **** 
 276:display/GEVA.c ****     case PORTRAIT_INVERTED:
 277:display/GEVA.c ****         startx_ptr = n_pos_ptr[X];
 278:display/GEVA.c ****         starty_ptr = n_pos_ptr[Y] - width + 1;
 279:display/GEVA.c ****         endx_ptr = startx_ptr + height;
 280:display/GEVA.c ****         endy_ptr = n_pos_ptr[Y] + 1;
 281:display/GEVA.c ****         break;
 282:display/GEVA.c **** 
 283:display/GEVA.c ****     default:
 284:display/GEVA.c ****         break;
 285:display/GEVA.c ****     }
 286:display/GEVA.c **** 
 287:display/GEVA.c ****     if (pos_x >= buf->size_x || pos_x < 0 || pos_y >= buf->size_y || pos_y < 0)
 288:display/GEVA.c ****         return 4;
 289:display/GEVA.c **** 
 290:display/GEVA.c ****     if (pos_y + height > buf->size_y || pos_x + width > buf->size_x)
 291:display/GEVA.c ****         error = 2;
 292:display/GEVA.c **** 
 293:display/GEVA.c ****     else {
 294:display/GEVA.c **** 
 295:display/GEVA.c ****         uint16_t start_byte_ptr = get_buffer_index(startx_ptr, buf->size_y - 1 - starty_ptr, buf->b
 296:display/GEVA.c ****         uint16_t buffer_byte_ptr = start_byte_ptr;
 297:display/GEVA.c ****         int16_t initial_shift = modulo(endx_ptr - startx_ptr);
 298:display/GEVA.c ****         int16_t to_shift = initial_shift;
 299:display/GEVA.c **** 
 300:display/GEVA.c ****         for (uint8_t row_clrd = 0; row_clrd < modulo(endy_ptr - starty_ptr); row_clrd++)
 301:display/GEVA.c ****         {
 302:display/GEVA.c ****             buffer_byte_ptr = start_byte_ptr - (buf->byte_col_cnt * row_clrd);
 303:display/GEVA.c ****             to_shift = initial_shift;
 304:display/GEVA.c **** 
 305:display/GEVA.c ****             if ( (startx_ptr % 8) + n_width > 7) {  // when multiple bytes are needed
 306:display/GEVA.c ****                 to_shift -= (8 - (startx_ptr % 8));
 307:display/GEVA.c ****                 
 308:display/GEVA.c ****                 if(buf->mode == NORMAL)
 309:display/GEVA.c ****                     buf->vid_buf[buffer_byte_ptr] &= 0xff << (8 - (startx_ptr % 8));
 310:display/GEVA.c ****                 else 
 311:display/GEVA.c ****                     buf->vid_buf[buffer_byte_ptr] |= 0xff >> (startx_ptr % 8);
 312:display/GEVA.c ****                 
 313:display/GEVA.c ****                 buffer_byte_ptr++;
 314:display/GEVA.c ****                 
 315:display/GEVA.c ****                 while (to_shift > 8) {
 316:display/GEVA.c ****                     if(buf->mode == NORMAL)
 317:display/GEVA.c ****                         buf->vid_buf[buffer_byte_ptr] = 0x00;
 318:display/GEVA.c ****                     else 
 319:display/GEVA.c ****                         buf->vid_buf[buffer_byte_ptr] = 0xff;
 320:display/GEVA.c ****                         
ARM GAS  C:\Users\arist\AppData\Local\Temp\ccSjK9zC.s 			page 11


 321:display/GEVA.c ****                     buffer_byte_ptr++;
 322:display/GEVA.c ****                     to_shift -= 8;
 323:display/GEVA.c ****                 }
 324:display/GEVA.c **** 
 325:display/GEVA.c ****                 if(buf->mode == NORMAL)
 326:display/GEVA.c ****                     buf->vid_buf[buffer_byte_ptr] &= 0xff >> to_shift;
 327:display/GEVA.c ****                 else 
 328:display/GEVA.c ****                     buf->vid_buf[buffer_byte_ptr] |= 0xff << (8 - (endx_ptr % 8));
 329:display/GEVA.c ****             }
 330:display/GEVA.c ****             else { // can do clear operation on a single byte because of sector dimensions
 331:display/GEVA.c ****                 if(buf->mode == NORMAL)
 332:display/GEVA.c ****                     buf->vid_buf[buffer_byte_ptr] &= ~((0xff >> startx_ptr % 8) & (0xff << (8 - (en
 333:display/GEVA.c ****                 else 
 334:display/GEVA.c ****                     buf->vid_buf[buffer_byte_ptr] |= (0xff >> startx_ptr % 8) & (0xff << (8 - (endx
 335:display/GEVA.c ****             }
 336:display/GEVA.c ****         }
 337:display/GEVA.c ****     }
 338:display/GEVA.c ****     free(n_pos_ptr);
 339:display/GEVA.c ****     return error;
 340:display/GEVA.c **** }
 341:display/GEVA.c **** 
 342:display/GEVA.c **** /*put character on screen
 343:display/GEVA.c ****  * return error code
 344:display/GEVA.c ****  * error code list:
 345:display/GEVA.c ****  * 
 346:display/GEVA.c ****  * 2 dimension mismatch
 347:display/GEVA.c ****  * 
 348:display/GEVA.c ****  * 4 starting point out of scope
 349:display/GEVA.c ****  * note: each letter needs a square of 7x7 pixels clear on the display (because of rotation) befor 
 350:display/GEVA.c **** */
 351:display/GEVA.c **** uint8_t put_char(uint8_t pos_x, uint8_t pos_y, uint8_t chr, enum fonts_size ff, video_buffer* buf) 
 352:display/GEVA.c ****     
 353:display/GEVA.c ****     uint8_t error = 0;
 354:display/GEVA.c ****     uint8_t* n_pos; 
 355:display/GEVA.c ****     uint16_t* c;
 356:display/GEVA.c ****     
 357:display/GEVA.c ****     switch(ff){ //font selection
 358:display/GEVA.c ****         case SMALL:
 359:display/GEVA.c ****             font_height = C_HEIGHT_S;
 360:display/GEVA.c ****             font_width = C_WIDTH_S;
 361:display/GEVA.c ****             c = font_s[chr];
 362:display/GEVA.c ****         break;
 363:display/GEVA.c ****         case MEDIUM:
 364:display/GEVA.c ****             font_height = C_HEIGHT_M;
 365:display/GEVA.c ****             font_width = C_WIDTH_M;
 366:display/GEVA.c ****             c = font_m[chr];
 367:display/GEVA.c ****         break; 
 368:display/GEVA.c ****         
 369:display/GEVA.c ****         case LARGE:
 370:display/GEVA.c ****         break; 
 371:display/GEVA.c **** 
 372:display/GEVA.c ****         default:
 373:display/GEVA.c ****             font_height = C_HEIGHT_S;
 374:display/GEVA.c ****             font_width = C_WIDTH_S;
 375:display/GEVA.c ****             c = font_s[chr];
 376:display/GEVA.c ****         break;
 377:display/GEVA.c ****     }
ARM GAS  C:\Users\arist\AppData\Local\Temp\ccSjK9zC.s 			page 12


 378:display/GEVA.c **** 
 379:display/GEVA.c ****     switch (buf->orient) {
 380:display/GEVA.c ****         case LANDSCAPE:
 381:display/GEVA.c ****             n_pos = normalize_pos(pos_x, pos_y, buf); 
 382:display/GEVA.c ****            break;
 383:display/GEVA.c **** 
 384:display/GEVA.c ****         case LANDSCAPE_INVERTED:
 385:display/GEVA.c ****             n_pos = normalize_pos(pos_x + font_width - 1, pos_y + font_height - 1, buf);
 386:display/GEVA.c ****                break;
 387:display/GEVA.c **** 
 388:display/GEVA.c ****         case PORTRAIT:
 389:display/GEVA.c ****             n_pos = normalize_pos(pos_x, pos_y + font_height, buf);
 390:display/GEVA.c ****             break;
 391:display/GEVA.c **** 
 392:display/GEVA.c ****         case PORTRAIT_INVERTED:
 393:display/GEVA.c ****             n_pos = normalize_pos(pos_x + font_height - 1, pos_y, buf);
 394:display/GEVA.c ****             break;
 395:display/GEVA.c **** 
 396:display/GEVA.c ****         default:
 397:display/GEVA.c ****             n_pos = normalize_pos(pos_x, pos_y, buf);
 398:display/GEVA.c ****             break;
 399:display/GEVA.c ****         }
 400:display/GEVA.c **** 
 401:display/GEVA.c ****     if (n_pos[X] >= buf->size_x || n_pos[X] < 0 || n_pos[Y] >= buf->size_y || n_pos[Y] < 0)
 402:display/GEVA.c ****         error = 4;
 403:display/GEVA.c ****     else if (n_pos[Y] + font_height > buf->size_y || n_pos[X] + font_width > buf->size_x)
 404:display/GEVA.c ****         error = 2;
 405:display/GEVA.c ****     else {
 406:display/GEVA.c ****         c = rotate_char(c, buf);
 407:display/GEVA.c ****             
 408:display/GEVA.c ****         uint16_t start_byte_ptr = get_buffer_index(n_pos[X], buf->size_y - 1 - n_pos[Y], buf->byte_
 409:display/GEVA.c ****         uint16_t buffer_byte_ptr = start_byte_ptr;
 410:display/GEVA.c ****         uint16_t temp = 0;
 411:display/GEVA.c ****         uint8_t shifter_a = n_pos[X] % 8;
 412:display/GEVA.c ****     
 413:display/GEVA.c ****         for (uint8_t i = 0; i < font_height; i++) {
 414:display/GEVA.c ****             buffer_byte_ptr = start_byte_ptr - (buf->byte_col_cnt * i);
 415:display/GEVA.c ****             temp = c[font_height - 1 - i] >> shifter_a;
 416:display/GEVA.c ****             buf->vid_buf[buffer_byte_ptr] |= (uint8_t)(temp >> 8);
 417:display/GEVA.c ****             buf->vid_buf[buffer_byte_ptr + 1] |= (uint8_t)temp; 
 418:display/GEVA.c ****             
 419:display/GEVA.c ****             if (shifter_a != 0){
 420:display/GEVA.c ****                     temp = c[font_height - i - 1];
 421:display/GEVA.c ****                     buf->vid_buf[buffer_byte_ptr + 2] |= (uint8_t)temp << (8 - shifter_a);
 422:display/GEVA.c ****                 }
 423:display/GEVA.c ****         }
 424:display/GEVA.c ****     } 
 425:display/GEVA.c ****     
 426:display/GEVA.c ****     free(n_pos);
 427:display/GEVA.c ****     return error;
 428:display/GEVA.c **** }
 429:display/GEVA.c **** 
 430:display/GEVA.c **** /*put character string on screen
 431:display/GEVA.c ****  * return error code
 432:display/GEVA.c ****  * error code list:
 433:display/GEVA.c ****  * 1 empty string
 434:display/GEVA.c ****  * 2 dimension mismatch
ARM GAS  C:\Users\arist\AppData\Local\Temp\ccSjK9zC.s 			page 13


 435:display/GEVA.c ****  *
 436:display/GEVA.c ****  * 4 starting point out of scope
 437:display/GEVA.c **** */
 438:display/GEVA.c **** uint8_t put_string(uint8_t pos_x, uint8_t pos_y, uint8_t* chr, enum fonts_size ff, video_buffer* bu
 439:display/GEVA.c ****     
 440:display/GEVA.c ****     uint8_t error = 1;
 441:display/GEVA.c ****     uint8_t i = 0;
 442:display/GEVA.c ****     uint8_t y_offset = pos_y;
 443:display/GEVA.c ****     uint8_t x_offset = pos_x;    
 444:display/GEVA.c **** 
 445:display/GEVA.c ****     if (chr != NULL) {
 446:display/GEVA.c ****         
 447:display/GEVA.c ****         while(i < strlen(chr)) {
 448:display/GEVA.c **** 
 449:display/GEVA.c ****             if (chr[i] == '\r')
 450:display/GEVA.c ****                 x_offset = pos_x;
 451:display/GEVA.c ****             else if (chr[i] == '\n')
 452:display/GEVA.c ****                 y_offset = y_offset - 1 - font_height;
 453:display/GEVA.c ****             else {
 454:display/GEVA.c ****                 error = put_char(x_offset, y_offset, chr[i], ff, buf);
 455:display/GEVA.c ****                 if (error != 0)
 456:display/GEVA.c ****                     break;
 457:display/GEVA.c ****                 x_offset += font_width + 1;
 458:display/GEVA.c ****             
 459:display/GEVA.c ****             }
 460:display/GEVA.c ****             i++;
 461:display/GEVA.c ****         }
 462:display/GEVA.c ****     }
 463:display/GEVA.c ****     return error;
 464:display/GEVA.c **** }
 465:display/GEVA.c **** 
 466:display/GEVA.c **** /* Load vbc file smaller than display size to buffer memory
 467:display/GEVA.c ****  * return error code
 468:display/GEVA.c ****  * error code list:
 469:display/GEVA.c ****  * 1 wrong file type
 470:display/GEVA.c ****  * 2 dimension mismatch
 471:display/GEVA.c ****  * 3 body bytes count mismatch
 472:display/GEVA.c ****  * 4 starting point out of scope
 473:display/GEVA.c ****  * note: starting position (x,y)  referenced to LANDSCAPE and rappresents lower left corner of the 
 474:display/GEVA.c **** */
 475:display/GEVA.c **** uint8_t put_vbc(vbc_file file, uint8_t x, uint8_t y, video_buffer* buf) {
 476:display/GEVA.c ****     uint8_t error = 0;
 477:display/GEVA.c ****     uint16_t vbc_body_byte = (((uint16_t)file.header.byte_cnt_h) << 8 | file.header.byte_cnt_l) - 5
 478:display/GEVA.c **** 
 479:display/GEVA.c ****     if (x > buf->size_x || x < 0 || y > buf->size_y || y < 0)
 480:display/GEVA.c ****         return 4;
 481:display/GEVA.c **** 
 482:display/GEVA.c ****     if (file.header.id != 0xA7)
 483:display/GEVA.c ****         error = 1;
 484:display/GEVA.c ****     else if (y + file.header.height > buf->size_y || x + file.header.width > buf->size_x)
 485:display/GEVA.c ****         error = 2;
 486:display/GEVA.c ****     else if (vbc_body_byte > buf->byte_buffer_cnt - get_buffer_index(x, y, buf->byte_col_cnt))
 487:display/GEVA.c ****         error = 3;
 488:display/GEVA.c ****     else if (vbc_body_byte == buf->byte_buffer_cnt) {
 489:display/GEVA.c ****         buf->vid_buf = file.body;
 490:display/GEVA.c ****     }
 491:display/GEVA.c ****     else {
ARM GAS  C:\Users\arist\AppData\Local\Temp\ccSjK9zC.s 			page 14


 492:display/GEVA.c ****         uint8_t byte_width = (file.header.width % 8 == 0) ? file.header.width / 8 : file.header.wid
 493:display/GEVA.c ****         uint16_t start_byte_ptr = get_buffer_index(x, buf->size_y - 1 - y, buf->byte_col_cnt);
 494:display/GEVA.c ****         uint16_t buffer_byte_ptr = start_byte_ptr;
 495:display/GEVA.c **** 
 496:display/GEVA.c ****         for (uint8_t row = 0; row < file.header.height - 1; row++) {
 497:display/GEVA.c ****             buffer_byte_ptr = start_byte_ptr - (buf->byte_col_cnt * row);
 498:display/GEVA.c ****             memmove(&buf->vid_buf[buffer_byte_ptr], &file.body[((file.header.height - 1) * byte_wid
 499:display/GEVA.c ****         }
 500:display/GEVA.c ****     }
 501:display/GEVA.c ****     return error;
 502:display/GEVA.c **** }
 503:display/GEVA.c **** 
 504:display/GEVA.c **** 
 505:display/GEVA.c **** /* ================================================SHAPES==========================================
 506:display/GEVA.c **** 
 507:display/GEVA.c **** /* Draw circle at specific location on the screen with specified radius
 508:display/GEVA.c ****  * return error code
 509:display/GEVA.c ****  * error code list:
 510:display/GEVA.c ****  * 4 point out of scope
 511:display/GEVA.c **** */
 512:display/GEVA.c **** uint8_t put_circle(uint8_t o_x, uint8_t o_y, uint8_t r, video_buffer* buf) {
 513:display/GEVA.c **** 
 514:display/GEVA.c ****     uint8_t error = 0;
 515:display/GEVA.c ****     uint16_t s = 0;
 516:display/GEVA.c ****     uint16_t rsqr = r * r;
 517:display/GEVA.c ****     
 518:display/GEVA.c ****     for (int16_t y = -r; y <= r; y++) {
 519:display/GEVA.c ****         for (int16_t x = -r; x <= r; x++) {
 520:display/GEVA.c ****             s = x * x + y * y;
 521:display/GEVA.c ****             if (s >= rsqr - r && s <= rsqr + r) {
 522:display/GEVA.c ****                 error = put_pixel(o_x + x, o_y + y, SET, buf);
 523:display/GEVA.c ****                // if (error)
 524:display/GEVA.c ****                 //    return error;
 525:display/GEVA.c ****             }
 526:display/GEVA.c ****         }
 527:display/GEVA.c ****     }
 528:display/GEVA.c ****     return error;
 529:display/GEVA.c **** }
 530:display/GEVA.c **** 
 531:display/GEVA.c **** /* Draw rectangular shape at specific location on the screen with specified height and width
 532:display/GEVA.c ****  * return error code
 533:display/GEVA.c ****  * error code list:
 534:display/GEVA.c ****  * 4 point out of scope
 535:display/GEVA.c ****  * note: the starting point of the shape is in the lower left corner
 536:display/GEVA.c **** */
 537:display/GEVA.c **** uint8_t put_rect(uint8_t o_x,uint8_t o_y, uint8_t width, uint8_t height, video_buffer* buf){
 538:display/GEVA.c ****     uint8_t error = 0;
 539:display/GEVA.c ****     error = put_line(o_x, o_y, o_x + width, o_y, buf);
 540:display/GEVA.c ****     error = put_line(o_x + width, o_y, o_x + width, o_y + height, buf);
 541:display/GEVA.c ****     error = put_line(o_x, o_y + height, o_x + width, o_y + height, buf);
 542:display/GEVA.c ****     error = put_line(o_x, o_y, o_x, o_y + height, buf);
 543:display/GEVA.c ****     return error;
 544:display/GEVA.c **** }
 545:display/GEVA.c **** 
 546:display/GEVA.c **** /* Draw triangle shape with specified vertices
 547:display/GEVA.c ****  * return error code
 548:display/GEVA.c ****  * error code list:
ARM GAS  C:\Users\arist\AppData\Local\Temp\ccSjK9zC.s 			page 15


 549:display/GEVA.c ****  * 4 point out of scope
 550:display/GEVA.c **** */
 551:display/GEVA.c **** uint8_t put_triangle(uint8_t a_x, uint8_t a_y, uint8_t b_x, uint8_t b_y, uint8_t c_x, uint8_t c_y, 
 552:display/GEVA.c ****     uint8_t error = 0;
 553:display/GEVA.c ****     error = put_line(a_x, a_y, b_x, b_y, buf);
 554:display/GEVA.c ****     error = put_line(a_x, a_y, c_x, c_y, buf);
 555:display/GEVA.c ****     error = put_line(b_x, b_y, c_x, c_y, buf);
 556:display/GEVA.c ****     return error;
 557:display/GEVA.c **** }
 558:display/GEVA.c **** 
 559:display/GEVA.c **** /* ========================================DATA VISUALIZATION======================================
 560:display/GEVA.c **** 
 561:display/GEVA.c **** uint8_t update_chart(float new_data, data_container* c, video_buffer* buf){
 562:display/GEVA.c ****     uint8_t error = 0;
 563:display/GEVA.c ****     c->data = new_data;
 564:display/GEVA.c **** 
 565:display/GEVA.c ****     switch (c->type) {
 566:display/GEVA.c ****     case COL:
 567:display/GEVA.c ****         error = update_COL(c,buf);
 568:display/GEVA.c ****         break;
 569:display/GEVA.c ****     case XY: //when calling update_XY new data is ignored: changing of data_container.xy_entry stru
 570:display/GEVA.c ****         error = update_XY(c, buf);
 571:display/GEVA.c ****         break;
 572:display/GEVA.c ****     case BAR:
 573:display/GEVA.c ****         error = update_BAR(c, buf);
 574:display/GEVA.c ****         break;
 575:display/GEVA.c ****     case LINE:
 576:display/GEVA.c ****         error = update_LINE(c,buf);
 577:display/GEVA.c ****         break;
 578:display/GEVA.c ****     case SCATTER:
 579:display/GEVA.c ****         error = update_SCATTER(c, buf);
 580:display/GEVA.c ****         break;
 581:display/GEVA.c ****     default:
 582:display/GEVA.c ****         break;
 583:display/GEVA.c **** 
 584:display/GEVA.c ****     }
 585:display/GEVA.c ****     return error;
 586:display/GEVA.c **** }
 587:display/GEVA.c **** 
 588:display/GEVA.c **** /* ===========================================INTERNAL FUNCTIONS===================================
 589:display/GEVA.c **** 
 590:display/GEVA.c **** /* Calculate the number of columns in number of bytes needed for the video buffer*/
 591:display/GEVA.c **** uint8_t byte_col_cnt(uint8_t size_x) {
 248              		.loc 1 591 0
 249              		.cfi_startproc
 250              		@ args = 0, pretend = 0, frame = 0
 251              		@ frame_needed = 0, uses_anonymous_args = 0
 252              		@ link register save eliminated.
 253              	.LVL13:
 592:display/GEVA.c **** 
 593:display/GEVA.c ****     uint8_t col_n = (size_x / 8);
 254              		.loc 1 593 0
 255 0000 C308     		lsrs	r3, r0, #3
 256              	.LVL14:
 594:display/GEVA.c **** 
 595:display/GEVA.c ****     if (size_x % 8)
 257              		.loc 1 595 0
ARM GAS  C:\Users\arist\AppData\Local\Temp\ccSjK9zC.s 			page 16


 258 0002 10F0070F 		tst	r0, #7
 259 0006 00D0     		beq	.L21
 596:display/GEVA.c ****         col_n++;
 260              		.loc 1 596 0
 261 0008 0133     		adds	r3, r3, #1
 262              	.LVL15:
 263              	.L21:
 597:display/GEVA.c **** 
 598:display/GEVA.c ****     return col_n;
 599:display/GEVA.c **** }
 264              		.loc 1 599 0
 265 000a 1846     		mov	r0, r3
 266              	.LVL16:
 267 000c 7047     		bx	lr
 268              		.cfi_endproc
 269              	.LFE14:
 270              		.size	byte_col_cnt, .-byte_col_cnt
 271 000e 00BF     		.section	.text.buffer_byte_cnt,"ax",%progbits
 272              		.align	2
 273              		.global	buffer_byte_cnt
 274              		.thumb
 275              		.thumb_func
 276              		.type	buffer_byte_cnt, %function
 277              	buffer_byte_cnt:
 278              	.LFB15:
 600:display/GEVA.c **** 
 601:display/GEVA.c **** /* Calculate the total number of bytes needed for the video buffer*/
 602:display/GEVA.c **** uint16_t buffer_byte_cnt(video_buffer* buf) {
 279              		.loc 1 602 0
 280              		.cfi_startproc
 281              		@ args = 0, pretend = 0, frame = 0
 282              		@ frame_needed = 0, uses_anonymous_args = 0
 283              		@ link register save eliminated.
 284              	.LVL17:
 603:display/GEVA.c ****     
 604:display/GEVA.c ****     return buf->size_y * buf->byte_col_cnt;
 285              		.loc 1 604 0
 286 0000 4278     		ldrb	r2, [r0, #1]	@ zero_extendqisi2
 287 0002 007A     		ldrb	r0, [r0, #8]	@ zero_extendqisi2
 288              	.LVL18:
 605:display/GEVA.c **** }
 289              		.loc 1 605 0
 290 0004 02FB00F0 		mul	r0, r2, r0
 291 0008 7047     		bx	lr
 292              		.cfi_endproc
 293              	.LFE15:
 294              		.size	buffer_byte_cnt, .-buffer_byte_cnt
 295              		.section	.text.init_buf,"ax",%progbits
 296              		.align	2
 297              		.global	init_buf
 298              		.thumb
 299              		.thumb_func
 300              		.type	init_buf, %function
 301              	init_buf:
 302              	.LFB0:
  30:display/GEVA.c ****     uint8_t error = 0;
 303              		.loc 1 30 0
ARM GAS  C:\Users\arist\AppData\Local\Temp\ccSjK9zC.s 			page 17


 304              		.cfi_startproc
 305              		@ args = 0, pretend = 0, frame = 0
 306              		@ frame_needed = 0, uses_anonymous_args = 0
 307              	.LVL19:
 308 0000 38B5     		push	{r3, r4, r5, lr}
 309              		.cfi_def_cfa_offset 16
 310              		.cfi_offset 3, -16
 311              		.cfi_offset 4, -12
 312              		.cfi_offset 5, -8
 313              		.cfi_offset 14, -4
 314 0002 0446     		mov	r4, r0
 315              	.LVL20:
  32:display/GEVA.c ****     buf->size_y = size_y;
 316              		.loc 1 32 0
 317 0004 0170     		strb	r1, [r0]
  33:display/GEVA.c ****     buf->byte_col_cnt = byte_col_cnt(size_x);
 318              		.loc 1 33 0
 319 0006 4270     		strb	r2, [r0, #1]
  34:display/GEVA.c ****     buf->byte_buffer_cnt = buffer_byte_cnt(buf);
 320              		.loc 1 34 0
 321 0008 0846     		mov	r0, r1
 322              	.LVL21:
 323 000a FFF7FEFF 		bl	byte_col_cnt
 324              	.LVL22:
 325 000e 2072     		strb	r0, [r4, #8]
  35:display/GEVA.c ****     buf->vid_buf = (uint8_t *)malloc(buf->byte_buffer_cnt);
 326              		.loc 1 35 0
 327 0010 2046     		mov	r0, r4
 328 0012 FFF7FEFF 		bl	buffer_byte_cnt
 329              	.LVL23:
 330 0016 6081     		strh	r0, [r4, #10]	@ movhi
  36:display/GEVA.c ****     
 331              		.loc 1 36 0
 332 0018 FFF7FEFF 		bl	malloc
 333              	.LVL24:
 334 001c 6060     		str	r0, [r4, #4]
  39:display/GEVA.c ****     buf->origin[1] = 0;
 335              		.loc 1 39 0
 336 001e 0025     		movs	r5, #0
 337 0020 A573     		strb	r5, [r4, #14]
  40:display/GEVA.c ****     buf->r_matrix[0] = 0;
 338              		.loc 1 40 0
 339 0022 E573     		strb	r5, [r4, #15]
  41:display/GEVA.c ****     buf->r_matrix[1] = 0;
 340              		.loc 1 41 0
 341 0024 2574     		strb	r5, [r4, #16]
  42:display/GEVA.c ****     buf->r_matrix[2] = 0;
 342              		.loc 1 42 0
 343 0026 6574     		strb	r5, [r4, #17]
  43:display/GEVA.c ****     buf->r_matrix[3] = 0;
 344              		.loc 1 43 0
 345 0028 A574     		strb	r5, [r4, #18]
  44:display/GEVA.c **** 
 346              		.loc 1 44 0
 347 002a E574     		strb	r5, [r4, #19]
  46:display/GEVA.c ****     set_mode(NORMAL, buf);
 348              		.loc 1 46 0
ARM GAS  C:\Users\arist\AppData\Local\Temp\ccSjK9zC.s 			page 18


 349 002c 2046     		mov	r0, r4
 350 002e FFF7FEFF 		bl	clr_buffer
 351              	.LVL25:
  47:display/GEVA.c ****     set_orientation(LANDSCAPE, buf);
 352              		.loc 1 47 0
 353 0032 2146     		mov	r1, r4
 354 0034 2846     		mov	r0, r5
 355 0036 FFF7FEFF 		bl	set_mode
 356              	.LVL26:
  48:display/GEVA.c ****     return error;
 357              		.loc 1 48 0
 358 003a 2146     		mov	r1, r4
 359 003c 2846     		mov	r0, r5
 360 003e FFF7FEFF 		bl	set_orientation
 361              	.LVL27:
  50:display/GEVA.c **** 
 362              		.loc 1 50 0
 363 0042 2846     		mov	r0, r5
 364 0044 38BD     		pop	{r3, r4, r5, pc}
 365              		.cfi_endproc
 366              	.LFE0:
 367              		.size	init_buf, .-init_buf
 368 0046 00BF     		.section	.text.get_buffer_index,"ax",%progbits
 369              		.align	2
 370              		.global	get_buffer_index
 371              		.thumb
 372              		.thumb_func
 373              		.type	get_buffer_index, %function
 374              	get_buffer_index:
 375              	.LFB16:
 606:display/GEVA.c **** 
 607:display/GEVA.c **** /* Set the video buffer index to address for  x & y position in the video matrix  
 608:display/GEVA.c ****  * Sanity check before calling
 609:display/GEVA.c **** */
 610:display/GEVA.c **** uint16_t get_buffer_index(uint8_t pos_x, uint8_t pos_y, uint8_t col_byte_cnt){
 376              		.loc 1 610 0
 377              		.cfi_startproc
 378              		@ args = 0, pretend = 0, frame = 0
 379              		@ frame_needed = 0, uses_anonymous_args = 0
 380              		@ link register save eliminated.
 381              	.LVL28:
 611:display/GEVA.c **** 
 612:display/GEVA.c ****     return (col_byte_cnt * pos_y) + (uint8_t)(pos_x / 8);
 382              		.loc 1 612 0
 383 0000 02FB01F2 		mul	r2, r2, r1
 384              	.LVL29:
 385 0004 02EBD000 		add	r0, r2, r0, lsr #3
 386              	.LVL30:
 613:display/GEVA.c **** 
 614:display/GEVA.c **** }
 387              		.loc 1 614 0
 388 0008 80B2     		uxth	r0, r0
 389 000a 7047     		bx	lr
 390              		.cfi_endproc
 391              	.LFE16:
 392              		.size	get_buffer_index, .-get_buffer_index
 393              		.section	.text.put_vbc,"ax",%progbits
ARM GAS  C:\Users\arist\AppData\Local\Temp\ccSjK9zC.s 			page 19


 394              		.align	2
 395              		.global	put_vbc
 396              		.thumb
 397              		.thumb_func
 398              		.type	put_vbc, %function
 399              	put_vbc:
 400              	.LFB9:
 475:display/GEVA.c ****     uint8_t error = 0;
 401              		.loc 1 475 0
 402              		.cfi_startproc
 403              		@ args = 8, pretend = 0, frame = 16
 404              		@ frame_needed = 0, uses_anonymous_args = 0
 405              	.LVL31:
 406 0000 2DE9F04F 		push	{r4, r5, r6, r7, r8, r9, r10, fp, lr}
 407              		.cfi_def_cfa_offset 36
 408              		.cfi_offset 4, -36
 409              		.cfi_offset 5, -32
 410              		.cfi_offset 6, -28
 411              		.cfi_offset 7, -24
 412              		.cfi_offset 8, -20
 413              		.cfi_offset 9, -16
 414              		.cfi_offset 10, -12
 415              		.cfi_offset 11, -8
 416              		.cfi_offset 14, -4
 417 0004 85B0     		sub	sp, sp, #20
 418              		.cfi_def_cfa_offset 56
 419 0006 04AC     		add	r4, sp, #16
 420 0008 04E90700 		stmdb	r4, {r0, r1, r2}
 421 000c 9DF83860 		ldrb	r6, [sp, #56]	@ zero_extendqisi2
 422 0010 0F9D     		ldr	r5, [sp, #60]
 423              	.LVL32:
 477:display/GEVA.c **** 
 424              		.loc 1 477 0
 425 0012 9DF80740 		ldrb	r4, [sp, #7]	@ zero_extendqisi2
 426 0016 9DF80820 		ldrb	r2, [sp, #8]	@ zero_extendqisi2
 427 001a 42EA0424 		orr	r4, r2, r4, lsl #8
 428              	.LVL33:
 479:display/GEVA.c ****         return 4;
 429              		.loc 1 479 0
 430 001e 2A78     		ldrb	r2, [r5]	@ zero_extendqisi2
 431 0020 9A42     		cmp	r2, r3
 432 0022 51D3     		bcc	.L33
 433 0024 053C     		subs	r4, r4, #5
 434              	.LVL34:
 435 0026 A4B2     		uxth	r4, r4
 436              	.LVL35:
 479:display/GEVA.c ****         return 4;
 437              		.loc 1 479 0 is_stmt 0 discriminator 1
 438 0028 6F78     		ldrb	r7, [r5, #1]	@ zero_extendqisi2
 439 002a B742     		cmp	r7, r6
 440 002c 4ED3     		bcc	.L34
 482:display/GEVA.c ****         error = 1;
 441              		.loc 1 482 0 is_stmt 1
 442 002e 9DF80410 		ldrb	r1, [sp, #4]	@ zero_extendqisi2
 443 0032 A729     		cmp	r1, #167
 444 0034 4CD1     		bne	.L35
 484:display/GEVA.c ****         error = 2;
ARM GAS  C:\Users\arist\AppData\Local\Temp\ccSjK9zC.s 			page 20


 445              		.loc 1 484 0
 446 0036 9DF80680 		ldrb	r8, [sp, #6]	@ zero_extendqisi2
 447 003a 06EB0801 		add	r1, r6, r8
 448 003e B942     		cmp	r1, r7
 449 0040 48DC     		bgt	.L36
 484:display/GEVA.c ****         error = 2;
 450              		.loc 1 484 0 is_stmt 0 discriminator 1
 451 0042 9DF80590 		ldrb	r9, [sp, #5]	@ zero_extendqisi2
 452 0046 03EB0901 		add	r1, r3, r9
 453 004a 9142     		cmp	r1, r2
 454 004c 44DC     		bgt	.L37
 455 004e 0093     		str	r3, [sp]
 486:display/GEVA.c ****         error = 3;
 456              		.loc 1 486 0 is_stmt 1
 457 0050 B5F80AB0 		ldrh	fp, [r5, #10]
 458 0054 95F808A0 		ldrb	r10, [r5, #8]	@ zero_extendqisi2
 459 0058 5246     		mov	r2, r10
 460 005a 3146     		mov	r1, r6
 461 005c 1846     		mov	r0, r3
 462 005e FFF7FEFF 		bl	get_buffer_index
 463              	.LVL36:
 464 0062 C0EB0B00 		rsb	r0, r0, fp
 465 0066 8442     		cmp	r4, r0
 466 0068 38DC     		bgt	.L38
 488:display/GEVA.c ****         buf->vid_buf = file.body;
 467              		.loc 1 488 0
 468 006a 5C45     		cmp	r4, fp
 469 006c 03D1     		bne	.L28
 489:display/GEVA.c ****     }
 470              		.loc 1 489 0
 471 006e 039B     		ldr	r3, [sp, #12]
 472 0070 6B60     		str	r3, [r5, #4]
 476:display/GEVA.c ****     uint16_t vbc_body_byte = (((uint16_t)file.header.byte_cnt_h) << 8 | file.header.byte_cnt_l) - 5
 473              		.loc 1 476 0
 474 0072 0020     		movs	r0, #0
 475 0074 33E0     		b	.L27
 476              	.L28:
 477              	.LBB4:
 492:display/GEVA.c ****         uint16_t start_byte_ptr = get_buffer_index(x, buf->size_y - 1 - y, buf->byte_col_cnt);
 478              		.loc 1 492 0
 479 0076 19F0070F 		tst	r9, #7
 480 007a 02D1     		bne	.L29
 492:display/GEVA.c ****         uint16_t start_byte_ptr = get_buffer_index(x, buf->size_y - 1 - y, buf->byte_col_cnt);
 481              		.loc 1 492 0 is_stmt 0 discriminator 1
 482 007c 4FEAD909 		lsr	r9, r9, #3
 483 0080 03E0     		b	.L30
 484              	.L29:
 492:display/GEVA.c ****         uint16_t start_byte_ptr = get_buffer_index(x, buf->size_y - 1 - y, buf->byte_col_cnt);
 485              		.loc 1 492 0 discriminator 2
 486 0082 4FEAD909 		lsr	r9, r9, #3
 487 0086 09F10109 		add	r9, r9, #1
 488              	.L30:
 489              	.LVL37:
 493:display/GEVA.c ****         uint16_t buffer_byte_ptr = start_byte_ptr;
 490              		.loc 1 493 0 is_stmt 1 discriminator 4
 491 008a B91B     		subs	r1, r7, r6
 492 008c 0139     		subs	r1, r1, #1
ARM GAS  C:\Users\arist\AppData\Local\Temp\ccSjK9zC.s 			page 21


 493 008e 5246     		mov	r2, r10
 494 0090 C9B2     		uxtb	r1, r1
 495 0092 0098     		ldr	r0, [sp]
 496 0094 FFF7FEFF 		bl	get_buffer_index
 497              	.LVL38:
 498 0098 0646     		mov	r6, r0
 499              	.LVL39:
 500              	.LBB5:
 496:display/GEVA.c ****             buffer_byte_ptr = start_byte_ptr - (buf->byte_col_cnt * row);
 501              		.loc 1 496 0 discriminator 4
 502 009a 0024     		movs	r4, #0
 503 009c 0EE0     		b	.L31
 504              	.LVL40:
 505              	.L32:
 497:display/GEVA.c ****             memmove(&buf->vid_buf[buffer_byte_ptr], &file.body[((file.header.height - 1) * byte_wid
 506              		.loc 1 497 0 discriminator 3
 507 009e 2B7A     		ldrb	r3, [r5, #8]	@ zero_extendqisi2
 508 00a0 03FB1463 		mls	r3, r3, r4, r6
 509 00a4 9BB2     		uxth	r3, r3
 510              	.LVL41:
 498:display/GEVA.c ****         }
 511              		.loc 1 498 0 discriminator 3
 512 00a6 6868     		ldr	r0, [r5, #4]
 513 00a8 171B     		subs	r7, r2, r4
 514 00aa 4A46     		mov	r2, r9
 515 00ac 0399     		ldr	r1, [sp, #12]
 516 00ae 09FB0711 		mla	r1, r9, r7, r1
 517 00b2 1844     		add	r0, r0, r3
 518 00b4 FFF7FEFF 		bl	memmove
 519              	.LVL42:
 496:display/GEVA.c ****             buffer_byte_ptr = start_byte_ptr - (buf->byte_col_cnt * row);
 520              		.loc 1 496 0 discriminator 3
 521 00b8 0134     		adds	r4, r4, #1
 522              	.LVL43:
 523 00ba E4B2     		uxtb	r4, r4
 524              	.LVL44:
 525              	.L31:
 496:display/GEVA.c ****             buffer_byte_ptr = start_byte_ptr - (buf->byte_col_cnt * row);
 526              		.loc 1 496 0 is_stmt 0 discriminator 1
 527 00bc 08F1FF32 		add	r2, r8, #-1
 528 00c0 9442     		cmp	r4, r2
 529 00c2 ECDB     		blt	.L32
 530              	.LBE5:
 531              	.LBE4:
 476:display/GEVA.c ****     uint16_t vbc_body_byte = (((uint16_t)file.header.byte_cnt_h) << 8 | file.header.byte_cnt_l) - 5
 532              		.loc 1 476 0 is_stmt 1
 533 00c4 0020     		movs	r0, #0
 534              	.LBB7:
 535              	.LBB6:
 536 00c6 0AE0     		b	.L27
 537              	.LVL45:
 538              	.L33:
 539              	.LBE6:
 540              	.LBE7:
 480:display/GEVA.c **** 
 541              		.loc 1 480 0
 542 00c8 0420     		movs	r0, #4
ARM GAS  C:\Users\arist\AppData\Local\Temp\ccSjK9zC.s 			page 22


 543 00ca 08E0     		b	.L27
 544              	.LVL46:
 545              	.L34:
 546 00cc 0420     		movs	r0, #4
 547 00ce 06E0     		b	.L27
 548              	.L35:
 483:display/GEVA.c ****     else if (y + file.header.height > buf->size_y || x + file.header.width > buf->size_x)
 549              		.loc 1 483 0
 550 00d0 0120     		movs	r0, #1
 551 00d2 04E0     		b	.L27
 552              	.L36:
 485:display/GEVA.c ****     else if (vbc_body_byte > buf->byte_buffer_cnt - get_buffer_index(x, y, buf->byte_col_cnt))
 553              		.loc 1 485 0
 554 00d4 0220     		movs	r0, #2
 555 00d6 02E0     		b	.L27
 556              	.L37:
 557 00d8 0220     		movs	r0, #2
 558 00da 00E0     		b	.L27
 559              	.LVL47:
 560              	.L38:
 487:display/GEVA.c ****     else if (vbc_body_byte == buf->byte_buffer_cnt) {
 561              		.loc 1 487 0
 562 00dc 0320     		movs	r0, #3
 563              	.L27:
 502:display/GEVA.c **** 
 564              		.loc 1 502 0
 565 00de 05B0     		add	sp, sp, #20
 566              		.cfi_def_cfa_offset 36
 567              		@ sp needed
 568 00e0 BDE8F08F 		pop	{r4, r5, r6, r7, r8, r9, r10, fp, pc}
 569              		.cfi_endproc
 570              	.LFE9:
 571              		.size	put_vbc, .-put_vbc
 572              		.section	.text.normalize_pos,"ax",%progbits
 573              		.align	2
 574              		.global	normalize_pos
 575              		.thumb
 576              		.thumb_func
 577              		.type	normalize_pos, %function
 578              	normalize_pos:
 579              	.LFB17:
 615:display/GEVA.c **** 
 616:display/GEVA.c **** /* Normalize orientation operation.  
 617:display/GEVA.c ****  * Project coordinates in LANDSCAPE coordinates
 618:display/GEVA.c **** */
 619:display/GEVA.c **** uint8_t * normalize_pos(uint8_t pos_x, uint8_t pos_y, video_buffer* buf) {
 580              		.loc 1 619 0
 581              		.cfi_startproc
 582              		@ args = 0, pretend = 0, frame = 0
 583              		@ frame_needed = 0, uses_anonymous_args = 0
 584              	.LVL48:
 585 0000 F8B5     		push	{r3, r4, r5, r6, r7, lr}
 586              		.cfi_def_cfa_offset 24
 587              		.cfi_offset 3, -24
 588              		.cfi_offset 4, -20
 589              		.cfi_offset 5, -16
 590              		.cfi_offset 6, -12
ARM GAS  C:\Users\arist\AppData\Local\Temp\ccSjK9zC.s 			page 23


 591              		.cfi_offset 7, -8
 592              		.cfi_offset 14, -4
 593 0002 0646     		mov	r6, r0
 594 0004 0C46     		mov	r4, r1
 595 0006 1546     		mov	r5, r2
 620:display/GEVA.c **** 
 621:display/GEVA.c ****     uint8_t *pos = (uint8_t*)malloc(2);
 596              		.loc 1 621 0
 597 0008 0220     		movs	r0, #2
 598              	.LVL49:
 599 000a FFF7FEFF 		bl	malloc
 600              	.LVL50:
 622:display/GEVA.c ****     pos[0] = buf->origin[X] + (pos_x * buf->r_matrix[_A]) + (pos_y * buf->r_matrix[_B]);
 601              		.loc 1 622 0
 602 000e AF7B     		ldrb	r7, [r5, #14]	@ zero_extendqisi2
 603 0010 95F91120 		ldrsb	r2, [r5, #17]
 604 0014 95F91030 		ldrsb	r3, [r5, #16]
 605 0018 03FB06F3 		mul	r3, r3, r6
 606 001c 02FB0433 		mla	r3, r2, r4, r3
 607 0020 3B44     		add	r3, r3, r7
 608 0022 0370     		strb	r3, [r0]
 623:display/GEVA.c ****     pos[1] = buf->origin[Y] + (pos_x * buf->r_matrix[_C]) + (pos_y * buf->r_matrix[_D]);
 609              		.loc 1 623 0
 610 0024 EA7B     		ldrb	r2, [r5, #15]	@ zero_extendqisi2
 611 0026 95F91370 		ldrsb	r7, [r5, #19]
 612 002a 95F91230 		ldrsb	r3, [r5, #18]
 613 002e 03FB06F3 		mul	r3, r3, r6
 614 0032 07FB0434 		mla	r4, r7, r4, r3
 615 0036 1444     		add	r4, r4, r2
 616 0038 4470     		strb	r4, [r0, #1]
 624:display/GEVA.c ****     
 625:display/GEVA.c ****     return pos;
 626:display/GEVA.c **** }
 617              		.loc 1 626 0
 618 003a F8BD     		pop	{r3, r4, r5, r6, r7, pc}
 619              		.cfi_endproc
 620              	.LFE17:
 621              		.size	normalize_pos, .-normalize_pos
 622              		.section	.text.put_pixel,"ax",%progbits
 623              		.align	2
 624              		.global	put_pixel
 625              		.thumb
 626              		.thumb_func
 627              		.type	put_pixel, %function
 628              	put_pixel:
 629              	.LFB4:
 134:display/GEVA.c **** 
 630              		.loc 1 134 0
 631              		.cfi_startproc
 632              		@ args = 0, pretend = 0, frame = 0
 633              		@ frame_needed = 0, uses_anonymous_args = 0
 634              	.LVL51:
 635 0000 F8B5     		push	{r3, r4, r5, r6, r7, lr}
 636              		.cfi_def_cfa_offset 24
 637              		.cfi_offset 3, -24
 638              		.cfi_offset 4, -20
 639              		.cfi_offset 5, -16
ARM GAS  C:\Users\arist\AppData\Local\Temp\ccSjK9zC.s 			page 24


 640              		.cfi_offset 6, -12
 641              		.cfi_offset 7, -8
 642              		.cfi_offset 14, -4
 643 0002 1746     		mov	r7, r2
 644 0004 1C46     		mov	r4, r3
 645              	.LVL52:
 137:display/GEVA.c **** 
 646              		.loc 1 137 0
 647 0006 1A46     		mov	r2, r3
 648              	.LVL53:
 649 0008 FFF7FEFF 		bl	normalize_pos
 650              	.LVL54:
 651 000c 0546     		mov	r5, r0
 652              	.LVL55:
 139:display/GEVA.c ****         error = 4;
 653              		.loc 1 139 0
 654 000e 4178     		ldrb	r1, [r0, #1]	@ zero_extendqisi2
 655 0010 6378     		ldrb	r3, [r4, #1]	@ zero_extendqisi2
 656 0012 5A1E     		subs	r2, r3, #1
 657 0014 9142     		cmp	r1, r2
 658 0016 33DC     		bgt	.L46
 139:display/GEVA.c ****         error = 4;
 659              		.loc 1 139 0 is_stmt 0 discriminator 1
 660 0018 0678     		ldrb	r6, [r0]	@ zero_extendqisi2
 661 001a 2278     		ldrb	r2, [r4]	@ zero_extendqisi2
 662 001c 013A     		subs	r2, r2, #1
 663 001e 9642     		cmp	r6, r2
 664 0020 30DC     		bgt	.L47
 142:display/GEVA.c ****             color = CLEAR;
 665              		.loc 1 142 0 is_stmt 1
 666 0022 227B     		ldrb	r2, [r4, #12]	@ zero_extendqisi2
 667 0024 3A42     		tst	r2, r7
 668 0026 02D1     		bne	.L48
 144:display/GEVA.c ****             color = SET;
 669              		.loc 1 144 0
 670 0028 BA43     		bics	r2, r2, r7
 671 002a 02D1     		bne	.L49
 672 002c 02E0     		b	.L44
 673              	.L48:
 143:display/GEVA.c ****         else if (buf->mode & ~color)
 674              		.loc 1 143 0
 675 002e 0027     		movs	r7, #0
 676 0030 00E0     		b	.L44
 677              	.L49:
 145:display/GEVA.c **** 
 678              		.loc 1 145 0
 679 0032 0127     		movs	r7, #1
 680              	.L44:
 681              	.LVL56:
 147:display/GEVA.c ****             buf->vid_buf[get_buffer_index(n_pos[X], (buf->size_y - n_pos[Y] - 1), buf->byte_col_cnt
 682              		.loc 1 147 0
 683 0034 8FB1     		cbz	r7, .L45
 148:display/GEVA.c ****         else
 684              		.loc 1 148 0
 685 0036 6768     		ldr	r7, [r4, #4]
 686              	.LVL57:
 687 0038 5B1A     		subs	r3, r3, r1
ARM GAS  C:\Users\arist\AppData\Local\Temp\ccSjK9zC.s 			page 25


 688 003a 591E     		subs	r1, r3, #1
 689 003c 227A     		ldrb	r2, [r4, #8]	@ zero_extendqisi2
 690 003e C9B2     		uxtb	r1, r1
 691 0040 3046     		mov	r0, r6
 692              	.LVL58:
 693 0042 FFF7FEFF 		bl	get_buffer_index
 694              	.LVL59:
 695 0046 06F00706 		and	r6, r6, #7
 696 004a 8023     		movs	r3, #128
 697 004c 43FA06F6 		asr	r6, r3, r6
 698 0050 3B5C     		ldrb	r3, [r7, r0]	@ zero_extendqisi2
 699 0052 3343     		orrs	r3, r3, r6
 700 0054 3B54     		strb	r3, [r7, r0]
 136:display/GEVA.c ****     uint8_t *n_pos = normalize_pos(pos_x, pos_y, buf);
 701              		.loc 1 136 0
 702 0056 0024     		movs	r4, #0
 703              	.LVL60:
 704 0058 15E0     		b	.L43
 705              	.LVL61:
 706              	.L45:
 150:display/GEVA.c ****     }
 707              		.loc 1 150 0
 708 005a 6768     		ldr	r7, [r4, #4]
 709              	.LVL62:
 710 005c 5B1A     		subs	r3, r3, r1
 711 005e 591E     		subs	r1, r3, #1
 712 0060 227A     		ldrb	r2, [r4, #8]	@ zero_extendqisi2
 713 0062 C9B2     		uxtb	r1, r1
 714 0064 3046     		mov	r0, r6
 715              	.LVL63:
 716 0066 FFF7FEFF 		bl	get_buffer_index
 717              	.LVL64:
 718 006a 06F00706 		and	r6, r6, #7
 719 006e 8023     		movs	r3, #128
 720 0070 43FA06F6 		asr	r6, r3, r6
 721 0074 3B5C     		ldrb	r3, [r7, r0]	@ zero_extendqisi2
 722 0076 23EA0606 		bic	r6, r3, r6
 723 007a 3E54     		strb	r6, [r7, r0]
 136:display/GEVA.c ****     uint8_t *n_pos = normalize_pos(pos_x, pos_y, buf);
 724              		.loc 1 136 0
 725 007c 0024     		movs	r4, #0
 726              	.LVL65:
 727 007e 02E0     		b	.L43
 728              	.LVL66:
 729              	.L46:
 140:display/GEVA.c ****     else {
 730              		.loc 1 140 0
 731 0080 0424     		movs	r4, #4
 732              	.LVL67:
 733 0082 00E0     		b	.L43
 734              	.LVL68:
 735              	.L47:
 736 0084 0424     		movs	r4, #4
 737              	.LVL69:
 738              	.L43:
 152:display/GEVA.c ****     return error;
 739              		.loc 1 152 0
ARM GAS  C:\Users\arist\AppData\Local\Temp\ccSjK9zC.s 			page 26


 740 0086 2846     		mov	r0, r5
 741 0088 FFF7FEFF 		bl	free
 742              	.LVL70:
 154:display/GEVA.c **** 
 743              		.loc 1 154 0
 744 008c 2046     		mov	r0, r4
 745 008e F8BD     		pop	{r3, r4, r5, r6, r7, pc}
 746              		.cfi_endproc
 747              	.LFE4:
 748              		.size	put_pixel, .-put_pixel
 749              		.section	.text.put_circle,"ax",%progbits
 750              		.align	2
 751              		.global	put_circle
 752              		.thumb
 753              		.thumb_func
 754              		.type	put_circle, %function
 755              	put_circle:
 756              	.LFB10:
 512:display/GEVA.c **** 
 757              		.loc 1 512 0
 758              		.cfi_startproc
 759              		@ args = 0, pretend = 0, frame = 8
 760              		@ frame_needed = 0, uses_anonymous_args = 0
 761              	.LVL71:
 762 0000 2DE9F04F 		push	{r4, r5, r6, r7, r8, r9, r10, fp, lr}
 763              		.cfi_def_cfa_offset 36
 764              		.cfi_offset 4, -36
 765              		.cfi_offset 5, -32
 766              		.cfi_offset 6, -28
 767              		.cfi_offset 7, -24
 768              		.cfi_offset 8, -20
 769              		.cfi_offset 9, -16
 770              		.cfi_offset 10, -12
 771              		.cfi_offset 11, -8
 772              		.cfi_offset 14, -4
 773 0004 83B0     		sub	sp, sp, #12
 774              		.cfi_def_cfa_offset 48
 775 0006 8346     		mov	fp, r0
 776 0008 8A46     		mov	r10, r1
 777 000a 9046     		mov	r8, r2
 778 000c 0193     		str	r3, [sp, #4]
 779              	.LVL72:
 516:display/GEVA.c ****     
 780              		.loc 1 516 0
 781 000e 93B2     		uxth	r3, r2
 782              	.LVL73:
 783 0010 03FB03F7 		mul	r7, r3, r3
 784              	.LVL74:
 785              	.LBB8:
 518:display/GEVA.c ****         for (int16_t x = -r; x <= r; x++) {
 786              		.loc 1 518 0
 787 0014 5B42     		negs	r3, r3
 788 0016 0FFA83F9 		sxth	r9, r3
 789              	.LVL75:
 790 001a 4E46     		mov	r6, r9
 791              	.LBE8:
 514:display/GEVA.c ****     uint16_t s = 0;
ARM GAS  C:\Users\arist\AppData\Local\Temp\ccSjK9zC.s 			page 27


 792              		.loc 1 514 0
 793 001c 0020     		movs	r0, #0
 794              	.LVL76:
 795              	.LBB11:
 518:display/GEVA.c ****         for (int16_t x = -r; x <= r; x++) {
 796              		.loc 1 518 0
 797 001e 1EE0     		b	.L52
 798              	.LVL77:
 799              	.L54:
 800              	.LBB9:
 520:display/GEVA.c ****             if (s >= rsqr - r && s <= rsqr + r) {
 801              		.loc 1 520 0
 802 0020 9CB2     		uxth	r4, r3
 803 0022 B2B2     		uxth	r2, r6
 804 0024 02FB02F2 		mul	r2, r2, r2
 805 0028 04FB0422 		mla	r2, r4, r4, r2
 806 002c 92B2     		uxth	r2, r2
 521:display/GEVA.c ****                 error = put_pixel(o_x + x, o_y + y, SET, buf);
 807              		.loc 1 521 0
 808 002e 791B     		subs	r1, r7, r5
 809 0030 8A42     		cmp	r2, r1
 810 0032 0CDB     		blt	.L53
 521:display/GEVA.c ****                 error = put_pixel(o_x + x, o_y + y, SET, buf);
 811              		.loc 1 521 0 is_stmt 0 discriminator 1
 812 0034 E919     		adds	r1, r5, r7
 813 0036 8A42     		cmp	r2, r1
 814 0038 09DC     		bgt	.L53
 522:display/GEVA.c ****                // if (error)
 815              		.loc 1 522 0 is_stmt 1
 816 003a 0BEB0300 		add	r0, fp, r3
 817              	.LVL78:
 818 003e 0AEB0601 		add	r1, r10, r6
 819 0042 019B     		ldr	r3, [sp, #4]
 820              	.LVL79:
 821 0044 0122     		movs	r2, #1
 822 0046 C9B2     		uxtb	r1, r1
 823 0048 C0B2     		uxtb	r0, r0
 824 004a FFF7FEFF 		bl	put_pixel
 825              	.LVL80:
 826              	.L53:
 519:display/GEVA.c ****             s = x * x + y * y;
 827              		.loc 1 519 0 discriminator 2
 828 004e 0134     		adds	r4, r4, #1
 829              	.LVL81:
 830 0050 23B2     		sxth	r3, r4
 831              	.LVL82:
 832 0052 00E0     		b	.L55
 833              	.LVL83:
 834              	.L56:
 835              	.LBE9:
 836 0054 4B46     		mov	r3, r9
 837              	.L55:
 838              	.LVL84:
 839              	.LBB10:
 519:display/GEVA.c ****             s = x * x + y * y;
 840              		.loc 1 519 0 is_stmt 0 discriminator 1
 841 0056 9D42     		cmp	r5, r3
ARM GAS  C:\Users\arist\AppData\Local\Temp\ccSjK9zC.s 			page 28


 842 0058 E2DA     		bge	.L54
 843              	.LBE10:
 518:display/GEVA.c ****         for (int16_t x = -r; x <= r; x++) {
 844              		.loc 1 518 0 is_stmt 1 discriminator 2
 845 005a 0136     		adds	r6, r6, #1
 846              	.LVL85:
 847 005c 36B2     		sxth	r6, r6
 848              	.LVL86:
 849              	.L52:
 518:display/GEVA.c ****         for (int16_t x = -r; x <= r; x++) {
 850              		.loc 1 518 0 is_stmt 0 discriminator 1
 851 005e 4546     		mov	r5, r8
 852 0060 4645     		cmp	r6, r8
 853 0062 F7DD     		ble	.L56
 854              	.LBE11:
 529:display/GEVA.c **** 
 855              		.loc 1 529 0 is_stmt 1
 856 0064 03B0     		add	sp, sp, #12
 857              		.cfi_def_cfa_offset 36
 858              		@ sp needed
 859 0066 BDE8F08F 		pop	{r4, r5, r6, r7, r8, r9, r10, fp, pc}
 860              		.cfi_endproc
 861              	.LFE10:
 862              		.size	put_circle, .-put_circle
 863 006a 00BF     		.section	.text.reverse_byte,"ax",%progbits
 864              		.align	2
 865              		.global	reverse_byte
 866              		.thumb
 867              		.thumb_func
 868              		.type	reverse_byte, %function
 869              	reverse_byte:
 870              	.LFB19:
 627:display/GEVA.c **** 
 628:display/GEVA.c **** /* 
 629:display/GEVA.c ****  * Generates new normalized character from font.h character 
 630:display/GEVA.c **** */
 631:display/GEVA.c **** uint16_t* rotate_char(uint16_t *chr, video_buffer* buf) {
 632:display/GEVA.c ****     
 633:display/GEVA.c ****     uint16_t *new_chr = (uint16_t *)malloc(font_height);
 634:display/GEVA.c ****     
 635:display/GEVA.c ****     for (uint8_t i = 0; i < font_height; i++)
 636:display/GEVA.c ****             new_chr[i]=0;
 637:display/GEVA.c ****             
 638:display/GEVA.c ****     uint16_t* nc_ptr = new_chr;
 639:display/GEVA.c ****     uint16_t bit = 0;
 640:display/GEVA.c ****     
 641:display/GEVA.c ****     switch (buf->orient) {
 642:display/GEVA.c ****    
 643:display/GEVA.c ****     case LANDSCAPE :
 644:display/GEVA.c ****         nc_ptr = chr;
 645:display/GEVA.c ****         break;
 646:display/GEVA.c ****     
 647:display/GEVA.c ****     case LANDSCAPE_INVERTED:
 648:display/GEVA.c **** 
 649:display/GEVA.c ****         for (uint8_t i = 0; i < font_height; i++) {
 650:display/GEVA.c ****             new_chr[i] = reverse_byte(chr[font_height - 1 - i] >> (16 - font_width)) ;
 651:display/GEVA.c ****         }
ARM GAS  C:\Users\arist\AppData\Local\Temp\ccSjK9zC.s 			page 29


 652:display/GEVA.c ****         break;
 653:display/GEVA.c **** 
 654:display/GEVA.c ****     case PORTRAIT:
 655:display/GEVA.c **** 
 656:display/GEVA.c ****         for (uint8_t i = 0; i < font_height; i++) {
 657:display/GEVA.c ****             for (uint8_t j = 0; j < font_height; j++) {
 658:display/GEVA.c ****                 bit = (chr[font_height - 1 - i] & (0x8000 >> j)) << j;
 659:display/GEVA.c ****                 new_chr[font_height - 1  - j] |= bit >> (font_height - i);    
 660:display/GEVA.c ****                 bit = 0;
 661:display/GEVA.c ****             }
 662:display/GEVA.c ****         }
 663:display/GEVA.c ****         break;
 664:display/GEVA.c ****    
 665:display/GEVA.c ****     case PORTRAIT_INVERTED:
 666:display/GEVA.c **** 
 667:display/GEVA.c ****         for (uint8_t i = 0; i < font_height; i++) {
 668:display/GEVA.c ****             for (uint8_t j = 0; j < font_height; j++) {
 669:display/GEVA.c ****                 bit = (chr[font_height - 1 - i] & (0x8000 >> j)) << j;
 670:display/GEVA.c ****                 new_chr[j] |= (bit >> i);
 671:display/GEVA.c ****                 bit = 0;
 672:display/GEVA.c ****             }
 673:display/GEVA.c ****         }
 674:display/GEVA.c ****         break;
 675:display/GEVA.c ****     
 676:display/GEVA.c ****     default:
 677:display/GEVA.c ****         nc_ptr = chr;
 678:display/GEVA.c ****         break;
 679:display/GEVA.c ****     }
 680:display/GEVA.c ****     return nc_ptr;
 681:display/GEVA.c **** }
 682:display/GEVA.c **** 
 683:display/GEVA.c **** uint16_t reverse_byte(uint16_t b) {
 871              		.loc 1 683 0
 872              		.cfi_startproc
 873              		@ args = 0, pretend = 0, frame = 0
 874              		@ frame_needed = 0, uses_anonymous_args = 0
 875              		@ link register save eliminated.
 876              	.LVL87:
 684:display/GEVA.c **** 
 685:display/GEVA.c ****     b = ((b >> 1) & 0x5555) | ((b & 0x5555) << 1);
 877              		.loc 1 685 0
 878 0000 4300     		lsls	r3, r0, #1
 879 0002 45F25552 		movw	r2, #21845
 880 0006 02EA5000 		and	r0, r2, r0, lsr #1
 881              	.LVL88:
 882 000a 23F4AA43 		bic	r3, r3, #21760
 883 000e 23F05503 		bic	r3, r3, #85
 884 0012 1843     		orrs	r0, r0, r3
 885 0014 80B2     		uxth	r0, r0
 886              	.LVL89:
 686:display/GEVA.c ****     b = ((b >> 2) & 0x3333) | ((b & 0x3333) << 2);
 887              		.loc 1 686 0
 888 0016 8200     		lsls	r2, r0, #2
 889 0018 43F23333 		movw	r3, #13107
 890 001c 03EA9003 		and	r3, r3, r0, lsr #2
 891 0020 22F44C52 		bic	r2, r2, #13056
 892 0024 22F03302 		bic	r2, r2, #51
ARM GAS  C:\Users\arist\AppData\Local\Temp\ccSjK9zC.s 			page 30


 893 0028 1343     		orrs	r3, r3, r2
 894 002a 9BB2     		uxth	r3, r3
 895              	.LVL90:
 687:display/GEVA.c ****     b = ((b >> 4) & 0x0f0f) | ((b & 0x0f0f) << 4);
 896              		.loc 1 687 0
 897 002c 1A01     		lsls	r2, r3, #4
 898 002e 40F60F70 		movw	r0, #3855
 899 0032 00EA1313 		and	r3, r0, r3, lsr #4
 900              	.LVL91:
 901 0036 22F47060 		bic	r0, r2, #3840
 902 003a 0343     		orrs	r3, r3, r0
 903 003c 9BB2     		uxth	r3, r3
 904              	.LVL92:
 688:display/GEVA.c ****     b = ((b >> 8) & 0x00ff) | ((b & 0x00ff) << 8);
 905              		.loc 1 688 0
 906 003e 180A     		lsrs	r0, r3, #8
 907 0040 40EA0320 		orr	r0, r0, r3, lsl #8
 908              	.LVL93:
 689:display/GEVA.c **** 
 690:display/GEVA.c ****     return b;
 691:display/GEVA.c **** }
 909              		.loc 1 691 0
 910 0044 80B2     		uxth	r0, r0
 911 0046 7047     		bx	lr
 912              		.cfi_endproc
 913              	.LFE19:
 914              		.size	reverse_byte, .-reverse_byte
 915              		.section	.text.rotate_char,"ax",%progbits
 916              		.align	2
 917              		.global	rotate_char
 918              		.thumb
 919              		.thumb_func
 920              		.type	rotate_char, %function
 921              	rotate_char:
 922              	.LFB18:
 631:display/GEVA.c ****     
 923              		.loc 1 631 0
 924              		.cfi_startproc
 925              		@ args = 0, pretend = 0, frame = 0
 926              		@ frame_needed = 0, uses_anonymous_args = 0
 927              	.LVL94:
 928 0000 F8B5     		push	{r3, r4, r5, r6, r7, lr}
 929              		.cfi_def_cfa_offset 24
 930              		.cfi_offset 3, -24
 931              		.cfi_offset 4, -20
 932              		.cfi_offset 5, -16
 933              		.cfi_offset 6, -12
 934              		.cfi_offset 7, -8
 935              		.cfi_offset 14, -4
 936 0002 0546     		mov	r5, r0
 937 0004 0E46     		mov	r6, r1
 633:display/GEVA.c ****     
 938              		.loc 1 633 0
 939 0006 3B4B     		ldr	r3, .L79
 940 0008 1878     		ldrb	r0, [r3]	@ zero_extendqisi2
 941              	.LVL95:
 942 000a FFF7FEFF 		bl	malloc
ARM GAS  C:\Users\arist\AppData\Local\Temp\ccSjK9zC.s 			page 31


 943              	.LVL96:
 944 000e 0446     		mov	r4, r0
 945              	.LVL97:
 946              	.LBB12:
 635:display/GEVA.c ****             new_chr[i]=0;
 947              		.loc 1 635 0
 948 0010 0023     		movs	r3, #0
 949 0012 04E0     		b	.L60
 950              	.LVL98:
 951              	.L61:
 636:display/GEVA.c ****             
 952              		.loc 1 636 0 discriminator 3
 953 0014 0022     		movs	r2, #0
 954 0016 24F81320 		strh	r2, [r4, r3, lsl #1]	@ movhi
 635:display/GEVA.c ****             new_chr[i]=0;
 955              		.loc 1 635 0 discriminator 3
 956 001a 0133     		adds	r3, r3, #1
 957              	.LVL99:
 958 001c DBB2     		uxtb	r3, r3
 959              	.LVL100:
 960              	.L60:
 635:display/GEVA.c ****             new_chr[i]=0;
 961              		.loc 1 635 0 is_stmt 0 discriminator 1
 962 001e 354A     		ldr	r2, .L79
 963 0020 1278     		ldrb	r2, [r2]	@ zero_extendqisi2
 964 0022 9342     		cmp	r3, r2
 965 0024 F6D3     		bcc	.L61
 966              	.LVL101:
 967              	.LBE12:
 641:display/GEVA.c ****    
 968              		.loc 1 641 0 is_stmt 1
 969 0026 737B     		ldrb	r3, [r6, #13]	@ zero_extendqisi2
 970              	.LVL102:
 971 0028 022B     		cmp	r3, #2
 972 002a 39D0     		beq	.L74
 973 002c 032B     		cmp	r3, #3
 974 002e 58D0     		beq	.L71
 975 0030 012B     		cmp	r3, #1
 976 0032 5CD1     		bne	.L77
 977 0034 11E0     		b	.L73
 978              	.LVL103:
 979              	.L66:
 980              	.LBB13:
 650:display/GEVA.c ****         }
 981              		.loc 1 650 0 discriminator 3
 982 0036 013B     		subs	r3, r3, #1
 983 0038 9B1B     		subs	r3, r3, r6
 984 003a 35F81330 		ldrh	r3, [r5, r3, lsl #1]
 985 003e 2D4A     		ldr	r2, .L79
 986 0040 5078     		ldrb	r0, [r2, #1]	@ zero_extendqisi2
 987 0042 C0F11000 		rsb	r0, r0, #16
 988 0046 43FA00F0 		asr	r0, r3, r0
 989 004a 80B2     		uxth	r0, r0
 990 004c FFF7FEFF 		bl	reverse_byte
 991              	.LVL104:
 992 0050 24F81600 		strh	r0, [r4, r6, lsl #1]	@ movhi
 649:display/GEVA.c ****             new_chr[i] = reverse_byte(chr[font_height - 1 - i] >> (16 - font_width)) ;
ARM GAS  C:\Users\arist\AppData\Local\Temp\ccSjK9zC.s 			page 32


 993              		.loc 1 649 0 discriminator 3
 994 0054 0136     		adds	r6, r6, #1
 995              	.LVL105:
 996 0056 F6B2     		uxtb	r6, r6
 997              	.LVL106:
 998 0058 00E0     		b	.L65
 999              	.LVL107:
 1000              	.L73:
 1001              	.LBE13:
 641:display/GEVA.c ****    
 1002              		.loc 1 641 0
 1003 005a 0026     		movs	r6, #0
 1004              	.LVL108:
 1005              	.L65:
 1006              	.LBB14:
 649:display/GEVA.c ****             new_chr[i] = reverse_byte(chr[font_height - 1 - i] >> (16 - font_width)) ;
 1007              		.loc 1 649 0 discriminator 1
 1008 005c 254B     		ldr	r3, .L79
 1009 005e 1B78     		ldrb	r3, [r3]	@ zero_extendqisi2
 1010 0060 9E42     		cmp	r6, r3
 1011 0062 E8D3     		bcc	.L66
 1012 0064 44E0     		b	.L62
 1013              	.LVL109:
 1014              	.L67:
 1015              	.LBE14:
 1016              	.LBB15:
 1017              	.LBB16:
 658:display/GEVA.c ****                 new_chr[font_height - 1  - j] |= bit >> (font_height - i);    
 1018              		.loc 1 658 0 discriminator 3
 1019 0066 461E     		subs	r6, r0, #1
 1020 0068 F31B     		subs	r3, r6, r7
 1021 006a 35F81330 		ldrh	r3, [r5, r3, lsl #1]
 1022 006e 4FF40042 		mov	r2, #32768
 1023 0072 0A41     		asrs	r2, r2, r1
 1024 0074 1340     		ands	r3, r3, r2
 1025 0076 8B40     		lsls	r3, r3, r1
 1026              	.LVL110:
 659:display/GEVA.c ****                 bit = 0;
 1027              		.loc 1 659 0 discriminator 3
 1028 0078 721A     		subs	r2, r6, r1
 1029 007a C01B     		subs	r0, r0, r7
 1030 007c 9BB2     		uxth	r3, r3
 1031 007e 0341     		asrs	r3, r3, r0
 1032              	.LVL111:
 1033 0080 34F81200 		ldrh	r0, [r4, r2, lsl #1]
 1034 0084 0343     		orrs	r3, r3, r0
 1035 0086 24F81230 		strh	r3, [r4, r2, lsl #1]	@ movhi
 1036              	.LVL112:
 657:display/GEVA.c ****                 bit = (chr[font_height - 1 - i] & (0x8000 >> j)) << j;
 1037              		.loc 1 657 0 discriminator 3
 1038 008a 0131     		adds	r1, r1, #1
 1039              	.LVL113:
 1040 008c C9B2     		uxtb	r1, r1
 1041              	.LVL114:
 1042 008e 00E0     		b	.L68
 1043              	.LVL115:
 1044              	.L75:
ARM GAS  C:\Users\arist\AppData\Local\Temp\ccSjK9zC.s 			page 33


 1045              	.LBE16:
 1046 0090 0021     		movs	r1, #0
 1047              	.L68:
 1048              	.LVL116:
 1049              	.LBB17:
 657:display/GEVA.c ****                 bit = (chr[font_height - 1 - i] & (0x8000 >> j)) << j;
 1050              		.loc 1 657 0 is_stmt 0 discriminator 1
 1051 0092 184B     		ldr	r3, .L79
 1052 0094 1878     		ldrb	r0, [r3]	@ zero_extendqisi2
 1053 0096 8142     		cmp	r1, r0
 1054 0098 E5D3     		bcc	.L67
 1055              	.LBE17:
 656:display/GEVA.c ****             for (uint8_t j = 0; j < font_height; j++) {
 1056              		.loc 1 656 0 is_stmt 1 discriminator 2
 1057 009a 0137     		adds	r7, r7, #1
 1058              	.LVL117:
 1059 009c FFB2     		uxtb	r7, r7
 1060              	.LVL118:
 1061 009e 00E0     		b	.L63
 1062              	.LVL119:
 1063              	.L74:
 1064              	.LBE15:
 641:display/GEVA.c ****    
 1065              		.loc 1 641 0
 1066 00a0 0027     		movs	r7, #0
 1067              	.LVL120:
 1068              	.L63:
 1069              	.LBB18:
 656:display/GEVA.c ****             for (uint8_t j = 0; j < font_height; j++) {
 1070              		.loc 1 656 0 discriminator 1
 1071 00a2 144B     		ldr	r3, .L79
 1072 00a4 1B78     		ldrb	r3, [r3]	@ zero_extendqisi2
 1073 00a6 9F42     		cmp	r7, r3
 1074 00a8 F2D3     		bcc	.L75
 1075 00aa 21E0     		b	.L62
 1076              	.LVL121:
 1077              	.L69:
 1078              	.LBE18:
 1079              	.LBB19:
 1080              	.LBB20:
 669:display/GEVA.c ****                 new_chr[j] |= (bit >> i);
 1081              		.loc 1 669 0 discriminator 3
 1082 00ac 013B     		subs	r3, r3, #1
 1083 00ae 5B1A     		subs	r3, r3, r1
 1084 00b0 35F81300 		ldrh	r0, [r5, r3, lsl #1]
 1085 00b4 4FF40043 		mov	r3, #32768
 1086 00b8 1341     		asrs	r3, r3, r2
 1087 00ba 0340     		ands	r3, r3, r0
 1088 00bc 9340     		lsls	r3, r3, r2
 1089              	.LVL122:
 670:display/GEVA.c ****                 bit = 0;
 1090              		.loc 1 670 0 discriminator 3
 1091 00be 9BB2     		uxth	r3, r3
 1092 00c0 0B41     		asrs	r3, r3, r1
 1093              	.LVL123:
 1094 00c2 34F81200 		ldrh	r0, [r4, r2, lsl #1]
 1095              	.LVL124:
ARM GAS  C:\Users\arist\AppData\Local\Temp\ccSjK9zC.s 			page 34


 1096 00c6 0343     		orrs	r3, r3, r0
 1097 00c8 24F81230 		strh	r3, [r4, r2, lsl #1]	@ movhi
 1098              	.LVL125:
 668:display/GEVA.c ****                 bit = (chr[font_height - 1 - i] & (0x8000 >> j)) << j;
 1099              		.loc 1 668 0 discriminator 3
 1100 00cc 0132     		adds	r2, r2, #1
 1101              	.LVL126:
 1102 00ce D2B2     		uxtb	r2, r2
 1103              	.LVL127:
 1104 00d0 00E0     		b	.L70
 1105              	.LVL128:
 1106              	.L76:
 1107              	.LBE20:
 1108 00d2 0022     		movs	r2, #0
 1109              	.L70:
 1110              	.LVL129:
 1111              	.LBB21:
 668:display/GEVA.c ****                 bit = (chr[font_height - 1 - i] & (0x8000 >> j)) << j;
 1112              		.loc 1 668 0 is_stmt 0 discriminator 1
 1113 00d4 074B     		ldr	r3, .L79
 1114 00d6 1B78     		ldrb	r3, [r3]	@ zero_extendqisi2
 1115 00d8 9A42     		cmp	r2, r3
 1116 00da E7D3     		bcc	.L69
 1117              	.LBE21:
 667:display/GEVA.c ****             for (uint8_t j = 0; j < font_height; j++) {
 1118              		.loc 1 667 0 is_stmt 1 discriminator 2
 1119 00dc 0131     		adds	r1, r1, #1
 1120              	.LVL130:
 1121 00de C9B2     		uxtb	r1, r1
 1122              	.LVL131:
 1123 00e0 00E0     		b	.L64
 1124              	.LVL132:
 1125              	.L71:
 1126              	.LBE19:
 641:display/GEVA.c ****    
 1127              		.loc 1 641 0
 1128 00e2 0021     		movs	r1, #0
 1129              	.LVL133:
 1130              	.L64:
 1131              	.LBB22:
 667:display/GEVA.c ****             for (uint8_t j = 0; j < font_height; j++) {
 1132              		.loc 1 667 0 discriminator 1
 1133 00e4 034B     		ldr	r3, .L79
 1134 00e6 1B78     		ldrb	r3, [r3]	@ zero_extendqisi2
 1135 00e8 9942     		cmp	r1, r3
 1136 00ea F2D3     		bcc	.L76
 1137 00ec 00E0     		b	.L62
 1138              	.LVL134:
 1139              	.L77:
 1140              	.LBE22:
 644:display/GEVA.c ****         break;
 1141              		.loc 1 644 0
 1142 00ee 2C46     		mov	r4, r5
 1143              	.LVL135:
 1144              	.L62:
 681:display/GEVA.c **** 
 1145              		.loc 1 681 0
ARM GAS  C:\Users\arist\AppData\Local\Temp\ccSjK9zC.s 			page 35


 1146 00f0 2046     		mov	r0, r4
 1147 00f2 F8BD     		pop	{r3, r4, r5, r6, r7, pc}
 1148              	.LVL136:
 1149              	.L80:
 1150              		.align	2
 1151              	.L79:
 1152 00f4 00000000 		.word	.LANCHOR0
 1153              		.cfi_endproc
 1154              	.LFE18:
 1155              		.size	rotate_char, .-rotate_char
 1156              		.section	.text.put_char,"ax",%progbits
 1157              		.align	2
 1158              		.global	put_char
 1159              		.thumb
 1160              		.thumb_func
 1161              		.type	put_char, %function
 1162              	put_char:
 1163              	.LFB7:
 351:display/GEVA.c ****     
 1164              		.loc 1 351 0
 1165              		.cfi_startproc
 1166              		@ args = 4, pretend = 0, frame = 0
 1167              		@ frame_needed = 0, uses_anonymous_args = 0
 1168              	.LVL137:
 1169 0000 2DE9F041 		push	{r4, r5, r6, r7, r8, lr}
 1170              		.cfi_def_cfa_offset 24
 1171              		.cfi_offset 4, -24
 1172              		.cfi_offset 5, -20
 1173              		.cfi_offset 6, -16
 1174              		.cfi_offset 7, -12
 1175              		.cfi_offset 8, -8
 1176              		.cfi_offset 14, -4
 1177 0004 069C     		ldr	r4, [sp, #24]
 1178              	.LVL138:
 357:display/GEVA.c ****         case SMALL:
 1179              		.loc 1 357 0
 1180 0006 012B     		cmp	r3, #1
 1181 0008 0ED0     		beq	.L83
 1182 000a 13B1     		cbz	r3, .L84
 1183 000c 022B     		cmp	r3, #2
 1184 000e 20D0     		beq	.L85
 1185 0010 15E0     		b	.L101
 1186              	.L84:
 359:display/GEVA.c ****             font_width = C_WIDTH_S;
 1187              		.loc 1 359 0
 1188 0012 5F4B     		ldr	r3, .L103
 1189              	.LVL139:
 1190 0014 0725     		movs	r5, #7
 1191 0016 1D70     		strb	r5, [r3]
 360:display/GEVA.c ****             c = font_s[chr];
 1192              		.loc 1 360 0
 1193 0018 0525     		movs	r5, #5
 1194 001a 5D70     		strb	r5, [r3, #1]
 361:display/GEVA.c ****         break;
 1195              		.loc 1 361 0
 1196 001c C2EBC202 		rsb	r2, r2, r2, lsl #3
 1197              	.LVL140:
ARM GAS  C:\Users\arist\AppData\Local\Temp\ccSjK9zC.s 			page 36


 1198 0020 5300     		lsls	r3, r2, #1
 1199 0022 5C4E     		ldr	r6, .L103+4
 1200 0024 1E44     		add	r6, r6, r3
 1201              	.LVL141:
 362:display/GEVA.c ****         case MEDIUM:
 1202              		.loc 1 362 0
 1203 0026 14E0     		b	.L85
 1204              	.LVL142:
 1205              	.L83:
 364:display/GEVA.c ****             font_width = C_WIDTH_M;
 1206              		.loc 1 364 0
 1207 0028 594B     		ldr	r3, .L103
 1208              	.LVL143:
 1209 002a 0E25     		movs	r5, #14
 1210 002c 1D70     		strb	r5, [r3]
 365:display/GEVA.c ****             c = font_m[chr];
 1211              		.loc 1 365 0
 1212 002e 0A25     		movs	r5, #10
 1213 0030 5D70     		strb	r5, [r3, #1]
 366:display/GEVA.c ****         break; 
 1214              		.loc 1 366 0
 1215 0032 C2EBC202 		rsb	r2, r2, r2, lsl #3
 1216              	.LVL144:
 1217 0036 9300     		lsls	r3, r2, #2
 1218 0038 574E     		ldr	r6, .L103+8
 1219 003a 1E44     		add	r6, r6, r3
 1220              	.LVL145:
 367:display/GEVA.c ****         
 1221              		.loc 1 367 0
 1222 003c 09E0     		b	.L85
 1223              	.LVL146:
 1224              	.L101:
 373:display/GEVA.c ****             font_width = C_WIDTH_S;
 1225              		.loc 1 373 0
 1226 003e 544B     		ldr	r3, .L103
 1227              	.LVL147:
 1228 0040 0725     		movs	r5, #7
 1229 0042 1D70     		strb	r5, [r3]
 374:display/GEVA.c ****             c = font_s[chr];
 1230              		.loc 1 374 0
 1231 0044 0525     		movs	r5, #5
 1232 0046 5D70     		strb	r5, [r3, #1]
 375:display/GEVA.c ****         break;
 1233              		.loc 1 375 0
 1234 0048 C2EBC202 		rsb	r2, r2, r2, lsl #3
 1235              	.LVL148:
 1236 004c 5300     		lsls	r3, r2, #1
 1237 004e 514E     		ldr	r6, .L103+4
 1238 0050 1E44     		add	r6, r6, r3
 1239              	.LVL149:
 1240              	.L85:
 379:display/GEVA.c ****         case LANDSCAPE:
 1241              		.loc 1 379 0
 1242 0052 637B     		ldrb	r3, [r4, #13]	@ zero_extendqisi2
 1243 0054 032B     		cmp	r3, #3
 1244 0056 29D8     		bhi	.L86
 1245 0058 DFE803F0 		tbb	[pc, r3]
ARM GAS  C:\Users\arist\AppData\Local\Temp\ccSjK9zC.s 			page 37


 1246              	.L88:
 1247 005c 02       		.byte	(.L87-.L88)/2
 1248 005d 07       		.byte	(.L89-.L88)/2
 1249 005e 15       		.byte	(.L90-.L88)/2
 1250 005f 1E       		.byte	(.L91-.L88)/2
 1251              		.p2align 1
 1252              	.L87:
 381:display/GEVA.c ****            break;
 1253              		.loc 1 381 0
 1254 0060 2246     		mov	r2, r4
 1255 0062 FFF7FEFF 		bl	normalize_pos
 1256              	.LVL150:
 1257 0066 0546     		mov	r5, r0
 1258              	.LVL151:
 382:display/GEVA.c **** 
 1259              		.loc 1 382 0
 1260 0068 24E0     		b	.L92
 1261              	.LVL152:
 1262              	.L89:
 385:display/GEVA.c ****                break;
 1263              		.loc 1 385 0
 1264 006a 494A     		ldr	r2, .L103
 1265 006c 5378     		ldrb	r3, [r2, #1]	@ zero_extendqisi2
 1266 006e 1844     		add	r0, r0, r3
 1267              	.LVL153:
 1268 0070 0138     		subs	r0, r0, #1
 1269 0072 1378     		ldrb	r3, [r2]	@ zero_extendqisi2
 1270 0074 1944     		add	r1, r1, r3
 1271              	.LVL154:
 1272 0076 0139     		subs	r1, r1, #1
 1273 0078 2246     		mov	r2, r4
 1274 007a C9B2     		uxtb	r1, r1
 1275 007c C0B2     		uxtb	r0, r0
 1276 007e FFF7FEFF 		bl	normalize_pos
 1277              	.LVL155:
 1278 0082 0546     		mov	r5, r0
 1279              	.LVL156:
 386:display/GEVA.c **** 
 1280              		.loc 1 386 0
 1281 0084 16E0     		b	.L92
 1282              	.LVL157:
 1283              	.L90:
 389:display/GEVA.c ****             break;
 1284              		.loc 1 389 0
 1285 0086 424B     		ldr	r3, .L103
 1286 0088 1B78     		ldrb	r3, [r3]	@ zero_extendqisi2
 1287 008a 1944     		add	r1, r1, r3
 1288              	.LVL158:
 1289 008c 2246     		mov	r2, r4
 1290 008e C9B2     		uxtb	r1, r1
 1291 0090 FFF7FEFF 		bl	normalize_pos
 1292              	.LVL159:
 1293 0094 0546     		mov	r5, r0
 1294              	.LVL160:
 390:display/GEVA.c **** 
 1295              		.loc 1 390 0
 1296 0096 0DE0     		b	.L92
ARM GAS  C:\Users\arist\AppData\Local\Temp\ccSjK9zC.s 			page 38


 1297              	.LVL161:
 1298              	.L91:
 393:display/GEVA.c ****             break;
 1299              		.loc 1 393 0
 1300 0098 3D4B     		ldr	r3, .L103
 1301 009a 1B78     		ldrb	r3, [r3]	@ zero_extendqisi2
 1302 009c 1844     		add	r0, r0, r3
 1303              	.LVL162:
 1304 009e 0138     		subs	r0, r0, #1
 1305 00a0 2246     		mov	r2, r4
 1306 00a2 C0B2     		uxtb	r0, r0
 1307 00a4 FFF7FEFF 		bl	normalize_pos
 1308              	.LVL163:
 1309 00a8 0546     		mov	r5, r0
 1310              	.LVL164:
 394:display/GEVA.c **** 
 1311              		.loc 1 394 0
 1312 00aa 03E0     		b	.L92
 1313              	.LVL165:
 1314              	.L86:
 397:display/GEVA.c ****             break;
 1315              		.loc 1 397 0
 1316 00ac 2246     		mov	r2, r4
 1317 00ae FFF7FEFF 		bl	normalize_pos
 1318              	.LVL166:
 1319 00b2 0546     		mov	r5, r0
 1320              	.LVL167:
 1321              	.L92:
 401:display/GEVA.c ****         error = 4;
 1322              		.loc 1 401 0
 1323 00b4 2B78     		ldrb	r3, [r5]	@ zero_extendqisi2
 1324 00b6 2278     		ldrb	r2, [r4]	@ zero_extendqisi2
 1325 00b8 9342     		cmp	r3, r2
 1326 00ba 5CD2     		bcs	.L97
 401:display/GEVA.c ****         error = 4;
 1327              		.loc 1 401 0 is_stmt 0 discriminator 1
 1328 00bc 6978     		ldrb	r1, [r5, #1]	@ zero_extendqisi2
 1329 00be 6078     		ldrb	r0, [r4, #1]	@ zero_extendqisi2
 1330              	.LVL168:
 1331 00c0 8142     		cmp	r1, r0
 1332 00c2 5AD2     		bcs	.L98
 403:display/GEVA.c ****         error = 2;
 1333              		.loc 1 403 0 is_stmt 1
 1334 00c4 324F     		ldr	r7, .L103
 1335 00c6 3F78     		ldrb	r7, [r7]	@ zero_extendqisi2
 1336 00c8 3944     		add	r1, r1, r7
 1337 00ca 8142     		cmp	r1, r0
 1338 00cc 57DC     		bgt	.L99
 403:display/GEVA.c ****         error = 2;
 1339              		.loc 1 403 0 is_stmt 0 discriminator 1
 1340 00ce 3049     		ldr	r1, .L103
 1341 00d0 4978     		ldrb	r1, [r1, #1]	@ zero_extendqisi2
 1342 00d2 0B44     		add	r3, r3, r1
 1343 00d4 9342     		cmp	r3, r2
 1344 00d6 54DC     		bgt	.L100
 1345              	.LBB23:
 406:display/GEVA.c ****             
ARM GAS  C:\Users\arist\AppData\Local\Temp\ccSjK9zC.s 			page 39


 1346              		.loc 1 406 0 is_stmt 1
 1347 00d8 2146     		mov	r1, r4
 1348 00da 3046     		mov	r0, r6
 1349 00dc FFF7FEFF 		bl	rotate_char
 1350              	.LVL169:
 1351 00e0 0646     		mov	r6, r0
 1352              	.LVL170:
 408:display/GEVA.c ****         uint16_t buffer_byte_ptr = start_byte_ptr;
 1353              		.loc 1 408 0
 1354 00e2 2F78     		ldrb	r7, [r5]	@ zero_extendqisi2
 1355 00e4 6378     		ldrb	r3, [r4, #1]	@ zero_extendqisi2
 1356 00e6 6978     		ldrb	r1, [r5, #1]	@ zero_extendqisi2
 1357 00e8 591A     		subs	r1, r3, r1
 1358 00ea 0139     		subs	r1, r1, #1
 1359 00ec 227A     		ldrb	r2, [r4, #8]	@ zero_extendqisi2
 1360 00ee C9B2     		uxtb	r1, r1
 1361 00f0 3846     		mov	r0, r7
 1362              	.LVL171:
 1363 00f2 FFF7FEFF 		bl	get_buffer_index
 1364              	.LVL172:
 411:display/GEVA.c ****     
 1365              		.loc 1 411 0
 1366 00f6 07F00707 		and	r7, r7, #7
 1367              	.LVL173:
 1368              	.LBB24:
 413:display/GEVA.c ****             buffer_byte_ptr = start_byte_ptr - (buf->byte_col_cnt * i);
 1369              		.loc 1 413 0
 1370 00fa 0021     		movs	r1, #0
 1371 00fc 35E0     		b	.L94
 1372              	.LVL174:
 1373              	.L96:
 414:display/GEVA.c ****             temp = c[font_height - 1 - i] >> shifter_a;
 1374              		.loc 1 414 0
 1375 00fe 237A     		ldrb	r3, [r4, #8]	@ zero_extendqisi2
 1376 0100 03FB1103 		mls	r3, r3, r1, r0
 1377 0104 9BB2     		uxth	r3, r3
 1378              	.LVL175:
 415:display/GEVA.c ****             buf->vid_buf[buffer_byte_ptr] |= (uint8_t)(temp >> 8);
 1379              		.loc 1 415 0
 1380 0106 013A     		subs	r2, r2, #1
 1381 0108 521A     		subs	r2, r2, r1
 1382 010a 36F81220 		ldrh	r2, [r6, r2, lsl #1]
 1383 010e 3A41     		asrs	r2, r2, r7
 1384              	.LVL176:
 416:display/GEVA.c ****             buf->vid_buf[buffer_byte_ptr + 1] |= (uint8_t)temp; 
 1385              		.loc 1 416 0
 1386 0110 D4F804C0 		ldr	ip, [r4, #4]
 1387 0114 C2F30728 		ubfx	r8, r2, #8, #8
 1388 0118 1CF803E0 		ldrb	lr, [ip, r3]	@ zero_extendqisi2
 1389 011c 48EA0E0E 		orr	lr, r8, lr
 1390 0120 0CF803E0 		strb	lr, [ip, r3]
 417:display/GEVA.c ****             
 1391              		.loc 1 417 0
 1392 0124 D4F80480 		ldr	r8, [r4, #4]
 1393 0128 03F1010C 		add	ip, r3, #1
 1394 012c D2B2     		uxtb	r2, r2
 1395              	.LVL177:
ARM GAS  C:\Users\arist\AppData\Local\Temp\ccSjK9zC.s 			page 40


 1396 012e 18F80CE0 		ldrb	lr, [r8, ip]	@ zero_extendqisi2
 1397 0132 42EA0E02 		orr	r2, r2, lr
 1398 0136 08F80C20 		strb	r2, [r8, ip]
 419:display/GEVA.c ****                     temp = c[font_height - i - 1];
 1399              		.loc 1 419 0
 1400 013a A7B1     		cbz	r7, .L95
 420:display/GEVA.c ****                     buf->vid_buf[buffer_byte_ptr + 2] |= (uint8_t)temp << (8 - shifter_a);
 1401              		.loc 1 420 0
 1402 013c 144A     		ldr	r2, .L103
 1403 013e 1278     		ldrb	r2, [r2]	@ zero_extendqisi2
 1404 0140 521A     		subs	r2, r2, r1
 1405 0142 02F10042 		add	r2, r2, #-2147483648
 1406 0146 013A     		subs	r2, r2, #1
 1407              	.LVL178:
 421:display/GEVA.c ****                 }
 1408              		.loc 1 421 0
 1409 0148 D4F804E0 		ldr	lr, [r4, #4]
 1410 014c 0233     		adds	r3, r3, #2
 1411              	.LVL179:
 1412 014e 16F81220 		ldrb	r2, [r6, r2, lsl #1]	@ zero_extendqisi2
 1413              	.LVL180:
 1414 0152 C7F1080C 		rsb	ip, r7, #8
 1415 0156 02FA0CF2 		lsl	r2, r2, ip
 1416 015a 1EF803C0 		ldrb	ip, [lr, r3]	@ zero_extendqisi2
 1417 015e 4CEA0202 		orr	r2, ip, r2
 1418 0162 0EF80320 		strb	r2, [lr, r3]
 1419              	.LVL181:
 1420              	.L95:
 413:display/GEVA.c ****             buffer_byte_ptr = start_byte_ptr - (buf->byte_col_cnt * i);
 1421              		.loc 1 413 0 discriminator 2
 1422 0166 0131     		adds	r1, r1, #1
 1423              	.LVL182:
 1424 0168 C9B2     		uxtb	r1, r1
 1425              	.LVL183:
 1426              	.L94:
 413:display/GEVA.c ****             buffer_byte_ptr = start_byte_ptr - (buf->byte_col_cnt * i);
 1427              		.loc 1 413 0 is_stmt 0 discriminator 1
 1428 016a 094B     		ldr	r3, .L103
 1429 016c 1A78     		ldrb	r2, [r3]	@ zero_extendqisi2
 1430 016e 9142     		cmp	r1, r2
 1431 0170 C5D3     		bcc	.L96
 1432              	.LBE24:
 1433              	.LBE23:
 353:display/GEVA.c ****     uint8_t* n_pos; 
 1434              		.loc 1 353 0 is_stmt 1
 1435 0172 0024     		movs	r4, #0
 1436              	.LBB26:
 1437              	.LBB25:
 1438 0174 06E0     		b	.L93
 1439              	.LVL184:
 1440              	.L97:
 1441              	.LBE25:
 1442              	.LBE26:
 402:display/GEVA.c ****     else if (n_pos[Y] + font_height > buf->size_y || n_pos[X] + font_width > buf->size_x)
 1443              		.loc 1 402 0
 1444 0176 0424     		movs	r4, #4
 1445 0178 04E0     		b	.L93
ARM GAS  C:\Users\arist\AppData\Local\Temp\ccSjK9zC.s 			page 41


 1446              	.LVL185:
 1447              	.L98:
 1448 017a 0424     		movs	r4, #4
 1449 017c 02E0     		b	.L93
 1450              	.L99:
 404:display/GEVA.c ****     else {
 1451              		.loc 1 404 0
 1452 017e 0224     		movs	r4, #2
 1453 0180 00E0     		b	.L93
 1454              	.L100:
 1455 0182 0224     		movs	r4, #2
 1456              	.L93:
 1457              	.LVL186:
 426:display/GEVA.c ****     return error;
 1458              		.loc 1 426 0
 1459 0184 2846     		mov	r0, r5
 1460 0186 FFF7FEFF 		bl	free
 1461              	.LVL187:
 428:display/GEVA.c **** 
 1462              		.loc 1 428 0
 1463 018a 2046     		mov	r0, r4
 1464 018c BDE8F081 		pop	{r4, r5, r6, r7, r8, pc}
 1465              	.LVL188:
 1466              	.L104:
 1467              		.align	2
 1468              	.L103:
 1469 0190 00000000 		.word	.LANCHOR0
 1470 0194 00000000 		.word	.LANCHOR1
 1471 0198 000E0000 		.word	.LANCHOR1+3584
 1472              		.cfi_endproc
 1473              	.LFE7:
 1474              		.size	put_char, .-put_char
 1475              		.section	.text.put_string,"ax",%progbits
 1476              		.align	2
 1477              		.global	put_string
 1478              		.thumb
 1479              		.thumb_func
 1480              		.type	put_string, %function
 1481              	put_string:
 1482              	.LFB8:
 438:display/GEVA.c ****     
 1483              		.loc 1 438 0
 1484              		.cfi_startproc
 1485              		@ args = 4, pretend = 0, frame = 0
 1486              		@ frame_needed = 0, uses_anonymous_args = 0
 1487              	.LVL189:
 1488 0000 2DE9F04F 		push	{r4, r5, r6, r7, r8, r9, r10, fp, lr}
 1489              		.cfi_def_cfa_offset 36
 1490              		.cfi_offset 4, -36
 1491              		.cfi_offset 5, -32
 1492              		.cfi_offset 6, -28
 1493              		.cfi_offset 7, -24
 1494              		.cfi_offset 8, -20
 1495              		.cfi_offset 9, -16
 1496              		.cfi_offset 10, -12
 1497              		.cfi_offset 11, -8
 1498              		.cfi_offset 14, -4
ARM GAS  C:\Users\arist\AppData\Local\Temp\ccSjK9zC.s 			page 42


 1499 0004 83B0     		sub	sp, sp, #12
 1500              		.cfi_def_cfa_offset 48
 1501 0006 DDF830A0 		ldr	r10, [sp, #48]
 1502              	.LVL190:
 445:display/GEVA.c ****         
 1503              		.loc 1 445 0
 1504 000a 12BB     		cbnz	r2, .L111
 440:display/GEVA.c ****     uint8_t i = 0;
 1505              		.loc 1 440 0
 1506 000c 4FF00108 		mov	r8, #1
 1507 0010 2CE0     		b	.L107
 1508              	.LVL191:
 1509              	.L110:
 449:display/GEVA.c ****                 x_offset = pos_x;
 1510              		.loc 1 449 0
 1511 0012 2A5D     		ldrb	r2, [r5, r4]	@ zero_extendqisi2
 1512 0014 0D2A     		cmp	r2, #13
 1513 0016 18D0     		beq	.L112
 451:display/GEVA.c ****                 y_offset = y_offset - 1 - font_height;
 1514              		.loc 1 451 0
 1515 0018 0A2A     		cmp	r2, #10
 1516 001a 06D1     		bne	.L109
 452:display/GEVA.c ****             else {
 1517              		.loc 1 452 0
 1518 001c 154B     		ldr	r3, .L114
 1519 001e 1B78     		ldrb	r3, [r3]	@ zero_extendqisi2
 1520 0020 FF1A     		subs	r7, r7, r3
 1521              	.LVL192:
 1522 0022 FFB2     		uxtb	r7, r7
 1523 0024 013F     		subs	r7, r7, #1
 1524 0026 FFB2     		uxtb	r7, r7
 1525              	.LVL193:
 1526 0028 10E0     		b	.L108
 1527              	.L109:
 454:display/GEVA.c ****                 if (error != 0)
 1528              		.loc 1 454 0
 1529 002a CDF800A0 		str	r10, [sp]
 1530 002e 4B46     		mov	r3, r9
 1531 0030 3946     		mov	r1, r7
 1532 0032 3046     		mov	r0, r6
 1533 0034 FFF7FEFF 		bl	put_char
 1534              	.LVL194:
 455:display/GEVA.c ****                     break;
 1535              		.loc 1 455 0
 1536 0038 8046     		mov	r8, r0
 1537 003a B8B9     		cbnz	r0, .L107
 457:display/GEVA.c ****             
 1538              		.loc 1 457 0
 1539 003c 0D4B     		ldr	r3, .L114
 1540 003e 5B78     		ldrb	r3, [r3, #1]	@ zero_extendqisi2
 1541 0040 1E44     		add	r6, r6, r3
 1542              	.LVL195:
 1543 0042 F6B2     		uxtb	r6, r6
 1544 0044 0136     		adds	r6, r6, #1
 1545 0046 F6B2     		uxtb	r6, r6
 1546              	.LVL196:
 1547 0048 00E0     		b	.L108
ARM GAS  C:\Users\arist\AppData\Local\Temp\ccSjK9zC.s 			page 43


 1548              	.LVL197:
 1549              	.L112:
 450:display/GEVA.c ****             else if (chr[i] == '\n')
 1550              		.loc 1 450 0
 1551 004a 5E46     		mov	r6, fp
 1552              	.LVL198:
 1553              	.L108:
 460:display/GEVA.c ****         }
 1554              		.loc 1 460 0
 1555 004c 0134     		adds	r4, r4, #1
 1556              	.LVL199:
 1557 004e E4B2     		uxtb	r4, r4
 1558              	.LVL200:
 1559 0050 07E0     		b	.L106
 1560              	.LVL201:
 1561              	.L111:
 1562 0052 8346     		mov	fp, r0
 1563 0054 0F46     		mov	r7, r1
 1564 0056 9946     		mov	r9, r3
 1565 0058 1546     		mov	r5, r2
 1566 005a 0646     		mov	r6, r0
 1567 005c 0024     		movs	r4, #0
 1568 005e 4FF00108 		mov	r8, #1
 1569              	.LVL202:
 1570              	.L106:
 447:display/GEVA.c **** 
 1571              		.loc 1 447 0
 1572 0062 2846     		mov	r0, r5
 1573 0064 FFF7FEFF 		bl	strlen
 1574              	.LVL203:
 1575 0068 8442     		cmp	r4, r0
 1576 006a D2D3     		bcc	.L110
 1577              	.LVL204:
 1578              	.L107:
 464:display/GEVA.c **** 
 1579              		.loc 1 464 0
 1580 006c 4046     		mov	r0, r8
 1581 006e 03B0     		add	sp, sp, #12
 1582              		.cfi_def_cfa_offset 36
 1583              		@ sp needed
 1584 0070 BDE8F08F 		pop	{r4, r5, r6, r7, r8, r9, r10, fp, pc}
 1585              	.LVL205:
 1586              	.L115:
 1587              		.align	2
 1588              	.L114:
 1589 0074 00000000 		.word	.LANCHOR0
 1590              		.cfi_endproc
 1591              	.LFE8:
 1592              		.size	put_string, .-put_string
 1593              		.section	.text.modulo,"ax",%progbits
 1594              		.align	2
 1595              		.global	modulo
 1596              		.thumb
 1597              		.thumb_func
 1598              		.type	modulo, %function
 1599              	modulo:
 1600              	.LFB20:
ARM GAS  C:\Users\arist\AppData\Local\Temp\ccSjK9zC.s 			page 44


 692:display/GEVA.c **** 
 693:display/GEVA.c **** 
 694:display/GEVA.c **** uint8_t modulo(int8_t n) {
 1601              		.loc 1 694 0
 1602              		.cfi_startproc
 1603              		@ args = 0, pretend = 0, frame = 0
 1604              		@ frame_needed = 0, uses_anonymous_args = 0
 1605              		@ link register save eliminated.
 1606              	.LVL206:
 695:display/GEVA.c ****     return (n > 0) ? n : -n;
 1607              		.loc 1 695 0
 1608 0000 0028     		cmp	r0, #0
 1609 0002 B8BF     		it	lt
 1610 0004 4042     		rsblt	r0, r0, #0
 1611              	.LVL207:
 696:display/GEVA.c **** }
 1612              		.loc 1 696 0
 1613 0006 C0B2     		uxtb	r0, r0
 1614 0008 7047     		bx	lr
 1615              		.cfi_endproc
 1616              	.LFE20:
 1617              		.size	modulo, .-modulo
 1618 000a 00BF     		.section	.text.clear_sector,"ax",%progbits
 1619              		.align	2
 1620              		.global	clear_sector
 1621              		.thumb
 1622              		.thumb_func
 1623              		.type	clear_sector, %function
 1624              	clear_sector:
 1625              	.LFB6:
 240:display/GEVA.c **** 
 1626              		.loc 1 240 0
 1627              		.cfi_startproc
 1628              		@ args = 4, pretend = 0, frame = 16
 1629              		@ frame_needed = 0, uses_anonymous_args = 0
 1630              	.LVL208:
 1631 0000 2DE9F04F 		push	{r4, r5, r6, r7, r8, r9, r10, fp, lr}
 1632              		.cfi_def_cfa_offset 36
 1633              		.cfi_offset 4, -36
 1634              		.cfi_offset 5, -32
 1635              		.cfi_offset 6, -28
 1636              		.cfi_offset 7, -24
 1637              		.cfi_offset 8, -20
 1638              		.cfi_offset 9, -16
 1639              		.cfi_offset 10, -12
 1640              		.cfi_offset 11, -8
 1641              		.cfi_offset 14, -4
 1642 0004 85B0     		sub	sp, sp, #20
 1643              		.cfi_def_cfa_offset 56
 1644 0006 8246     		mov	r10, r0
 1645 0008 0091     		str	r1, [sp]
 1646 000a 9046     		mov	r8, r2
 1647 000c 9946     		mov	r9, r3
 1648 000e 0E9C     		ldr	r4, [sp, #56]
 1649              	.LVL209:
 248:display/GEVA.c ****     
 1650              		.loc 1 248 0
ARM GAS  C:\Users\arist\AppData\Local\Temp\ccSjK9zC.s 			page 45


 1651 0010 2246     		mov	r2, r4
 1652              	.LVL210:
 1653 0012 FFF7FEFF 		bl	normalize_pos
 1654              	.LVL211:
 1655 0016 0746     		mov	r7, r0
 1656              	.LVL212:
 250:display/GEVA.c **** 
 1657              		.loc 1 250 0
 1658 0018 637B     		ldrb	r3, [r4, #13]	@ zero_extendqisi2
 1659 001a 032B     		cmp	r3, #3
 1660 001c 43D8     		bhi	.L138
 1661 001e DFE803F0 		tbb	[pc, r3]
 1662              	.L120:
 1663 0022 02       		.byte	(.L119-.L120)/2
 1664 0023 0F       		.byte	(.L121-.L120)/2
 1665 0024 22       		.byte	(.L122-.L120)/2
 1666 0025 32       		.byte	(.L123-.L120)/2
 1667              		.p2align 1
 1668              	.L119:
 1669              	.LVL213:
 254:display/GEVA.c ****         starty_ptr = n_pos_ptr[Y];
 1670              		.loc 1 254 0
 1671 0026 0578     		ldrb	r5, [r0]	@ zero_extendqisi2
 1672              	.LVL214:
 255:display/GEVA.c ****         endx_ptr = startx_ptr + width;
 1673              		.loc 1 255 0
 1674 0028 4678     		ldrb	r6, [r0, #1]	@ zero_extendqisi2
 1675              	.LVL215:
 256:display/GEVA.c ****         endy_ptr = starty_ptr + height;
 1676              		.loc 1 256 0
 1677 002a 08EB0503 		add	r3, r8, r5
 1678 002e DBB2     		uxtb	r3, r3
 1679 0030 0193     		str	r3, [sp, #4]
 1680              	.LVL216:
 257:display/GEVA.c ****         break;
 1681              		.loc 1 257 0
 1682 0032 06EB0903 		add	r3, r6, r9
 1683 0036 5FFA83FB 		uxtb	fp, r3
 1684              	.LVL217:
 253:display/GEVA.c ****         startx_ptr = n_pos_ptr[X];
 1685              		.loc 1 253 0
 1686 003a CDF80880 		str	r8, [sp, #8]
 258:display/GEVA.c **** 
 1687              		.loc 1 258 0
 1688 003e 38E0     		b	.L118
 1689              	.LVL218:
 1690              	.L121:
 262:display/GEVA.c ****         starty_ptr = n_pos_ptr[Y] - height + 1;
 1691              		.loc 1 262 0
 1692 0040 0278     		ldrb	r2, [r0]	@ zero_extendqisi2
 1693 0042 C8EB0205 		rsb	r5, r8, r2
 1694 0046 0135     		adds	r5, r5, #1
 1695 0048 EDB2     		uxtb	r5, r5
 1696              	.LVL219:
 263:display/GEVA.c ****         endx_ptr = n_pos_ptr[X] + 1;
 1697              		.loc 1 263 0
 1698 004a 4378     		ldrb	r3, [r0, #1]	@ zero_extendqisi2
ARM GAS  C:\Users\arist\AppData\Local\Temp\ccSjK9zC.s 			page 46


 1699 004c C9EB0306 		rsb	r6, r9, r3
 1700 0050 0136     		adds	r6, r6, #1
 1701 0052 F6B2     		uxtb	r6, r6
 1702              	.LVL220:
 264:display/GEVA.c ****         endy_ptr = n_pos_ptr[Y] + 1;
 1703              		.loc 1 264 0
 1704 0054 0132     		adds	r2, r2, #1
 1705 0056 D2B2     		uxtb	r2, r2
 1706 0058 0192     		str	r2, [sp, #4]
 1707              	.LVL221:
 265:display/GEVA.c ****         break;
 1708              		.loc 1 265 0
 1709 005a 0133     		adds	r3, r3, #1
 1710 005c 5FFA83FB 		uxtb	fp, r3
 1711              	.LVL222:
 261:display/GEVA.c ****         startx_ptr = n_pos_ptr[X] - width + 1;
 1712              		.loc 1 261 0
 1713 0060 CDF80880 		str	r8, [sp, #8]
 266:display/GEVA.c **** 
 1714              		.loc 1 266 0
 1715 0064 25E0     		b	.L118
 1716              	.LVL223:
 1717              	.L122:
 270:display/GEVA.c ****         starty_ptr = n_pos_ptr[Y];
 1718              		.loc 1 270 0
 1719 0066 0378     		ldrb	r3, [r0]	@ zero_extendqisi2
 1720 0068 C9EB0305 		rsb	r5, r9, r3
 1721 006c 0135     		adds	r5, r5, #1
 1722 006e EDB2     		uxtb	r5, r5
 1723              	.LVL224:
 271:display/GEVA.c ****         endx_ptr = n_pos_ptr[X] + 1;
 1724              		.loc 1 271 0
 1725 0070 4678     		ldrb	r6, [r0, #1]	@ zero_extendqisi2
 1726              	.LVL225:
 272:display/GEVA.c ****         endy_ptr = starty_ptr + width;
 1727              		.loc 1 272 0
 1728 0072 0133     		adds	r3, r3, #1
 1729 0074 DBB2     		uxtb	r3, r3
 1730 0076 0193     		str	r3, [sp, #4]
 1731              	.LVL226:
 273:display/GEVA.c ****         break;
 1732              		.loc 1 273 0
 1733 0078 08EB0603 		add	r3, r8, r6
 1734 007c 5FFA83FB 		uxtb	fp, r3
 1735              	.LVL227:
 269:display/GEVA.c ****         startx_ptr = n_pos_ptr[X] - height + 1;
 1736              		.loc 1 269 0
 1737 0080 CDF80890 		str	r9, [sp, #8]
 274:display/GEVA.c **** 
 1738              		.loc 1 274 0
 1739 0084 15E0     		b	.L118
 1740              	.LVL228:
 1741              	.L123:
 277:display/GEVA.c ****         starty_ptr = n_pos_ptr[Y] - width + 1;
 1742              		.loc 1 277 0
 1743 0086 0578     		ldrb	r5, [r0]	@ zero_extendqisi2
 1744              	.LVL229:
ARM GAS  C:\Users\arist\AppData\Local\Temp\ccSjK9zC.s 			page 47


 278:display/GEVA.c ****         endx_ptr = startx_ptr + height;
 1745              		.loc 1 278 0
 1746 0088 4378     		ldrb	r3, [r0, #1]	@ zero_extendqisi2
 1747 008a C8EB0306 		rsb	r6, r8, r3
 1748 008e 0136     		adds	r6, r6, #1
 1749 0090 F6B2     		uxtb	r6, r6
 1750              	.LVL230:
 279:display/GEVA.c ****         endy_ptr = n_pos_ptr[Y] + 1;
 1751              		.loc 1 279 0
 1752 0092 09EB0502 		add	r2, r9, r5
 1753 0096 D2B2     		uxtb	r2, r2
 1754 0098 0192     		str	r2, [sp, #4]
 1755              	.LVL231:
 280:display/GEVA.c ****         break;
 1756              		.loc 1 280 0
 1757 009a 0133     		adds	r3, r3, #1
 1758 009c 5FFA83FB 		uxtb	fp, r3
 1759              	.LVL232:
 247:display/GEVA.c ****     uint8_t* n_pos_ptr = normalize_pos(pos_x, pos_y, buf);
 1760              		.loc 1 247 0
 1761 00a0 0023     		movs	r3, #0
 1762 00a2 0293     		str	r3, [sp, #8]
 281:display/GEVA.c **** 
 1763              		.loc 1 281 0
 1764 00a4 05E0     		b	.L118
 1765              	.LVL233:
 1766              	.L138:
 247:display/GEVA.c ****     uint8_t* n_pos_ptr = normalize_pos(pos_x, pos_y, buf);
 1767              		.loc 1 247 0
 1768 00a6 0023     		movs	r3, #0
 1769 00a8 0293     		str	r3, [sp, #8]
 246:display/GEVA.c ****     uint8_t n_width = 0;    //normalized width
 1770              		.loc 1 246 0
 1771 00aa 9B46     		mov	fp, r3
 245:display/GEVA.c ****     uint8_t endy_ptr = 0;   // pos_y + height;
 1772              		.loc 1 245 0
 1773 00ac 0193     		str	r3, [sp, #4]
 244:display/GEVA.c ****     uint8_t endx_ptr = 0;   //pos_x + width;
 1774              		.loc 1 244 0
 1775 00ae 1E46     		mov	r6, r3
 243:display/GEVA.c ****     uint8_t starty_ptr = 0; // pos_y;
 1776              		.loc 1 243 0
 1777 00b0 1D46     		mov	r5, r3
 1778              	.LVL234:
 1779              	.L118:
 287:display/GEVA.c ****         return 4;
 1780              		.loc 1 287 0
 1781 00b2 2378     		ldrb	r3, [r4]	@ zero_extendqisi2
 1782 00b4 9A45     		cmp	r10, r3
 1783 00b6 80F0A580 		bcs	.L139
 287:display/GEVA.c ****         return 4;
 1784              		.loc 1 287 0 is_stmt 0 discriminator 1
 1785 00ba 6278     		ldrb	r2, [r4, #1]	@ zero_extendqisi2
 1786 00bc 0099     		ldr	r1, [sp]
 1787 00be 9142     		cmp	r1, r2
 1788 00c0 80F0A280 		bcs	.L140
 290:display/GEVA.c ****         error = 2;
ARM GAS  C:\Users\arist\AppData\Local\Temp\ccSjK9zC.s 			page 48


 1789              		.loc 1 290 0 is_stmt 1
 1790 00c4 4944     		add	r1, r1, r9
 1791 00c6 9142     		cmp	r1, r2
 1792 00c8 00F39480 		bgt	.L141
 290:display/GEVA.c ****         error = 2;
 1793              		.loc 1 290 0 is_stmt 0 discriminator 1
 1794 00cc D044     		add	r8, r8, r10
 1795 00ce 9845     		cmp	r8, r3
 1796 00d0 00F39280 		bgt	.L142
 1797              	.LBB27:
 295:display/GEVA.c ****         uint16_t buffer_byte_ptr = start_byte_ptr;
 1798              		.loc 1 295 0 is_stmt 1
 1799 00d4 921B     		subs	r2, r2, r6
 1800 00d6 511E     		subs	r1, r2, #1
 1801 00d8 227A     		ldrb	r2, [r4, #8]	@ zero_extendqisi2
 1802 00da C9B2     		uxtb	r1, r1
 1803 00dc 2846     		mov	r0, r5
 1804              	.LVL235:
 1805 00de FFF7FEFF 		bl	get_buffer_index
 1806              	.LVL236:
 1807 00e2 8146     		mov	r9, r0
 1808              	.LVL237:
 297:display/GEVA.c ****         int16_t to_shift = initial_shift;
 1809              		.loc 1 297 0
 1810 00e4 019B     		ldr	r3, [sp, #4]
 1811 00e6 581B     		subs	r0, r3, r5
 1812 00e8 40B2     		sxtb	r0, r0
 1813 00ea FFF7FEFF 		bl	modulo
 1814              	.LVL238:
 1815              	.LBB28:
 300:display/GEVA.c ****         {
 1816              		.loc 1 300 0
 1817 00ee 4FF00008 		mov	r8, #0
 1818 00f2 0397     		str	r7, [sp, #12]
 1819 00f4 029F     		ldr	r7, [sp, #8]
 1820              	.LVL239:
 1821 00f6 0090     		str	r0, [sp]
 1822 00f8 DDF804A0 		ldr	r10, [sp, #4]
 1823 00fc 70E0     		b	.L126
 1824              	.LVL240:
 1825              	.L137:
 302:display/GEVA.c ****             to_shift = initial_shift;
 1826              		.loc 1 302 0
 1827 00fe 237A     		ldrb	r3, [r4, #8]	@ zero_extendqisi2
 1828 0100 03FB1893 		mls	r3, r3, r8, r9
 1829 0104 9BB2     		uxth	r3, r3
 1830              	.LVL241:
 1831 0106 05F00701 		and	r1, r5, #7
 305:display/GEVA.c ****                 to_shift -= (8 - (startx_ptr % 8));
 1832              		.loc 1 305 0
 1833 010a 7A18     		adds	r2, r7, r1
 1834 010c 072A     		cmp	r2, #7
 1835 010e 43DD     		ble	.L127
 306:display/GEVA.c ****                 
 1836              		.loc 1 306 0
 1837 0110 009A     		ldr	r2, [sp]
 1838 0112 8A18     		adds	r2, r1, r2
ARM GAS  C:\Users\arist\AppData\Local\Temp\ccSjK9zC.s 			page 49


 1839 0114 083A     		subs	r2, r2, #8
 1840 0116 12B2     		sxth	r2, r2
 1841              	.LVL242:
 308:display/GEVA.c ****                     buf->vid_buf[buffer_byte_ptr] &= 0xff << (8 - (startx_ptr % 8));
 1842              		.loc 1 308 0
 1843 0118 207B     		ldrb	r0, [r4, #12]	@ zero_extendqisi2
 1844 011a 60B9     		cbnz	r0, .L128
 309:display/GEVA.c ****                 else 
 1845              		.loc 1 309 0
 1846 011c 6068     		ldr	r0, [r4, #4]
 1847 011e C1F10801 		rsb	r1, r1, #8
 1848 0122 4FF0FF0E 		mov	lr, #255
 1849 0126 0EFA01F1 		lsl	r1, lr, r1
 1850 012a 10F803E0 		ldrb	lr, [r0, r3]	@ zero_extendqisi2
 1851 012e 0EEA0101 		and	r1, lr, r1
 1852 0132 C154     		strb	r1, [r0, r3]
 1853 0134 09E0     		b	.L129
 1854              	.L128:
 311:display/GEVA.c ****                 
 1855              		.loc 1 311 0
 1856 0136 6068     		ldr	r0, [r4, #4]
 1857 0138 4FF0FF0E 		mov	lr, #255
 1858 013c 4EFA01F1 		asr	r1, lr, r1
 1859 0140 10F803E0 		ldrb	lr, [r0, r3]	@ zero_extendqisi2
 1860 0144 4EEA0101 		orr	r1, lr, r1
 1861 0148 C154     		strb	r1, [r0, r3]
 1862              	.L129:
 313:display/GEVA.c ****                 
 1863              		.loc 1 313 0
 1864 014a 0133     		adds	r3, r3, #1
 1865              	.LVL243:
 1866 014c 9BB2     		uxth	r3, r3
 1867              	.LVL244:
 315:display/GEVA.c ****                     if(buf->mode == NORMAL)
 1868              		.loc 1 315 0
 1869 014e 0CE0     		b	.L130
 1870              	.L133:
 316:display/GEVA.c ****                         buf->vid_buf[buffer_byte_ptr] = 0x00;
 1871              		.loc 1 316 0
 1872 0150 217B     		ldrb	r1, [r4, #12]	@ zero_extendqisi2
 1873 0152 19B9     		cbnz	r1, .L131
 317:display/GEVA.c ****                     else 
 1874              		.loc 1 317 0
 1875 0154 6168     		ldr	r1, [r4, #4]
 1876 0156 0020     		movs	r0, #0
 1877 0158 C854     		strb	r0, [r1, r3]
 1878 015a 02E0     		b	.L132
 1879              	.L131:
 319:display/GEVA.c ****                         
 1880              		.loc 1 319 0
 1881 015c 6168     		ldr	r1, [r4, #4]
 1882 015e FF20     		movs	r0, #255
 1883 0160 C854     		strb	r0, [r1, r3]
 1884              	.L132:
 321:display/GEVA.c ****                     to_shift -= 8;
 1885              		.loc 1 321 0
 1886 0162 0133     		adds	r3, r3, #1
ARM GAS  C:\Users\arist\AppData\Local\Temp\ccSjK9zC.s 			page 50


 1887              	.LVL245:
 1888 0164 9BB2     		uxth	r3, r3
 1889              	.LVL246:
 322:display/GEVA.c ****                 }
 1890              		.loc 1 322 0
 1891 0166 083A     		subs	r2, r2, #8
 1892              	.LVL247:
 1893 0168 12B2     		sxth	r2, r2
 1894              	.LVL248:
 1895              	.L130:
 315:display/GEVA.c ****                     if(buf->mode == NORMAL)
 1896              		.loc 1 315 0
 1897 016a 082A     		cmp	r2, #8
 1898 016c F0DC     		bgt	.L133
 325:display/GEVA.c ****                     buf->vid_buf[buffer_byte_ptr] &= 0xff >> to_shift;
 1899              		.loc 1 325 0
 1900 016e 217B     		ldrb	r1, [r4, #12]	@ zero_extendqisi2
 1901 0170 39B9     		cbnz	r1, .L134
 326:display/GEVA.c ****                 else 
 1902              		.loc 1 326 0
 1903 0172 6068     		ldr	r0, [r4, #4]
 1904 0174 FF21     		movs	r1, #255
 1905 0176 41FA02F2 		asr	r2, r1, r2
 1906              	.LVL249:
 1907 017a C15C     		ldrb	r1, [r0, r3]	@ zero_extendqisi2
 1908 017c 0A40     		ands	r2, r2, r1
 1909 017e C254     		strb	r2, [r0, r3]
 1910 0180 2AE0     		b	.L135
 1911              	.LVL250:
 1912              	.L134:
 328:display/GEVA.c ****             }
 1913              		.loc 1 328 0
 1914 0182 6068     		ldr	r0, [r4, #4]
 1915 0184 0AF00702 		and	r2, r10, #7
 1916              	.LVL251:
 1917 0188 C2F10801 		rsb	r1, r2, #8
 1918 018c FF22     		movs	r2, #255
 1919 018e 8A40     		lsls	r2, r2, r1
 1920 0190 C15C     		ldrb	r1, [r0, r3]	@ zero_extendqisi2
 1921 0192 0A43     		orrs	r2, r2, r1
 1922 0194 C254     		strb	r2, [r0, r3]
 1923 0196 1FE0     		b	.L135
 1924              	.L127:
 331:display/GEVA.c ****                     buf->vid_buf[buffer_byte_ptr] &= ~((0xff >> startx_ptr % 8) & (0xff << (8 - (en
 1925              		.loc 1 331 0
 1926 0198 227B     		ldrb	r2, [r4, #12]	@ zero_extendqisi2
 1927 019a 7AB9     		cbnz	r2, .L136
 332:display/GEVA.c ****                 else 
 1928              		.loc 1 332 0
 1929 019c 6068     		ldr	r0, [r4, #4]
 1930 019e FF22     		movs	r2, #255
 1931 01a0 42FA01F1 		asr	r1, r2, r1
 1932 01a4 0AF0070E 		and	lr, r10, #7
 1933 01a8 CEF1080E 		rsb	lr, lr, #8
 1934 01ac 02FA0EF2 		lsl	r2, r2, lr
 1935 01b0 0A40     		ands	r2, r2, r1
 1936 01b2 C15C     		ldrb	r1, [r0, r3]	@ zero_extendqisi2
ARM GAS  C:\Users\arist\AppData\Local\Temp\ccSjK9zC.s 			page 51


 1937 01b4 21EA0202 		bic	r2, r1, r2
 1938 01b8 C254     		strb	r2, [r0, r3]
 1939 01ba 0DE0     		b	.L135
 1940              	.L136:
 334:display/GEVA.c ****             }
 1941              		.loc 1 334 0
 1942 01bc 6068     		ldr	r0, [r4, #4]
 1943 01be FF22     		movs	r2, #255
 1944 01c0 42FA01F1 		asr	r1, r2, r1
 1945 01c4 0AF0070E 		and	lr, r10, #7
 1946 01c8 CEF1080E 		rsb	lr, lr, #8
 1947 01cc 02FA0EF2 		lsl	r2, r2, lr
 1948 01d0 0A40     		ands	r2, r2, r1
 1949 01d2 C15C     		ldrb	r1, [r0, r3]	@ zero_extendqisi2
 1950 01d4 0A43     		orrs	r2, r2, r1
 1951 01d6 C254     		strb	r2, [r0, r3]
 1952              	.L135:
 300:display/GEVA.c ****         {
 1953              		.loc 1 300 0 discriminator 2
 1954 01d8 08F10108 		add	r8, r8, #1
 1955              	.LVL252:
 1956 01dc 5FFA88F8 		uxtb	r8, r8
 1957              	.LVL253:
 1958              	.L126:
 300:display/GEVA.c ****         {
 1959              		.loc 1 300 0 is_stmt 0 discriminator 1
 1960 01e0 C6EB0B00 		rsb	r0, r6, fp
 1961 01e4 40B2     		sxtb	r0, r0
 1962 01e6 FFF7FEFF 		bl	modulo
 1963              	.LVL254:
 1964 01ea 8045     		cmp	r8, r0
 1965 01ec 87D3     		bcc	.L137
 1966 01ee 039F     		ldr	r7, [sp, #12]
 1967              	.LBE28:
 1968              	.LBE27:
 242:display/GEVA.c ****     uint8_t startx_ptr = 0; // pos_x;
 1969              		.loc 1 242 0 is_stmt 1
 1970 01f0 0024     		movs	r4, #0
 1971              	.LBB30:
 1972              	.LBB29:
 1973 01f2 02E0     		b	.L125
 1974              	.LVL255:
 1975              	.L141:
 1976              	.LBE29:
 1977              	.LBE30:
 291:display/GEVA.c **** 
 1978              		.loc 1 291 0
 1979 01f4 0224     		movs	r4, #2
 1980 01f6 00E0     		b	.L125
 1981              	.L142:
 1982 01f8 0224     		movs	r4, #2
 1983              	.LVL256:
 1984              	.L125:
 338:display/GEVA.c ****     return error;
 1985              		.loc 1 338 0
 1986 01fa 3846     		mov	r0, r7
 1987 01fc FFF7FEFF 		bl	free
ARM GAS  C:\Users\arist\AppData\Local\Temp\ccSjK9zC.s 			page 52


 1988              	.LVL257:
 339:display/GEVA.c **** }
 1989              		.loc 1 339 0
 1990 0200 2046     		mov	r0, r4
 1991 0202 02E0     		b	.L124
 1992              	.LVL258:
 1993              	.L139:
 288:display/GEVA.c **** 
 1994              		.loc 1 288 0
 1995 0204 0420     		movs	r0, #4
 1996              	.LVL259:
 1997 0206 00E0     		b	.L124
 1998              	.LVL260:
 1999              	.L140:
 2000 0208 0420     		movs	r0, #4
 2001              	.LVL261:
 2002              	.L124:
 340:display/GEVA.c **** 
 2003              		.loc 1 340 0
 2004 020a 05B0     		add	sp, sp, #20
 2005              		.cfi_def_cfa_offset 36
 2006              		@ sp needed
 2007 020c BDE8F08F 		pop	{r4, r5, r6, r7, r8, r9, r10, fp, pc}
 2008              		.cfi_endproc
 2009              	.LFE6:
 2010              		.size	clear_sector, .-clear_sector
 2011              		.section	.text.calculate_y,"ax",%progbits
 2012              		.align	2
 2013              		.global	calculate_y
 2014              		.thumb
 2015              		.thumb_func
 2016              		.type	calculate_y, %function
 2017              	calculate_y:
 2018              	.LFB21:
 697:display/GEVA.c **** 
 698:display/GEVA.c **** uint8_t calculate_y(uint8_t x, uint8_t x0, uint8_t x1, uint8_t y0, uint8_t y1) {
 2019              		.loc 1 698 0
 2020              		.cfi_startproc
 2021              		@ args = 4, pretend = 0, frame = 0
 2022              		@ frame_needed = 0, uses_anonymous_args = 0
 2023              		@ link register save eliminated.
 2024              	.LVL262:
 2025 0000 10B4     		push	{r4}
 2026              		.cfi_def_cfa_offset 4
 2027              		.cfi_offset 4, -4
 699:display/GEVA.c ****     return ((x - x0) * (y1 - y0) / (x1 - x0)) + y0;
 2028              		.loc 1 699 0
 2029 0002 401A     		subs	r0, r0, r1
 2030              	.LVL263:
 2031 0004 9DF80440 		ldrb	r4, [sp, #4]	@ zero_extendqisi2
 2032 0008 E41A     		subs	r4, r4, r3
 2033 000a 04FB00F0 		mul	r0, r4, r0
 2034 000e 521A     		subs	r2, r2, r1
 2035              	.LVL264:
 2036 0010 90FBF2F0 		sdiv	r0, r0, r2
 2037 0014 1844     		add	r0, r0, r3
 700:display/GEVA.c **** }
ARM GAS  C:\Users\arist\AppData\Local\Temp\ccSjK9zC.s 			page 53


 2038              		.loc 1 700 0
 2039 0016 C0B2     		uxtb	r0, r0
 2040 0018 10BC     		pop	{r4}
 2041              		.cfi_restore 4
 2042              		.cfi_def_cfa_offset 0
 2043              	.LVL265:
 2044 001a 7047     		bx	lr
 2045              		.cfi_endproc
 2046              	.LFE21:
 2047              		.size	calculate_y, .-calculate_y
 2048              		.section	.text.put_line,"ax",%progbits
 2049              		.align	2
 2050              		.global	put_line
 2051              		.thumb
 2052              		.thumb_func
 2053              		.type	put_line, %function
 2054              	put_line:
 2055              	.LFB5:
 162:display/GEVA.c **** 
 2056              		.loc 1 162 0
 2057              		.cfi_startproc
 2058              		@ args = 4, pretend = 0, frame = 24
 2059              		@ frame_needed = 0, uses_anonymous_args = 0
 2060              	.LVL266:
 2061 0000 2DE9F04F 		push	{r4, r5, r6, r7, r8, r9, r10, fp, lr}
 2062              		.cfi_def_cfa_offset 36
 2063              		.cfi_offset 4, -36
 2064              		.cfi_offset 5, -32
 2065              		.cfi_offset 6, -28
 2066              		.cfi_offset 7, -24
 2067              		.cfi_offset 8, -20
 2068              		.cfi_offset 9, -16
 2069              		.cfi_offset 10, -12
 2070              		.cfi_offset 11, -8
 2071              		.cfi_offset 14, -4
 2072 0004 89B0     		sub	sp, sp, #36
 2073              		.cfi_def_cfa_offset 72
 2074 0006 0390     		str	r0, [sp, #12]
 2075 0008 8A46     		mov	r10, r1
 2076 000a 0592     		str	r2, [sp, #20]
 2077 000c 1F46     		mov	r7, r3
 2078              	.LVL267:
 170:display/GEVA.c **** 
 2079              		.loc 1 170 0
 2080 000e 9042     		cmp	r0, r2
 2081 0010 1CD1     		bne	.L147
 2082              	.LVL268:
 2083              	.LBB31:
 174:display/GEVA.c ****             line_lenght = (pos_y1 - pos_y2) + 1;
 2084              		.loc 1 174 0
 2085 0012 8F42     		cmp	r7, r1
 2086 0014 03D2     		bcs	.L148
 175:display/GEVA.c ****             firsty = pos_y2;
 2087              		.loc 1 175 0
 2088 0016 CD1B     		subs	r5, r1, r7
 2089 0018 0135     		adds	r5, r5, #1
 2090 001a EDB2     		uxtb	r5, r5
ARM GAS  C:\Users\arist\AppData\Local\Temp\ccSjK9zC.s 			page 54


 2091              	.LVL269:
 2092 001c 03E0     		b	.L149
 2093              	.LVL270:
 2094              	.L148:
 179:display/GEVA.c ****             firsty = pos_y1;
 2095              		.loc 1 179 0
 2096 001e 7D1A     		subs	r5, r7, r1
 2097 0020 0135     		adds	r5, r5, #1
 2098 0022 EDB2     		uxtb	r5, r5
 2099              	.LVL271:
 180:display/GEVA.c ****         }
 2100              		.loc 1 180 0
 2101 0024 0F46     		mov	r7, r1
 2102              	.LVL272:
 2103              	.L149:
 2104              	.LBB32:
 182:display/GEVA.c ****             error = put_pixel(pos_x1, firsty + i, SET, buf);
 2105              		.loc 1 182 0
 2106 0026 0024     		movs	r4, #0
 2107              	.LBE32:
 2108              	.LBE31:
 164:display/GEVA.c ****     uint8_t firstx = 0;
 2109              		.loc 1 164 0
 2110 0028 2046     		mov	r0, r4
 2111              	.LVL273:
 2112 002a 039E     		ldr	r6, [sp, #12]
 2113 002c DDF84880 		ldr	r8, [sp, #72]
 2114              	.LBB34:
 2115              	.LBB33:
 182:display/GEVA.c ****             error = put_pixel(pos_x1, firsty + i, SET, buf);
 2116              		.loc 1 182 0
 2117 0030 08E0     		b	.L150
 2118              	.LVL274:
 2119              	.L151:
 183:display/GEVA.c ****         }
 2120              		.loc 1 183 0 discriminator 3
 2121 0032 3919     		adds	r1, r7, r4
 2122 0034 4346     		mov	r3, r8
 2123 0036 0122     		movs	r2, #1
 2124 0038 C9B2     		uxtb	r1, r1
 2125 003a 3046     		mov	r0, r6
 2126              	.LVL275:
 2127 003c FFF7FEFF 		bl	put_pixel
 2128              	.LVL276:
 182:display/GEVA.c ****             error = put_pixel(pos_x1, firsty + i, SET, buf);
 2129              		.loc 1 182 0 discriminator 3
 2130 0040 0134     		adds	r4, r4, #1
 2131              	.LVL277:
 2132 0042 E4B2     		uxtb	r4, r4
 2133              	.LVL278:
 2134              	.L150:
 182:display/GEVA.c ****             error = put_pixel(pos_x1, firsty + i, SET, buf);
 2135              		.loc 1 182 0 is_stmt 0 discriminator 1
 2136 0044 A542     		cmp	r5, r4
 2137 0046 F4D8     		bhi	.L151
 2138 0048 0290     		str	r0, [sp, #8]
 2139 004a 52E0     		b	.L152
ARM GAS  C:\Users\arist\AppData\Local\Temp\ccSjK9zC.s 			page 55


 2140              	.LVL279:
 2141              	.L147:
 2142              	.LBE33:
 2143              	.LBE34:
 2144              	.LBB35:
 187:display/GEVA.c ****             firstx = pos_x2;
 2145              		.loc 1 187 0 is_stmt 1
 2146 004c 039B     		ldr	r3, [sp, #12]
 2147              	.LVL280:
 2148 004e 059A     		ldr	r2, [sp, #20]
 2149              	.LVL281:
 2150 0050 9342     		cmp	r3, r2
 2151 0052 02D9     		bls	.L160
 191:display/GEVA.c ****         }
 2152              		.loc 1 191 0
 2153 0054 0791     		str	r1, [sp, #28]
 190:display/GEVA.c ****             lasty = pos_y1;
 2154              		.loc 1 190 0
 2155 0056 0497     		str	r7, [sp, #16]
 2156 0058 05E0     		b	.L153
 2157              	.L160:
 197:display/GEVA.c ****         }
 2158              		.loc 1 197 0
 2159 005a 0797     		str	r7, [sp, #28]
 196:display/GEVA.c ****             lasty = pos_y2;
 2160              		.loc 1 196 0
 2161 005c 0491     		str	r1, [sp, #16]
 2162 005e 059B     		ldr	r3, [sp, #20]
 194:display/GEVA.c ****             lastx = pos_x2;
 2163              		.loc 1 194 0
 2164 0060 039A     		ldr	r2, [sp, #12]
 2165 0062 0592     		str	r2, [sp, #20]
 195:display/GEVA.c ****             firsty = pos_y1;
 2166              		.loc 1 195 0
 2167 0064 0393     		str	r3, [sp, #12]
 2168              	.L153:
 2169              	.LVL282:
 200:display/GEVA.c **** 
 2170              		.loc 1 200 0
 2171 0066 049B     		ldr	r3, [sp, #16]
 2172 0068 079A     		ldr	r2, [sp, #28]
 2173 006a 9342     		cmp	r3, r2
 2174 006c 02D9     		bls	.L161
 2175 006e 4FF0FF39 		mov	r9, #-1
 2176 0072 01E0     		b	.L154
 2177              	.L161:
 2178 0074 4FF00109 		mov	r9, #1
 2179              	.L154:
 2180              	.LVL283:
 2181              	.LBB36:
 207:display/GEVA.c **** 
 2182              		.loc 1 207 0 discriminator 4
 2183 0078 DDF814B0 		ldr	fp, [sp, #20]
 2184              	.LBE36:
 2185              	.LBE35:
 164:display/GEVA.c ****     uint8_t firstx = 0;
 2186              		.loc 1 164 0 discriminator 4
ARM GAS  C:\Users\arist\AppData\Local\Temp\ccSjK9zC.s 			page 56


 2187 007c 0023     		movs	r3, #0
 2188 007e 0293     		str	r3, [sp, #8]
 2189              	.LBB38:
 2190              	.LBB37:
 207:display/GEVA.c **** 
 2191              		.loc 1 207 0 discriminator 4
 2192 0080 33E0     		b	.L155
 2193              	.LVL284:
 2194              	.L159:
 209:display/GEVA.c ****             nexty = calculate_y(x + 1, firstx, lastx, firsty, lasty);
 2195              		.loc 1 209 0
 2196 0082 079C     		ldr	r4, [sp, #28]
 2197 0084 0094     		str	r4, [sp]
 2198 0086 049B     		ldr	r3, [sp, #16]
 2199 0088 DDF80C80 		ldr	r8, [sp, #12]
 2200 008c 4246     		mov	r2, r8
 2201 008e 059D     		ldr	r5, [sp, #20]
 2202 0090 2946     		mov	r1, r5
 2203 0092 5846     		mov	r0, fp
 2204 0094 FFF7FEFF 		bl	calculate_y
 2205              	.LVL285:
 2206 0098 0646     		mov	r6, r0
 2207              	.LVL286:
 210:display/GEVA.c ****             fill_y = 0;
 2208              		.loc 1 210 0
 2209 009a 0BF10103 		add	r3, fp, #1
 2210 009e D8B2     		uxtb	r0, r3
 2211 00a0 0690     		str	r0, [sp, #24]
 2212 00a2 0094     		str	r4, [sp]
 2213 00a4 049B     		ldr	r3, [sp, #16]
 2214 00a6 4246     		mov	r2, r8
 2215 00a8 2946     		mov	r1, r5
 2216 00aa FFF7FEFF 		bl	calculate_y
 2217              	.LVL287:
 2218 00ae 8046     		mov	r8, r0
 2219              	.LVL288:
 211:display/GEVA.c **** 
 2220              		.loc 1 211 0
 2221 00b0 0025     		movs	r5, #0
 2222              	.LVL289:
 2223              	.L158:
 214:display/GEVA.c ****               
 2224              		.loc 1 214 0
 2225 00b2 09FB0564 		mla	r4, r9, r5, r6
 2226 00b6 64B2     		sxtb	r4, r4
 2227              	.LVL290:
 216:display/GEVA.c ****                    y_todrw = 0;
 2228              		.loc 1 216 0
 2229 00b8 002C     		cmp	r4, #0
 2230 00ba 00DA     		bge	.L156
 217:display/GEVA.c **** 
 2231              		.loc 1 217 0
 2232 00bc 0024     		movs	r4, #0
 2233              	.LVL291:
 2234              	.L156:
 219:display/GEVA.c ****                fill_y++;
 2235              		.loc 1 219 0
ARM GAS  C:\Users\arist\AppData\Local\Temp\ccSjK9zC.s 			page 57


 2236 00be 129B     		ldr	r3, [sp, #72]
 2237 00c0 0122     		movs	r2, #1
 2238 00c2 E1B2     		uxtb	r1, r4
 2239 00c4 5846     		mov	r0, fp
 2240 00c6 FFF7FEFF 		bl	put_pixel
 2241              	.LVL292:
 2242 00ca 0290     		str	r0, [sp, #8]
 220:display/GEVA.c **** 
 2243              		.loc 1 220 0
 2244 00cc 0135     		adds	r5, r5, #1
 2245              	.LVL293:
 2246 00ce EDB2     		uxtb	r5, r5
 2247              	.LVL294:
 222:display/GEVA.c ****                    return error;
 2248              		.loc 1 222 0
 2249 00d0 BC42     		cmp	r4, r7
 2250 00d2 01D1     		bne	.L157
 222:display/GEVA.c ****                    return error;
 2251              		.loc 1 222 0 is_stmt 0 discriminator 1
 2252 00d4 5745     		cmp	r7, r10
 2253 00d6 0CD1     		bne	.L152
 2254              	.L157:
 225:display/GEVA.c ****         }
 2255              		.loc 1 225 0 is_stmt 1
 2256 00d8 C8EB0600 		rsb	r0, r8, r6
 2257 00dc 40B2     		sxtb	r0, r0
 2258 00de FFF7FEFF 		bl	modulo
 2259              	.LVL295:
 2260 00e2 8542     		cmp	r5, r0
 2261 00e4 E5D3     		bcc	.L158
 207:display/GEVA.c **** 
 2262              		.loc 1 207 0
 2263 00e6 DDF818B0 		ldr	fp, [sp, #24]
 2264              	.LVL296:
 2265              	.L155:
 207:display/GEVA.c **** 
 2266              		.loc 1 207 0 is_stmt 0 discriminator 1
 2267 00ea 039B     		ldr	r3, [sp, #12]
 2268 00ec 0133     		adds	r3, r3, #1
 2269 00ee 9B45     		cmp	fp, r3
 2270 00f0 C7DB     		blt	.L159
 2271              	.LVL297:
 2272              	.L152:
 2273              	.LBE37:
 2274              	.LBE38:
 229:display/GEVA.c **** 
 2275              		.loc 1 229 0 is_stmt 1
 2276 00f2 0298     		ldr	r0, [sp, #8]
 2277 00f4 09B0     		add	sp, sp, #36
 2278              		.cfi_def_cfa_offset 36
 2279              		@ sp needed
 2280 00f6 BDE8F08F 		pop	{r4, r5, r6, r7, r8, r9, r10, fp, pc}
 2281              		.cfi_endproc
 2282              	.LFE5:
 2283              		.size	put_line, .-put_line
 2284 00fa 00BF     		.section	.text.put_rect,"ax",%progbits
 2285              		.align	2
ARM GAS  C:\Users\arist\AppData\Local\Temp\ccSjK9zC.s 			page 58


 2286              		.global	put_rect
 2287              		.thumb
 2288              		.thumb_func
 2289              		.type	put_rect, %function
 2290              	put_rect:
 2291              	.LFB11:
 537:display/GEVA.c ****     uint8_t error = 0;
 2292              		.loc 1 537 0
 2293              		.cfi_startproc
 2294              		@ args = 4, pretend = 0, frame = 0
 2295              		@ frame_needed = 0, uses_anonymous_args = 0
 2296              	.LVL298:
 2297 0000 2DE9F041 		push	{r4, r5, r6, r7, r8, lr}
 2298              		.cfi_def_cfa_offset 24
 2299              		.cfi_offset 4, -24
 2300              		.cfi_offset 5, -20
 2301              		.cfi_offset 6, -16
 2302              		.cfi_offset 7, -12
 2303              		.cfi_offset 8, -8
 2304              		.cfi_offset 14, -4
 2305 0004 82B0     		sub	sp, sp, #8
 2306              		.cfi_def_cfa_offset 32
 2307 0006 0646     		mov	r6, r0
 2308 0008 0F46     		mov	r7, r1
 2309 000a 1C46     		mov	r4, r3
 2310 000c DDF82080 		ldr	r8, [sp, #32]
 2311              	.LVL299:
 539:display/GEVA.c ****     error = put_line(o_x + width, o_y, o_x + width, o_y + height, buf);
 2312              		.loc 1 539 0
 2313 0010 0244     		add	r2, r2, r0
 2314              	.LVL300:
 2315 0012 D5B2     		uxtb	r5, r2
 2316 0014 CDF80080 		str	r8, [sp]
 2317 0018 0B46     		mov	r3, r1
 2318              	.LVL301:
 2319 001a 2A46     		mov	r2, r5
 2320 001c FFF7FEFF 		bl	put_line
 2321              	.LVL302:
 540:display/GEVA.c ****     error = put_line(o_x, o_y + height, o_x + width, o_y + height, buf);
 2322              		.loc 1 540 0
 2323 0020 3C44     		add	r4, r4, r7
 2324 0022 E4B2     		uxtb	r4, r4
 2325 0024 CDF80080 		str	r8, [sp]
 2326 0028 2346     		mov	r3, r4
 2327 002a 2A46     		mov	r2, r5
 2328 002c 3946     		mov	r1, r7
 2329 002e 2846     		mov	r0, r5
 2330 0030 FFF7FEFF 		bl	put_line
 2331              	.LVL303:
 541:display/GEVA.c ****     error = put_line(o_x, o_y, o_x, o_y + height, buf);
 2332              		.loc 1 541 0
 2333 0034 CDF80080 		str	r8, [sp]
 2334 0038 2346     		mov	r3, r4
 2335 003a 2A46     		mov	r2, r5
 2336 003c 2146     		mov	r1, r4
 2337 003e 3046     		mov	r0, r6
 2338 0040 FFF7FEFF 		bl	put_line
ARM GAS  C:\Users\arist\AppData\Local\Temp\ccSjK9zC.s 			page 59


 2339              	.LVL304:
 542:display/GEVA.c ****     return error;
 2340              		.loc 1 542 0
 2341 0044 CDF80080 		str	r8, [sp]
 2342 0048 2346     		mov	r3, r4
 2343 004a 3246     		mov	r2, r6
 2344 004c 3946     		mov	r1, r7
 2345 004e 3046     		mov	r0, r6
 2346 0050 FFF7FEFF 		bl	put_line
 2347              	.LVL305:
 544:display/GEVA.c **** 
 2348              		.loc 1 544 0
 2349 0054 02B0     		add	sp, sp, #8
 2350              		.cfi_def_cfa_offset 24
 2351              		@ sp needed
 2352 0056 BDE8F081 		pop	{r4, r5, r6, r7, r8, pc}
 2353              		.cfi_endproc
 2354              	.LFE11:
 2355              		.size	put_rect, .-put_rect
 2356 005a 00BF     		.section	.text.put_triangle,"ax",%progbits
 2357              		.align	2
 2358              		.global	put_triangle
 2359              		.thumb
 2360              		.thumb_func
 2361              		.type	put_triangle, %function
 2362              	put_triangle:
 2363              	.LFB12:
 551:display/GEVA.c ****     uint8_t error = 0;
 2364              		.loc 1 551 0
 2365              		.cfi_startproc
 2366              		@ args = 12, pretend = 0, frame = 0
 2367              		@ frame_needed = 0, uses_anonymous_args = 0
 2368              	.LVL306:
 2369 0000 2DE9F047 		push	{r4, r5, r6, r7, r8, r9, r10, lr}
 2370              		.cfi_def_cfa_offset 32
 2371              		.cfi_offset 4, -32
 2372              		.cfi_offset 5, -28
 2373              		.cfi_offset 6, -24
 2374              		.cfi_offset 7, -20
 2375              		.cfi_offset 8, -16
 2376              		.cfi_offset 9, -12
 2377              		.cfi_offset 10, -8
 2378              		.cfi_offset 14, -4
 2379 0004 82B0     		sub	sp, sp, #8
 2380              		.cfi_def_cfa_offset 40
 2381 0006 8146     		mov	r9, r0
 2382 0008 8A46     		mov	r10, r1
 2383 000a 1746     		mov	r7, r2
 2384 000c 9846     		mov	r8, r3
 2385 000e 9DF82850 		ldrb	r5, [sp, #40]	@ zero_extendqisi2
 2386 0012 9DF82C60 		ldrb	r6, [sp, #44]	@ zero_extendqisi2
 2387 0016 0C9C     		ldr	r4, [sp, #48]
 2388              	.LVL307:
 553:display/GEVA.c ****     error = put_line(a_x, a_y, c_x, c_y, buf);
 2389              		.loc 1 553 0
 2390 0018 0094     		str	r4, [sp]
 2391 001a FFF7FEFF 		bl	put_line
ARM GAS  C:\Users\arist\AppData\Local\Temp\ccSjK9zC.s 			page 60


 2392              	.LVL308:
 554:display/GEVA.c ****     error = put_line(b_x, b_y, c_x, c_y, buf);
 2393              		.loc 1 554 0
 2394 001e 0094     		str	r4, [sp]
 2395 0020 3346     		mov	r3, r6
 2396 0022 2A46     		mov	r2, r5
 2397 0024 5146     		mov	r1, r10
 2398 0026 4846     		mov	r0, r9
 2399 0028 FFF7FEFF 		bl	put_line
 2400              	.LVL309:
 555:display/GEVA.c ****     return error;
 2401              		.loc 1 555 0
 2402 002c 0094     		str	r4, [sp]
 2403 002e 3346     		mov	r3, r6
 2404 0030 2A46     		mov	r2, r5
 2405 0032 4146     		mov	r1, r8
 2406 0034 3846     		mov	r0, r7
 2407 0036 FFF7FEFF 		bl	put_line
 2408              	.LVL310:
 557:display/GEVA.c **** 
 2409              		.loc 1 557 0
 2410 003a 02B0     		add	sp, sp, #8
 2411              		.cfi_def_cfa_offset 32
 2412              		@ sp needed
 2413 003c BDE8F087 		pop	{r4, r5, r6, r7, r8, r9, r10, pc}
 2414              		.cfi_endproc
 2415              	.LFE12:
 2416              		.size	put_triangle, .-put_triangle
 2417              		.global	__aeabi_fcmpeq
 2418              		.global	__aeabi_fcmple
 2419              		.global	__aeabi_i2f
 2420              		.global	__aeabi_fadd
 2421              		.global	__aeabi_fcmpge
 2422              		.global	__aeabi_fcmpgt
 2423              		.global	__aeabi_fmul
 2424              		.global	__aeabi_fdiv
 2425              		.global	__aeabi_f2uiz
 2426              		.section	.text.put_pos_COL,"ax",%progbits
 2427              		.align	2
 2428              		.global	put_pos_COL
 2429              		.thumb
 2430              		.thumb_func
 2431              		.type	put_pos_COL, %function
 2432              	put_pos_COL:
 2433              	.LFB22:
 701:display/GEVA.c **** 
 702:display/GEVA.c **** /* Draw only positive column chart
 703:display/GEVA.c ****  * return error code
 704:display/GEVA.c ****  * error code list:
 705:display/GEVA.c ****  * 1 data out of range
 706:display/GEVA.c ****  * 2 dimension mismatch
 707:display/GEVA.c ****  * 3 chart not defined
 708:display/GEVA.c ****  * 4 starting point out of scope
 709:display/GEVA.c **** */
 710:display/GEVA.c **** uint8_t put_pos_COL(data_container* c, video_buffer* buf) {
 2434              		.loc 1 710 0
 2435              		.cfi_startproc
ARM GAS  C:\Users\arist\AppData\Local\Temp\ccSjK9zC.s 			page 61


 2436              		@ args = 0, pretend = 0, frame = 0
 2437              		@ frame_needed = 0, uses_anonymous_args = 0
 2438              	.LVL311:
 2439 0000 2DE9F041 		push	{r4, r5, r6, r7, r8, lr}
 2440              		.cfi_def_cfa_offset 24
 2441              		.cfi_offset 4, -24
 2442              		.cfi_offset 5, -20
 2443              		.cfi_offset 6, -16
 2444              		.cfi_offset 7, -12
 2445              		.cfi_offset 8, -8
 2446              		.cfi_offset 14, -4
 2447 0004 82B0     		sub	sp, sp, #8
 2448              		.cfi_def_cfa_offset 32
 2449 0006 0446     		mov	r4, r0
 2450 0008 0E46     		mov	r6, r1
 2451              	.LVL312:
 711:display/GEVA.c **** 
 712:display/GEVA.c ****     uint8_t error = 1;
 713:display/GEVA.c **** 
 714:display/GEVA.c ****     if (c->max == 0 || c->dim_x == 0 || c->dim_y_pos == 0 || c->max <= c->min)
 2452              		.loc 1 714 0
 2453 000a 8568     		ldr	r5, [r0, #8]	@ float
 2454 000c 0021     		movs	r1, #0
 2455              	.LVL313:
 2456 000e 2846     		mov	r0, r5
 2457              	.LVL314:
 2458 0010 FFF7FEFF 		bl	__aeabi_fcmpeq
 2459              	.LVL315:
 2460 0014 0028     		cmp	r0, #0
 2461 0016 4FD1     		bne	.L175
 2462              		.loc 1 714 0 is_stmt 0 discriminator 1
 2463 0018 E778     		ldrb	r7, [r4, #3]	@ zero_extendqisi2
 2464 001a 002F     		cmp	r7, #0
 2465 001c 4ED0     		beq	.L176
 2466              		.loc 1 714 0 discriminator 2
 2467 001e 94F80480 		ldrb	r8, [r4, #4]	@ zero_extendqisi2
 2468 0022 B8F1000F 		cmp	r8, #0
 2469 0026 4BD0     		beq	.L177
 2470              		.loc 1 714 0 discriminator 3
 2471 0028 E168     		ldr	r1, [r4, #12]	@ float
 2472 002a 2846     		mov	r0, r5
 2473 002c FFF7FEFF 		bl	__aeabi_fcmple
 2474              	.LVL316:
 2475 0030 0028     		cmp	r0, #0
 2476 0032 47D1     		bne	.L178
 715:display/GEVA.c ****         error = 3;
 716:display/GEVA.c **** 
 717:display/GEVA.c ****     else {
 718:display/GEVA.c ****         error = clear_sector(c->o_x, c->o_y, c->dim_x, c->dim_y_pos, buf); //limits check within cl
 2477              		.loc 1 718 0 is_stmt 1
 2478 0034 2078     		ldrb	r0, [r4]	@ zero_extendqisi2
 2479 0036 6178     		ldrb	r1, [r4, #1]	@ zero_extendqisi2
 2480 0038 0096     		str	r6, [sp]
 2481 003a 4346     		mov	r3, r8
 2482 003c 3A46     		mov	r2, r7
 2483 003e FFF7FEFF 		bl	clear_sector
 2484              	.LVL317:
ARM GAS  C:\Users\arist\AppData\Local\Temp\ccSjK9zC.s 			page 62


 2485 0042 0546     		mov	r5, r0
 2486              	.LVL318:
 719:display/GEVA.c **** 
 720:display/GEVA.c ****         if (c->o_y + c->data >= 0) {
 2487              		.loc 1 720 0
 2488 0044 6769     		ldr	r7, [r4, #20]	@ float
 2489 0046 6078     		ldrb	r0, [r4, #1]	@ zero_extendqisi2
 2490 0048 FFF7FEFF 		bl	__aeabi_i2f
 2491              	.LVL319:
 2492 004c 3946     		mov	r1, r7
 2493 004e FFF7FEFF 		bl	__aeabi_fadd
 2494              	.LVL320:
 2495 0052 0021     		movs	r1, #0
 2496 0054 FFF7FEFF 		bl	__aeabi_fcmpge
 2497              	.LVL321:
 2498 0058 0028     		cmp	r0, #0
 2499 005a 35D0     		beq	.L183
 721:display/GEVA.c ****             if (c->data > 0 && c->data <= c->max) {
 2500              		.loc 1 721 0
 2501 005c 0021     		movs	r1, #0
 2502 005e 3846     		mov	r0, r7
 2503 0060 FFF7FEFF 		bl	__aeabi_fcmpgt
 2504              	.LVL322:
 2505 0064 88B3     		cbz	r0, .L169
 2506              		.loc 1 721 0 is_stmt 0 discriminator 1
 2507 0066 D4F80880 		ldr	r8, [r4, #8]	@ float
 2508 006a 4146     		mov	r1, r8
 2509 006c 3846     		mov	r0, r7
 2510 006e FFF7FEFF 		bl	__aeabi_fcmple
 2511              	.LVL323:
 2512 0072 50B3     		cbz	r0, .L169
 2513              	.LBB39:
 722:display/GEVA.c ****                 uint8_t dy = c->data * c->dim_y_pos / c->max;
 2514              		.loc 1 722 0 is_stmt 1
 2515 0074 2079     		ldrb	r0, [r4, #4]	@ zero_extendqisi2
 2516 0076 FFF7FEFF 		bl	__aeabi_i2f
 2517              	.LVL324:
 2518 007a 3946     		mov	r1, r7
 2519 007c FFF7FEFF 		bl	__aeabi_fmul
 2520              	.LVL325:
 2521 0080 4146     		mov	r1, r8
 2522 0082 FFF7FEFF 		bl	__aeabi_fdiv
 2523              	.LVL326:
 2524 0086 FFF7FEFF 		bl	__aeabi_f2uiz
 2525              	.LVL327:
 2526 008a 5FFA80F8 		uxtb	r8, r0
 2527              	.LVL328:
 2528              	.LBB40:
 723:display/GEVA.c **** 
 724:display/GEVA.c ****                 for (uint8_t i = 0; i < c->dim_x; i++)
 2529              		.loc 1 724 0
 2530 008e 0027     		movs	r7, #0
 2531 0090 0EE0     		b	.L173
 2532              	.LVL329:
 2533              	.L174:
 725:display/GEVA.c ****                     error = put_line(c->o_x + i, c->o_y, c->o_x + i, c->o_y + dy - 1, buf);
 2534              		.loc 1 725 0 discriminator 3
ARM GAS  C:\Users\arist\AppData\Local\Temp\ccSjK9zC.s 			page 63


 2535 0092 2078     		ldrb	r0, [r4]	@ zero_extendqisi2
 2536 0094 3844     		add	r0, r0, r7
 2537 0096 C0B2     		uxtb	r0, r0
 2538 0098 6178     		ldrb	r1, [r4, #1]	@ zero_extendqisi2
 2539 009a 08EB0103 		add	r3, r8, r1
 2540 009e 013B     		subs	r3, r3, #1
 2541 00a0 0096     		str	r6, [sp]
 2542 00a2 DBB2     		uxtb	r3, r3
 2543 00a4 0246     		mov	r2, r0
 2544 00a6 FFF7FEFF 		bl	put_line
 2545              	.LVL330:
 2546 00aa 0546     		mov	r5, r0
 2547              	.LVL331:
 724:display/GEVA.c ****                     error = put_line(c->o_x + i, c->o_y, c->o_x + i, c->o_y + dy - 1, buf);
 2548              		.loc 1 724 0 discriminator 3
 2549 00ac 0137     		adds	r7, r7, #1
 2550              	.LVL332:
 2551 00ae FFB2     		uxtb	r7, r7
 2552              	.LVL333:
 2553              	.L173:
 724:display/GEVA.c ****                     error = put_line(c->o_x + i, c->o_y, c->o_x + i, c->o_y + dy - 1, buf);
 2554              		.loc 1 724 0 is_stmt 0 discriminator 1
 2555 00b0 E378     		ldrb	r3, [r4, #3]	@ zero_extendqisi2
 2556 00b2 9F42     		cmp	r7, r3
 2557 00b4 EDD3     		bcc	.L174
 2558 00b6 08E0     		b	.L169
 2559              	.LVL334:
 2560              	.L175:
 2561              	.LBE40:
 2562              	.LBE39:
 715:display/GEVA.c **** 
 2563              		.loc 1 715 0 is_stmt 1
 2564 00b8 0325     		movs	r5, #3
 2565 00ba 06E0     		b	.L169
 2566              	.L176:
 2567 00bc 0325     		movs	r5, #3
 2568 00be 04E0     		b	.L169
 2569              	.L177:
 2570 00c0 0325     		movs	r5, #3
 2571 00c2 02E0     		b	.L169
 2572              	.L178:
 2573 00c4 0325     		movs	r5, #3
 2574 00c6 00E0     		b	.L169
 2575              	.LVL335:
 2576              	.L183:
 726:display/GEVA.c ****             }
 727:display/GEVA.c ****         }
 728:display/GEVA.c ****         else
 729:display/GEVA.c ****             error = 2;
 2577              		.loc 1 729 0
 2578 00c8 0225     		movs	r5, #2
 2579              	.LVL336:
 2580              	.L169:
 730:display/GEVA.c ****     }
 731:display/GEVA.c **** 
 732:display/GEVA.c ****     return error;
 733:display/GEVA.c **** }
ARM GAS  C:\Users\arist\AppData\Local\Temp\ccSjK9zC.s 			page 64


 2581              		.loc 1 733 0
 2582 00ca 2846     		mov	r0, r5
 2583 00cc 02B0     		add	sp, sp, #8
 2584              		.cfi_def_cfa_offset 24
 2585              		@ sp needed
 2586 00ce BDE8F081 		pop	{r4, r5, r6, r7, r8, pc}
 2587              		.cfi_endproc
 2588              	.LFE22:
 2589              		.size	put_pos_COL, .-put_pos_COL
 2590              		.global	__aeabi_fcmplt
 2591              		.section	.text.put_neg_COL,"ax",%progbits
 2592              		.align	2
 2593              		.global	put_neg_COL
 2594              		.thumb
 2595              		.thumb_func
 2596              		.type	put_neg_COL, %function
 2597              	put_neg_COL:
 2598              	.LFB23:
 734:display/GEVA.c **** 
 735:display/GEVA.c **** /* Draw only positive column chart
 736:display/GEVA.c ****  * return error code
 737:display/GEVA.c ****  * error code list:
 738:display/GEVA.c ****  * 1 data out of range
 739:display/GEVA.c ****  * 2 dimension mismatch
 740:display/GEVA.c ****  * 3 chart not defined
 741:display/GEVA.c ****  * 4 starting point out of scope
 742:display/GEVA.c **** */
 743:display/GEVA.c **** uint8_t put_neg_COL(data_container* c, video_buffer* buf) {
 2599              		.loc 1 743 0
 2600              		.cfi_startproc
 2601              		@ args = 0, pretend = 0, frame = 0
 2602              		@ frame_needed = 0, uses_anonymous_args = 0
 2603              	.LVL337:
 2604 0000 2DE9F041 		push	{r4, r5, r6, r7, r8, lr}
 2605              		.cfi_def_cfa_offset 24
 2606              		.cfi_offset 4, -24
 2607              		.cfi_offset 5, -20
 2608              		.cfi_offset 6, -16
 2609              		.cfi_offset 7, -12
 2610              		.cfi_offset 8, -8
 2611              		.cfi_offset 14, -4
 2612 0004 82B0     		sub	sp, sp, #8
 2613              		.cfi_def_cfa_offset 32
 2614              	.LVL338:
 744:display/GEVA.c **** 
 745:display/GEVA.c ****     uint8_t error = 1;
 746:display/GEVA.c **** 
 747:display/GEVA.c ****     if (c->dim_x == 0 || c->max <= c->min)
 2615              		.loc 1 747 0
 2616 0006 C578     		ldrb	r5, [r0, #3]	@ zero_extendqisi2
 2617 0008 002D     		cmp	r5, #0
 2618 000a 4AD0     		beq	.L192
 2619 000c 0E46     		mov	r6, r1
 2620 000e 0446     		mov	r4, r0
 2621              		.loc 1 747 0 is_stmt 0 discriminator 1
 2622 0010 C168     		ldr	r1, [r0, #12]	@ float
 2623              	.LVL339:
ARM GAS  C:\Users\arist\AppData\Local\Temp\ccSjK9zC.s 			page 65


 2624 0012 8068     		ldr	r0, [r0, #8]	@ float
 2625              	.LVL340:
 2626 0014 FFF7FEFF 		bl	__aeabi_fcmple
 2627              	.LVL341:
 2628 0018 0028     		cmp	r0, #0
 2629 001a 44D1     		bne	.L193
 748:display/GEVA.c ****         error = 3;
 749:display/GEVA.c **** 
 750:display/GEVA.c ****     else {
 751:display/GEVA.c ****         error = clear_sector(c->o_x, c->o_y - c->dim_y_neg, c->dim_x, c->dim_y_neg, buf); //limits 
 2630              		.loc 1 751 0 is_stmt 1
 2631 001c 2078     		ldrb	r0, [r4]	@ zero_extendqisi2
 2632 001e 6178     		ldrb	r1, [r4, #1]	@ zero_extendqisi2
 2633 0020 6379     		ldrb	r3, [r4, #5]	@ zero_extendqisi2
 2634 0022 C91A     		subs	r1, r1, r3
 2635 0024 0096     		str	r6, [sp]
 2636 0026 2A46     		mov	r2, r5
 2637 0028 C9B2     		uxtb	r1, r1
 2638 002a FFF7FEFF 		bl	clear_sector
 2639              	.LVL342:
 2640 002e 0546     		mov	r5, r0
 2641              	.LVL343:
 752:display/GEVA.c **** 
 753:display/GEVA.c ****         if (c->o_y + c->data <= 0) {
 2642              		.loc 1 753 0
 2643 0030 6769     		ldr	r7, [r4, #20]	@ float
 2644 0032 6078     		ldrb	r0, [r4, #1]	@ zero_extendqisi2
 2645 0034 FFF7FEFF 		bl	__aeabi_i2f
 2646              	.LVL344:
 2647 0038 3946     		mov	r1, r7
 2648 003a FFF7FEFF 		bl	__aeabi_fadd
 2649              	.LVL345:
 2650 003e 0021     		movs	r1, #0
 2651 0040 FFF7FEFF 		bl	__aeabi_fcmple
 2652              	.LVL346:
 2653 0044 88B3     		cbz	r0, .L198
 754:display/GEVA.c **** 
 755:display/GEVA.c ****             if (c->data < 0 && c->data >= c->min) {
 2654              		.loc 1 755 0
 2655 0046 0021     		movs	r1, #0
 2656 0048 3846     		mov	r0, r7
 2657 004a FFF7FEFF 		bl	__aeabi_fcmplt
 2658              	.LVL347:
 2659 004e 68B3     		cbz	r0, .L186
 2660              		.loc 1 755 0 is_stmt 0 discriminator 1
 2661 0050 D4F80C80 		ldr	r8, [r4, #12]	@ float
 2662 0054 4146     		mov	r1, r8
 2663 0056 3846     		mov	r0, r7
 2664 0058 FFF7FEFF 		bl	__aeabi_fcmpge
 2665              	.LVL348:
 2666 005c 30B3     		cbz	r0, .L186
 2667              	.LBB41:
 756:display/GEVA.c ****                 uint8_t dy = c->data * c->dim_y_neg / c->min;
 2668              		.loc 1 756 0 is_stmt 1
 2669 005e 6079     		ldrb	r0, [r4, #5]	@ zero_extendqisi2
 2670 0060 FFF7FEFF 		bl	__aeabi_i2f
 2671              	.LVL349:
ARM GAS  C:\Users\arist\AppData\Local\Temp\ccSjK9zC.s 			page 66


 2672 0064 3946     		mov	r1, r7
 2673 0066 FFF7FEFF 		bl	__aeabi_fmul
 2674              	.LVL350:
 2675 006a 4146     		mov	r1, r8
 2676 006c FFF7FEFF 		bl	__aeabi_fdiv
 2677              	.LVL351:
 2678 0070 FFF7FEFF 		bl	__aeabi_f2uiz
 2679              	.LVL352:
 2680 0074 5FFA80F8 		uxtb	r8, r0
 2681              	.LVL353:
 2682              	.LBB42:
 757:display/GEVA.c **** 
 758:display/GEVA.c ****                 for (uint8_t i = 0; i < c->dim_x; i++)
 2683              		.loc 1 758 0
 2684 0078 0027     		movs	r7, #0
 2685 007a 0EE0     		b	.L190
 2686              	.LVL354:
 2687              	.L191:
 759:display/GEVA.c ****                     error = put_line(c->o_x + i, c->o_y-dy+1, c->o_x + i, c->o_y, buf);
 2688              		.loc 1 759 0 discriminator 3
 2689 007c 2078     		ldrb	r0, [r4]	@ zero_extendqisi2
 2690 007e 6378     		ldrb	r3, [r4, #1]	@ zero_extendqisi2
 2691 0080 C8EB0301 		rsb	r1, r8, r3
 2692 0084 0131     		adds	r1, r1, #1
 2693 0086 3844     		add	r0, r0, r7
 2694 0088 C0B2     		uxtb	r0, r0
 2695 008a 0096     		str	r6, [sp]
 2696 008c 0246     		mov	r2, r0
 2697 008e C9B2     		uxtb	r1, r1
 2698 0090 FFF7FEFF 		bl	put_line
 2699              	.LVL355:
 2700 0094 0546     		mov	r5, r0
 2701              	.LVL356:
 758:display/GEVA.c ****                     error = put_line(c->o_x + i, c->o_y-dy+1, c->o_x + i, c->o_y, buf);
 2702              		.loc 1 758 0 discriminator 3
 2703 0096 0137     		adds	r7, r7, #1
 2704              	.LVL357:
 2705 0098 FFB2     		uxtb	r7, r7
 2706              	.LVL358:
 2707              	.L190:
 758:display/GEVA.c ****                     error = put_line(c->o_x + i, c->o_y-dy+1, c->o_x + i, c->o_y, buf);
 2708              		.loc 1 758 0 is_stmt 0 discriminator 1
 2709 009a E378     		ldrb	r3, [r4, #3]	@ zero_extendqisi2
 2710 009c 9F42     		cmp	r7, r3
 2711 009e EDD3     		bcc	.L191
 2712 00a0 04E0     		b	.L186
 2713              	.LVL359:
 2714              	.L192:
 2715              	.LBE42:
 2716              	.LBE41:
 748:display/GEVA.c **** 
 2717              		.loc 1 748 0 is_stmt 1
 2718 00a2 0325     		movs	r5, #3
 2719 00a4 02E0     		b	.L186
 2720              	.LVL360:
 2721              	.L193:
 2722 00a6 0325     		movs	r5, #3
ARM GAS  C:\Users\arist\AppData\Local\Temp\ccSjK9zC.s 			page 67


 2723 00a8 00E0     		b	.L186
 2724              	.LVL361:
 2725              	.L198:
 760:display/GEVA.c ****             }
 761:display/GEVA.c ****         }
 762:display/GEVA.c ****         else
 763:display/GEVA.c ****             error = 2;
 2726              		.loc 1 763 0
 2727 00aa 0225     		movs	r5, #2
 2728              	.LVL362:
 2729              	.L186:
 764:display/GEVA.c ****     }
 765:display/GEVA.c ****     return error;
 766:display/GEVA.c **** }
 2730              		.loc 1 766 0
 2731 00ac 2846     		mov	r0, r5
 2732 00ae 02B0     		add	sp, sp, #8
 2733              		.cfi_def_cfa_offset 24
 2734              		@ sp needed
 2735 00b0 BDE8F081 		pop	{r4, r5, r6, r7, r8, pc}
 2736              		.cfi_endproc
 2737              	.LFE23:
 2738              		.size	put_neg_COL, .-put_neg_COL
 2739              		.section	.text.update_COL,"ax",%progbits
 2740              		.align	2
 2741              		.global	update_COL
 2742              		.thumb
 2743              		.thumb_func
 2744              		.type	update_COL, %function
 2745              	update_COL:
 2746              	.LFB24:
 767:display/GEVA.c **** 
 768:display/GEVA.c **** uint8_t update_COL(data_container* c, video_buffer* buf) {
 2747              		.loc 1 768 0
 2748              		.cfi_startproc
 2749              		@ args = 0, pretend = 0, frame = 0
 2750              		@ frame_needed = 0, uses_anonymous_args = 0
 2751              	.LVL363:
 2752 0000 38B5     		push	{r3, r4, r5, lr}
 2753              		.cfi_def_cfa_offset 16
 2754              		.cfi_offset 3, -16
 2755              		.cfi_offset 4, -12
 2756              		.cfi_offset 5, -8
 2757              		.cfi_offset 14, -4
 2758 0002 0446     		mov	r4, r0
 2759 0004 0D46     		mov	r5, r1
 2760              	.LVL364:
 769:display/GEVA.c ****     uint8_t error = 0;
 770:display/GEVA.c ****     error = put_pos_COL(c, buf);
 2761              		.loc 1 770 0
 2762 0006 FFF7FEFF 		bl	put_pos_COL
 2763              	.LVL365:
 771:display/GEVA.c ****     error = put_neg_COL(c, buf);
 2764              		.loc 1 771 0
 2765 000a 2946     		mov	r1, r5
 2766 000c 2046     		mov	r0, r4
 2767 000e FFF7FEFF 		bl	put_neg_COL
ARM GAS  C:\Users\arist\AppData\Local\Temp\ccSjK9zC.s 			page 68


 2768              	.LVL366:
 772:display/GEVA.c ****     return error;
 773:display/GEVA.c **** }
 2769              		.loc 1 773 0
 2770 0012 38BD     		pop	{r3, r4, r5, pc}
 2771              		.cfi_endproc
 2772              	.LFE24:
 2773              		.size	update_COL, .-update_COL
 2774              		.section	.text.update_BAR,"ax",%progbits
 2775              		.align	2
 2776              		.global	update_BAR
 2777              		.thumb
 2778              		.thumb_func
 2779              		.type	update_BAR, %function
 2780              	update_BAR:
 2781              	.LFB25:
 774:display/GEVA.c **** 
 775:display/GEVA.c **** /* Draw positive bar chart
 776:display/GEVA.c ****  * return error code
 777:display/GEVA.c ****  * error code list:
 778:display/GEVA.c ****  * 1 data out of range
 779:display/GEVA.c ****  * 2 dimension mismatch
 780:display/GEVA.c ****  * 3 chart not defined
 781:display/GEVA.c ****  * 4 starting point out of scope
 782:display/GEVA.c **** */
 783:display/GEVA.c **** uint8_t update_BAR(data_container* c, video_buffer* buf) {
 2782              		.loc 1 783 0
 2783              		.cfi_startproc
 2784              		@ args = 0, pretend = 0, frame = 0
 2785              		@ frame_needed = 0, uses_anonymous_args = 0
 2786              	.LVL367:
 2787 0000 2DE9F041 		push	{r4, r5, r6, r7, r8, lr}
 2788              		.cfi_def_cfa_offset 24
 2789              		.cfi_offset 4, -24
 2790              		.cfi_offset 5, -20
 2791              		.cfi_offset 6, -16
 2792              		.cfi_offset 7, -12
 2793              		.cfi_offset 8, -8
 2794              		.cfi_offset 14, -4
 2795 0004 82B0     		sub	sp, sp, #8
 2796              		.cfi_def_cfa_offset 32
 2797 0006 0446     		mov	r4, r0
 2798 0008 0E46     		mov	r6, r1
 2799              	.LVL368:
 784:display/GEVA.c **** 
 785:display/GEVA.c ****     uint8_t error = 1;
 786:display/GEVA.c **** 
 787:display/GEVA.c ****     if (c->max == 0 || c->dim_x == 0 || c->dim_y_pos == 0 || c->max <= c->min)
 2800              		.loc 1 787 0
 2801 000a 8568     		ldr	r5, [r0, #8]	@ float
 2802 000c 0021     		movs	r1, #0
 2803              	.LVL369:
 2804 000e 2846     		mov	r0, r5
 2805              	.LVL370:
 2806 0010 FFF7FEFF 		bl	__aeabi_fcmpeq
 2807              	.LVL371:
 2808 0014 0028     		cmp	r0, #0
ARM GAS  C:\Users\arist\AppData\Local\Temp\ccSjK9zC.s 			page 69


 2809 0016 4FD1     		bne	.L209
 2810              		.loc 1 787 0 is_stmt 0 discriminator 1
 2811 0018 E778     		ldrb	r7, [r4, #3]	@ zero_extendqisi2
 2812 001a 002F     		cmp	r7, #0
 2813 001c 4ED0     		beq	.L210
 2814              		.loc 1 787 0 discriminator 2
 2815 001e 94F80480 		ldrb	r8, [r4, #4]	@ zero_extendqisi2
 2816 0022 B8F1000F 		cmp	r8, #0
 2817 0026 4BD0     		beq	.L211
 2818              		.loc 1 787 0 discriminator 3
 2819 0028 E168     		ldr	r1, [r4, #12]	@ float
 2820 002a 2846     		mov	r0, r5
 2821 002c FFF7FEFF 		bl	__aeabi_fcmple
 2822              	.LVL372:
 2823 0030 0028     		cmp	r0, #0
 2824 0032 47D1     		bne	.L212
 788:display/GEVA.c ****         error = 3;
 789:display/GEVA.c **** 
 790:display/GEVA.c ****     else {
 791:display/GEVA.c ****         error = clear_sector(c->o_x, c->o_y, c->dim_x, c->dim_y_pos, buf); //limits check within cl
 2825              		.loc 1 791 0 is_stmt 1
 2826 0034 2078     		ldrb	r0, [r4]	@ zero_extendqisi2
 2827 0036 6178     		ldrb	r1, [r4, #1]	@ zero_extendqisi2
 2828 0038 0096     		str	r6, [sp]
 2829 003a 4346     		mov	r3, r8
 2830 003c 3A46     		mov	r2, r7
 2831 003e FFF7FEFF 		bl	clear_sector
 2832              	.LVL373:
 2833 0042 0546     		mov	r5, r0
 2834              	.LVL374:
 792:display/GEVA.c **** 
 793:display/GEVA.c ****         if (c->o_y + c->data >= 0) {
 2835              		.loc 1 793 0
 2836 0044 6769     		ldr	r7, [r4, #20]	@ float
 2837 0046 6078     		ldrb	r0, [r4, #1]	@ zero_extendqisi2
 2838 0048 FFF7FEFF 		bl	__aeabi_i2f
 2839              	.LVL375:
 2840 004c 3946     		mov	r1, r7
 2841 004e FFF7FEFF 		bl	__aeabi_fadd
 2842              	.LVL376:
 2843 0052 0021     		movs	r1, #0
 2844 0054 FFF7FEFF 		bl	__aeabi_fcmpge
 2845              	.LVL377:
 2846 0058 0028     		cmp	r0, #0
 2847 005a 35D0     		beq	.L217
 794:display/GEVA.c ****             if (c->data > 0 && c->data <= c->max) {
 2848              		.loc 1 794 0
 2849 005c 0021     		movs	r1, #0
 2850 005e 3846     		mov	r0, r7
 2851 0060 FFF7FEFF 		bl	__aeabi_fcmpgt
 2852              	.LVL378:
 2853 0064 88B3     		cbz	r0, .L203
 2854              		.loc 1 794 0 is_stmt 0 discriminator 1
 2855 0066 D4F80880 		ldr	r8, [r4, #8]	@ float
 2856 006a 4146     		mov	r1, r8
 2857 006c 3846     		mov	r0, r7
 2858 006e FFF7FEFF 		bl	__aeabi_fcmple
ARM GAS  C:\Users\arist\AppData\Local\Temp\ccSjK9zC.s 			page 70


 2859              	.LVL379:
 2860 0072 50B3     		cbz	r0, .L203
 2861              	.LBB43:
 795:display/GEVA.c ****                 uint8_t dx = c->data * c->dim_x / c->max;
 2862              		.loc 1 795 0 is_stmt 1
 2863 0074 E078     		ldrb	r0, [r4, #3]	@ zero_extendqisi2
 2864 0076 FFF7FEFF 		bl	__aeabi_i2f
 2865              	.LVL380:
 2866 007a 3946     		mov	r1, r7
 2867 007c FFF7FEFF 		bl	__aeabi_fmul
 2868              	.LVL381:
 2869 0080 4146     		mov	r1, r8
 2870 0082 FFF7FEFF 		bl	__aeabi_fdiv
 2871              	.LVL382:
 2872 0086 FFF7FEFF 		bl	__aeabi_f2uiz
 2873              	.LVL383:
 2874 008a 5FFA80F8 		uxtb	r8, r0
 2875              	.LVL384:
 2876              	.LBB44:
 796:display/GEVA.c **** 
 797:display/GEVA.c ****                 for (uint8_t i = 0; i < c->dim_y_pos; i++)
 2877              		.loc 1 797 0
 2878 008e 0027     		movs	r7, #0
 2879 0090 0EE0     		b	.L207
 2880              	.LVL385:
 2881              	.L208:
 798:display/GEVA.c ****                     error = put_line(c->o_x, c->o_y + i, c->o_x + dx - 1, c->o_y + i, buf);
 2882              		.loc 1 798 0 discriminator 3
 2883 0092 6178     		ldrb	r1, [r4, #1]	@ zero_extendqisi2
 2884 0094 2078     		ldrb	r0, [r4]	@ zero_extendqisi2
 2885 0096 08EB0002 		add	r2, r8, r0
 2886 009a 013A     		subs	r2, r2, #1
 2887 009c 3944     		add	r1, r1, r7
 2888 009e C9B2     		uxtb	r1, r1
 2889 00a0 0096     		str	r6, [sp]
 2890 00a2 0B46     		mov	r3, r1
 2891 00a4 D2B2     		uxtb	r2, r2
 2892 00a6 FFF7FEFF 		bl	put_line
 2893              	.LVL386:
 2894 00aa 0546     		mov	r5, r0
 2895              	.LVL387:
 797:display/GEVA.c ****                     error = put_line(c->o_x, c->o_y + i, c->o_x + dx - 1, c->o_y + i, buf);
 2896              		.loc 1 797 0 discriminator 3
 2897 00ac 0137     		adds	r7, r7, #1
 2898              	.LVL388:
 2899 00ae FFB2     		uxtb	r7, r7
 2900              	.LVL389:
 2901              	.L207:
 797:display/GEVA.c ****                     error = put_line(c->o_x, c->o_y + i, c->o_x + dx - 1, c->o_y + i, buf);
 2902              		.loc 1 797 0 is_stmt 0 discriminator 1
 2903 00b0 2379     		ldrb	r3, [r4, #4]	@ zero_extendqisi2
 2904 00b2 9F42     		cmp	r7, r3
 2905 00b4 EDD3     		bcc	.L208
 2906 00b6 08E0     		b	.L203
 2907              	.LVL390:
 2908              	.L209:
 2909              	.LBE44:
ARM GAS  C:\Users\arist\AppData\Local\Temp\ccSjK9zC.s 			page 71


 2910              	.LBE43:
 788:display/GEVA.c **** 
 2911              		.loc 1 788 0 is_stmt 1
 2912 00b8 0325     		movs	r5, #3
 2913 00ba 06E0     		b	.L203
 2914              	.L210:
 2915 00bc 0325     		movs	r5, #3
 2916 00be 04E0     		b	.L203
 2917              	.L211:
 2918 00c0 0325     		movs	r5, #3
 2919 00c2 02E0     		b	.L203
 2920              	.L212:
 2921 00c4 0325     		movs	r5, #3
 2922 00c6 00E0     		b	.L203
 2923              	.LVL391:
 2924              	.L217:
 799:display/GEVA.c ****             }
 800:display/GEVA.c ****         }
 801:display/GEVA.c ****         else
 802:display/GEVA.c ****             error = 2;
 2925              		.loc 1 802 0
 2926 00c8 0225     		movs	r5, #2
 2927              	.LVL392:
 2928              	.L203:
 803:display/GEVA.c ****     }
 804:display/GEVA.c **** 
 805:display/GEVA.c ****     return error;
 806:display/GEVA.c **** }
 2929              		.loc 1 806 0
 2930 00ca 2846     		mov	r0, r5
 2931 00cc 02B0     		add	sp, sp, #8
 2932              		.cfi_def_cfa_offset 24
 2933              		@ sp needed
 2934 00ce BDE8F081 		pop	{r4, r5, r6, r7, r8, pc}
 2935              		.cfi_endproc
 2936              	.LFE25:
 2937              		.size	update_BAR, .-update_BAR
 2938              		.global	__aeabi_f2iz
 2939              		.section	.text.update_LINE,"ax",%progbits
 2940              		.align	2
 2941              		.global	update_LINE
 2942              		.thumb
 2943              		.thumb_func
 2944              		.type	update_LINE, %function
 2945              	update_LINE:
 2946              	.LFB26:
 807:display/GEVA.c **** 
 808:display/GEVA.c **** /* Draw line like chart
 809:display/GEVA.c ****  * return error code
 810:display/GEVA.c ****  * error code list:
 811:display/GEVA.c ****  * 1 data out of range
 812:display/GEVA.c ****  * 2 dimension mismatch
 813:display/GEVA.c ****  * 3 chart not defined
 814:display/GEVA.c ****  * 4 starting point out of scope
 815:display/GEVA.c ****  * beware: no check on data coherence nor axis limits
 816:display/GEVA.c ****  * note: change data before calling update
 817:display/GEVA.c **** */
ARM GAS  C:\Users\arist\AppData\Local\Temp\ccSjK9zC.s 			page 72


 818:display/GEVA.c **** uint8_t update_LINE(data_container* c, video_buffer* buf) {
 2947              		.loc 1 818 0
 2948              		.cfi_startproc
 2949              		@ args = 0, pretend = 0, frame = 0
 2950              		@ frame_needed = 0, uses_anonymous_args = 0
 2951              	.LVL393:
 2952 0000 2DE9F047 		push	{r4, r5, r6, r7, r8, r9, r10, lr}
 2953              		.cfi_def_cfa_offset 32
 2954              		.cfi_offset 4, -32
 2955              		.cfi_offset 5, -28
 2956              		.cfi_offset 6, -24
 2957              		.cfi_offset 7, -20
 2958              		.cfi_offset 8, -16
 2959              		.cfi_offset 9, -12
 2960              		.cfi_offset 10, -8
 2961              		.cfi_offset 14, -4
 2962 0004 82B0     		sub	sp, sp, #8
 2963              		.cfi_def_cfa_offset 40
 2964 0006 0446     		mov	r4, r0
 2965 0008 0F46     		mov	r7, r1
 2966              	.LVL394:
 819:display/GEVA.c **** 
 820:display/GEVA.c ****     uint8_t error = 1;
 821:display/GEVA.c ****     int16_t value = (c->data * c->dim_y_pos / c->max);
 2967              		.loc 1 821 0
 2968 000a 4569     		ldr	r5, [r0, #20]	@ float
 2969 000c 0079     		ldrb	r0, [r0, #4]	@ zero_extendqisi2
 2970              	.LVL395:
 2971 000e FFF7FEFF 		bl	__aeabi_i2f
 2972              	.LVL396:
 2973 0012 2946     		mov	r1, r5
 2974 0014 FFF7FEFF 		bl	__aeabi_fmul
 2975              	.LVL397:
 2976 0018 A668     		ldr	r6, [r4, #8]	@ float
 2977 001a 3146     		mov	r1, r6
 2978 001c FFF7FEFF 		bl	__aeabi_fdiv
 2979              	.LVL398:
 2980 0020 FFF7FEFF 		bl	__aeabi_f2iz
 2981              	.LVL399:
 822:display/GEVA.c ****     static uint8_t old_data;
 823:display/GEVA.c ****     static uint8_t dx;
 824:display/GEVA.c ****     dx = c->dim_x / c->x_division; //limit is dim_x
 2982              		.loc 1 824 0
 2983 0024 E578     		ldrb	r5, [r4, #3]	@ zero_extendqisi2
 2984 0026 94F818A0 		ldrb	r10, [r4, #24]	@ zero_extendqisi2
 2985 002a B5FBFAF9 		udiv	r9, r5, r10
 2986 002e 494B     		ldr	r3, .L229
 2987 0030 83F80290 		strb	r9, [r3, #2]
 825:display/GEVA.c ****     static uint8_t x;
 826:display/GEVA.c **** 
 827:display/GEVA.c ****     static uint8_t x_cnt = 0;
 828:display/GEVA.c **** 
 829:display/GEVA.c ****     if (c->dim_x == 0 || c->max <= c->min)
 2988              		.loc 1 829 0
 2989 0034 002D     		cmp	r5, #0
 2990 0036 00F08680 		beq	.L226
 2991 003a 0FFA80F8 		sxth	r8, r0
ARM GAS  C:\Users\arist\AppData\Local\Temp\ccSjK9zC.s 			page 73


 2992              		.loc 1 829 0 is_stmt 0 discriminator 1
 2993 003e E168     		ldr	r1, [r4, #12]	@ float
 2994 0040 3046     		mov	r0, r6
 2995              	.LVL400:
 2996 0042 FFF7FEFF 		bl	__aeabi_fcmple
 2997              	.LVL401:
 2998 0046 0028     		cmp	r0, #0
 2999 0048 7FD1     		bne	.L227
 830:display/GEVA.c ****         error = 3;
 831:display/GEVA.c **** 
 832:display/GEVA.c ****     else {
 833:display/GEVA.c ****         if (x_cnt > c->x_division)
 3000              		.loc 1 833 0 is_stmt 1
 3001 004a 424B     		ldr	r3, .L229
 3002 004c DB78     		ldrb	r3, [r3, #3]	@ zero_extendqisi2
 3003 004e 9A45     		cmp	r10, r3
 3004 0050 02D2     		bcs	.L221
 834:display/GEVA.c ****             x_cnt = 0;
 3005              		.loc 1 834 0
 3006 0052 0022     		movs	r2, #0
 3007 0054 3F4B     		ldr	r3, .L229
 3008 0056 DA70     		strb	r2, [r3, #3]
 3009              	.L221:
 835:display/GEVA.c **** 
 836:display/GEVA.c ****         if (x_cnt == 0) {
 3010              		.loc 1 836 0
 3011 0058 3E4B     		ldr	r3, .L229
 3012 005a DB78     		ldrb	r3, [r3, #3]	@ zero_extendqisi2
 3013 005c 002B     		cmp	r3, #0
 3014 005e 57D1     		bne	.L222
 837:display/GEVA.c ****             // cancel chart area only at first entry
 838:display/GEVA.c ****             //draw axis only at first entry
 839:display/GEVA.c ****             put_line(c->o_x, c->o_y, c->o_x + c->dim_x, c->o_y, buf);
 3015              		.loc 1 839 0
 3016 0060 2078     		ldrb	r0, [r4]	@ zero_extendqisi2
 3017 0062 6178     		ldrb	r1, [r4, #1]	@ zero_extendqisi2
 3018 0064 2A18     		adds	r2, r5, r0
 3019 0066 0097     		str	r7, [sp]
 3020 0068 0B46     		mov	r3, r1
 3021 006a D2B2     		uxtb	r2, r2
 3022 006c FFF7FEFF 		bl	put_line
 3023              	.LVL402:
 840:display/GEVA.c ****             put_line(c->o_x, c->o_y, c->o_x, c->o_y + c->dim_y_pos, buf);
 3024              		.loc 1 840 0
 3025 0070 2078     		ldrb	r0, [r4]	@ zero_extendqisi2
 3026 0072 6178     		ldrb	r1, [r4, #1]	@ zero_extendqisi2
 3027 0074 2379     		ldrb	r3, [r4, #4]	@ zero_extendqisi2
 3028 0076 0B44     		add	r3, r3, r1
 3029 0078 0097     		str	r7, [sp]
 3030 007a DBB2     		uxtb	r3, r3
 3031 007c 0246     		mov	r2, r0
 3032 007e FFF7FEFF 		bl	put_line
 3033              	.LVL403:
 841:display/GEVA.c ****             put_line(c->o_x, c->o_y, c->o_x, c->o_y - c->dim_y_neg, buf); //
 3034              		.loc 1 841 0
 3035 0082 2078     		ldrb	r0, [r4]	@ zero_extendqisi2
 3036 0084 6178     		ldrb	r1, [r4, #1]	@ zero_extendqisi2
ARM GAS  C:\Users\arist\AppData\Local\Temp\ccSjK9zC.s 			page 74


 3037 0086 6379     		ldrb	r3, [r4, #5]	@ zero_extendqisi2
 3038 0088 CB1A     		subs	r3, r1, r3
 3039 008a 0097     		str	r7, [sp]
 3040 008c DBB2     		uxtb	r3, r3
 3041 008e 0246     		mov	r2, r0
 3042 0090 FFF7FEFF 		bl	put_line
 3043              	.LVL404:
 3044              	.LBB45:
 842:display/GEVA.c ****             
 843:display/GEVA.c ****             for (uint8_t i = 0; i <= c->x_division; i++) //draw x data markers
 3045              		.loc 1 843 0
 3046 0094 0025     		movs	r5, #0
 3047 0096 0EE0     		b	.L223
 3048              	.LVL405:
 3049              	.L224:
 844:display/GEVA.c ****                 put_pixel(c->o_x + dx * i, c->o_y - 1,SET, buf);
 3050              		.loc 1 844 0 discriminator 3
 3051 0098 2078     		ldrb	r0, [r4]	@ zero_extendqisi2
 3052 009a 6178     		ldrb	r1, [r4, #1]	@ zero_extendqisi2
 3053 009c 0139     		subs	r1, r1, #1
 3054 009e 2D4B     		ldr	r3, .L229
 3055 00a0 9B78     		ldrb	r3, [r3, #2]	@ zero_extendqisi2
 3056 00a2 03FB0500 		mla	r0, r3, r5, r0
 3057 00a6 3B46     		mov	r3, r7
 3058 00a8 0122     		movs	r2, #1
 3059 00aa C9B2     		uxtb	r1, r1
 3060 00ac C0B2     		uxtb	r0, r0
 3061 00ae FFF7FEFF 		bl	put_pixel
 3062              	.LVL406:
 843:display/GEVA.c ****                 put_pixel(c->o_x + dx * i, c->o_y - 1,SET, buf);
 3063              		.loc 1 843 0 discriminator 3
 3064 00b2 0135     		adds	r5, r5, #1
 3065              	.LVL407:
 3066 00b4 EDB2     		uxtb	r5, r5
 3067              	.LVL408:
 3068              	.L223:
 843:display/GEVA.c ****                 put_pixel(c->o_x + dx * i, c->o_y - 1,SET, buf);
 3069              		.loc 1 843 0 is_stmt 0 discriminator 1
 3070 00b6 237E     		ldrb	r3, [r4, #24]	@ zero_extendqisi2
 3071 00b8 9D42     		cmp	r5, r3
 3072 00ba EDD9     		bls	.L224
 3073              	.LBE45:
 845:display/GEVA.c ****             
 846:display/GEVA.c ****             old_data = c->o_y;
 3074              		.loc 1 846 0 is_stmt 1
 3075 00bc 6178     		ldrb	r1, [r4, #1]	@ zero_extendqisi2
 3076 00be 254D     		ldr	r5, .L229
 3077              	.LVL409:
 3078 00c0 2971     		strb	r1, [r5, #4]
 847:display/GEVA.c ****             error = clear_sector(c->o_x + 1, c->o_y - c->dim_y_neg, c->dim_x, c->dim_y_neg, buf); /
 3079              		.loc 1 847 0
 3080 00c2 2078     		ldrb	r0, [r4]	@ zero_extendqisi2
 3081 00c4 0130     		adds	r0, r0, #1
 3082 00c6 6379     		ldrb	r3, [r4, #5]	@ zero_extendqisi2
 3083 00c8 C91A     		subs	r1, r1, r3
 3084 00ca E278     		ldrb	r2, [r4, #3]	@ zero_extendqisi2
 3085 00cc 0097     		str	r7, [sp]
ARM GAS  C:\Users\arist\AppData\Local\Temp\ccSjK9zC.s 			page 75


 3086 00ce C9B2     		uxtb	r1, r1
 3087 00d0 C0B2     		uxtb	r0, r0
 3088 00d2 FFF7FEFF 		bl	clear_sector
 3089              	.LVL410:
 848:display/GEVA.c ****             error = clear_sector(c->o_x + 1, c->o_y + 1, c->dim_x, c->dim_y_pos, buf); //limits che
 3090              		.loc 1 848 0
 3091 00d6 2078     		ldrb	r0, [r4]	@ zero_extendqisi2
 3092 00d8 0130     		adds	r0, r0, #1
 3093 00da 6178     		ldrb	r1, [r4, #1]	@ zero_extendqisi2
 3094 00dc 0131     		adds	r1, r1, #1
 3095 00de E278     		ldrb	r2, [r4, #3]	@ zero_extendqisi2
 3096 00e0 2379     		ldrb	r3, [r4, #4]	@ zero_extendqisi2
 3097 00e2 0097     		str	r7, [sp]
 3098 00e4 C9B2     		uxtb	r1, r1
 3099 00e6 C0B2     		uxtb	r0, r0
 3100 00e8 FFF7FEFF 		bl	clear_sector
 3101              	.LVL411:
 849:display/GEVA.c ****             //first entry
 850:display/GEVA.c ****             error = put_line(c->o_x, (uint8_t)old_data, c->o_x, (uint8_t)(c->o_y + value), buf);
 3102              		.loc 1 850 0
 3103 00ec 2979     		ldrb	r1, [r5, #4]	@ zero_extendqisi2
 3104 00ee 2078     		ldrb	r0, [r4]	@ zero_extendqisi2
 3105 00f0 6378     		ldrb	r3, [r4, #1]	@ zero_extendqisi2
 3106 00f2 5FFA88F8 		uxtb	r8, r8
 3107              	.LVL412:
 3108 00f6 4344     		add	r3, r3, r8
 3109 00f8 0097     		str	r7, [sp]
 3110 00fa DBB2     		uxtb	r3, r3
 3111 00fc 0246     		mov	r2, r0
 3112 00fe FFF7FEFF 		bl	put_line
 3113              	.LVL413:
 851:display/GEVA.c ****             old_data = c->o_y + value;
 3114              		.loc 1 851 0
 3115 0102 6378     		ldrb	r3, [r4, #1]	@ zero_extendqisi2
 3116 0104 9844     		add	r8, r8, r3
 3117 0106 85F80480 		strb	r8, [r5, #4]
 852:display/GEVA.c ****             x = c->o_x;
 3118              		.loc 1 852 0
 3119 010a 2378     		ldrb	r3, [r4]	@ zero_extendqisi2
 3120 010c 6B71     		strb	r3, [r5, #5]
 3121 010e 15E0     		b	.L225
 3122              	.LVL414:
 3123              	.L222:
 853:display/GEVA.c ****         }
 854:display/GEVA.c ****         else {
 855:display/GEVA.c ****             error = put_line(x, (uint8_t)old_data, x + dx, c->o_y + value, buf);
 3124              		.loc 1 855 0
 3125 0110 104D     		ldr	r5, .L229
 3126 0112 2979     		ldrb	r1, [r5, #4]	@ zero_extendqisi2
 3127 0114 6879     		ldrb	r0, [r5, #5]	@ zero_extendqisi2
 3128 0116 09EB0002 		add	r2, r9, r0
 3129 011a 6378     		ldrb	r3, [r4, #1]	@ zero_extendqisi2
 3130 011c 5FFA88F8 		uxtb	r8, r8
 3131              	.LVL415:
 3132 0120 4344     		add	r3, r3, r8
 3133 0122 0097     		str	r7, [sp]
 3134 0124 DBB2     		uxtb	r3, r3
ARM GAS  C:\Users\arist\AppData\Local\Temp\ccSjK9zC.s 			page 76


 3135 0126 D2B2     		uxtb	r2, r2
 3136 0128 FFF7FEFF 		bl	put_line
 3137              	.LVL416:
 856:display/GEVA.c ****             old_data = (uint8_t)(c->o_y + value);
 3138              		.loc 1 856 0
 3139 012c 6378     		ldrb	r3, [r4, #1]	@ zero_extendqisi2
 3140 012e 9844     		add	r8, r8, r3
 3141 0130 85F80480 		strb	r8, [r5, #4]
 857:display/GEVA.c ****             x += dx;
 3142              		.loc 1 857 0
 3143 0134 6A79     		ldrb	r2, [r5, #5]	@ zero_extendqisi2
 3144 0136 AB78     		ldrb	r3, [r5, #2]	@ zero_extendqisi2
 3145 0138 1344     		add	r3, r3, r2
 3146 013a 6B71     		strb	r3, [r5, #5]
 3147              	.L225:
 858:display/GEVA.c ****         }
 859:display/GEVA.c ****         x_cnt++;
 3148              		.loc 1 859 0
 3149 013c 054A     		ldr	r2, .L229
 3150 013e D378     		ldrb	r3, [r2, #3]	@ zero_extendqisi2
 3151 0140 0133     		adds	r3, r3, #1
 3152 0142 D370     		strb	r3, [r2, #3]
 3153 0144 02E0     		b	.L220
 3154              	.LVL417:
 3155              	.L226:
 830:display/GEVA.c **** 
 3156              		.loc 1 830 0
 3157 0146 0320     		movs	r0, #3
 3158              	.LVL418:
 3159 0148 00E0     		b	.L220
 3160              	.LVL419:
 3161              	.L227:
 3162 014a 0320     		movs	r0, #3
 3163              	.LVL420:
 3164              	.L220:
 860:display/GEVA.c ****     }
 861:display/GEVA.c ****     return error;
 862:display/GEVA.c **** }
 3165              		.loc 1 862 0
 3166 014c 02B0     		add	sp, sp, #8
 3167              		.cfi_def_cfa_offset 32
 3168              		@ sp needed
 3169 014e BDE8F087 		pop	{r4, r5, r6, r7, r8, r9, r10, pc}
 3170              	.LVL421:
 3171              	.L230:
 3172 0152 00BF     		.align	2
 3173              	.L229:
 3174 0154 00000000 		.word	.LANCHOR0
 3175              		.cfi_endproc
 3176              	.LFE26:
 3177              		.size	update_LINE, .-update_LINE
 3178              		.section	.text.update_SCATTER,"ax",%progbits
 3179              		.align	2
 3180              		.global	update_SCATTER
 3181              		.thumb
 3182              		.thumb_func
 3183              		.type	update_SCATTER, %function
ARM GAS  C:\Users\arist\AppData\Local\Temp\ccSjK9zC.s 			page 77


 3184              	update_SCATTER:
 3185              	.LFB27:
 863:display/GEVA.c **** 
 864:display/GEVA.c **** /* Draw scatter like chart
 865:display/GEVA.c ****  * return error code
 866:display/GEVA.c ****  * error code list:
 867:display/GEVA.c ****  * 1 data out of range
 868:display/GEVA.c ****  * 2 dimension mismatch
 869:display/GEVA.c ****  * 3 chart not defined
 870:display/GEVA.c ****  * 4 starting point out of scope
 871:display/GEVA.c ****  * beware: no check on data coherence nor axis limits
 872:display/GEVA.c ****  * note: change data before calling update
 873:display/GEVA.c **** */
 874:display/GEVA.c **** uint8_t update_SCATTER(data_container* c, video_buffer* buf) {
 3186              		.loc 1 874 0
 3187              		.cfi_startproc
 3188              		@ args = 0, pretend = 0, frame = 0
 3189              		@ frame_needed = 0, uses_anonymous_args = 0
 3190              	.LVL422:
 3191 0000 2DE9F043 		push	{r4, r5, r6, r7, r8, r9, lr}
 3192              		.cfi_def_cfa_offset 28
 3193              		.cfi_offset 4, -28
 3194              		.cfi_offset 5, -24
 3195              		.cfi_offset 6, -20
 3196              		.cfi_offset 7, -16
 3197              		.cfi_offset 8, -12
 3198              		.cfi_offset 9, -8
 3199              		.cfi_offset 14, -4
 3200 0004 83B0     		sub	sp, sp, #12
 3201              		.cfi_def_cfa_offset 40
 3202 0006 0446     		mov	r4, r0
 3203 0008 0F46     		mov	r7, r1
 3204              	.LVL423:
 875:display/GEVA.c ****     
 876:display/GEVA.c ****     uint8_t error = 1;
 877:display/GEVA.c ****     int16_t value = (c->data * c->dim_y_pos / c->max);
 3205              		.loc 1 877 0
 3206 000a 4569     		ldr	r5, [r0, #20]	@ float
 3207 000c 0079     		ldrb	r0, [r0, #4]	@ zero_extendqisi2
 3208              	.LVL424:
 3209 000e FFF7FEFF 		bl	__aeabi_i2f
 3210              	.LVL425:
 3211 0012 2946     		mov	r1, r5
 3212 0014 FFF7FEFF 		bl	__aeabi_fmul
 3213              	.LVL426:
 3214 0018 A668     		ldr	r6, [r4, #8]	@ float
 3215 001a 3146     		mov	r1, r6
 3216 001c FFF7FEFF 		bl	__aeabi_fdiv
 3217              	.LVL427:
 3218 0020 FFF7FEFF 		bl	__aeabi_f2iz
 3219              	.LVL428:
 878:display/GEVA.c ****     static uint8_t old_data;
 879:display/GEVA.c ****     static uint8_t dx;
 880:display/GEVA.c ****     dx = c->dim_x / c->x_division; //limit is dim_x
 3220              		.loc 1 880 0
 3221 0024 E578     		ldrb	r5, [r4, #3]	@ zero_extendqisi2
 3222 0026 94F81890 		ldrb	r9, [r4, #24]	@ zero_extendqisi2
ARM GAS  C:\Users\arist\AppData\Local\Temp\ccSjK9zC.s 			page 78


 3223 002a B5FBF9F2 		udiv	r2, r5, r9
 3224 002e 434B     		ldr	r3, .L241
 3225 0030 9A71     		strb	r2, [r3, #6]
 881:display/GEVA.c ****     static uint8_t x;
 882:display/GEVA.c **** 
 883:display/GEVA.c ****     static uint8_t x_cnt = 0;
 884:display/GEVA.c **** 
 885:display/GEVA.c ****     if (c->dim_x == 0 || c->max <= c->min)
 3226              		.loc 1 885 0
 3227 0032 002D     		cmp	r5, #0
 3228 0034 7CD0     		beq	.L238
 3229 0036 0FFA80F8 		sxth	r8, r0
 3230              		.loc 1 885 0 is_stmt 0 discriminator 1
 3231 003a E168     		ldr	r1, [r4, #12]	@ float
 3232 003c 3046     		mov	r0, r6
 3233              	.LVL429:
 3234 003e FFF7FEFF 		bl	__aeabi_fcmple
 3235              	.LVL430:
 3236 0042 0028     		cmp	r0, #0
 3237 0044 76D1     		bne	.L239
 886:display/GEVA.c ****         error = 3;
 887:display/GEVA.c **** 
 888:display/GEVA.c ****     else {
 889:display/GEVA.c ****         if (x_cnt > c->x_division)
 3238              		.loc 1 889 0 is_stmt 1
 3239 0046 3D4B     		ldr	r3, .L241
 3240 0048 DB79     		ldrb	r3, [r3, #7]	@ zero_extendqisi2
 3241 004a 9945     		cmp	r9, r3
 3242 004c 02D2     		bcs	.L233
 890:display/GEVA.c ****             x_cnt = 0;
 3243              		.loc 1 890 0
 3244 004e 0022     		movs	r2, #0
 3245 0050 3A4B     		ldr	r3, .L241
 3246 0052 DA71     		strb	r2, [r3, #7]
 3247              	.L233:
 891:display/GEVA.c **** 
 892:display/GEVA.c ****         if (x_cnt == 0) {
 3248              		.loc 1 892 0
 3249 0054 394B     		ldr	r3, .L241
 3250 0056 DB79     		ldrb	r3, [r3, #7]	@ zero_extendqisi2
 3251 0058 002B     		cmp	r3, #0
 3252 005a 57D1     		bne	.L234
 893:display/GEVA.c ****             // cancel chart area only at first entry
 894:display/GEVA.c ****             //draw axis only at first entry
 895:display/GEVA.c ****             put_line(c->o_x, c->o_y, c->o_x + c->dim_x, c->o_y, buf);
 3253              		.loc 1 895 0
 3254 005c 2078     		ldrb	r0, [r4]	@ zero_extendqisi2
 3255 005e 6178     		ldrb	r1, [r4, #1]	@ zero_extendqisi2
 3256 0060 2A18     		adds	r2, r5, r0
 3257 0062 0097     		str	r7, [sp]
 3258 0064 0B46     		mov	r3, r1
 3259 0066 D2B2     		uxtb	r2, r2
 3260 0068 FFF7FEFF 		bl	put_line
 3261              	.LVL431:
 896:display/GEVA.c ****             put_line(c->o_x, c->o_y, c->o_x, c->o_y + c->dim_y_pos, buf);
 3262              		.loc 1 896 0
 3263 006c 2078     		ldrb	r0, [r4]	@ zero_extendqisi2
ARM GAS  C:\Users\arist\AppData\Local\Temp\ccSjK9zC.s 			page 79


 3264 006e 6178     		ldrb	r1, [r4, #1]	@ zero_extendqisi2
 3265 0070 2379     		ldrb	r3, [r4, #4]	@ zero_extendqisi2
 3266 0072 0B44     		add	r3, r3, r1
 3267 0074 0097     		str	r7, [sp]
 3268 0076 DBB2     		uxtb	r3, r3
 3269 0078 0246     		mov	r2, r0
 3270 007a FFF7FEFF 		bl	put_line
 3271              	.LVL432:
 897:display/GEVA.c ****             put_line(c->o_x, c->o_y, c->o_x, c->o_y - c->dim_y_neg, buf);
 3272              		.loc 1 897 0
 3273 007e 2078     		ldrb	r0, [r4]	@ zero_extendqisi2
 3274 0080 6178     		ldrb	r1, [r4, #1]	@ zero_extendqisi2
 3275 0082 6379     		ldrb	r3, [r4, #5]	@ zero_extendqisi2
 3276 0084 CB1A     		subs	r3, r1, r3
 3277 0086 0097     		str	r7, [sp]
 3278 0088 DBB2     		uxtb	r3, r3
 3279 008a 0246     		mov	r2, r0
 3280 008c FFF7FEFF 		bl	put_line
 3281              	.LVL433:
 3282              	.LBB46:
 898:display/GEVA.c ****             
 899:display/GEVA.c ****                 
 900:display/GEVA.c ****             for (uint8_t i = 0; i <= c->x_division; i++) //draw x data markers
 3283              		.loc 1 900 0
 3284 0090 0025     		movs	r5, #0
 3285 0092 0EE0     		b	.L235
 3286              	.LVL434:
 3287              	.L236:
 901:display/GEVA.c ****                 put_pixel(c->o_x + dx * i, c->o_y - 1, SET, buf);
 3288              		.loc 1 901 0 discriminator 3
 3289 0094 2078     		ldrb	r0, [r4]	@ zero_extendqisi2
 3290 0096 6178     		ldrb	r1, [r4, #1]	@ zero_extendqisi2
 3291 0098 0139     		subs	r1, r1, #1
 3292 009a 284B     		ldr	r3, .L241
 3293 009c 9B79     		ldrb	r3, [r3, #6]	@ zero_extendqisi2
 3294 009e 03FB0500 		mla	r0, r3, r5, r0
 3295 00a2 3B46     		mov	r3, r7
 3296 00a4 0122     		movs	r2, #1
 3297 00a6 C9B2     		uxtb	r1, r1
 3298 00a8 C0B2     		uxtb	r0, r0
 3299 00aa FFF7FEFF 		bl	put_pixel
 3300              	.LVL435:
 900:display/GEVA.c ****                 put_pixel(c->o_x + dx * i, c->o_y - 1, SET, buf);
 3301              		.loc 1 900 0 discriminator 3
 3302 00ae 0135     		adds	r5, r5, #1
 3303              	.LVL436:
 3304 00b0 EDB2     		uxtb	r5, r5
 3305              	.LVL437:
 3306              	.L235:
 900:display/GEVA.c ****                 put_pixel(c->o_x + dx * i, c->o_y - 1, SET, buf);
 3307              		.loc 1 900 0 is_stmt 0 discriminator 1
 3308 00b2 237E     		ldrb	r3, [r4, #24]	@ zero_extendqisi2
 3309 00b4 9D42     		cmp	r5, r3
 3310 00b6 EDD9     		bls	.L236
 3311              	.LBE46:
 902:display/GEVA.c **** 
 903:display/GEVA.c ****             old_data = c->o_y;
ARM GAS  C:\Users\arist\AppData\Local\Temp\ccSjK9zC.s 			page 80


 3312              		.loc 1 903 0 is_stmt 1
 3313 00b8 6178     		ldrb	r1, [r4, #1]	@ zero_extendqisi2
 3314 00ba 204D     		ldr	r5, .L241
 3315              	.LVL438:
 3316 00bc 2972     		strb	r1, [r5, #8]
 904:display/GEVA.c ****                 
 905:display/GEVA.c ****             error = clear_sector(c->o_x + 1, c->o_y - c->dim_y_neg, c->dim_x, c->dim_y_neg, buf); /
 3317              		.loc 1 905 0
 3318 00be 2078     		ldrb	r0, [r4]	@ zero_extendqisi2
 3319 00c0 0130     		adds	r0, r0, #1
 3320 00c2 6379     		ldrb	r3, [r4, #5]	@ zero_extendqisi2
 3321 00c4 C91A     		subs	r1, r1, r3
 3322 00c6 E278     		ldrb	r2, [r4, #3]	@ zero_extendqisi2
 3323 00c8 0097     		str	r7, [sp]
 3324 00ca C9B2     		uxtb	r1, r1
 3325 00cc C0B2     		uxtb	r0, r0
 3326 00ce FFF7FEFF 		bl	clear_sector
 3327              	.LVL439:
 906:display/GEVA.c ****             error = clear_sector(c->o_x + 1, c->o_y + 1, c->dim_x, c->dim_y_pos, buf); //limits che
 3328              		.loc 1 906 0
 3329 00d2 2078     		ldrb	r0, [r4]	@ zero_extendqisi2
 3330 00d4 0130     		adds	r0, r0, #1
 3331 00d6 6178     		ldrb	r1, [r4, #1]	@ zero_extendqisi2
 3332 00d8 0131     		adds	r1, r1, #1
 3333 00da E278     		ldrb	r2, [r4, #3]	@ zero_extendqisi2
 3334 00dc 2379     		ldrb	r3, [r4, #4]	@ zero_extendqisi2
 3335 00de 0097     		str	r7, [sp]
 3336 00e0 C9B2     		uxtb	r1, r1
 3337 00e2 C0B2     		uxtb	r0, r0
 3338 00e4 FFF7FEFF 		bl	clear_sector
 3339              	.LVL440:
 907:display/GEVA.c ****             //first entry
 908:display/GEVA.c ****             error = put_line(c->o_x, (uint8_t)old_data, c->o_x, (uint8_t)(c->o_y + value), buf);
 3340              		.loc 1 908 0
 3341 00e8 297A     		ldrb	r1, [r5, #8]	@ zero_extendqisi2
 3342 00ea 2078     		ldrb	r0, [r4]	@ zero_extendqisi2
 3343 00ec 6378     		ldrb	r3, [r4, #1]	@ zero_extendqisi2
 3344 00ee 5FFA88F8 		uxtb	r8, r8
 3345              	.LVL441:
 3346 00f2 4344     		add	r3, r3, r8
 3347 00f4 0097     		str	r7, [sp]
 3348 00f6 DBB2     		uxtb	r3, r3
 3349 00f8 0246     		mov	r2, r0
 3350 00fa FFF7FEFF 		bl	put_line
 3351              	.LVL442:
 909:display/GEVA.c ****             old_data = c->o_y + value;
 3352              		.loc 1 909 0
 3353 00fe 6378     		ldrb	r3, [r4, #1]	@ zero_extendqisi2
 3354 0100 9844     		add	r8, r8, r3
 3355 0102 85F80880 		strb	r8, [r5, #8]
 910:display/GEVA.c ****             x = c->o_x;
 3356              		.loc 1 910 0
 3357 0106 2378     		ldrb	r3, [r4]	@ zero_extendqisi2
 3358 0108 6B72     		strb	r3, [r5, #9]
 3359 010a 0CE0     		b	.L237
 3360              	.LVL443:
 3361              	.L234:
ARM GAS  C:\Users\arist\AppData\Local\Temp\ccSjK9zC.s 			page 81


 911:display/GEVA.c ****         }
 912:display/GEVA.c ****         else {
 913:display/GEVA.c ****             error = put_pixel(x, (uint8_t)(c->o_y + value), SET, buf);
 3362              		.loc 1 913 0
 3363 010c 0B4D     		ldr	r5, .L241
 3364 010e 6178     		ldrb	r1, [r4, #1]	@ zero_extendqisi2
 3365 0110 4144     		add	r1, r1, r8
 3366 0112 3B46     		mov	r3, r7
 3367 0114 0122     		movs	r2, #1
 3368 0116 C9B2     		uxtb	r1, r1
 3369 0118 687A     		ldrb	r0, [r5, #9]	@ zero_extendqisi2
 3370 011a FFF7FEFF 		bl	put_pixel
 3371              	.LVL444:
 914:display/GEVA.c ****             //old_data = (uint8_t)(c->o_y + value);
 915:display/GEVA.c ****             x += dx;
 3372              		.loc 1 915 0
 3373 011e 6A7A     		ldrb	r2, [r5, #9]	@ zero_extendqisi2
 3374 0120 AB79     		ldrb	r3, [r5, #6]	@ zero_extendqisi2
 3375 0122 1344     		add	r3, r3, r2
 3376 0124 6B72     		strb	r3, [r5, #9]
 3377              	.LVL445:
 3378              	.L237:
 916:display/GEVA.c ****         }
 917:display/GEVA.c ****         x_cnt++;
 3379              		.loc 1 917 0
 3380 0126 054A     		ldr	r2, .L241
 3381 0128 D379     		ldrb	r3, [r2, #7]	@ zero_extendqisi2
 3382 012a 0133     		adds	r3, r3, #1
 3383 012c D371     		strb	r3, [r2, #7]
 3384 012e 02E0     		b	.L232
 3385              	.LVL446:
 3386              	.L238:
 886:display/GEVA.c **** 
 3387              		.loc 1 886 0
 3388 0130 0320     		movs	r0, #3
 3389              	.LVL447:
 3390 0132 00E0     		b	.L232
 3391              	.LVL448:
 3392              	.L239:
 3393 0134 0320     		movs	r0, #3
 3394              	.LVL449:
 3395              	.L232:
 918:display/GEVA.c ****     }
 919:display/GEVA.c ****     return error;
 920:display/GEVA.c **** }
 3396              		.loc 1 920 0
 3397 0136 03B0     		add	sp, sp, #12
 3398              		.cfi_def_cfa_offset 28
 3399              		@ sp needed
 3400 0138 BDE8F083 		pop	{r4, r5, r6, r7, r8, r9, pc}
 3401              	.LVL450:
 3402              	.L242:
 3403              		.align	2
 3404              	.L241:
 3405 013c 00000000 		.word	.LANCHOR0
 3406              		.cfi_endproc
 3407              	.LFE27:
ARM GAS  C:\Users\arist\AppData\Local\Temp\ccSjK9zC.s 			page 82


 3408              		.size	update_SCATTER, .-update_SCATTER
 3409              		.section	.text.update_XY,"ax",%progbits
 3410              		.align	2
 3411              		.global	update_XY
 3412              		.thumb
 3413              		.thumb_func
 3414              		.type	update_XY, %function
 3415              	update_XY:
 3416              	.LFB28:
 921:display/GEVA.c **** 
 922:display/GEVA.c **** 
 923:display/GEVA.c **** /* Draw XY type chart where for every x is associate a y value similar to scatter but data are take
 924:display/GEVA.c ****  * return error code
 925:display/GEVA.c ****  * error code list:
 926:display/GEVA.c ****  * 1 data out of range
 927:display/GEVA.c ****  * 2 dimension mismatch
 928:display/GEVA.c ****  * 3 chart not defined
 929:display/GEVA.c ****  * 4 starting point out of scope
 930:display/GEVA.c ****  * beware: no check on data coherence nor axis limits
 931:display/GEVA.c ****  * note: both x and y values get scaled thus the visualization can be messy if x values are to clos
 932:display/GEVA.c **** */
 933:display/GEVA.c **** uint8_t update_XY(data_container* c, video_buffer* buf) {
 3417              		.loc 1 933 0
 3418              		.cfi_startproc
 3419              		@ args = 0, pretend = 0, frame = 0
 3420              		@ frame_needed = 0, uses_anonymous_args = 0
 3421              	.LVL451:
 3422 0000 2DE9F043 		push	{r4, r5, r6, r7, r8, r9, lr}
 3423              		.cfi_def_cfa_offset 28
 3424              		.cfi_offset 4, -28
 3425              		.cfi_offset 5, -24
 3426              		.cfi_offset 6, -20
 3427              		.cfi_offset 7, -16
 3428              		.cfi_offset 8, -12
 3429              		.cfi_offset 9, -8
 3430              		.cfi_offset 14, -4
 3431 0004 83B0     		sub	sp, sp, #12
 3432              		.cfi_def_cfa_offset 40
 3433              	.LVL452:
 934:display/GEVA.c **** 
 935:display/GEVA.c ****     uint8_t error = 1;
 936:display/GEVA.c ****     uint8_t dx = 0;
 937:display/GEVA.c ****     int16_t dy = 0;
 938:display/GEVA.c **** 
 939:display/GEVA.c ****     if (c->dim_x == 0 || c->max <= c->min)
 3434              		.loc 1 939 0
 3435 0006 C578     		ldrb	r5, [r0, #3]	@ zero_extendqisi2
 3436 0008 002D     		cmp	r5, #0
 3437 000a 65D0     		beq	.L247
 3438 000c 0E46     		mov	r6, r1
 3439 000e 0446     		mov	r4, r0
 3440              		.loc 1 939 0 is_stmt 0 discriminator 1
 3441 0010 C168     		ldr	r1, [r0, #12]	@ float
 3442              	.LVL453:
 3443 0012 8068     		ldr	r0, [r0, #8]	@ float
 3444              	.LVL454:
 3445 0014 FFF7FEFF 		bl	__aeabi_fcmple
ARM GAS  C:\Users\arist\AppData\Local\Temp\ccSjK9zC.s 			page 83


 3446              	.LVL455:
 3447 0018 0028     		cmp	r0, #0
 3448 001a 5FD1     		bne	.L248
 940:display/GEVA.c ****         error = 3;
 941:display/GEVA.c **** 
 942:display/GEVA.c ****     else {
 943:display/GEVA.c ****             // cancel chart area only at first entry
 944:display/GEVA.c ****             //draw axis only at first entry
 945:display/GEVA.c ****             error = clear_sector(c->o_x, c->o_y - c->dim_y_neg, c->dim_x, c->dim_y_neg, buf); //lim
 3449              		.loc 1 945 0 is_stmt 1
 3450 001c 2078     		ldrb	r0, [r4]	@ zero_extendqisi2
 3451 001e 6178     		ldrb	r1, [r4, #1]	@ zero_extendqisi2
 3452 0020 6379     		ldrb	r3, [r4, #5]	@ zero_extendqisi2
 3453 0022 C91A     		subs	r1, r1, r3
 3454 0024 0096     		str	r6, [sp]
 3455 0026 2A46     		mov	r2, r5
 3456 0028 C9B2     		uxtb	r1, r1
 3457 002a FFF7FEFF 		bl	clear_sector
 3458              	.LVL456:
 946:display/GEVA.c ****             error = clear_sector(c->o_x, c->o_y, c->dim_x, c->dim_y_pos, buf); //limits check withi
 3459              		.loc 1 946 0
 3460 002e 2078     		ldrb	r0, [r4]	@ zero_extendqisi2
 3461 0030 6178     		ldrb	r1, [r4, #1]	@ zero_extendqisi2
 3462 0032 E278     		ldrb	r2, [r4, #3]	@ zero_extendqisi2
 3463 0034 2379     		ldrb	r3, [r4, #4]	@ zero_extendqisi2
 3464 0036 0096     		str	r6, [sp]
 3465 0038 FFF7FEFF 		bl	clear_sector
 3466              	.LVL457:
 3467 003c 0746     		mov	r7, r0
 3468              	.LVL458:
 947:display/GEVA.c ****             put_line(c->o_x, c->o_y, c->o_x + c->dim_x, c->o_y, buf);
 3469              		.loc 1 947 0
 3470 003e 2078     		ldrb	r0, [r4]	@ zero_extendqisi2
 3471 0040 E278     		ldrb	r2, [r4, #3]	@ zero_extendqisi2
 3472 0042 6178     		ldrb	r1, [r4, #1]	@ zero_extendqisi2
 3473 0044 0244     		add	r2, r2, r0
 3474 0046 0096     		str	r6, [sp]
 3475 0048 0B46     		mov	r3, r1
 3476 004a D2B2     		uxtb	r2, r2
 3477 004c FFF7FEFF 		bl	put_line
 3478              	.LVL459:
 948:display/GEVA.c ****             put_line(c->o_x, c->o_y, c->o_x, c->o_y + c->dim_y_pos, buf);
 3479              		.loc 1 948 0
 3480 0050 2078     		ldrb	r0, [r4]	@ zero_extendqisi2
 3481 0052 6178     		ldrb	r1, [r4, #1]	@ zero_extendqisi2
 3482 0054 2379     		ldrb	r3, [r4, #4]	@ zero_extendqisi2
 3483 0056 0B44     		add	r3, r3, r1
 3484 0058 0096     		str	r6, [sp]
 3485 005a DBB2     		uxtb	r3, r3
 3486 005c 0246     		mov	r2, r0
 3487 005e FFF7FEFF 		bl	put_line
 3488              	.LVL460:
 949:display/GEVA.c ****             put_line(c->o_x, c->o_y, c->o_x, c->o_y - c->dim_y_neg, buf);
 3489              		.loc 1 949 0
 3490 0062 2078     		ldrb	r0, [r4]	@ zero_extendqisi2
 3491 0064 6178     		ldrb	r1, [r4, #1]	@ zero_extendqisi2
 3492 0066 6379     		ldrb	r3, [r4, #5]	@ zero_extendqisi2
ARM GAS  C:\Users\arist\AppData\Local\Temp\ccSjK9zC.s 			page 84


 3493 0068 CB1A     		subs	r3, r1, r3
 3494 006a 0096     		str	r6, [sp]
 3495 006c DBB2     		uxtb	r3, r3
 3496 006e 0246     		mov	r2, r0
 3497 0070 FFF7FEFF 		bl	put_line
 3498              	.LVL461:
 3499              	.LBB47:
 950:display/GEVA.c **** 
 951:display/GEVA.c ****             for (uint8_t i = 0; i < c->xy_entries.n_ent; i++){
 3500              		.loc 1 951 0
 3501 0074 0025     		movs	r5, #0
 3502 0076 2BE0     		b	.L245
 3503              	.LVL462:
 3504              	.L246:
 952:display/GEVA.c ****                 dx = c->xy_entries.x[i] * c->dim_x / c->max_x;
 3505              		.loc 1 952 0 discriminator 3
 3506 0078 236A     		ldr	r3, [r4, #32]
 3507 007a 53F82580 		ldr	r8, [r3, r5, lsl #2]	@ float
 3508 007e E078     		ldrb	r0, [r4, #3]	@ zero_extendqisi2
 3509 0080 FFF7FEFF 		bl	__aeabi_i2f
 3510              	.LVL463:
 3511 0084 4146     		mov	r1, r8
 3512 0086 FFF7FEFF 		bl	__aeabi_fmul
 3513              	.LVL464:
 3514 008a 2169     		ldr	r1, [r4, #16]	@ float
 3515 008c FFF7FEFF 		bl	__aeabi_fdiv
 3516              	.LVL465:
 3517 0090 FFF7FEFF 		bl	__aeabi_f2uiz
 3518              	.LVL466:
 3519 0094 5FFA80F8 		uxtb	r8, r0
 3520              	.LVL467:
 953:display/GEVA.c ****                 dy = c->xy_entries.y[i] * c->dim_y_pos / c->max;
 3521              		.loc 1 953 0 discriminator 3
 3522 0098 636A     		ldr	r3, [r4, #36]
 3523 009a 53F82590 		ldr	r9, [r3, r5, lsl #2]	@ float
 3524 009e 2079     		ldrb	r0, [r4, #4]	@ zero_extendqisi2
 3525 00a0 FFF7FEFF 		bl	__aeabi_i2f
 3526              	.LVL468:
 3527 00a4 4946     		mov	r1, r9
 3528 00a6 FFF7FEFF 		bl	__aeabi_fmul
 3529              	.LVL469:
 3530 00aa A168     		ldr	r1, [r4, #8]	@ float
 3531 00ac FFF7FEFF 		bl	__aeabi_fdiv
 3532              	.LVL470:
 3533 00b0 FFF7FEFF 		bl	__aeabi_f2iz
 3534              	.LVL471:
 3535 00b4 00B2     		sxth	r0, r0
 3536              	.LVL472:
 954:display/GEVA.c ****                 put_pixel(c->o_x + dx, c->o_y + dy, SET, buf);
 3537              		.loc 1 954 0 discriminator 3
 3538 00b6 2378     		ldrb	r3, [r4]	@ zero_extendqisi2
 3539 00b8 6178     		ldrb	r1, [r4, #1]	@ zero_extendqisi2
 3540 00ba 0144     		add	r1, r1, r0
 3541 00bc 08EB0300 		add	r0, r8, r3
 3542              	.LVL473:
 3543 00c0 3346     		mov	r3, r6
 3544 00c2 0122     		movs	r2, #1
ARM GAS  C:\Users\arist\AppData\Local\Temp\ccSjK9zC.s 			page 85


 3545 00c4 C9B2     		uxtb	r1, r1
 3546 00c6 C0B2     		uxtb	r0, r0
 3547 00c8 FFF7FEFF 		bl	put_pixel
 3548              	.LVL474:
 951:display/GEVA.c ****                 dx = c->xy_entries.x[i] * c->dim_x / c->max_x;
 3549              		.loc 1 951 0 discriminator 3
 3550 00cc 0135     		adds	r5, r5, #1
 3551              	.LVL475:
 3552 00ce EDB2     		uxtb	r5, r5
 3553              	.LVL476:
 3554              	.L245:
 951:display/GEVA.c ****                 dx = c->xy_entries.x[i] * c->dim_x / c->max_x;
 3555              		.loc 1 951 0 is_stmt 0 discriminator 1
 3556 00d0 237F     		ldrb	r3, [r4, #28]	@ zero_extendqisi2
 3557 00d2 9D42     		cmp	r5, r3
 3558 00d4 D0D3     		bcc	.L246
 3559 00d6 02E0     		b	.L244
 3560              	.LVL477:
 3561              	.L247:
 3562              	.LBE47:
 940:display/GEVA.c **** 
 3563              		.loc 1 940 0 is_stmt 1
 3564 00d8 0327     		movs	r7, #3
 3565 00da 00E0     		b	.L244
 3566              	.LVL478:
 3567              	.L248:
 3568 00dc 0327     		movs	r7, #3
 3569              	.LVL479:
 3570              	.L244:
 955:display/GEVA.c ****             } 
 956:display/GEVA.c ****     }
 957:display/GEVA.c ****     return error;
 958:display/GEVA.c **** }
 3571              		.loc 1 958 0
 3572 00de 3846     		mov	r0, r7
 3573 00e0 03B0     		add	sp, sp, #12
 3574              		.cfi_def_cfa_offset 28
 3575              		@ sp needed
 3576 00e2 BDE8F083 		pop	{r4, r5, r6, r7, r8, r9, pc}
 3577              		.cfi_endproc
 3578              	.LFE28:
 3579              		.size	update_XY, .-update_XY
 3580 00e6 00BF     		.section	.text.update_chart,"ax",%progbits
 3581              		.align	2
 3582              		.global	update_chart
 3583              		.thumb
 3584              		.thumb_func
 3585              		.type	update_chart, %function
 3586              	update_chart:
 3587              	.LFB13:
 561:display/GEVA.c ****     uint8_t error = 0;
 3588              		.loc 1 561 0
 3589              		.cfi_startproc
 3590              		@ args = 0, pretend = 0, frame = 0
 3591              		@ frame_needed = 0, uses_anonymous_args = 0
 3592              	.LVL480:
 3593 0000 08B5     		push	{r3, lr}
ARM GAS  C:\Users\arist\AppData\Local\Temp\ccSjK9zC.s 			page 86


 3594              		.cfi_def_cfa_offset 8
 3595              		.cfi_offset 3, -8
 3596              		.cfi_offset 14, -4
 3597 0002 0B46     		mov	r3, r1
 3598              	.LVL481:
 563:display/GEVA.c **** 
 3599              		.loc 1 563 0
 3600 0004 4861     		str	r0, [r1, #20]	@ float
 565:display/GEVA.c ****     case COL:
 3601              		.loc 1 565 0
 3602 0006 8878     		ldrb	r0, [r1, #2]	@ zero_extendqisi2
 3603              	.LVL482:
 3604 0008 0428     		cmp	r0, #4
 3605 000a 1DD8     		bhi	.L258
 3606 000c DFE800F0 		tbb	[pc, r0]
 3607              	.LVL483:
 3608              	.L253:
 3609 0010 0D       		.byte	(.L252-.L253)/2
 3610 0011 03       		.byte	(.L254-.L253)/2
 3611 0012 12       		.byte	(.L255-.L253)/2
 3612 0013 08       		.byte	(.L256-.L253)/2
 3613 0014 17       		.byte	(.L257-.L253)/2
 3614 0015 00       		.p2align 1
 3615              	.L254:
 567:display/GEVA.c ****         break;
 3616              		.loc 1 567 0
 3617 0016 1146     		mov	r1, r2
 3618 0018 1846     		mov	r0, r3
 3619 001a FFF7FEFF 		bl	update_COL
 3620              	.LVL484:
 568:display/GEVA.c ****     case XY: //when calling update_XY new data is ignored: changing of data_container.xy_entry stru
 3621              		.loc 1 568 0
 3622 001e 08BD     		pop	{r3, pc}
 3623              	.LVL485:
 3624              	.L256:
 570:display/GEVA.c ****         break;
 3625              		.loc 1 570 0
 3626 0020 1146     		mov	r1, r2
 3627 0022 1846     		mov	r0, r3
 3628 0024 FFF7FEFF 		bl	update_XY
 3629              	.LVL486:
 571:display/GEVA.c ****     case BAR:
 3630              		.loc 1 571 0
 3631 0028 08BD     		pop	{r3, pc}
 3632              	.LVL487:
 3633              	.L252:
 573:display/GEVA.c ****         break;
 3634              		.loc 1 573 0
 3635 002a 1146     		mov	r1, r2
 3636 002c 1846     		mov	r0, r3
 3637 002e FFF7FEFF 		bl	update_BAR
 3638              	.LVL488:
 574:display/GEVA.c ****     case LINE:
 3639              		.loc 1 574 0
 3640 0032 08BD     		pop	{r3, pc}
 3641              	.LVL489:
 3642              	.L255:
ARM GAS  C:\Users\arist\AppData\Local\Temp\ccSjK9zC.s 			page 87


 576:display/GEVA.c ****         break;
 3643              		.loc 1 576 0
 3644 0034 1146     		mov	r1, r2
 3645 0036 1846     		mov	r0, r3
 3646 0038 FFF7FEFF 		bl	update_LINE
 3647              	.LVL490:
 577:display/GEVA.c ****     case SCATTER:
 3648              		.loc 1 577 0
 3649 003c 08BD     		pop	{r3, pc}
 3650              	.LVL491:
 3651              	.L257:
 579:display/GEVA.c ****         break;
 3652              		.loc 1 579 0
 3653 003e 1146     		mov	r1, r2
 3654 0040 1846     		mov	r0, r3
 3655 0042 FFF7FEFF 		bl	update_SCATTER
 3656              	.LVL492:
 580:display/GEVA.c ****     default:
 3657              		.loc 1 580 0
 3658 0046 08BD     		pop	{r3, pc}
 3659              	.LVL493:
 3660              	.L258:
 562:display/GEVA.c ****     c->data = new_data;
 3661              		.loc 1 562 0
 3662 0048 0020     		movs	r0, #0
 3663              	.LVL494:
 586:display/GEVA.c **** 
 3664              		.loc 1 586 0
 3665 004a 08BD     		pop	{r3, pc}
 3666              		.cfi_endproc
 3667              	.LFE13:
 3668              		.size	update_chart, .-update_chart
 3669              		.global	font_l
 3670              		.global	font_m
 3671              		.global	font_s
 3672              		.global	font_width
 3673              		.global	font_height
 3674              		.data
 3675              		.align	2
 3676              		.set	.LANCHOR1,. + 0
 3677              		.type	font_s, %object
 3678              		.size	font_s, 3584
 3679              	font_s:
 3680 0000 00F8     		.short	-2048
 3681 0002 00F8     		.short	-2048
 3682 0004 00F8     		.short	-2048
 3683 0006 00F8     		.short	-2048
 3684 0008 00F8     		.short	-2048
 3685 000a 00F8     		.short	-2048
 3686 000c 00F8     		.short	-2048
 3687 000e 0070     		.short	28672
 3688 0010 0088     		.short	-30720
 3689 0012 00D8     		.short	-10240
 3690 0014 0088     		.short	-30720
 3691 0016 00A8     		.short	-22528
 3692 0018 0088     		.short	-30720
 3693 001a 0070     		.short	28672
ARM GAS  C:\Users\arist\AppData\Local\Temp\ccSjK9zC.s 			page 88


 3694 001c 0070     		.short	28672
 3695 001e 00F8     		.short	-2048
 3696 0020 00A8     		.short	-22528
 3697 0022 00F8     		.short	-2048
 3698 0024 00D8     		.short	-10240
 3699 0026 00F8     		.short	-2048
 3700 0028 0070     		.short	28672
 3701 002a 0050     		.short	20480
 3702 002c 00F8     		.short	-2048
 3703 002e 00F8     		.short	-2048
 3704 0030 00F8     		.short	-2048
 3705 0032 0070     		.short	28672
 3706 0034 0020     		.short	8192
 3707 0036 0000     		.short	0
 3708 0038 0000     		.short	0
 3709 003a 0020     		.short	8192
 3710 003c 0070     		.short	28672
 3711 003e 00F8     		.short	-2048
 3712 0040 0070     		.short	28672
 3713 0042 0020     		.short	8192
 3714 0044 0000     		.short	0
 3715 0046 0070     		.short	28672
 3716 0048 0070     		.short	28672
 3717 004a 00F8     		.short	-2048
 3718 004c 00F8     		.short	-2048
 3719 004e 0020     		.short	8192
 3720 0050 00F8     		.short	-2048
 3721 0052 0000     		.short	0
 3722 0054 0020     		.short	8192
 3723 0056 0070     		.short	28672
 3724 0058 00F8     		.short	-2048
 3725 005a 00F8     		.short	-2048
 3726 005c 00F8     		.short	-2048
 3727 005e 0020     		.short	8192
 3728 0060 00F8     		.short	-2048
 3729 0062 0000     		.short	0
 3730 0064 0000     		.short	0
 3731 0066 0070     		.short	28672
 3732 0068 0070     		.short	28672
 3733 006a 0070     		.short	28672
 3734 006c 0000     		.short	0
 3735 006e 0000     		.short	0
 3736 0070 0000     		.short	0
 3737 0072 00F8     		.short	-2048
 3738 0074 0088     		.short	-30720
 3739 0076 0088     		.short	-30720
 3740 0078 0088     		.short	-30720
 3741 007a 00F8     		.short	-2048
 3742 007c 0000     		.short	0
 3743 007e 0000     		.short	0
 3744 0080 0070     		.short	28672
 3745 0082 0088     		.short	-30720
 3746 0084 0088     		.short	-30720
 3747 0086 0088     		.short	-30720
 3748 0088 0070     		.short	28672
 3749 008a 0000     		.short	0
 3750 008c 00F8     		.short	-2048
ARM GAS  C:\Users\arist\AppData\Local\Temp\ccSjK9zC.s 			page 89


 3751 008e 0088     		.short	-30720
 3752 0090 0070     		.short	28672
 3753 0092 0070     		.short	28672
 3754 0094 0070     		.short	28672
 3755 0096 0088     		.short	-30720
 3756 0098 00F8     		.short	-2048
 3757 009a 0000     		.short	0
 3758 009c 0038     		.short	14336
 3759 009e 0018     		.short	6144
 3760 00a0 0068     		.short	26624
 3761 00a2 00A0     		.short	-24576
 3762 00a4 0040     		.short	16384
 3763 00a6 0000     		.short	0
 3764 00a8 0070     		.short	28672
 3765 00aa 0088     		.short	-30720
 3766 00ac 0088     		.short	-30720
 3767 00ae 0070     		.short	28672
 3768 00b0 0020     		.short	8192
 3769 00b2 0070     		.short	28672
 3770 00b4 0020     		.short	8192
 3771 00b6 0020     		.short	8192
 3772 00b8 0030     		.short	12288
 3773 00ba 0028     		.short	10240
 3774 00bc 0020     		.short	8192
 3775 00be 0060     		.short	24576
 3776 00c0 00E0     		.short	-8192
 3777 00c2 0040     		.short	16384
 3778 00c4 0008     		.short	2048
 3779 00c6 0018     		.short	6144
 3780 00c8 0028     		.short	10240
 3781 00ca 0048     		.short	18432
 3782 00cc 0058     		.short	22528
 3783 00ce 00D8     		.short	-10240
 3784 00d0 00C0     		.short	-16384
 3785 00d2 0000     		.short	0
 3786 00d4 00A8     		.short	-22528
 3787 00d6 0070     		.short	28672
 3788 00d8 00D8     		.short	-10240
 3789 00da 0070     		.short	28672
 3790 00dc 00A8     		.short	-22528
 3791 00de 0000     		.short	0
 3792 00e0 0000     		.short	0
 3793 00e2 0040     		.short	16384
 3794 00e4 0060     		.short	24576
 3795 00e6 0070     		.short	28672
 3796 00e8 0060     		.short	24576
 3797 00ea 0040     		.short	16384
 3798 00ec 0000     		.short	0
 3799 00ee 0000     		.short	0
 3800 00f0 0010     		.short	4096
 3801 00f2 0030     		.short	12288
 3802 00f4 0070     		.short	28672
 3803 00f6 0030     		.short	12288
 3804 00f8 0010     		.short	4096
 3805 00fa 0000     		.short	0
 3806 00fc 0020     		.short	8192
 3807 00fe 0070     		.short	28672
ARM GAS  C:\Users\arist\AppData\Local\Temp\ccSjK9zC.s 			page 90


 3808 0100 0020     		.short	8192
 3809 0102 0020     		.short	8192
 3810 0104 0070     		.short	28672
 3811 0106 0020     		.short	8192
 3812 0108 0000     		.short	0
 3813 010a 0050     		.short	20480
 3814 010c 0050     		.short	20480
 3815 010e 0050     		.short	20480
 3816 0110 0050     		.short	20480
 3817 0112 0050     		.short	20480
 3818 0114 0000     		.short	0
 3819 0116 0050     		.short	20480
 3820 0118 00D8     		.short	-10240
 3821 011a 00D8     		.short	-10240
 3822 011c 00D8     		.short	-10240
 3823 011e 00D8     		.short	-10240
 3824 0120 00D8     		.short	-10240
 3825 0122 00D8     		.short	-10240
 3826 0124 00D8     		.short	-10240
 3827 0126 0000     		.short	0
 3828 0128 0020     		.short	8192
 3829 012a 00A8     		.short	-22528
 3830 012c 00A8     		.short	-22528
 3831 012e 0088     		.short	-30720
 3832 0130 0070     		.short	28672
 3833 0132 0000     		.short	0
 3834 0134 0000     		.short	0
 3835 0136 0038     		.short	14336
 3836 0138 0030     		.short	12288
 3837 013a 00A8     		.short	-22528
 3838 013c 0088     		.short	-30720
 3839 013e 0088     		.short	-30720
 3840 0140 0070     		.short	28672
 3841 0142 0000     		.short	0
 3842 0144 0020     		.short	8192
 3843 0146 0070     		.short	28672
 3844 0148 0020     		.short	8192
 3845 014a 0070     		.short	28672
 3846 014c 0020     		.short	8192
 3847 014e 0070     		.short	28672
 3848 0150 0000     		.short	0
 3849 0152 0020     		.short	8192
 3850 0154 0070     		.short	28672
 3851 0156 0020     		.short	8192
 3852 0158 0020     		.short	8192
 3853 015a 0020     		.short	8192
 3854 015c 0000     		.short	0
 3855 015e 0000     		.short	0
 3856 0160 0020     		.short	8192
 3857 0162 0020     		.short	8192
 3858 0164 0020     		.short	8192
 3859 0166 0070     		.short	28672
 3860 0168 0020     		.short	8192
 3861 016a 0000     		.short	0
 3862 016c 0000     		.short	0
 3863 016e 0000     		.short	0
 3864 0170 0010     		.short	4096
ARM GAS  C:\Users\arist\AppData\Local\Temp\ccSjK9zC.s 			page 91


 3865 0172 00F8     		.short	-2048
 3866 0174 0010     		.short	4096
 3867 0176 0000     		.short	0
 3868 0178 0000     		.short	0
 3869 017a 0000     		.short	0
 3870 017c 0000     		.short	0
 3871 017e 0040     		.short	16384
 3872 0180 00F8     		.short	-2048
 3873 0182 0040     		.short	16384
 3874 0184 0000     		.short	0
 3875 0186 0000     		.short	0
 3876 0188 0080     		.short	-32768
 3877 018a 0080     		.short	-32768
 3878 018c 0080     		.short	-32768
 3879 018e 0080     		.short	-32768
 3880 0190 0080     		.short	-32768
 3881 0192 0080     		.short	-32768
 3882 0194 00F8     		.short	-2048
 3883 0196 0000     		.short	0
 3884 0198 0000     		.short	0
 3885 019a 0050     		.short	20480
 3886 019c 00F8     		.short	-2048
 3887 019e 0050     		.short	20480
 3888 01a0 0000     		.short	0
 3889 01a2 0000     		.short	0
 3890 01a4 0000     		.short	0
 3891 01a6 0000     		.short	0
 3892 01a8 0020     		.short	8192
 3893 01aa 0070     		.short	28672
 3894 01ac 00F8     		.short	-2048
 3895 01ae 0000     		.short	0
 3896 01b0 0000     		.short	0
 3897 01b2 0000     		.short	0
 3898 01b4 0000     		.short	0
 3899 01b6 00F8     		.short	-2048
 3900 01b8 0070     		.short	28672
 3901 01ba 0020     		.short	8192
 3902 01bc 0000     		.short	0
 3903 01be 0000     		.short	0
 3904 01c0 0000     		.short	0
 3905 01c2 0000     		.short	0
 3906 01c4 0000     		.short	0
 3907 01c6 0000     		.short	0
 3908 01c8 0000     		.short	0
 3909 01ca 0000     		.short	0
 3910 01cc 0000     		.short	0
 3911 01ce 0020     		.short	8192
 3912 01d0 0020     		.short	8192
 3913 01d2 0020     		.short	8192
 3914 01d4 0020     		.short	8192
 3915 01d6 0020     		.short	8192
 3916 01d8 0000     		.short	0
 3917 01da 0020     		.short	8192
 3918 01dc 0050     		.short	20480
 3919 01de 0050     		.short	20480
 3920 01e0 0050     		.short	20480
 3921 01e2 0000     		.short	0
ARM GAS  C:\Users\arist\AppData\Local\Temp\ccSjK9zC.s 			page 92


 3922 01e4 0000     		.short	0
 3923 01e6 0000     		.short	0
 3924 01e8 0000     		.short	0
 3925 01ea 0000     		.short	0
 3926 01ec 0050     		.short	20480
 3927 01ee 00F8     		.short	-2048
 3928 01f0 0050     		.short	20480
 3929 01f2 00F8     		.short	-2048
 3930 01f4 0050     		.short	20480
 3931 01f6 0000     		.short	0
 3932 01f8 0020     		.short	8192
 3933 01fa 0070     		.short	28672
 3934 01fc 0080     		.short	-32768
 3935 01fe 0070     		.short	28672
 3936 0200 0008     		.short	2048
 3937 0202 0070     		.short	28672
 3938 0204 0020     		.short	8192
 3939 0206 0000     		.short	0
 3940 0208 00C8     		.short	-14336
 3941 020a 00D0     		.short	-12288
 3942 020c 0020     		.short	8192
 3943 020e 0058     		.short	22528
 3944 0210 0098     		.short	-26624
 3945 0212 0000     		.short	0
 3946 0214 0020     		.short	8192
 3947 0216 0050     		.short	20480
 3948 0218 0050     		.short	20480
 3949 021a 0020     		.short	8192
 3950 021c 0050     		.short	20480
 3951 021e 00F8     		.short	-2048
 3952 0220 0010     		.short	4096
 3953 0222 0020     		.short	8192
 3954 0224 0020     		.short	8192
 3955 0226 0020     		.short	8192
 3956 0228 0000     		.short	0
 3957 022a 0000     		.short	0
 3958 022c 0000     		.short	0
 3959 022e 0000     		.short	0
 3960 0230 0010     		.short	4096
 3961 0232 0020     		.short	8192
 3962 0234 0040     		.short	16384
 3963 0236 0040     		.short	16384
 3964 0238 0040     		.short	16384
 3965 023a 0020     		.short	8192
 3966 023c 0010     		.short	4096
 3967 023e 0040     		.short	16384
 3968 0240 0020     		.short	8192
 3969 0242 0010     		.short	4096
 3970 0244 0010     		.short	4096
 3971 0246 0010     		.short	4096
 3972 0248 0020     		.short	8192
 3973 024a 0040     		.short	16384
 3974 024c 0000     		.short	0
 3975 024e 0020     		.short	8192
 3976 0250 0070     		.short	28672
 3977 0252 0020     		.short	8192
 3978 0254 0050     		.short	20480
ARM GAS  C:\Users\arist\AppData\Local\Temp\ccSjK9zC.s 			page 93


 3979 0256 0000     		.short	0
 3980 0258 0000     		.short	0
 3981 025a 0000     		.short	0
 3982 025c 0020     		.short	8192
 3983 025e 0020     		.short	8192
 3984 0260 00F8     		.short	-2048
 3985 0262 0020     		.short	8192
 3986 0264 0020     		.short	8192
 3987 0266 0000     		.short	0
 3988 0268 0000     		.short	0
 3989 026a 0000     		.short	0
 3990 026c 0000     		.short	0
 3991 026e 0000     		.short	0
 3992 0270 0020     		.short	8192
 3993 0272 0020     		.short	8192
 3994 0274 0040     		.short	16384
 3995 0276 0000     		.short	0
 3996 0278 0000     		.short	0
 3997 027a 0000     		.short	0
 3998 027c 00F8     		.short	-2048
 3999 027e 0000     		.short	0
 4000 0280 0000     		.short	0
 4001 0282 0000     		.short	0
 4002 0284 0000     		.short	0
 4003 0286 0000     		.short	0
 4004 0288 0000     		.short	0
 4005 028a 0000     		.short	0
 4006 028c 0000     		.short	0
 4007 028e 0000     		.short	0
 4008 0290 0020     		.short	8192
 4009 0292 0000     		.short	0
 4010 0294 0008     		.short	2048
 4011 0296 0010     		.short	4096
 4012 0298 0020     		.short	8192
 4013 029a 0040     		.short	16384
 4014 029c 0080     		.short	-32768
 4015 029e 0000     		.short	0
 4016 02a0 0060     		.short	24576
 4017 02a2 0090     		.short	-28672
 4018 02a4 0090     		.short	-28672
 4019 02a6 0090     		.short	-28672
 4020 02a8 0090     		.short	-28672
 4021 02aa 0090     		.short	-28672
 4022 02ac 0060     		.short	24576
 4023 02ae 0020     		.short	8192
 4024 02b0 0060     		.short	24576
 4025 02b2 0020     		.short	8192
 4026 02b4 0020     		.short	8192
 4027 02b6 0020     		.short	8192
 4028 02b8 0020     		.short	8192
 4029 02ba 0070     		.short	28672
 4030 02bc 0060     		.short	24576
 4031 02be 0090     		.short	-28672
 4032 02c0 0010     		.short	4096
 4033 02c2 0020     		.short	8192
 4034 02c4 0040     		.short	16384
 4035 02c6 0080     		.short	-32768
ARM GAS  C:\Users\arist\AppData\Local\Temp\ccSjK9zC.s 			page 94


 4036 02c8 00F0     		.short	-4096
 4037 02ca 0060     		.short	24576
 4038 02cc 0090     		.short	-28672
 4039 02ce 0010     		.short	4096
 4040 02d0 0020     		.short	8192
 4041 02d2 0010     		.short	4096
 4042 02d4 0090     		.short	-28672
 4043 02d6 0060     		.short	24576
 4044 02d8 0020     		.short	8192
 4045 02da 0060     		.short	24576
 4046 02dc 00A0     		.short	-24576
 4047 02de 00F0     		.short	-4096
 4048 02e0 0020     		.short	8192
 4049 02e2 0020     		.short	8192
 4050 02e4 0070     		.short	28672
 4051 02e6 00F0     		.short	-4096
 4052 02e8 0080     		.short	-32768
 4053 02ea 0080     		.short	-32768
 4054 02ec 0060     		.short	24576
 4055 02ee 0010     		.short	4096
 4056 02f0 0090     		.short	-28672
 4057 02f2 0060     		.short	24576
 4058 02f4 0060     		.short	24576
 4059 02f6 0090     		.short	-28672
 4060 02f8 0080     		.short	-32768
 4061 02fa 00E0     		.short	-8192
 4062 02fc 0090     		.short	-28672
 4063 02fe 0090     		.short	-28672
 4064 0300 0060     		.short	24576
 4065 0302 00E0     		.short	-8192
 4066 0304 0010     		.short	4096
 4067 0306 0010     		.short	4096
 4068 0308 0020     		.short	8192
 4069 030a 0040     		.short	16384
 4070 030c 0040     		.short	16384
 4071 030e 0040     		.short	16384
 4072 0310 0060     		.short	24576
 4073 0312 0090     		.short	-28672
 4074 0314 0090     		.short	-28672
 4075 0316 0060     		.short	24576
 4076 0318 0090     		.short	-28672
 4077 031a 0090     		.short	-28672
 4078 031c 0060     		.short	24576
 4079 031e 0060     		.short	24576
 4080 0320 0090     		.short	-28672
 4081 0322 0090     		.short	-28672
 4082 0324 0070     		.short	28672
 4083 0326 0010     		.short	4096
 4084 0328 0090     		.short	-28672
 4085 032a 0060     		.short	24576
 4086 032c 0000     		.short	0
 4087 032e 0000     		.short	0
 4088 0330 0020     		.short	8192
 4089 0332 0000     		.short	0
 4090 0334 0020     		.short	8192
 4091 0336 0000     		.short	0
 4092 0338 0000     		.short	0
ARM GAS  C:\Users\arist\AppData\Local\Temp\ccSjK9zC.s 			page 95


 4093 033a 0000     		.short	0
 4094 033c 0000     		.short	0
 4095 033e 0020     		.short	8192
 4096 0340 0000     		.short	0
 4097 0342 0020     		.short	8192
 4098 0344 0020     		.short	8192
 4099 0346 0040     		.short	16384
 4100 0348 0000     		.short	0
 4101 034a 0020     		.short	8192
 4102 034c 0040     		.short	16384
 4103 034e 0080     		.short	-32768
 4104 0350 0040     		.short	16384
 4105 0352 0020     		.short	8192
 4106 0354 0000     		.short	0
 4107 0356 0000     		.short	0
 4108 0358 0000     		.short	0
 4109 035a 0070     		.short	28672
 4110 035c 0000     		.short	0
 4111 035e 0070     		.short	28672
 4112 0360 0000     		.short	0
 4113 0362 0000     		.short	0
 4114 0364 0000     		.short	0
 4115 0366 0020     		.short	8192
 4116 0368 0010     		.short	4096
 4117 036a 0008     		.short	2048
 4118 036c 0010     		.short	4096
 4119 036e 0020     		.short	8192
 4120 0370 0000     		.short	0
 4121 0372 0060     		.short	24576
 4122 0374 0090     		.short	-28672
 4123 0376 0090     		.short	-28672
 4124 0378 0020     		.short	8192
 4125 037a 0020     		.short	8192
 4126 037c 0000     		.short	0
 4127 037e 0020     		.short	8192
 4128 0380 0070     		.short	28672
 4129 0382 0088     		.short	-30720
 4130 0384 0098     		.short	-26624
 4131 0386 00A8     		.short	-22528
 4132 0388 00B0     		.short	-20480
 4133 038a 0080     		.short	-32768
 4134 038c 0070     		.short	28672
 4135 038e 0070     		.short	28672
 4136 0390 0088     		.short	-30720
 4137 0392 0088     		.short	-30720
 4138 0394 00F8     		.short	-2048
 4139 0396 0088     		.short	-30720
 4140 0398 0088     		.short	-30720
 4141 039a 0088     		.short	-30720
 4142 039c 00F0     		.short	-4096
 4143 039e 0088     		.short	-30720
 4144 03a0 0088     		.short	-30720
 4145 03a2 00F0     		.short	-4096
 4146 03a4 0088     		.short	-30720
 4147 03a6 0088     		.short	-30720
 4148 03a8 00F0     		.short	-4096
 4149 03aa 0078     		.short	30720
ARM GAS  C:\Users\arist\AppData\Local\Temp\ccSjK9zC.s 			page 96


 4150 03ac 0080     		.short	-32768
 4151 03ae 0080     		.short	-32768
 4152 03b0 0080     		.short	-32768
 4153 03b2 0080     		.short	-32768
 4154 03b4 0080     		.short	-32768
 4155 03b6 0078     		.short	30720
 4156 03b8 00E0     		.short	-8192
 4157 03ba 0090     		.short	-28672
 4158 03bc 0088     		.short	-30720
 4159 03be 0088     		.short	-30720
 4160 03c0 0088     		.short	-30720
 4161 03c2 0090     		.short	-28672
 4162 03c4 00E0     		.short	-8192
 4163 03c6 0078     		.short	30720
 4164 03c8 0080     		.short	-32768
 4165 03ca 0080     		.short	-32768
 4166 03cc 00F0     		.short	-4096
 4167 03ce 0080     		.short	-32768
 4168 03d0 0080     		.short	-32768
 4169 03d2 0078     		.short	30720
 4170 03d4 0078     		.short	30720
 4171 03d6 0080     		.short	-32768
 4172 03d8 0080     		.short	-32768
 4173 03da 00F0     		.short	-4096
 4174 03dc 0080     		.short	-32768
 4175 03de 0080     		.short	-32768
 4176 03e0 0080     		.short	-32768
 4177 03e2 0070     		.short	28672
 4178 03e4 0088     		.short	-30720
 4179 03e6 0080     		.short	-32768
 4180 03e8 00B8     		.short	-18432
 4181 03ea 0088     		.short	-30720
 4182 03ec 0088     		.short	-30720
 4183 03ee 0070     		.short	28672
 4184 03f0 0088     		.short	-30720
 4185 03f2 0088     		.short	-30720
 4186 03f4 0088     		.short	-30720
 4187 03f6 0070     		.short	28672
 4188 03f8 0088     		.short	-30720
 4189 03fa 0088     		.short	-30720
 4190 03fc 0088     		.short	-30720
 4191 03fe 00F8     		.short	-2048
 4192 0400 0020     		.short	8192
 4193 0402 0020     		.short	8192
 4194 0404 0020     		.short	8192
 4195 0406 0020     		.short	8192
 4196 0408 0020     		.short	8192
 4197 040a 00F8     		.short	-2048
 4198 040c 00F8     		.short	-2048
 4199 040e 0020     		.short	8192
 4200 0410 0020     		.short	8192
 4201 0412 0020     		.short	8192
 4202 0414 00A0     		.short	-24576
 4203 0416 00A0     		.short	-24576
 4204 0418 0040     		.short	16384
 4205 041a 0090     		.short	-28672
 4206 041c 0090     		.short	-28672
ARM GAS  C:\Users\arist\AppData\Local\Temp\ccSjK9zC.s 			page 97


 4207 041e 00A0     		.short	-24576
 4208 0420 00C0     		.short	-16384
 4209 0422 00A0     		.short	-24576
 4210 0424 0090     		.short	-28672
 4211 0426 0088     		.short	-30720
 4212 0428 0080     		.short	-32768
 4213 042a 0080     		.short	-32768
 4214 042c 0080     		.short	-32768
 4215 042e 0080     		.short	-32768
 4216 0430 0080     		.short	-32768
 4217 0432 0080     		.short	-32768
 4218 0434 00F8     		.short	-2048
 4219 0436 0088     		.short	-30720
 4220 0438 00D8     		.short	-10240
 4221 043a 00A8     		.short	-22528
 4222 043c 00A8     		.short	-22528
 4223 043e 0088     		.short	-30720
 4224 0440 0088     		.short	-30720
 4225 0442 0088     		.short	-30720
 4226 0444 0088     		.short	-30720
 4227 0446 0088     		.short	-30720
 4228 0448 00C8     		.short	-14336
 4229 044a 00A8     		.short	-22528
 4230 044c 0098     		.short	-26624
 4231 044e 0088     		.short	-30720
 4232 0450 0088     		.short	-30720
 4233 0452 0070     		.short	28672
 4234 0454 0088     		.short	-30720
 4235 0456 0088     		.short	-30720
 4236 0458 0088     		.short	-30720
 4237 045a 0088     		.short	-30720
 4238 045c 0088     		.short	-30720
 4239 045e 0070     		.short	28672
 4240 0460 00F0     		.short	-4096
 4241 0462 0088     		.short	-30720
 4242 0464 0088     		.short	-30720
 4243 0466 00F0     		.short	-4096
 4244 0468 0080     		.short	-32768
 4245 046a 0080     		.short	-32768
 4246 046c 0080     		.short	-32768
 4247 046e 0070     		.short	28672
 4248 0470 0088     		.short	-30720
 4249 0472 0088     		.short	-30720
 4250 0474 0088     		.short	-30720
 4251 0476 00A8     		.short	-22528
 4252 0478 0070     		.short	28672
 4253 047a 0018     		.short	6144
 4254 047c 00F0     		.short	-4096
 4255 047e 0088     		.short	-30720
 4256 0480 0088     		.short	-30720
 4257 0482 00F0     		.short	-4096
 4258 0484 00A0     		.short	-24576
 4259 0486 0090     		.short	-28672
 4260 0488 0088     		.short	-30720
 4261 048a 0078     		.short	30720
 4262 048c 0080     		.short	-32768
 4263 048e 0080     		.short	-32768
ARM GAS  C:\Users\arist\AppData\Local\Temp\ccSjK9zC.s 			page 98


 4264 0490 0070     		.short	28672
 4265 0492 0008     		.short	2048
 4266 0494 0008     		.short	2048
 4267 0496 00F0     		.short	-4096
 4268 0498 00F8     		.short	-2048
 4269 049a 0020     		.short	8192
 4270 049c 0020     		.short	8192
 4271 049e 0020     		.short	8192
 4272 04a0 0020     		.short	8192
 4273 04a2 0020     		.short	8192
 4274 04a4 0020     		.short	8192
 4275 04a6 0088     		.short	-30720
 4276 04a8 0088     		.short	-30720
 4277 04aa 0088     		.short	-30720
 4278 04ac 0088     		.short	-30720
 4279 04ae 0088     		.short	-30720
 4280 04b0 0088     		.short	-30720
 4281 04b2 0070     		.short	28672
 4282 04b4 0088     		.short	-30720
 4283 04b6 0088     		.short	-30720
 4284 04b8 0088     		.short	-30720
 4285 04ba 0088     		.short	-30720
 4286 04bc 0088     		.short	-30720
 4287 04be 0050     		.short	20480
 4288 04c0 0020     		.short	8192
 4289 04c2 0088     		.short	-30720
 4290 04c4 0088     		.short	-30720
 4291 04c6 0088     		.short	-30720
 4292 04c8 00A8     		.short	-22528
 4293 04ca 00A8     		.short	-22528
 4294 04cc 00A8     		.short	-22528
 4295 04ce 0050     		.short	20480
 4296 04d0 0088     		.short	-30720
 4297 04d2 0088     		.short	-30720
 4298 04d4 0050     		.short	20480
 4299 04d6 0020     		.short	8192
 4300 04d8 0050     		.short	20480
 4301 04da 0088     		.short	-30720
 4302 04dc 0088     		.short	-30720
 4303 04de 0088     		.short	-30720
 4304 04e0 0088     		.short	-30720
 4305 04e2 0050     		.short	20480
 4306 04e4 0020     		.short	8192
 4307 04e6 0020     		.short	8192
 4308 04e8 0020     		.short	8192
 4309 04ea 0070     		.short	28672
 4310 04ec 00F8     		.short	-2048
 4311 04ee 0008     		.short	2048
 4312 04f0 0010     		.short	4096
 4313 04f2 0020     		.short	8192
 4314 04f4 0040     		.short	16384
 4315 04f6 0080     		.short	-32768
 4316 04f8 00F8     		.short	-2048
 4317 04fa 0070     		.short	28672
 4318 04fc 0040     		.short	16384
 4319 04fe 0040     		.short	16384
 4320 0500 0040     		.short	16384
ARM GAS  C:\Users\arist\AppData\Local\Temp\ccSjK9zC.s 			page 99


 4321 0502 0040     		.short	16384
 4322 0504 0040     		.short	16384
 4323 0506 0070     		.short	28672
 4324 0508 0000     		.short	0
 4325 050a 0080     		.short	-32768
 4326 050c 0040     		.short	16384
 4327 050e 0020     		.short	8192
 4328 0510 0010     		.short	4096
 4329 0512 0008     		.short	2048
 4330 0514 0000     		.short	0
 4331 0516 0070     		.short	28672
 4332 0518 0010     		.short	4096
 4333 051a 0010     		.short	4096
 4334 051c 0010     		.short	4096
 4335 051e 0010     		.short	4096
 4336 0520 0010     		.short	4096
 4337 0522 0070     		.short	28672
 4338 0524 0020     		.short	8192
 4339 0526 0050     		.short	20480
 4340 0528 0000     		.short	0
 4341 052a 0000     		.short	0
 4342 052c 0000     		.short	0
 4343 052e 0000     		.short	0
 4344 0530 0000     		.short	0
 4345 0532 0000     		.short	0
 4346 0534 0000     		.short	0
 4347 0536 0000     		.short	0
 4348 0538 0000     		.short	0
 4349 053a 0000     		.short	0
 4350 053c 0000     		.short	0
 4351 053e 00F8     		.short	-2048
 4352 0540 0020     		.short	8192
 4353 0542 0010     		.short	4096
 4354 0544 0000     		.short	0
 4355 0546 0000     		.short	0
 4356 0548 0000     		.short	0
 4357 054a 0000     		.short	0
 4358 054c 0000     		.short	0
 4359 054e 0000     		.short	0
 4360 0550 0000     		.short	0
 4361 0552 0070     		.short	28672
 4362 0554 0008     		.short	2048
 4363 0556 0078     		.short	30720
 4364 0558 0088     		.short	-30720
 4365 055a 0070     		.short	28672
 4366 055c 0080     		.short	-32768
 4367 055e 0080     		.short	-32768
 4368 0560 00B0     		.short	-20480
 4369 0562 00C8     		.short	-14336
 4370 0564 0088     		.short	-30720
 4371 0566 0088     		.short	-30720
 4372 0568 0070     		.short	28672
 4373 056a 0000     		.short	0
 4374 056c 0000     		.short	0
 4375 056e 0078     		.short	30720
 4376 0570 0080     		.short	-32768
 4377 0572 0080     		.short	-32768
ARM GAS  C:\Users\arist\AppData\Local\Temp\ccSjK9zC.s 			page 100


 4378 0574 0080     		.short	-32768
 4379 0576 0078     		.short	30720
 4380 0578 0008     		.short	2048
 4381 057a 0008     		.short	2048
 4382 057c 0068     		.short	26624
 4383 057e 0098     		.short	-26624
 4384 0580 0088     		.short	-30720
 4385 0582 0088     		.short	-30720
 4386 0584 0070     		.short	28672
 4387 0586 0000     		.short	0
 4388 0588 0000     		.short	0
 4389 058a 0070     		.short	28672
 4390 058c 0088     		.short	-30720
 4391 058e 00F0     		.short	-4096
 4392 0590 0080     		.short	-32768
 4393 0592 0070     		.short	28672
 4394 0594 0018     		.short	6144
 4395 0596 0020     		.short	8192
 4396 0598 0070     		.short	28672
 4397 059a 0020     		.short	8192
 4398 059c 0020     		.short	8192
 4399 059e 0020     		.short	8192
 4400 05a0 0070     		.short	28672
 4401 05a2 0000     		.short	0
 4402 05a4 0070     		.short	28672
 4403 05a6 0088     		.short	-30720
 4404 05a8 0088     		.short	-30720
 4405 05aa 0078     		.short	30720
 4406 05ac 0008     		.short	2048
 4407 05ae 0070     		.short	28672
 4408 05b0 0080     		.short	-32768
 4409 05b2 0080     		.short	-32768
 4410 05b4 00B0     		.short	-20480
 4411 05b6 00C8     		.short	-14336
 4412 05b8 0088     		.short	-30720
 4413 05ba 0088     		.short	-30720
 4414 05bc 0088     		.short	-30720
 4415 05be 0000     		.short	0
 4416 05c0 0020     		.short	8192
 4417 05c2 0000     		.short	0
 4418 05c4 0060     		.short	24576
 4419 05c6 0020     		.short	8192
 4420 05c8 0020     		.short	8192
 4421 05ca 0070     		.short	28672
 4422 05cc 0000     		.short	0
 4423 05ce 0010     		.short	4096
 4424 05d0 0000     		.short	0
 4425 05d2 0070     		.short	28672
 4426 05d4 0010     		.short	4096
 4427 05d6 0090     		.short	-28672
 4428 05d8 0060     		.short	24576
 4429 05da 0080     		.short	-32768
 4430 05dc 0080     		.short	-32768
 4431 05de 0090     		.short	-28672
 4432 05e0 00A0     		.short	-24576
 4433 05e2 00C0     		.short	-16384
 4434 05e4 00A0     		.short	-24576
ARM GAS  C:\Users\arist\AppData\Local\Temp\ccSjK9zC.s 			page 101


 4435 05e6 0090     		.short	-28672
 4436 05e8 0060     		.short	24576
 4437 05ea 0020     		.short	8192
 4438 05ec 0020     		.short	8192
 4439 05ee 0020     		.short	8192
 4440 05f0 0020     		.short	8192
 4441 05f2 0020     		.short	8192
 4442 05f4 0070     		.short	28672
 4443 05f6 0000     		.short	0
 4444 05f8 0000     		.short	0
 4445 05fa 0050     		.short	20480
 4446 05fc 00A8     		.short	-22528
 4447 05fe 00A8     		.short	-22528
 4448 0600 00A8     		.short	-22528
 4449 0602 00A8     		.short	-22528
 4450 0604 0000     		.short	0
 4451 0606 0000     		.short	0
 4452 0608 00B0     		.short	-20480
 4453 060a 00C8     		.short	-14336
 4454 060c 0088     		.short	-30720
 4455 060e 0088     		.short	-30720
 4456 0610 0088     		.short	-30720
 4457 0612 0000     		.short	0
 4458 0614 0000     		.short	0
 4459 0616 0070     		.short	28672
 4460 0618 0088     		.short	-30720
 4461 061a 0088     		.short	-30720
 4462 061c 0088     		.short	-30720
 4463 061e 0070     		.short	28672
 4464 0620 0000     		.short	0
 4465 0622 0000     		.short	0
 4466 0624 0070     		.short	28672
 4467 0626 0088     		.short	-30720
 4468 0628 0088     		.short	-30720
 4469 062a 00F0     		.short	-4096
 4470 062c 0080     		.short	-32768
 4471 062e 0000     		.short	0
 4472 0630 0000     		.short	0
 4473 0632 0070     		.short	28672
 4474 0634 0088     		.short	-30720
 4475 0636 0088     		.short	-30720
 4476 0638 0078     		.short	30720
 4477 063a 0008     		.short	2048
 4478 063c 0000     		.short	0
 4479 063e 0000     		.short	0
 4480 0640 0068     		.short	26624
 4481 0642 0030     		.short	12288
 4482 0644 0020     		.short	8192
 4483 0646 0020     		.short	8192
 4484 0648 0070     		.short	28672
 4485 064a 0000     		.short	0
 4486 064c 0000     		.short	0
 4487 064e 0078     		.short	30720
 4488 0650 0080     		.short	-32768
 4489 0652 0070     		.short	28672
 4490 0654 0008     		.short	2048
 4491 0656 00F0     		.short	-4096
ARM GAS  C:\Users\arist\AppData\Local\Temp\ccSjK9zC.s 			page 102


 4492 0658 0000     		.short	0
 4493 065a 0040     		.short	16384
 4494 065c 00F0     		.short	-4096
 4495 065e 0040     		.short	16384
 4496 0660 0040     		.short	16384
 4497 0662 0040     		.short	16384
 4498 0664 0030     		.short	12288
 4499 0666 0000     		.short	0
 4500 0668 0000     		.short	0
 4501 066a 0088     		.short	-30720
 4502 066c 0088     		.short	-30720
 4503 066e 0088     		.short	-30720
 4504 0670 0098     		.short	-26624
 4505 0672 0068     		.short	26624
 4506 0674 0000     		.short	0
 4507 0676 0000     		.short	0
 4508 0678 0088     		.short	-30720
 4509 067a 0088     		.short	-30720
 4510 067c 0088     		.short	-30720
 4511 067e 0050     		.short	20480
 4512 0680 0020     		.short	8192
 4513 0682 0000     		.short	0
 4514 0684 0000     		.short	0
 4515 0686 0088     		.short	-30720
 4516 0688 0088     		.short	-30720
 4517 068a 00A8     		.short	-22528
 4518 068c 00A8     		.short	-22528
 4519 068e 0050     		.short	20480
 4520 0690 0000     		.short	0
 4521 0692 0000     		.short	0
 4522 0694 0088     		.short	-30720
 4523 0696 0050     		.short	20480
 4524 0698 0020     		.short	8192
 4525 069a 0050     		.short	20480
 4526 069c 0088     		.short	-30720
 4527 069e 0000     		.short	0
 4528 06a0 0000     		.short	0
 4529 06a2 0088     		.short	-30720
 4530 06a4 0050     		.short	20480
 4531 06a6 0020     		.short	8192
 4532 06a8 0020     		.short	8192
 4533 06aa 00C0     		.short	-16384
 4534 06ac 0000     		.short	0
 4535 06ae 0000     		.short	0
 4536 06b0 00F8     		.short	-2048
 4537 06b2 0010     		.short	4096
 4538 06b4 0020     		.short	8192
 4539 06b6 0040     		.short	16384
 4540 06b8 00F8     		.short	-2048
 4541 06ba 0010     		.short	4096
 4542 06bc 0020     		.short	8192
 4543 06be 0020     		.short	8192
 4544 06c0 0040     		.short	16384
 4545 06c2 0020     		.short	8192
 4546 06c4 0020     		.short	8192
 4547 06c6 0010     		.short	4096
 4548 06c8 0020     		.short	8192
ARM GAS  C:\Users\arist\AppData\Local\Temp\ccSjK9zC.s 			page 103


 4549 06ca 0020     		.short	8192
 4550 06cc 0020     		.short	8192
 4551 06ce 0020     		.short	8192
 4552 06d0 0020     		.short	8192
 4553 06d2 0020     		.short	8192
 4554 06d4 0020     		.short	8192
 4555 06d6 0040     		.short	16384
 4556 06d8 0020     		.short	8192
 4557 06da 0020     		.short	8192
 4558 06dc 0010     		.short	4096
 4559 06de 0020     		.short	8192
 4560 06e0 0020     		.short	8192
 4561 06e2 0040     		.short	16384
 4562 06e4 0000     		.short	0
 4563 06e6 0000     		.short	0
 4564 06e8 0040     		.short	16384
 4565 06ea 00A8     		.short	-22528
 4566 06ec 0010     		.short	4096
 4567 06ee 0000     		.short	0
 4568 06f0 0000     		.short	0
 4569 06f2 0078     		.short	30720
 4570 06f4 0080     		.short	-32768
 4571 06f6 0080     		.short	-32768
 4572 06f8 0080     		.short	-32768
 4573 06fa 0080     		.short	-32768
 4574 06fc 0078     		.short	30720
 4575 06fe 0020     		.short	8192
 4576 0700 0050     		.short	20480
 4577 0702 0000     		.short	0
 4578 0704 0088     		.short	-30720
 4579 0706 0088     		.short	-30720
 4580 0708 0088     		.short	-30720
 4581 070a 0098     		.short	-26624
 4582 070c 0068     		.short	26624
 4583 070e 0010     		.short	4096
 4584 0710 0020     		.short	8192
 4585 0712 0070     		.short	28672
 4586 0714 0088     		.short	-30720
 4587 0716 00F0     		.short	-4096
 4588 0718 0080     		.short	-32768
 4589 071a 0070     		.short	28672
 4590 071c 0020     		.short	8192
 4591 071e 0050     		.short	20480
 4592 0720 0070     		.short	28672
 4593 0722 0008     		.short	2048
 4594 0724 0078     		.short	30720
 4595 0726 0088     		.short	-30720
 4596 0728 0070     		.short	28672
 4597 072a 0050     		.short	20480
 4598 072c 0000     		.short	0
 4599 072e 0070     		.short	28672
 4600 0730 0008     		.short	2048
 4601 0732 0078     		.short	30720
 4602 0734 0088     		.short	-30720
 4603 0736 0070     		.short	28672
 4604 0738 0040     		.short	16384
 4605 073a 0020     		.short	8192
ARM GAS  C:\Users\arist\AppData\Local\Temp\ccSjK9zC.s 			page 104


 4606 073c 0070     		.short	28672
 4607 073e 0008     		.short	2048
 4608 0740 0078     		.short	30720
 4609 0742 0088     		.short	-30720
 4610 0744 0070     		.short	28672
 4611 0746 0020     		.short	8192
 4612 0748 0000     		.short	0
 4613 074a 0070     		.short	28672
 4614 074c 0008     		.short	2048
 4615 074e 0078     		.short	30720
 4616 0750 0088     		.short	-30720
 4617 0752 0070     		.short	28672
 4618 0754 0000     		.short	0
 4619 0756 0000     		.short	0
 4620 0758 0078     		.short	30720
 4621 075a 0080     		.short	-32768
 4622 075c 0080     		.short	-32768
 4623 075e 0078     		.short	30720
 4624 0760 0020     		.short	8192
 4625 0762 0020     		.short	8192
 4626 0764 0050     		.short	20480
 4627 0766 0070     		.short	28672
 4628 0768 0088     		.short	-30720
 4629 076a 00F0     		.short	-4096
 4630 076c 0080     		.short	-32768
 4631 076e 0070     		.short	28672
 4632 0770 0050     		.short	20480
 4633 0772 0000     		.short	0
 4634 0774 0070     		.short	28672
 4635 0776 0088     		.short	-30720
 4636 0778 00F0     		.short	-4096
 4637 077a 0080     		.short	-32768
 4638 077c 0070     		.short	28672
 4639 077e 0040     		.short	16384
 4640 0780 0020     		.short	8192
 4641 0782 0070     		.short	28672
 4642 0784 0088     		.short	-30720
 4643 0786 00F0     		.short	-4096
 4644 0788 0080     		.short	-32768
 4645 078a 0070     		.short	28672
 4646 078c 0050     		.short	20480
 4647 078e 0000     		.short	0
 4648 0790 0000     		.short	0
 4649 0792 0060     		.short	24576
 4650 0794 0020     		.short	8192
 4651 0796 0020     		.short	8192
 4652 0798 0070     		.short	28672
 4653 079a 0020     		.short	8192
 4654 079c 0050     		.short	20480
 4655 079e 0000     		.short	0
 4656 07a0 0060     		.short	24576
 4657 07a2 0020     		.short	8192
 4658 07a4 0020     		.short	8192
 4659 07a6 0070     		.short	28672
 4660 07a8 0040     		.short	16384
 4661 07aa 0020     		.short	8192
 4662 07ac 0000     		.short	0
ARM GAS  C:\Users\arist\AppData\Local\Temp\ccSjK9zC.s 			page 105


 4663 07ae 0060     		.short	24576
 4664 07b0 0020     		.short	8192
 4665 07b2 0020     		.short	8192
 4666 07b4 0070     		.short	28672
 4667 07b6 0050     		.short	20480
 4668 07b8 0000     		.short	0
 4669 07ba 0070     		.short	28672
 4670 07bc 0088     		.short	-30720
 4671 07be 00F8     		.short	-2048
 4672 07c0 0088     		.short	-30720
 4673 07c2 0088     		.short	-30720
 4674 07c4 0020     		.short	8192
 4675 07c6 0000     		.short	0
 4676 07c8 0070     		.short	28672
 4677 07ca 0088     		.short	-30720
 4678 07cc 00F8     		.short	-2048
 4679 07ce 0088     		.short	-30720
 4680 07d0 0088     		.short	-30720
 4681 07d2 0010     		.short	4096
 4682 07d4 0020     		.short	8192
 4683 07d6 00F8     		.short	-2048
 4684 07d8 0080     		.short	-32768
 4685 07da 00F0     		.short	-4096
 4686 07dc 0080     		.short	-32768
 4687 07de 00F8     		.short	-2048
 4688 07e0 0000     		.short	0
 4689 07e2 0000     		.short	0
 4690 07e4 00D0     		.short	-12288
 4691 07e6 0028     		.short	10240
 4692 07e8 0070     		.short	28672
 4693 07ea 00A0     		.short	-24576
 4694 07ec 0058     		.short	22528
 4695 07ee 0078     		.short	30720
 4696 07f0 00A0     		.short	-24576
 4697 07f2 00A0     		.short	-24576
 4698 07f4 00F8     		.short	-2048
 4699 07f6 00A0     		.short	-24576
 4700 07f8 00A0     		.short	-24576
 4701 07fa 00B8     		.short	-18432
 4702 07fc 0020     		.short	8192
 4703 07fe 0050     		.short	20480
 4704 0800 0070     		.short	28672
 4705 0802 0088     		.short	-30720
 4706 0804 0088     		.short	-30720
 4707 0806 0088     		.short	-30720
 4708 0808 0070     		.short	28672
 4709 080a 0050     		.short	20480
 4710 080c 0000     		.short	0
 4711 080e 0070     		.short	28672
 4712 0810 0088     		.short	-30720
 4713 0812 0088     		.short	-30720
 4714 0814 0088     		.short	-30720
 4715 0816 0070     		.short	28672
 4716 0818 0040     		.short	16384
 4717 081a 0020     		.short	8192
 4718 081c 0070     		.short	28672
 4719 081e 0088     		.short	-30720
ARM GAS  C:\Users\arist\AppData\Local\Temp\ccSjK9zC.s 			page 106


 4720 0820 0088     		.short	-30720
 4721 0822 0088     		.short	-30720
 4722 0824 0070     		.short	28672
 4723 0826 0020     		.short	8192
 4724 0828 0050     		.short	20480
 4725 082a 0088     		.short	-30720
 4726 082c 0088     		.short	-30720
 4727 082e 0088     		.short	-30720
 4728 0830 0098     		.short	-26624
 4729 0832 0068     		.short	26624
 4730 0834 0040     		.short	16384
 4731 0836 0020     		.short	8192
 4732 0838 0088     		.short	-30720
 4733 083a 0088     		.short	-30720
 4734 083c 0088     		.short	-30720
 4735 083e 0098     		.short	-26624
 4736 0840 0068     		.short	26624
 4737 0842 0050     		.short	20480
 4738 0844 0000     		.short	0
 4739 0846 0088     		.short	-30720
 4740 0848 0050     		.short	20480
 4741 084a 0020     		.short	8192
 4742 084c 0020     		.short	8192
 4743 084e 00C0     		.short	-16384
 4744 0850 0050     		.short	20480
 4745 0852 0070     		.short	28672
 4746 0854 0088     		.short	-30720
 4747 0856 0088     		.short	-30720
 4748 0858 0088     		.short	-30720
 4749 085a 0088     		.short	-30720
 4750 085c 0070     		.short	28672
 4751 085e 0050     		.short	20480
 4752 0860 0088     		.short	-30720
 4753 0862 0088     		.short	-30720
 4754 0864 0088     		.short	-30720
 4755 0866 0088     		.short	-30720
 4756 0868 0088     		.short	-30720
 4757 086a 0070     		.short	28672
 4758 086c 0000     		.short	0
 4759 086e 0000     		.short	0
 4760 0870 0070     		.short	28672
 4761 0872 0098     		.short	-26624
 4762 0874 00A8     		.short	-22528
 4763 0876 00C8     		.short	-14336
 4764 0878 0070     		.short	28672
 4765 087a 0030     		.short	12288
 4766 087c 0040     		.short	16384
 4767 087e 0020     		.short	8192
 4768 0880 00F0     		.short	-4096
 4769 0882 0040     		.short	16384
 4770 0884 0080     		.short	-32768
 4771 0886 00F8     		.short	-2048
 4772 0888 0070     		.short	28672
 4773 088a 0088     		.short	-30720
 4774 088c 0098     		.short	-26624
 4775 088e 00A8     		.short	-22528
 4776 0890 00C8     		.short	-14336
ARM GAS  C:\Users\arist\AppData\Local\Temp\ccSjK9zC.s 			page 107


 4777 0892 0088     		.short	-30720
 4778 0894 0070     		.short	28672
 4779 0896 0050     		.short	20480
 4780 0898 0020     		.short	8192
 4781 089a 0050     		.short	20480
 4782 089c 0000     		.short	0
 4783 089e 0000     		.short	0
 4784 08a0 0000     		.short	0
 4785 08a2 0000     		.short	0
 4786 08a4 0018     		.short	6144
 4787 08a6 0020     		.short	8192
 4788 08a8 0020     		.short	8192
 4789 08aa 0070     		.short	28672
 4790 08ac 0020     		.short	8192
 4791 08ae 0020     		.short	8192
 4792 08b0 00C0     		.short	-16384
 4793 08b2 0010     		.short	4096
 4794 08b4 0020     		.short	8192
 4795 08b6 0070     		.short	28672
 4796 08b8 0008     		.short	2048
 4797 08ba 0078     		.short	30720
 4798 08bc 0088     		.short	-30720
 4799 08be 0070     		.short	28672
 4800 08c0 0010     		.short	4096
 4801 08c2 0020     		.short	8192
 4802 08c4 0000     		.short	0
 4803 08c6 0060     		.short	24576
 4804 08c8 0020     		.short	8192
 4805 08ca 0020     		.short	8192
 4806 08cc 0070     		.short	28672
 4807 08ce 0010     		.short	4096
 4808 08d0 0020     		.short	8192
 4809 08d2 0070     		.short	28672
 4810 08d4 0088     		.short	-30720
 4811 08d6 0088     		.short	-30720
 4812 08d8 0088     		.short	-30720
 4813 08da 0070     		.short	28672
 4814 08dc 0010     		.short	4096
 4815 08de 0020     		.short	8192
 4816 08e0 0088     		.short	-30720
 4817 08e2 0088     		.short	-30720
 4818 08e4 0088     		.short	-30720
 4819 08e6 0098     		.short	-26624
 4820 08e8 0068     		.short	26624
 4821 08ea 0028     		.short	10240
 4822 08ec 0050     		.short	20480
 4823 08ee 00B0     		.short	-20480
 4824 08f0 00C8     		.short	-14336
 4825 08f2 0088     		.short	-30720
 4826 08f4 0088     		.short	-30720
 4827 08f6 0088     		.short	-30720
 4828 08f8 0028     		.short	10240
 4829 08fa 0050     		.short	20480
 4830 08fc 0088     		.short	-30720
 4831 08fe 00C8     		.short	-14336
 4832 0900 00A8     		.short	-22528
 4833 0902 0098     		.short	-26624
ARM GAS  C:\Users\arist\AppData\Local\Temp\ccSjK9zC.s 			page 108


 4834 0904 0088     		.short	-30720
 4835 0906 0060     		.short	24576
 4836 0908 0010     		.short	4096
 4837 090a 0030     		.short	12288
 4838 090c 0050     		.short	20480
 4839 090e 0020     		.short	8192
 4840 0910 0000     		.short	0
 4841 0912 0000     		.short	0
 4842 0914 0020     		.short	8192
 4843 0916 0050     		.short	20480
 4844 0918 0020     		.short	8192
 4845 091a 0000     		.short	0
 4846 091c 0000     		.short	0
 4847 091e 0000     		.short	0
 4848 0920 0000     		.short	0
 4849 0922 0020     		.short	8192
 4850 0924 0000     		.short	0
 4851 0926 0020     		.short	8192
 4852 0928 0020     		.short	8192
 4853 092a 0090     		.short	-28672
 4854 092c 0090     		.short	-28672
 4855 092e 0060     		.short	24576
 4856 0930 0000     		.short	0
 4857 0932 0070     		.short	28672
 4858 0934 00A8     		.short	-22528
 4859 0936 00B8     		.short	-18432
 4860 0938 00A8     		.short	-22528
 4861 093a 0070     		.short	28672
 4862 093c 0000     		.short	0
 4863 093e 0000     		.short	0
 4864 0940 0000     		.short	0
 4865 0942 0000     		.short	0
 4866 0944 00F8     		.short	-2048
 4867 0946 0008     		.short	2048
 4868 0948 0000     		.short	0
 4869 094a 0000     		.short	0
 4870 094c 0000     		.short	0
 4871 094e 0048     		.short	18432
 4872 0950 0010     		.short	4096
 4873 0952 0020     		.short	8192
 4874 0954 0048     		.short	18432
 4875 0956 0088     		.short	-30720
 4876 0958 0000     		.short	0
 4877 095a 0000     		.short	0
 4878 095c 0048     		.short	18432
 4879 095e 0010     		.short	4096
 4880 0960 0020     		.short	8192
 4881 0962 0058     		.short	22528
 4882 0964 0098     		.short	-26624
 4883 0966 0000     		.short	0
 4884 0968 0000     		.short	0
 4885 096a 0000     		.short	0
 4886 096c 0020     		.short	8192
 4887 096e 0000     		.short	0
 4888 0970 0020     		.short	8192
 4889 0972 0020     		.short	8192
 4890 0974 0020     		.short	8192
ARM GAS  C:\Users\arist\AppData\Local\Temp\ccSjK9zC.s 			page 109


 4891 0976 0000     		.short	0
 4892 0978 0028     		.short	10240
 4893 097a 0050     		.short	20480
 4894 097c 00A0     		.short	-24576
 4895 097e 0050     		.short	20480
 4896 0980 0028     		.short	10240
 4897 0982 0000     		.short	0
 4898 0984 0000     		.short	0
 4899 0986 00A0     		.short	-24576
 4900 0988 0050     		.short	20480
 4901 098a 0028     		.short	10240
 4902 098c 0050     		.short	20480
 4903 098e 00A0     		.short	-24576
 4904 0990 0000     		.short	0
 4905 0992 00A8     		.short	-22528
 4906 0994 0050     		.short	20480
 4907 0996 00A8     		.short	-22528
 4908 0998 0050     		.short	20480
 4909 099a 00A8     		.short	-22528
 4910 099c 0050     		.short	20480
 4911 099e 00A8     		.short	-22528
 4912 09a0 00F8     		.short	-2048
 4913 09a2 0000     		.short	0
 4914 09a4 0000     		.short	0
 4915 09a6 00F8     		.short	-2048
 4916 09a8 0000     		.short	0
 4917 09aa 0000     		.short	0
 4918 09ac 00F8     		.short	-2048
 4919 09ae 00F8     		.short	-2048
 4920 09b0 0000     		.short	0
 4921 09b2 00F8     		.short	-2048
 4922 09b4 0000     		.short	0
 4923 09b6 00F8     		.short	-2048
 4924 09b8 0000     		.short	0
 4925 09ba 00F8     		.short	-2048
 4926 09bc 0020     		.short	8192
 4927 09be 0020     		.short	8192
 4928 09c0 0020     		.short	8192
 4929 09c2 0020     		.short	8192
 4930 09c4 0020     		.short	8192
 4931 09c6 0020     		.short	8192
 4932 09c8 0020     		.short	8192
 4933 09ca 0020     		.short	8192
 4934 09cc 0020     		.short	8192
 4935 09ce 0020     		.short	8192
 4936 09d0 00E0     		.short	-8192
 4937 09d2 0020     		.short	8192
 4938 09d4 0020     		.short	8192
 4939 09d6 0020     		.short	8192
 4940 09d8 0010     		.short	4096
 4941 09da 0020     		.short	8192
 4942 09dc 0070     		.short	28672
 4943 09de 0088     		.short	-30720
 4944 09e0 00F8     		.short	-2048
 4945 09e2 0088     		.short	-30720
 4946 09e4 0088     		.short	-30720
 4947 09e6 0020     		.short	8192
ARM GAS  C:\Users\arist\AppData\Local\Temp\ccSjK9zC.s 			page 110


 4948 09e8 0050     		.short	20480
 4949 09ea 0070     		.short	28672
 4950 09ec 0088     		.short	-30720
 4951 09ee 00F8     		.short	-2048
 4952 09f0 0088     		.short	-30720
 4953 09f2 0088     		.short	-30720
 4954 09f4 0040     		.short	16384
 4955 09f6 0020     		.short	8192
 4956 09f8 0070     		.short	28672
 4957 09fa 0088     		.short	-30720
 4958 09fc 00F8     		.short	-2048
 4959 09fe 0088     		.short	-30720
 4960 0a00 0088     		.short	-30720
 4961 0a02 0000     		.short	0
 4962 0a04 0070     		.short	28672
 4963 0a06 00A8     		.short	-22528
 4964 0a08 00C8     		.short	-14336
 4965 0a0a 00A8     		.short	-22528
 4966 0a0c 0070     		.short	28672
 4967 0a0e 0000     		.short	0
 4968 0a10 0050     		.short	20480
 4969 0a12 0050     		.short	20480
 4970 0a14 00D0     		.short	-12288
 4971 0a16 0010     		.short	4096
 4972 0a18 00D0     		.short	-12288
 4973 0a1a 0050     		.short	20480
 4974 0a1c 0050     		.short	20480
 4975 0a1e 0050     		.short	20480
 4976 0a20 0050     		.short	20480
 4977 0a22 0050     		.short	20480
 4978 0a24 0050     		.short	20480
 4979 0a26 0050     		.short	20480
 4980 0a28 0050     		.short	20480
 4981 0a2a 0050     		.short	20480
 4982 0a2c 0000     		.short	0
 4983 0a2e 0000     		.short	0
 4984 0a30 00F0     		.short	-4096
 4985 0a32 0010     		.short	4096
 4986 0a34 00D0     		.short	-12288
 4987 0a36 0050     		.short	20480
 4988 0a38 0050     		.short	20480
 4989 0a3a 0050     		.short	20480
 4990 0a3c 0050     		.short	20480
 4991 0a3e 00D0     		.short	-12288
 4992 0a40 0001     		.short	256
 4993 0a42 00F0     		.short	-4096
 4994 0a44 0000     		.short	0
 4995 0a46 0000     		.short	0
 4996 0a48 0002     		.short	512
 4997 0a4a 0078     		.short	30720
 4998 0a4c 0080     		.short	-32768
 4999 0a4e 0080     		.short	-32768
 5000 0a50 0080     		.short	-32768
 5001 0a52 0078     		.short	30720
 5002 0a54 0020     		.short	8192
 5003 0a56 0050     		.short	20480
 5004 0a58 0050     		.short	20480
ARM GAS  C:\Users\arist\AppData\Local\Temp\ccSjK9zC.s 			page 111


 5005 0a5a 0020     		.short	8192
 5006 0a5c 0070     		.short	28672
 5007 0a5e 0020     		.short	8192
 5008 0a60 0070     		.short	28672
 5009 0a62 0020     		.short	8192
 5010 0a64 0000     		.short	0
 5011 0a66 0000     		.short	0
 5012 0a68 0000     		.short	0
 5013 0a6a 00E0     		.short	-8192
 5014 0a6c 0020     		.short	8192
 5015 0a6e 0020     		.short	8192
 5016 0a70 0020     		.short	8192
 5017 0a72 0020     		.short	8192
 5018 0a74 0020     		.short	8192
 5019 0a76 0020     		.short	8192
 5020 0a78 0038     		.short	14336
 5021 0a7a 0000     		.short	0
 5022 0a7c 0000     		.short	0
 5023 0a7e 0000     		.short	0
 5024 0a80 0020     		.short	8192
 5025 0a82 0020     		.short	8192
 5026 0a84 0020     		.short	8192
 5027 0a86 00F8     		.short	-2048
 5028 0a88 0000     		.short	0
 5029 0a8a 0000     		.short	0
 5030 0a8c 0000     		.short	0
 5031 0a8e 0000     		.short	0
 5032 0a90 0000     		.short	0
 5033 0a92 0000     		.short	0
 5034 0a94 00F8     		.short	-2048
 5035 0a96 0020     		.short	8192
 5036 0a98 0020     		.short	8192
 5037 0a9a 0020     		.short	8192
 5038 0a9c 0020     		.short	8192
 5039 0a9e 0020     		.short	8192
 5040 0aa0 0020     		.short	8192
 5041 0aa2 0038     		.short	14336
 5042 0aa4 0020     		.short	8192
 5043 0aa6 0020     		.short	8192
 5044 0aa8 0020     		.short	8192
 5045 0aaa 0000     		.short	0
 5046 0aac 0000     		.short	0
 5047 0aae 0000     		.short	0
 5048 0ab0 00F8     		.short	-2048
 5049 0ab2 0000     		.short	0
 5050 0ab4 0000     		.short	0
 5051 0ab6 0000     		.short	0
 5052 0ab8 0020     		.short	8192
 5053 0aba 0020     		.short	8192
 5054 0abc 0020     		.short	8192
 5055 0abe 00F8     		.short	-2048
 5056 0ac0 0020     		.short	8192
 5057 0ac2 0020     		.short	8192
 5058 0ac4 0020     		.short	8192
 5059 0ac6 0028     		.short	10240
 5060 0ac8 0050     		.short	20480
 5061 0aca 0070     		.short	28672
ARM GAS  C:\Users\arist\AppData\Local\Temp\ccSjK9zC.s 			page 112


 5062 0acc 0008     		.short	2048
 5063 0ace 0078     		.short	30720
 5064 0ad0 0088     		.short	-30720
 5065 0ad2 0070     		.short	28672
 5066 0ad4 0028     		.short	10240
 5067 0ad6 0050     		.short	20480
 5068 0ad8 0070     		.short	28672
 5069 0ada 0088     		.short	-30720
 5070 0adc 00F8     		.short	-2048
 5071 0ade 0088     		.short	-30720
 5072 0ae0 0088     		.short	-30720
 5073 0ae2 0050     		.short	20480
 5074 0ae4 0050     		.short	20480
 5075 0ae6 0058     		.short	22528
 5076 0ae8 0040     		.short	16384
 5077 0aea 0078     		.short	30720
 5078 0aec 0000     		.short	0
 5079 0aee 0000     		.short	0
 5080 0af0 0000     		.short	0
 5081 0af2 0000     		.short	0
 5082 0af4 0078     		.short	30720
 5083 0af6 0040     		.short	16384
 5084 0af8 0058     		.short	22528
 5085 0afa 0050     		.short	20480
 5086 0afc 0050     		.short	20480
 5087 0afe 0050     		.short	20480
 5088 0b00 0050     		.short	20480
 5089 0b02 00D8     		.short	-10240
 5090 0b04 0000     		.short	0
 5091 0b06 00F8     		.short	-2048
 5092 0b08 0000     		.short	0
 5093 0b0a 0000     		.short	0
 5094 0b0c 0000     		.short	0
 5095 0b0e 0000     		.short	0
 5096 0b10 00F8     		.short	-2048
 5097 0b12 0000     		.short	0
 5098 0b14 00D8     		.short	-10240
 5099 0b16 0050     		.short	20480
 5100 0b18 0050     		.short	20480
 5101 0b1a 0050     		.short	20480
 5102 0b1c 0050     		.short	20480
 5103 0b1e 0058     		.short	22528
 5104 0b20 0040     		.short	16384
 5105 0b22 0058     		.short	22528
 5106 0b24 0050     		.short	20480
 5107 0b26 0050     		.short	20480
 5108 0b28 0000     		.short	0
 5109 0b2a 0000     		.short	0
 5110 0b2c 00F8     		.short	-2048
 5111 0b2e 0000     		.short	0
 5112 0b30 00F8     		.short	-2048
 5113 0b32 0000     		.short	0
 5114 0b34 0000     		.short	0
 5115 0b36 0050     		.short	20480
 5116 0b38 0050     		.short	20480
 5117 0b3a 00D8     		.short	-10240
 5118 0b3c 0000     		.short	0
ARM GAS  C:\Users\arist\AppData\Local\Temp\ccSjK9zC.s 			page 113


 5119 0b3e 00D8     		.short	-10240
 5120 0b40 0050     		.short	20480
 5121 0b42 0050     		.short	20480
 5122 0b44 00F8     		.short	-2048
 5123 0b46 0050     		.short	20480
 5124 0b48 0050     		.short	20480
 5125 0b4a 00F8     		.short	-2048
 5126 0b4c 0000     		.short	0
 5127 0b4e 0000     		.short	0
 5128 0b50 0000     		.short	0
 5129 0b52 0050     		.short	20480
 5130 0b54 0020     		.short	8192
 5131 0b56 0070     		.short	28672
 5132 0b58 0088     		.short	-30720
 5133 0b5a 0088     		.short	-30720
 5134 0b5c 0088     		.short	-30720
 5135 0b5e 0070     		.short	28672
 5136 0b60 0070     		.short	28672
 5137 0b62 0048     		.short	18432
 5138 0b64 0048     		.short	18432
 5139 0b66 00E8     		.short	-6144
 5140 0b68 0048     		.short	18432
 5141 0b6a 0048     		.short	18432
 5142 0b6c 0070     		.short	28672
 5143 0b6e 0020     		.short	8192
 5144 0b70 0050     		.short	20480
 5145 0b72 00F8     		.short	-2048
 5146 0b74 0080     		.short	-32768
 5147 0b76 00F0     		.short	-4096
 5148 0b78 0080     		.short	-32768
 5149 0b7a 00F8     		.short	-2048
 5150 0b7c 0050     		.short	20480
 5151 0b7e 0000     		.short	0
 5152 0b80 00F8     		.short	-2048
 5153 0b82 0080     		.short	-32768
 5154 0b84 00F0     		.short	-4096
 5155 0b86 0080     		.short	-32768
 5156 0b88 00F8     		.short	-2048
 5157 0b8a 0040     		.short	16384
 5158 0b8c 0020     		.short	8192
 5159 0b8e 00F8     		.short	-2048
 5160 0b90 0080     		.short	-32768
 5161 0b92 00F0     		.short	-4096
 5162 0b94 0080     		.short	-32768
 5163 0b96 00F8     		.short	-2048
 5164 0b98 0000     		.short	0
 5165 0b9a 0000     		.short	0
 5166 0b9c 0000     		.short	0
 5167 0b9e 0060     		.short	24576
 5168 0ba0 0020     		.short	8192
 5169 0ba2 0020     		.short	8192
 5170 0ba4 0070     		.short	28672
 5171 0ba6 0010     		.short	4096
 5172 0ba8 0020     		.short	8192
 5173 0baa 00F8     		.short	-2048
 5174 0bac 0020     		.short	8192
 5175 0bae 0020     		.short	8192
ARM GAS  C:\Users\arist\AppData\Local\Temp\ccSjK9zC.s 			page 114


 5176 0bb0 0020     		.short	8192
 5177 0bb2 00F8     		.short	-2048
 5178 0bb4 0020     		.short	8192
 5179 0bb6 0050     		.short	20480
 5180 0bb8 00F8     		.short	-2048
 5181 0bba 0020     		.short	8192
 5182 0bbc 0020     		.short	8192
 5183 0bbe 0020     		.short	8192
 5184 0bc0 00F8     		.short	-2048
 5185 0bc2 0050     		.short	20480
 5186 0bc4 0000     		.short	0
 5187 0bc6 00F8     		.short	-2048
 5188 0bc8 0020     		.short	8192
 5189 0bca 0020     		.short	8192
 5190 0bcc 0020     		.short	8192
 5191 0bce 00F8     		.short	-2048
 5192 0bd0 0020     		.short	8192
 5193 0bd2 0020     		.short	8192
 5194 0bd4 0020     		.short	8192
 5195 0bd6 00E0     		.short	-8192
 5196 0bd8 0000     		.short	0
 5197 0bda 0000     		.short	0
 5198 0bdc 0000     		.short	0
 5199 0bde 0000     		.short	0
 5200 0be0 0000     		.short	0
 5201 0be2 0000     		.short	0
 5202 0be4 0038     		.short	14336
 5203 0be6 0020     		.short	8192
 5204 0be8 0020     		.short	8192
 5205 0bea 0020     		.short	8192
 5206 0bec 00F8     		.short	-2048
 5207 0bee 00F8     		.short	-2048
 5208 0bf0 00F8     		.short	-2048
 5209 0bf2 00F8     		.short	-2048
 5210 0bf4 00F8     		.short	-2048
 5211 0bf6 00F8     		.short	-2048
 5212 0bf8 00F8     		.short	-2048
 5213 0bfa 0000     		.short	0
 5214 0bfc 0000     		.short	0
 5215 0bfe 0000     		.short	0
 5216 0c00 0000     		.short	0
 5217 0c02 00F8     		.short	-2048
 5218 0c04 00F8     		.short	-2048
 5219 0c06 00F8     		.short	-2048
 5220 0c08 0000     		.short	0
 5221 0c0a 0020     		.short	8192
 5222 0c0c 0020     		.short	8192
 5223 0c0e 0000     		.short	0
 5224 0c10 0020     		.short	8192
 5225 0c12 0020     		.short	8192
 5226 0c14 0000     		.short	0
 5227 0c16 0000     		.short	0
 5228 0c18 0000     		.short	0
 5229 0c1a 00F8     		.short	-2048
 5230 0c1c 00F8     		.short	-2048
 5231 0c1e 00F8     		.short	-2048
 5232 0c20 0000     		.short	0
ARM GAS  C:\Users\arist\AppData\Local\Temp\ccSjK9zC.s 			page 115


 5233 0c22 0000     		.short	0
 5234 0c24 00F8     		.short	-2048
 5235 0c26 00F8     		.short	-2048
 5236 0c28 00F8     		.short	-2048
 5237 0c2a 00F8     		.short	-2048
 5238 0c2c 0000     		.short	0
 5239 0c2e 0000     		.short	0
 5240 0c30 0000     		.short	0
 5241 0c32 0010     		.short	4096
 5242 0c34 0020     		.short	8192
 5243 0c36 0078     		.short	30720
 5244 0c38 0088     		.short	-30720
 5245 0c3a 0088     		.short	-30720
 5246 0c3c 0088     		.short	-30720
 5247 0c3e 0070     		.short	28672
 5248 0c40 00E0     		.short	-8192
 5249 0c42 0090     		.short	-28672
 5250 0c44 00E0     		.short	-8192
 5251 0c46 0090     		.short	-28672
 5252 0c48 0088     		.short	-30720
 5253 0c4a 0088     		.short	-30720
 5254 0c4c 00F0     		.short	-4096
 5255 0c4e 0020     		.short	8192
 5256 0c50 0050     		.short	20480
 5257 0c52 0078     		.short	30720
 5258 0c54 0088     		.short	-30720
 5259 0c56 0088     		.short	-30720
 5260 0c58 0088     		.short	-30720
 5261 0c5a 0070     		.short	28672
 5262 0c5c 0040     		.short	16384
 5263 0c5e 0020     		.short	8192
 5264 0c60 0078     		.short	30720
 5265 0c62 0088     		.short	-30720
 5266 0c64 0088     		.short	-30720
 5267 0c66 0088     		.short	-30720
 5268 0c68 0070     		.short	28672
 5269 0c6a 0028     		.short	10240
 5270 0c6c 0050     		.short	20480
 5271 0c6e 0078     		.short	30720
 5272 0c70 0088     		.short	-30720
 5273 0c72 0088     		.short	-30720
 5274 0c74 0088     		.short	-30720
 5275 0c76 0070     		.short	28672
 5276 0c78 0028     		.short	10240
 5277 0c7a 0050     		.short	20480
 5278 0c7c 0078     		.short	30720
 5279 0c7e 0088     		.short	-30720
 5280 0c80 0088     		.short	-30720
 5281 0c82 0088     		.short	-30720
 5282 0c84 0070     		.short	28672
 5283 0c86 0000     		.short	0
 5284 0c88 0000     		.short	0
 5285 0c8a 0088     		.short	-30720
 5286 0c8c 0088     		.short	-30720
 5287 0c8e 00C8     		.short	-14336
 5288 0c90 00B0     		.short	-20480
 5289 0c92 0080     		.short	-32768
ARM GAS  C:\Users\arist\AppData\Local\Temp\ccSjK9zC.s 			page 116


 5290 0c94 00C0     		.short	-16384
 5291 0c96 0050     		.short	20480
 5292 0c98 0068     		.short	26624
 5293 0c9a 0068     		.short	26624
 5294 0c9c 0050     		.short	20480
 5295 0c9e 0040     		.short	16384
 5296 0ca0 00E0     		.short	-8192
 5297 0ca2 00E0     		.short	-8192
 5298 0ca4 0040     		.short	16384
 5299 0ca6 0070     		.short	28672
 5300 0ca8 0048     		.short	18432
 5301 0caa 0070     		.short	28672
 5302 0cac 0040     		.short	16384
 5303 0cae 00E0     		.short	-8192
 5304 0cb0 0010     		.short	4096
 5305 0cb2 00A8     		.short	-22528
 5306 0cb4 0088     		.short	-30720
 5307 0cb6 0088     		.short	-30720
 5308 0cb8 0088     		.short	-30720
 5309 0cba 0088     		.short	-30720
 5310 0cbc 0070     		.short	28672
 5311 0cbe 0020     		.short	8192
 5312 0cc0 0050     		.short	20480
 5313 0cc2 0088     		.short	-30720
 5314 0cc4 0088     		.short	-30720
 5315 0cc6 0088     		.short	-30720
 5316 0cc8 0088     		.short	-30720
 5317 0cca 0070     		.short	28672
 5318 0ccc 0040     		.short	16384
 5319 0cce 00A8     		.short	-22528
 5320 0cd0 0088     		.short	-30720
 5321 0cd2 0088     		.short	-30720
 5322 0cd4 0088     		.short	-30720
 5323 0cd6 0088     		.short	-30720
 5324 0cd8 0070     		.short	28672
 5325 0cda 0010     		.short	4096
 5326 0cdc 0020     		.short	8192
 5327 0cde 0088     		.short	-30720
 5328 0ce0 0050     		.short	20480
 5329 0ce2 0020     		.short	8192
 5330 0ce4 0020     		.short	8192
 5331 0ce6 00C0     		.short	-16384
 5332 0ce8 0010     		.short	4096
 5333 0cea 0020     		.short	8192
 5334 0cec 0088     		.short	-30720
 5335 0cee 0050     		.short	20480
 5336 0cf0 0020     		.short	8192
 5337 0cf2 0020     		.short	8192
 5338 0cf4 0070     		.short	28672
 5339 0cf6 00F8     		.short	-2048
 5340 0cf8 0000     		.short	0
 5341 0cfa 0000     		.short	0
 5342 0cfc 0000     		.short	0
 5343 0cfe 0000     		.short	0
 5344 0d00 0000     		.short	0
 5345 0d02 0000     		.short	0
 5346 0d04 0010     		.short	4096
ARM GAS  C:\Users\arist\AppData\Local\Temp\ccSjK9zC.s 			page 117


 5347 0d06 0020     		.short	8192
 5348 0d08 0000     		.short	0
 5349 0d0a 0000     		.short	0
 5350 0d0c 0000     		.short	0
 5351 0d0e 0000     		.short	0
 5352 0d10 0008     		.short	2048
 5353 0d12 0000     		.short	0
 5354 0d14 0000     		.short	0
 5355 0d16 0000     		.short	0
 5356 0d18 0070     		.short	28672
 5357 0d1a 0000     		.short	0
 5358 0d1c 0000     		.short	0
 5359 0d1e 0000     		.short	0
 5360 0d20 0020     		.short	8192
 5361 0d22 0020     		.short	8192
 5362 0d24 00F8     		.short	-2048
 5363 0d26 0020     		.short	8192
 5364 0d28 0020     		.short	8192
 5365 0d2a 0000     		.short	0
 5366 0d2c 00F8     		.short	-2048
 5367 0d2e 0000     		.short	0
 5368 0d30 0000     		.short	0
 5369 0d32 0000     		.short	0
 5370 0d34 0000     		.short	0
 5371 0d36 00F8     		.short	-2048
 5372 0d38 0000     		.short	0
 5373 0d3a 00F8     		.short	-2048
 5374 0d3c 0000     		.short	0
 5375 0d3e 0048     		.short	18432
 5376 0d40 00D0     		.short	-12288
 5377 0d42 0020     		.short	8192
 5378 0d44 0058     		.short	22528
 5379 0d46 0098     		.short	-26624
 5380 0d48 0000     		.short	0
 5381 0d4a 0078     		.short	30720
 5382 0d4c 0098     		.short	-26624
 5383 0d4e 0098     		.short	-26624
 5384 0d50 0078     		.short	30720
 5385 0d52 0018     		.short	6144
 5386 0d54 0018     		.short	6144
 5387 0d56 0078     		.short	30720
 5388 0d58 0078     		.short	30720
 5389 0d5a 00A0     		.short	-24576
 5390 0d5c 0090     		.short	-28672
 5391 0d5e 0088     		.short	-30720
 5392 0d60 0048     		.short	18432
 5393 0d62 0028     		.short	10240
 5394 0d64 00F0     		.short	-4096
 5395 0d66 0000     		.short	0
 5396 0d68 0020     		.short	8192
 5397 0d6a 0000     		.short	0
 5398 0d6c 00F8     		.short	-2048
 5399 0d6e 0000     		.short	0
 5400 0d70 0020     		.short	8192
 5401 0d72 0000     		.short	0
 5402 0d74 0000     		.short	0
 5403 0d76 0000     		.short	0
ARM GAS  C:\Users\arist\AppData\Local\Temp\ccSjK9zC.s 			page 118


 5404 0d78 0000     		.short	0
 5405 0d7a 0000     		.short	0
 5406 0d7c 0030     		.short	12288
 5407 0d7e 0030     		.short	12288
 5408 0d80 0060     		.short	24576
 5409 0d82 0020     		.short	8192
 5410 0d84 0050     		.short	20480
 5411 0d86 0020     		.short	8192
 5412 0d88 0000     		.short	0
 5413 0d8a 0000     		.short	0
 5414 0d8c 0000     		.short	0
 5415 0d8e 0000     		.short	0
 5416 0d90 0050     		.short	20480
 5417 0d92 0000     		.short	0
 5418 0d94 0000     		.short	0
 5419 0d96 0000     		.short	0
 5420 0d98 0000     		.short	0
 5421 0d9a 0000     		.short	0
 5422 0d9c 0000     		.short	0
 5423 0d9e 0000     		.short	0
 5424 0da0 0030     		.short	12288
 5425 0da2 0030     		.short	12288
 5426 0da4 0000     		.short	0
 5427 0da6 0000     		.short	0
 5428 0da8 0000     		.short	0
 5429 0daa 0000     		.short	0
 5430 0dac 0020     		.short	8192
 5431 0dae 0060     		.short	24576
 5432 0db0 0020     		.short	8192
 5433 0db2 0020     		.short	8192
 5434 0db4 0070     		.short	28672
 5435 0db6 0000     		.short	0
 5436 0db8 0000     		.short	0
 5437 0dba 0060     		.short	24576
 5438 0dbc 0010     		.short	4096
 5439 0dbe 0020     		.short	8192
 5440 0dc0 0010     		.short	4096
 5441 0dc2 0030     		.short	12288
 5442 0dc4 0000     		.short	0
 5443 0dc6 0000     		.short	0
 5444 0dc8 0060     		.short	24576
 5445 0dca 0010     		.short	4096
 5446 0dcc 0030     		.short	12288
 5447 0dce 0040     		.short	16384
 5448 0dd0 0070     		.short	28672
 5449 0dd2 0000     		.short	0
 5450 0dd4 0000     		.short	0
 5451 0dd6 00F8     		.short	-2048
 5452 0dd8 00F8     		.short	-2048
 5453 0dda 00F8     		.short	-2048
 5454 0ddc 00F8     		.short	-2048
 5455 0dde 0000     		.short	0
 5456 0de0 0000     		.short	0
 5457 0de2 0000     		.short	0
 5458 0de4 00000000 		.space	28
 5458      00000000 
 5458      00000000 
ARM GAS  C:\Users\arist\AppData\Local\Temp\ccSjK9zC.s 			page 119


 5458      00000000 
 5458      00000000 
 5459              		.type	font_m, %object
 5460              		.size	font_m, 7168
 5461              	font_m:
 5462 0e00 C0FF     		.short	-64
 5463 0e02 C0FF     		.short	-64
 5464 0e04 C0FF     		.short	-64
 5465 0e06 C0FF     		.short	-64
 5466 0e08 C0FF     		.short	-64
 5467 0e0a C0FF     		.short	-64
 5468 0e0c C0FF     		.short	-64
 5469 0e0e C0FF     		.short	-64
 5470 0e10 C0FF     		.short	-64
 5471 0e12 C0FF     		.short	-64
 5472 0e14 C0FF     		.short	-64
 5473 0e16 C0FF     		.short	-64
 5474 0e18 C0FF     		.short	-64
 5475 0e1a C0FF     		.short	-64
 5476 0e1c 0000     		.short	0
 5477 0e1e 001E     		.short	7680
 5478 0e20 0021     		.short	8448
 5479 0e22 8040     		.short	16512
 5480 0e24 40B3     		.short	-19648
 5481 0e26 40B3     		.short	-19648
 5482 0e28 4080     		.short	-32704
 5483 0e2a 4080     		.short	-32704
 5484 0e2c 40A1     		.short	-24256
 5485 0e2e 409E     		.short	-25024
 5486 0e30 8040     		.short	16512
 5487 0e32 0021     		.short	8448
 5488 0e34 001E     		.short	7680
 5489 0e36 0000     		.short	0
 5490 0e38 0000     		.short	0
 5491 0e3a 001E     		.short	7680
 5492 0e3c 003F     		.short	16128
 5493 0e3e 807F     		.short	32640
 5494 0e40 C0CC     		.short	-13120
 5495 0e42 C0CC     		.short	-13120
 5496 0e44 C0FF     		.short	-64
 5497 0e46 C0FF     		.short	-64
 5498 0e48 C0DE     		.short	-8512
 5499 0e4a C0E1     		.short	-7744
 5500 0e4c 807F     		.short	32640
 5501 0e4e 003F     		.short	16128
 5502 0e50 001E     		.short	7680
 5503 0e52 0000     		.short	0
 5504 0e54 0000     		.short	0
 5505 0e56 8061     		.short	24960
 5506 0e58 C0F3     		.short	-3136
 5507 0e5a C0FF     		.short	-64
 5508 0e5c C0FF     		.short	-64
 5509 0e5e C0FF     		.short	-64
 5510 0e60 C0FF     		.short	-64
 5511 0e62 807F     		.short	32640
 5512 0e64 807F     		.short	32640
 5513 0e66 003F     		.short	16128
ARM GAS  C:\Users\arist\AppData\Local\Temp\ccSjK9zC.s 			page 120


 5514 0e68 003F     		.short	16128
 5515 0e6a 001E     		.short	7680
 5516 0e6c 000C     		.short	3072
 5517 0e6e 0000     		.short	0
 5518 0e70 0000     		.short	0
 5519 0e72 0000     		.short	0
 5520 0e74 000C     		.short	3072
 5521 0e76 001E     		.short	7680
 5522 0e78 003F     		.short	16128
 5523 0e7a 807F     		.short	32640
 5524 0e7c C0FF     		.short	-64
 5525 0e7e C0FF     		.short	-64
 5526 0e80 807F     		.short	32640
 5527 0e82 003F     		.short	16128
 5528 0e84 001E     		.short	7680
 5529 0e86 000C     		.short	3072
 5530 0e88 0000     		.short	0
 5531 0e8a 0000     		.short	0
 5532 0e8c 0000     		.short	0
 5533 0e8e 000C     		.short	3072
 5534 0e90 001E     		.short	7680
 5535 0e92 001E     		.short	7680
 5536 0e94 001E     		.short	7680
 5537 0e96 806D     		.short	28032
 5538 0e98 C0FF     		.short	-64
 5539 0e9a C0FF     		.short	-64
 5540 0e9c C0FF     		.short	-64
 5541 0e9e 806D     		.short	28032
 5542 0ea0 000C     		.short	3072
 5543 0ea2 001E     		.short	7680
 5544 0ea4 003F     		.short	16128
 5545 0ea6 0000     		.short	0
 5546 0ea8 0000     		.short	0
 5547 0eaa 000C     		.short	3072
 5548 0eac 001E     		.short	7680
 5549 0eae 003F     		.short	16128
 5550 0eb0 003F     		.short	16128
 5551 0eb2 807F     		.short	32640
 5552 0eb4 807F     		.short	32640
 5553 0eb6 C0FF     		.short	-64
 5554 0eb8 C0FF     		.short	-64
 5555 0eba C0FF     		.short	-64
 5556 0ebc 806D     		.short	28032
 5557 0ebe 001E     		.short	7680
 5558 0ec0 003F     		.short	16128
 5559 0ec2 0000     		.short	0
 5560 0ec4 0000     		.short	0
 5561 0ec6 0000     		.short	0
 5562 0ec8 0000     		.short	0
 5563 0eca 001E     		.short	7680
 5564 0ecc 003F     		.short	16128
 5565 0ece 807F     		.short	32640
 5566 0ed0 807F     		.short	32640
 5567 0ed2 807F     		.short	32640
 5568 0ed4 807F     		.short	32640
 5569 0ed6 003F     		.short	16128
 5570 0ed8 001E     		.short	7680
ARM GAS  C:\Users\arist\AppData\Local\Temp\ccSjK9zC.s 			page 121


 5571 0eda 0000     		.short	0
 5572 0edc 0000     		.short	0
 5573 0ede 0000     		.short	0
 5574 0ee0 C0FF     		.short	-64
 5575 0ee2 C0FF     		.short	-64
 5576 0ee4 C0FF     		.short	-64
 5577 0ee6 C0E1     		.short	-7744
 5578 0ee8 C0C0     		.short	-16192
 5579 0eea 7080     		.short	-32656
 5580 0eec 7080     		.short	-32656
 5581 0eee 7080     		.short	-32656
 5582 0ef0 7080     		.short	-32656
 5583 0ef2 C0C0     		.short	-16192
 5584 0ef4 C0E1     		.short	-7744
 5585 0ef6 C0FF     		.short	-64
 5586 0ef8 C0FF     		.short	-64
 5587 0efa C0FF     		.short	-64
 5588 0efc 0000     		.short	0
 5589 0efe 0000     		.short	0
 5590 0f00 0000     		.short	0
 5591 0f02 001E     		.short	7680
 5592 0f04 0021     		.short	8448
 5593 0f06 8040     		.short	16512
 5594 0f08 8040     		.short	16512
 5595 0f0a 8040     		.short	16512
 5596 0f0c 8040     		.short	16512
 5597 0f0e 0021     		.short	8448
 5598 0f10 001E     		.short	7680
 5599 0f12 0000     		.short	0
 5600 0f14 0000     		.short	0
 5601 0f16 0000     		.short	0
 5602 0f18 C0FF     		.short	-64
 5603 0f1a C0FF     		.short	-64
 5604 0f1c C0FF     		.short	-64
 5605 0f1e C0E1     		.short	-7744
 5606 0f20 C0DE     		.short	-8512
 5607 0f22 70BF     		.short	-16528
 5608 0f24 70BF     		.short	-16528
 5609 0f26 70BF     		.short	-16528
 5610 0f28 70BF     		.short	-16528
 5611 0f2a C0DE     		.short	-8512
 5612 0f2c C0E1     		.short	-7744
 5613 0f2e C0FF     		.short	-64
 5614 0f30 C0FF     		.short	-64
 5615 0f32 C0FF     		.short	-64
 5616 0f34 0000     		.short	0
 5617 0f36 C003     		.short	960
 5618 0f38 C000     		.short	192
 5619 0f3a 4001     		.short	320
 5620 0f3c 403E     		.short	15936
 5621 0f3e 0042     		.short	16896
 5622 0f40 0081     		.short	-32512
 5623 0f42 0081     		.short	-32512
 5624 0f44 0081     		.short	-32512
 5625 0f46 0081     		.short	-32512
 5626 0f48 0042     		.short	16896
 5627 0f4a 403E     		.short	15936
ARM GAS  C:\Users\arist\AppData\Local\Temp\ccSjK9zC.s 			page 122


 5628 0f4c 0000     		.short	0
 5629 0f4e 0000     		.short	0
 5630 0f50 0000     		.short	0
 5631 0f52 0000     		.short	0
 5632 0f54 001C     		.short	7168
 5633 0f56 0022     		.short	8704
 5634 0f58 0041     		.short	16640
 5635 0f5a 0041     		.short	16640
 5636 0f5c 0041     		.short	16640
 5637 0f5e 0022     		.short	8704
 5638 0f60 001C     		.short	7168
 5639 0f62 0008     		.short	2048
 5640 0f64 0008     		.short	2048
 5641 0f66 003E     		.short	15872
 5642 0f68 0008     		.short	2048
 5643 0f6a 0000     		.short	0
 5644 0f6c 0000     		.short	0
 5645 0f6e 0004     		.short	1024
 5646 0f70 0006     		.short	1536
 5647 0f72 0006     		.short	1536
 5648 0f74 0005     		.short	1280
 5649 0f76 0005     		.short	1280
 5650 0f78 8004     		.short	1152
 5651 0f7a 8004     		.short	1152
 5652 0f7c 003C     		.short	15360
 5653 0f7e 0044     		.short	17408
 5654 0f80 0044     		.short	17408
 5655 0f82 0044     		.short	17408
 5656 0f84 0038     		.short	14336
 5657 0f86 0000     		.short	0
 5658 0f88 0000     		.short	0
 5659 0f8a C000     		.short	192
 5660 0f8c C001     		.short	448
 5661 0f8e 4003     		.short	832
 5662 0f90 4006     		.short	1600
 5663 0f92 800C     		.short	3200
 5664 0f94 C00B     		.short	3008
 5665 0f96 400C     		.short	3136
 5666 0f98 807C     		.short	31872
 5667 0f9a 808C     		.short	-29568
 5668 0f9c 808B     		.short	-29824
 5669 0f9e 0088     		.short	-30720
 5670 0fa0 0070     		.short	28672
 5671 0fa2 0000     		.short	0
 5672 0fa4 0000     		.short	0
 5673 0fa6 0000     		.short	0
 5674 0fa8 0000     		.short	0
 5675 0faa 0008     		.short	2048
 5676 0fac 0049     		.short	18688
 5677 0fae 003E     		.short	15872
 5678 0fb0 0022     		.short	8704
 5679 0fb2 80E3     		.short	-7296
 5680 0fb4 0022     		.short	8704
 5681 0fb6 003E     		.short	15872
 5682 0fb8 0049     		.short	18688
 5683 0fba 0008     		.short	2048
 5684 0fbc 0000     		.short	0
ARM GAS  C:\Users\arist\AppData\Local\Temp\ccSjK9zC.s 			page 123


 5685 0fbe 0000     		.short	0
 5686 0fc0 0000     		.short	0
 5687 0fc2 0020     		.short	8192
 5688 0fc4 0030     		.short	12288
 5689 0fc6 0030     		.short	12288
 5690 0fc8 003C     		.short	15360
 5691 0fca 003E     		.short	15872
 5692 0fcc 003F     		.short	16128
 5693 0fce 003F     		.short	16128
 5694 0fd0 003E     		.short	15872
 5695 0fd2 003C     		.short	15360
 5696 0fd4 0038     		.short	14336
 5697 0fd6 0030     		.short	12288
 5698 0fd8 0020     		.short	8192
 5699 0fda 0000     		.short	0
 5700 0fdc 0000     		.short	0
 5701 0fde 0001     		.short	256
 5702 0fe0 0003     		.short	768
 5703 0fe2 0007     		.short	1792
 5704 0fe4 000F     		.short	3840
 5705 0fe6 001F     		.short	7936
 5706 0fe8 003F     		.short	16128
 5707 0fea 003F     		.short	16128
 5708 0fec 001F     		.short	7936
 5709 0fee 000F     		.short	3840
 5710 0ff0 0007     		.short	1792
 5711 0ff2 0003     		.short	768
 5712 0ff4 0001     		.short	256
 5713 0ff6 0000     		.short	0
 5714 0ff8 0000     		.short	0
 5715 0ffa 0000     		.short	0
 5716 0ffc 0008     		.short	2048
 5717 0ffe 001C     		.short	7168
 5718 1000 002A     		.short	10752
 5719 1002 0008     		.short	2048
 5720 1004 0008     		.short	2048
 5721 1006 0008     		.short	2048
 5722 1008 0008     		.short	2048
 5723 100a 002A     		.short	10752
 5724 100c 001C     		.short	7168
 5725 100e 0008     		.short	2048
 5726 1010 0000     		.short	0
 5727 1012 0000     		.short	0
 5728 1014 0000     		.short	0
 5729 1016 0000     		.short	0
 5730 1018 0012     		.short	4608
 5731 101a 0012     		.short	4608
 5732 101c 0012     		.short	4608
 5733 101e 0012     		.short	4608
 5734 1020 0012     		.short	4608
 5735 1022 0012     		.short	4608
 5736 1024 0012     		.short	4608
 5737 1026 0012     		.short	4608
 5738 1028 0000     		.short	0
 5739 102a 0012     		.short	4608
 5740 102c 0000     		.short	0
 5741 102e 0000     		.short	0
ARM GAS  C:\Users\arist\AppData\Local\Temp\ccSjK9zC.s 			page 124


 5742 1030 0000     		.short	0
 5743 1032 0000     		.short	0
 5744 1034 0033     		.short	13056
 5745 1036 0033     		.short	13056
 5746 1038 0033     		.short	13056
 5747 103a 0033     		.short	13056
 5748 103c 0033     		.short	13056
 5749 103e 0033     		.short	13056
 5750 1040 0033     		.short	13056
 5751 1042 0033     		.short	13056
 5752 1044 0033     		.short	13056
 5753 1046 0033     		.short	13056
 5754 1048 0000     		.short	0
 5755 104a 0000     		.short	0
 5756 104c 0000     		.short	0
 5757 104e 0000     		.short	0
 5758 1050 0008     		.short	2048
 5759 1052 0008     		.short	2048
 5760 1054 0049     		.short	18688
 5761 1056 8088     		.short	-30592
 5762 1058 8088     		.short	-30592
 5763 105a 8088     		.short	-30592
 5764 105c 8080     		.short	-32640
 5765 105e 8080     		.short	-32640
 5766 1060 0041     		.short	16640
 5767 1062 003E     		.short	15872
 5768 1064 0000     		.short	0
 5769 1066 0000     		.short	0
 5770 1068 0000     		.short	0
 5771 106a 0000     		.short	0
 5772 106c 8007     		.short	1920
 5773 106e 0006     		.short	1536
 5774 1070 0045     		.short	17664
 5775 1072 8084     		.short	-31616
 5776 1074 8080     		.short	-32640
 5777 1076 8080     		.short	-32640
 5778 1078 8080     		.short	-32640
 5779 107a 8080     		.short	-32640
 5780 107c 0041     		.short	16640
 5781 107e 003E     		.short	15872
 5782 1080 0000     		.short	0
 5783 1082 0000     		.short	0
 5784 1084 0000     		.short	0
 5785 1086 0000     		.short	0
 5786 1088 0008     		.short	2048
 5787 108a 001C     		.short	7168
 5788 108c 002A     		.short	10752
 5789 108e 0008     		.short	2048
 5790 1090 0008     		.short	2048
 5791 1092 0008     		.short	2048
 5792 1094 002A     		.short	10752
 5793 1096 001C     		.short	7168
 5794 1098 0008     		.short	2048
 5795 109a 003E     		.short	15872
 5796 109c 0000     		.short	0
 5797 109e 0000     		.short	0
 5798 10a0 0000     		.short	0
ARM GAS  C:\Users\arist\AppData\Local\Temp\ccSjK9zC.s 			page 125


 5799 10a2 0000     		.short	0
 5800 10a4 0008     		.short	2048
 5801 10a6 001C     		.short	7168
 5802 10a8 002A     		.short	10752
 5803 10aa 0008     		.short	2048
 5804 10ac 0008     		.short	2048
 5805 10ae 0008     		.short	2048
 5806 10b0 0008     		.short	2048
 5807 10b2 0008     		.short	2048
 5808 10b4 0008     		.short	2048
 5809 10b6 0008     		.short	2048
 5810 10b8 0000     		.short	0
 5811 10ba 0000     		.short	0
 5812 10bc 0000     		.short	0
 5813 10be 0000     		.short	0
 5814 10c0 0008     		.short	2048
 5815 10c2 0008     		.short	2048
 5816 10c4 0008     		.short	2048
 5817 10c6 0008     		.short	2048
 5818 10c8 0008     		.short	2048
 5819 10ca 0008     		.short	2048
 5820 10cc 0008     		.short	2048
 5821 10ce 002A     		.short	10752
 5822 10d0 001C     		.short	7168
 5823 10d2 0008     		.short	2048
 5824 10d4 0000     		.short	0
 5825 10d6 0000     		.short	0
 5826 10d8 0000     		.short	0
 5827 10da 0000     		.short	0
 5828 10dc 0000     		.short	0
 5829 10de 0000     		.short	0
 5830 10e0 0002     		.short	512
 5831 10e2 0001     		.short	256
 5832 10e4 807F     		.short	32640
 5833 10e6 0001     		.short	256
 5834 10e8 0002     		.short	512
 5835 10ea 0000     		.short	0
 5836 10ec 0000     		.short	0
 5837 10ee 0000     		.short	0
 5838 10f0 0000     		.short	0
 5839 10f2 0000     		.short	0
 5840 10f4 0000     		.short	0
 5841 10f6 0000     		.short	0
 5842 10f8 0000     		.short	0
 5843 10fa 0000     		.short	0
 5844 10fc 0001     		.short	256
 5845 10fe 0002     		.short	512
 5846 1100 807F     		.short	32640
 5847 1102 0002     		.short	512
 5848 1104 0001     		.short	256
 5849 1106 0000     		.short	0
 5850 1108 0000     		.short	0
 5851 110a 0000     		.short	0
 5852 110c 0000     		.short	0
 5853 110e 0000     		.short	0
 5854 1110 0000     		.short	0
 5855 1112 0040     		.short	16384
ARM GAS  C:\Users\arist\AppData\Local\Temp\ccSjK9zC.s 			page 126


 5856 1114 0040     		.short	16384
 5857 1116 0040     		.short	16384
 5858 1118 0040     		.short	16384
 5859 111a 0040     		.short	16384
 5860 111c 0040     		.short	16384
 5861 111e 0040     		.short	16384
 5862 1120 0040     		.short	16384
 5863 1122 0040     		.short	16384
 5864 1124 0040     		.short	16384
 5865 1126 0040     		.short	16384
 5866 1128 807F     		.short	32640
 5867 112a 0000     		.short	0
 5868 112c 0000     		.short	0
 5869 112e 0000     		.short	0
 5870 1130 0000     		.short	0
 5871 1132 0000     		.short	0
 5872 1134 2001     		.short	288
 5873 1136 0021     		.short	8448
 5874 1138 807F     		.short	32640
 5875 113a 0021     		.short	8448
 5876 113c 0012     		.short	4608
 5877 113e 0000     		.short	0
 5878 1140 0000     		.short	0
 5879 1142 0000     		.short	0
 5880 1144 0000     		.short	0
 5881 1146 0000     		.short	0
 5882 1148 0000     		.short	0
 5883 114a 0000     		.short	0
 5884 114c 0000     		.short	0
 5885 114e 0000     		.short	0
 5886 1150 000C     		.short	3072
 5887 1152 E001     		.short	480
 5888 1154 003F     		.short	16128
 5889 1156 807F     		.short	32640
 5890 1158 C0FF     		.short	-64
 5891 115a C0FF     		.short	-64
 5892 115c 0000     		.short	0
 5893 115e 0000     		.short	0
 5894 1160 0000     		.short	0
 5895 1162 0000     		.short	0
 5896 1164 0000     		.short	0
 5897 1166 0000     		.short	0
 5898 1168 0000     		.short	0
 5899 116a 0000     		.short	0
 5900 116c C0FF     		.short	-64
 5901 116e C0FF     		.short	-64
 5902 1170 807F     		.short	32640
 5903 1172 003F     		.short	16128
 5904 1174 E001     		.short	480
 5905 1176 000C     		.short	3072
 5906 1178 0000     		.short	0
 5907 117a 0000     		.short	0
 5908 117c 0000     		.short	0
 5909 117e 0000     		.short	0
 5910 1180 0000     		.short	0
 5911 1182 0000     		.short	0
 5912 1184 0000     		.short	0
ARM GAS  C:\Users\arist\AppData\Local\Temp\ccSjK9zC.s 			page 127


 5913 1186 0000     		.short	0
 5914 1188 0000     		.short	0
 5915 118a 0000     		.short	0
 5916 118c 0000     		.short	0
 5917 118e 0000     		.short	0
 5918 1190 0000     		.short	0
 5919 1192 0000     		.short	0
 5920 1194 0000     		.short	0
 5921 1196 0000     		.short	0
 5922 1198 0000     		.short	0
 5923 119a 0000     		.short	0
 5924 119c 0000     		.short	0
 5925 119e 0000     		.short	0
 5926 11a0 0008     		.short	2048
 5927 11a2 0008     		.short	2048
 5928 11a4 0008     		.short	2048
 5929 11a6 0008     		.short	2048
 5930 11a8 0008     		.short	2048
 5931 11aa 0008     		.short	2048
 5932 11ac 0008     		.short	2048
 5933 11ae 0008     		.short	2048
 5934 11b0 0000     		.short	0
 5935 11b2 0008     		.short	2048
 5936 11b4 0000     		.short	0
 5937 11b6 0000     		.short	0
 5938 11b8 0012     		.short	4608
 5939 11ba 0012     		.short	4608
 5940 11bc 0012     		.short	4608
 5941 11be 0012     		.short	4608
 5942 11c0 0000     		.short	0
 5943 11c2 0000     		.short	0
 5944 11c4 0000     		.short	0
 5945 11c6 0000     		.short	0
 5946 11c8 0000     		.short	0
 5947 11ca 0000     		.short	0
 5948 11cc 0000     		.short	0
 5949 11ce 0000     		.short	0
 5950 11d0 0000     		.short	0
 5951 11d2 0000     		.short	0
 5952 11d4 0000     		.short	0
 5953 11d6 0000     		.short	0
 5954 11d8 0000     		.short	0
 5955 11da 0012     		.short	4608
 5956 11dc 0012     		.short	4608
 5957 11de 807F     		.short	32640
 5958 11e0 0012     		.short	4608
 5959 11e2 0012     		.short	4608
 5960 11e4 807F     		.short	32640
 5961 11e6 0012     		.short	4608
 5962 11e8 0012     		.short	4608
 5963 11ea 0000     		.short	0
 5964 11ec 0000     		.short	0
 5965 11ee 0000     		.short	0
 5966 11f0 0000     		.short	0
 5967 11f2 0008     		.short	2048
 5968 11f4 0008     		.short	2048
 5969 11f6 003F     		.short	16128
ARM GAS  C:\Users\arist\AppData\Local\Temp\ccSjK9zC.s 			page 128


 5970 11f8 0048     		.short	18432
 5971 11fa 0048     		.short	18432
 5972 11fc 003C     		.short	15360
 5973 11fe 000A     		.short	2560
 5974 1200 0009     		.short	2304
 5975 1202 0009     		.short	2304
 5976 1204 007E     		.short	32256
 5977 1206 0008     		.short	2048
 5978 1208 0008     		.short	2048
 5979 120a 0000     		.short	0
 5980 120c 0000     		.short	0
 5981 120e 0000     		.short	0
 5982 1210 0070     		.short	28672
 5983 1212 8088     		.short	-30592
 5984 1214 0089     		.short	-30464
 5985 1216 008A     		.short	-30208
 5986 1218 0074     		.short	29696
 5987 121a 0008     		.short	2048
 5988 121c 0017     		.short	5888
 5989 121e 8028     		.short	10368
 5990 1220 8048     		.short	18560
 5991 1222 8088     		.short	-30592
 5992 1224 0007     		.short	1792
 5993 1226 0000     		.short	0
 5994 1228 0000     		.short	0
 5995 122a 001C     		.short	7168
 5996 122c 0044     		.short	17408
 5997 122e 0044     		.short	17408
 5998 1230 0044     		.short	17408
 5999 1232 0044     		.short	17408
 6000 1234 001C     		.short	7168
 6001 1236 0038     		.short	14336
 6002 1238 0048     		.short	18432
 6003 123a 4084     		.short	-31680
 6004 123c 8082     		.short	-32128
 6005 123e 0081     		.short	-32512
 6006 1240 8042     		.short	17024
 6007 1242 403C     		.short	15424
 6008 1244 0008     		.short	2048
 6009 1246 0008     		.short	2048
 6010 1248 0008     		.short	2048
 6011 124a 0008     		.short	2048
 6012 124c 0000     		.short	0
 6013 124e 0000     		.short	0
 6014 1250 0000     		.short	0
 6015 1252 0000     		.short	0
 6016 1254 0000     		.short	0
 6017 1256 0000     		.short	0
 6018 1258 0000     		.short	0
 6019 125a 0000     		.short	0
 6020 125c 0000     		.short	0
 6021 125e 0000     		.short	0
 6022 1260 0006     		.short	1536
 6023 1262 0008     		.short	2048
 6024 1264 0010     		.short	4096
 6025 1266 0010     		.short	4096
 6026 1268 0020     		.short	8192
ARM GAS  C:\Users\arist\AppData\Local\Temp\ccSjK9zC.s 			page 129


 6027 126a 0020     		.short	8192
 6028 126c 0020     		.short	8192
 6029 126e 0020     		.short	8192
 6030 1270 0020     		.short	8192
 6031 1272 0020     		.short	8192
 6032 1274 0010     		.short	4096
 6033 1276 0010     		.short	4096
 6034 1278 0008     		.short	2048
 6035 127a 0006     		.short	1536
 6036 127c 0018     		.short	6144
 6037 127e 0004     		.short	1024
 6038 1280 0002     		.short	512
 6039 1282 0002     		.short	512
 6040 1284 0001     		.short	256
 6041 1286 0001     		.short	256
 6042 1288 0001     		.short	256
 6043 128a 0001     		.short	256
 6044 128c 0001     		.short	256
 6045 128e 0001     		.short	256
 6046 1290 0002     		.short	512
 6047 1292 0002     		.short	512
 6048 1294 0004     		.short	1024
 6049 1296 0018     		.short	6144
 6050 1298 0000     		.short	0
 6051 129a 002A     		.short	10752
 6052 129c 001C     		.short	7168
 6053 129e 003E     		.short	15872
 6054 12a0 001C     		.short	7168
 6055 12a2 002A     		.short	10752
 6056 12a4 0000     		.short	0
 6057 12a6 0000     		.short	0
 6058 12a8 0000     		.short	0
 6059 12aa 0000     		.short	0
 6060 12ac 0000     		.short	0
 6061 12ae 0000     		.short	0
 6062 12b0 0000     		.short	0
 6063 12b2 0000     		.short	0
 6064 12b4 0000     		.short	0
 6065 12b6 0000     		.short	0
 6066 12b8 0000     		.short	0
 6067 12ba 0008     		.short	2048
 6068 12bc 0008     		.short	2048
 6069 12be 0008     		.short	2048
 6070 12c0 007F     		.short	32512
 6071 12c2 0008     		.short	2048
 6072 12c4 0008     		.short	2048
 6073 12c6 0008     		.short	2048
 6074 12c8 0000     		.short	0
 6075 12ca 0000     		.short	0
 6076 12cc 0000     		.short	0
 6077 12ce 0000     		.short	0
 6078 12d0 0000     		.short	0
 6079 12d2 0000     		.short	0
 6080 12d4 0000     		.short	0
 6081 12d6 0000     		.short	0
 6082 12d8 0000     		.short	0
 6083 12da 0000     		.short	0
ARM GAS  C:\Users\arist\AppData\Local\Temp\ccSjK9zC.s 			page 130


 6084 12dc 0000     		.short	0
 6085 12de 0000     		.short	0
 6086 12e0 0000     		.short	0
 6087 12e2 0000     		.short	0
 6088 12e4 0000     		.short	0
 6089 12e6 0004     		.short	1024
 6090 12e8 0004     		.short	1024
 6091 12ea 0008     		.short	2048
 6092 12ec 0000     		.short	0
 6093 12ee 0000     		.short	0
 6094 12f0 0000     		.short	0
 6095 12f2 0000     		.short	0
 6096 12f4 0000     		.short	0
 6097 12f6 0000     		.short	0
 6098 12f8 007F     		.short	32512
 6099 12fa 0000     		.short	0
 6100 12fc 0000     		.short	0
 6101 12fe 0000     		.short	0
 6102 1300 0000     		.short	0
 6103 1302 0000     		.short	0
 6104 1304 0000     		.short	0
 6105 1306 0000     		.short	0
 6106 1308 0000     		.short	0
 6107 130a 0000     		.short	0
 6108 130c 0000     		.short	0
 6109 130e 0000     		.short	0
 6110 1310 0000     		.short	0
 6111 1312 0000     		.short	0
 6112 1314 0000     		.short	0
 6113 1316 0000     		.short	0
 6114 1318 0000     		.short	0
 6115 131a 0000     		.short	0
 6116 131c 0000     		.short	0
 6117 131e 0000     		.short	0
 6118 1320 000C     		.short	3072
 6119 1322 000C     		.short	3072
 6120 1324 0000     		.short	0
 6121 1326 8000     		.short	128
 6122 1328 8000     		.short	128
 6123 132a 0001     		.short	256
 6124 132c 0002     		.short	512
 6125 132e 0004     		.short	1024
 6126 1330 0004     		.short	1024
 6127 1332 0008     		.short	2048
 6128 1334 0010     		.short	4096
 6129 1336 0010     		.short	4096
 6130 1338 0020     		.short	8192
 6131 133a 0004     		.short	1024
 6132 133c 0004     		.short	1024
 6133 133e 0000     		.short	0
 6134 1340 0000     		.short	0
 6135 1342 003E     		.short	15872
 6136 1344 0041     		.short	16640
 6137 1346 8080     		.short	-32640
 6138 1348 8081     		.short	-32384
 6139 134a 8082     		.short	-32128
 6140 134c 8084     		.short	-31616
ARM GAS  C:\Users\arist\AppData\Local\Temp\ccSjK9zC.s 			page 131


 6141 134e 8088     		.short	-30592
 6142 1350 8090     		.short	-28544
 6143 1352 80A0     		.short	-24448
 6144 1354 80C0     		.short	-16256
 6145 1356 8080     		.short	-32640
 6146 1358 0041     		.short	16640
 6147 135a 003E     		.short	15872
 6148 135c 0000     		.short	0
 6149 135e 0008     		.short	2048
 6150 1360 0018     		.short	6144
 6151 1362 0028     		.short	10240
 6152 1364 0048     		.short	18432
 6153 1366 0088     		.short	-30720
 6154 1368 0008     		.short	2048
 6155 136a 0008     		.short	2048
 6156 136c 0008     		.short	2048
 6157 136e 0008     		.short	2048
 6158 1370 0008     		.short	2048
 6159 1372 0008     		.short	2048
 6160 1374 0008     		.short	2048
 6161 1376 80FF     		.short	-128
 6162 1378 0000     		.short	0
 6163 137a 003E     		.short	15872
 6164 137c 0041     		.short	16640
 6165 137e 8080     		.short	-32640
 6166 1380 8080     		.short	-32640
 6167 1382 8000     		.short	128
 6168 1384 0001     		.short	256
 6169 1386 0002     		.short	512
 6170 1388 0004     		.short	1024
 6171 138a 0008     		.short	2048
 6172 138c 0010     		.short	4096
 6173 138e 0020     		.short	8192
 6174 1390 0040     		.short	16384
 6175 1392 80FF     		.short	-128
 6176 1394 0000     		.short	0
 6177 1396 003E     		.short	15872
 6178 1398 0041     		.short	16640
 6179 139a 8080     		.short	-32640
 6180 139c 8080     		.short	-32640
 6181 139e 8000     		.short	128
 6182 13a0 0001     		.short	256
 6183 13a2 000E     		.short	3584
 6184 13a4 0001     		.short	256
 6185 13a6 8000     		.short	128
 6186 13a8 8080     		.short	-32640
 6187 13aa 8080     		.short	-32640
 6188 13ac 0041     		.short	16640
 6189 13ae 003E     		.short	15872
 6190 13b0 0000     		.short	0
 6191 13b2 0002     		.short	512
 6192 13b4 0006     		.short	1536
 6193 13b6 000A     		.short	2560
 6194 13b8 0012     		.short	4608
 6195 13ba 0022     		.short	8704
 6196 13bc 0042     		.short	16896
 6197 13be 0082     		.short	-32256
ARM GAS  C:\Users\arist\AppData\Local\Temp\ccSjK9zC.s 			page 132


 6198 13c0 80FF     		.short	-128
 6199 13c2 0002     		.short	512
 6200 13c4 0002     		.short	512
 6201 13c6 0002     		.short	512
 6202 13c8 0002     		.short	512
 6203 13ca 0002     		.short	512
 6204 13cc 0000     		.short	0
 6205 13ce 80FF     		.short	-128
 6206 13d0 0080     		.short	-32768
 6207 13d2 0080     		.short	-32768
 6208 13d4 0080     		.short	-32768
 6209 13d6 0080     		.short	-32768
 6210 13d8 007E     		.short	32256
 6211 13da 0001     		.short	256
 6212 13dc 8000     		.short	128
 6213 13de 8000     		.short	128
 6214 13e0 8080     		.short	-32640
 6215 13e2 8080     		.short	-32640
 6216 13e4 0041     		.short	16640
 6217 13e6 003E     		.short	15872
 6218 13e8 0000     		.short	0
 6219 13ea 003F     		.short	16128
 6220 13ec 8040     		.short	16512
 6221 13ee 0080     		.short	-32768
 6222 13f0 0080     		.short	-32768
 6223 13f2 0080     		.short	-32768
 6224 13f4 00BE     		.short	-16896
 6225 13f6 00C1     		.short	-16128
 6226 13f8 8080     		.short	-32640
 6227 13fa 8080     		.short	-32640
 6228 13fc 8080     		.short	-32640
 6229 13fe 8080     		.short	-32640
 6230 1400 0041     		.short	16640
 6231 1402 003E     		.short	15872
 6232 1404 0000     		.short	0
 6233 1406 00FF     		.short	-256
 6234 1408 8000     		.short	128
 6235 140a 8000     		.short	128
 6236 140c 8000     		.short	128
 6237 140e 0001     		.short	256
 6238 1410 0002     		.short	512
 6239 1412 0004     		.short	1024
 6240 1414 0008     		.short	2048
 6241 1416 0008     		.short	2048
 6242 1418 0008     		.short	2048
 6243 141a 0008     		.short	2048
 6244 141c 0008     		.short	2048
 6245 141e 0008     		.short	2048
 6246 1420 0000     		.short	0
 6247 1422 003E     		.short	15872
 6248 1424 0041     		.short	16640
 6249 1426 8080     		.short	-32640
 6250 1428 8080     		.short	-32640
 6251 142a 8080     		.short	-32640
 6252 142c 0041     		.short	16640
 6253 142e 003E     		.short	15872
 6254 1430 0041     		.short	16640
ARM GAS  C:\Users\arist\AppData\Local\Temp\ccSjK9zC.s 			page 133


 6255 1432 8080     		.short	-32640
 6256 1434 8080     		.short	-32640
 6257 1436 8080     		.short	-32640
 6258 1438 0041     		.short	16640
 6259 143a 003E     		.short	15872
 6260 143c 0000     		.short	0
 6261 143e 003E     		.short	15872
 6262 1440 0041     		.short	16640
 6263 1442 8080     		.short	-32640
 6264 1444 8080     		.short	-32640
 6265 1446 8080     		.short	-32640
 6266 1448 8080     		.short	-32640
 6267 144a 8041     		.short	16768
 6268 144c 803E     		.short	16000
 6269 144e 8000     		.short	128
 6270 1450 8000     		.short	128
 6271 1452 8000     		.short	128
 6272 1454 0081     		.short	-32512
 6273 1456 007E     		.short	32256
 6274 1458 0000     		.short	0
 6275 145a 0000     		.short	0
 6276 145c 0000     		.short	0
 6277 145e 0000     		.short	0
 6278 1460 0018     		.short	6144
 6279 1462 0018     		.short	6144
 6280 1464 0000     		.short	0
 6281 1466 0000     		.short	0
 6282 1468 0000     		.short	0
 6283 146a 0000     		.short	0
 6284 146c 0018     		.short	6144
 6285 146e 0018     		.short	6144
 6286 1470 0000     		.short	0
 6287 1472 0000     		.short	0
 6288 1474 0000     		.short	0
 6289 1476 0000     		.short	0
 6290 1478 0000     		.short	0
 6291 147a 0000     		.short	0
 6292 147c 0018     		.short	6144
 6293 147e 0018     		.short	6144
 6294 1480 0000     		.short	0
 6295 1482 0000     		.short	0
 6296 1484 0000     		.short	0
 6297 1486 0018     		.short	6144
 6298 1488 0018     		.short	6144
 6299 148a 0008     		.short	2048
 6300 148c 0008     		.short	2048
 6301 148e 0010     		.short	4096
 6302 1490 0000     		.short	0
 6303 1492 0000     		.short	0
 6304 1494 0002     		.short	512
 6305 1496 0004     		.short	1024
 6306 1498 0008     		.short	2048
 6307 149a 0010     		.short	4096
 6308 149c 0020     		.short	8192
 6309 149e 0040     		.short	16384
 6310 14a0 0020     		.short	8192
 6311 14a2 0010     		.short	4096
ARM GAS  C:\Users\arist\AppData\Local\Temp\ccSjK9zC.s 			page 134


 6312 14a4 0008     		.short	2048
 6313 14a6 0004     		.short	1024
 6314 14a8 0002     		.short	512
 6315 14aa 0000     		.short	0
 6316 14ac 0000     		.short	0
 6317 14ae 0000     		.short	0
 6318 14b0 0000     		.short	0
 6319 14b2 0000     		.short	0
 6320 14b4 0000     		.short	0
 6321 14b6 007F     		.short	32512
 6322 14b8 0000     		.short	0
 6323 14ba 0000     		.short	0
 6324 14bc 007F     		.short	32512
 6325 14be 0000     		.short	0
 6326 14c0 0000     		.short	0
 6327 14c2 0000     		.short	0
 6328 14c4 0000     		.short	0
 6329 14c6 0000     		.short	0
 6330 14c8 0000     		.short	0
 6331 14ca 0000     		.short	0
 6332 14cc 0040     		.short	16384
 6333 14ce 0020     		.short	8192
 6334 14d0 0010     		.short	4096
 6335 14d2 0008     		.short	2048
 6336 14d4 0004     		.short	1024
 6337 14d6 0002     		.short	512
 6338 14d8 0004     		.short	1024
 6339 14da 0008     		.short	2048
 6340 14dc 0010     		.short	4096
 6341 14de 0020     		.short	8192
 6342 14e0 0040     		.short	16384
 6343 14e2 0000     		.short	0
 6344 14e4 003E     		.short	15872
 6345 14e6 0041     		.short	16640
 6346 14e8 8080     		.short	-32640
 6347 14ea 8080     		.short	-32640
 6348 14ec 8000     		.short	128
 6349 14ee 0001     		.short	256
 6350 14f0 0002     		.short	512
 6351 14f2 0004     		.short	1024
 6352 14f4 0008     		.short	2048
 6353 14f6 0008     		.short	2048
 6354 14f8 0008     		.short	2048
 6355 14fa 0000     		.short	0
 6356 14fc 0000     		.short	0
 6357 14fe 0008     		.short	2048
 6358 1500 003E     		.short	15872
 6359 1502 0041     		.short	16640
 6360 1504 8080     		.short	-32640
 6361 1506 4080     		.short	-32704
 6362 1508 4080     		.short	-32704
 6363 150a 4080     		.short	-32704
 6364 150c 408E     		.short	-29120
 6365 150e 4092     		.short	-28096
 6366 1510 40A2     		.short	-24000
 6367 1512 40A2     		.short	-24000
 6368 1514 4092     		.short	-28096
ARM GAS  C:\Users\arist\AppData\Local\Temp\ccSjK9zC.s 			page 135


 6369 1516 808F     		.short	-28800
 6370 1518 0040     		.short	16384
 6371 151a 003F     		.short	16128
 6372 151c 003F     		.short	16128
 6373 151e 8040     		.short	16512
 6374 1520 4080     		.short	-32704
 6375 1522 4080     		.short	-32704
 6376 1524 4080     		.short	-32704
 6377 1526 4080     		.short	-32704
 6378 1528 4080     		.short	-32704
 6379 152a C0FF     		.short	-64
 6380 152c 4080     		.short	-32704
 6381 152e 4080     		.short	-32704
 6382 1530 4080     		.short	-32704
 6383 1532 4080     		.short	-32704
 6384 1534 4080     		.short	-32704
 6385 1536 4080     		.short	-32704
 6386 1538 00FF     		.short	-256
 6387 153a 8080     		.short	-32640
 6388 153c 4080     		.short	-32704
 6389 153e 4080     		.short	-32704
 6390 1540 4080     		.short	-32704
 6391 1542 8080     		.short	-32640
 6392 1544 80FF     		.short	-128
 6393 1546 8080     		.short	-32640
 6394 1548 4080     		.short	-32704
 6395 154a 4080     		.short	-32704
 6396 154c 4080     		.short	-32704
 6397 154e 4080     		.short	-32704
 6398 1550 8080     		.short	-32640
 6399 1552 00FF     		.short	-256
 6400 1554 803F     		.short	16256
 6401 1556 4040     		.short	16448
 6402 1558 0080     		.short	-32768
 6403 155a 0080     		.short	-32768
 6404 155c 0080     		.short	-32768
 6405 155e 0080     		.short	-32768
 6406 1560 0080     		.short	-32768
 6407 1562 0080     		.short	-32768
 6408 1564 0080     		.short	-32768
 6409 1566 0080     		.short	-32768
 6410 1568 0080     		.short	-32768
 6411 156a 0080     		.short	-32768
 6412 156c 4040     		.short	16448
 6413 156e 803F     		.short	16256
 6414 1570 00FE     		.short	-512
 6415 1572 0081     		.short	-32512
 6416 1574 8080     		.short	-32640
 6417 1576 4080     		.short	-32704
 6418 1578 4080     		.short	-32704
 6419 157a 4080     		.short	-32704
 6420 157c 4080     		.short	-32704
 6421 157e 4080     		.short	-32704
 6422 1580 4080     		.short	-32704
 6423 1582 4080     		.short	-32704
 6424 1584 4080     		.short	-32704
 6425 1586 4080     		.short	-32704
ARM GAS  C:\Users\arist\AppData\Local\Temp\ccSjK9zC.s 			page 136


 6426 1588 8080     		.short	-32640
 6427 158a 00FF     		.short	-256
 6428 158c C07F     		.short	32704
 6429 158e 0080     		.short	-32768
 6430 1590 0080     		.short	-32768
 6431 1592 0080     		.short	-32768
 6432 1594 0080     		.short	-32768
 6433 1596 0080     		.short	-32768
 6434 1598 007C     		.short	31744
 6435 159a 0080     		.short	-32768
 6436 159c 0080     		.short	-32768
 6437 159e 0080     		.short	-32768
 6438 15a0 0080     		.short	-32768
 6439 15a2 0080     		.short	-32768
 6440 15a4 0080     		.short	-32768
 6441 15a6 C07F     		.short	32704
 6442 15a8 C07F     		.short	32704
 6443 15aa 0080     		.short	-32768
 6444 15ac 0080     		.short	-32768
 6445 15ae 0080     		.short	-32768
 6446 15b0 0080     		.short	-32768
 6447 15b2 0080     		.short	-32768
 6448 15b4 007C     		.short	31744
 6449 15b6 0080     		.short	-32768
 6450 15b8 0080     		.short	-32768
 6451 15ba 0080     		.short	-32768
 6452 15bc 0080     		.short	-32768
 6453 15be 0080     		.short	-32768
 6454 15c0 0080     		.short	-32768
 6455 15c2 0080     		.short	-32768
 6456 15c4 003F     		.short	16128
 6457 15c6 8040     		.short	16512
 6458 15c8 4080     		.short	-32704
 6459 15ca 0080     		.short	-32768
 6460 15cc 0080     		.short	-32768
 6461 15ce 0080     		.short	-32768
 6462 15d0 0080     		.short	-32768
 6463 15d2 C08F     		.short	-28736
 6464 15d4 4080     		.short	-32704
 6465 15d6 4080     		.short	-32704
 6466 15d8 4080     		.short	-32704
 6467 15da 4080     		.short	-32704
 6468 15dc 8040     		.short	16512
 6469 15de 003F     		.short	16128
 6470 15e0 4080     		.short	-32704
 6471 15e2 4080     		.short	-32704
 6472 15e4 4080     		.short	-32704
 6473 15e6 4080     		.short	-32704
 6474 15e8 4080     		.short	-32704
 6475 15ea 4080     		.short	-32704
 6476 15ec 807F     		.short	32640
 6477 15ee 4080     		.short	-32704
 6478 15f0 4080     		.short	-32704
 6479 15f2 4080     		.short	-32704
 6480 15f4 4080     		.short	-32704
 6481 15f6 4080     		.short	-32704
 6482 15f8 4080     		.short	-32704
ARM GAS  C:\Users\arist\AppData\Local\Temp\ccSjK9zC.s 			page 137


 6483 15fa 4080     		.short	-32704
 6484 15fc 007F     		.short	32512
 6485 15fe 0008     		.short	2048
 6486 1600 0008     		.short	2048
 6487 1602 0008     		.short	2048
 6488 1604 0008     		.short	2048
 6489 1606 0008     		.short	2048
 6490 1608 0008     		.short	2048
 6491 160a 0008     		.short	2048
 6492 160c 0008     		.short	2048
 6493 160e 0008     		.short	2048
 6494 1610 0008     		.short	2048
 6495 1612 0008     		.short	2048
 6496 1614 0008     		.short	2048
 6497 1616 007F     		.short	32512
 6498 1618 C0FF     		.short	-64
 6499 161a 0002     		.short	512
 6500 161c 0002     		.short	512
 6501 161e 0002     		.short	512
 6502 1620 0002     		.short	512
 6503 1622 0002     		.short	512
 6504 1624 0002     		.short	512
 6505 1626 0002     		.short	512
 6506 1628 0002     		.short	512
 6507 162a 0082     		.short	-32256
 6508 162c 0082     		.short	-32256
 6509 162e 0082     		.short	-32256
 6510 1630 0044     		.short	17408
 6511 1632 0038     		.short	14336
 6512 1634 0081     		.short	-32512
 6513 1636 0081     		.short	-32512
 6514 1638 0081     		.short	-32512
 6515 163a 0082     		.short	-32256
 6516 163c 0084     		.short	-31744
 6517 163e 0088     		.short	-30720
 6518 1640 00F0     		.short	-4096
 6519 1642 0088     		.short	-30720
 6520 1644 0084     		.short	-31744
 6521 1646 0082     		.short	-32256
 6522 1648 0081     		.short	-32512
 6523 164a 8080     		.short	-32640
 6524 164c 4080     		.short	-32704
 6525 164e 4080     		.short	-32704
 6526 1650 0080     		.short	-32768
 6527 1652 0080     		.short	-32768
 6528 1654 0080     		.short	-32768
 6529 1656 0080     		.short	-32768
 6530 1658 0080     		.short	-32768
 6531 165a 0080     		.short	-32768
 6532 165c 0080     		.short	-32768
 6533 165e 0080     		.short	-32768
 6534 1660 0080     		.short	-32768
 6535 1662 0080     		.short	-32768
 6536 1664 0080     		.short	-32768
 6537 1666 0080     		.short	-32768
 6538 1668 0080     		.short	-32768
 6539 166a C0FF     		.short	-64
ARM GAS  C:\Users\arist\AppData\Local\Temp\ccSjK9zC.s 			page 138


 6540 166c 4080     		.short	-32704
 6541 166e C0C0     		.short	-16192
 6542 1670 40A1     		.short	-24256
 6543 1672 40A1     		.short	-24256
 6544 1674 4092     		.short	-28096
 6545 1676 4092     		.short	-28096
 6546 1678 408C     		.short	-29632
 6547 167a 4080     		.short	-32704
 6548 167c 4080     		.short	-32704
 6549 167e 4080     		.short	-32704
 6550 1680 4080     		.short	-32704
 6551 1682 4080     		.short	-32704
 6552 1684 4080     		.short	-32704
 6553 1686 4080     		.short	-32704
 6554 1688 4080     		.short	-32704
 6555 168a 4080     		.short	-32704
 6556 168c 40C0     		.short	-16320
 6557 168e 40A0     		.short	-24512
 6558 1690 4090     		.short	-28608
 6559 1692 4088     		.short	-30656
 6560 1694 4084     		.short	-31680
 6561 1696 4082     		.short	-32192
 6562 1698 4081     		.short	-32448
 6563 169a C080     		.short	-32576
 6564 169c 4080     		.short	-32704
 6565 169e 4080     		.short	-32704
 6566 16a0 4080     		.short	-32704
 6567 16a2 4080     		.short	-32704
 6568 16a4 003F     		.short	16128
 6569 16a6 8040     		.short	16512
 6570 16a8 4080     		.short	-32704
 6571 16aa 4080     		.short	-32704
 6572 16ac 4080     		.short	-32704
 6573 16ae 4080     		.short	-32704
 6574 16b0 4080     		.short	-32704
 6575 16b2 4080     		.short	-32704
 6576 16b4 4080     		.short	-32704
 6577 16b6 4080     		.short	-32704
 6578 16b8 4080     		.short	-32704
 6579 16ba 4080     		.short	-32704
 6580 16bc 8040     		.short	16512
 6581 16be 003F     		.short	16128
 6582 16c0 00FF     		.short	-256
 6583 16c2 8080     		.short	-32640
 6584 16c4 4080     		.short	-32704
 6585 16c6 4080     		.short	-32704
 6586 16c8 4080     		.short	-32704
 6587 16ca 4080     		.short	-32704
 6588 16cc 8080     		.short	-32640
 6589 16ce 00FF     		.short	-256
 6590 16d0 0080     		.short	-32768
 6591 16d2 0080     		.short	-32768
 6592 16d4 0080     		.short	-32768
 6593 16d6 0080     		.short	-32768
 6594 16d8 0080     		.short	-32768
 6595 16da 0080     		.short	-32768
 6596 16dc 003F     		.short	16128
ARM GAS  C:\Users\arist\AppData\Local\Temp\ccSjK9zC.s 			page 139


 6597 16de 8040     		.short	16512
 6598 16e0 4080     		.short	-32704
 6599 16e2 4080     		.short	-32704
 6600 16e4 4080     		.short	-32704
 6601 16e6 4080     		.short	-32704
 6602 16e8 4080     		.short	-32704
 6603 16ea 4080     		.short	-32704
 6604 16ec 4080     		.short	-32704
 6605 16ee 4088     		.short	-30656
 6606 16f0 8048     		.short	18560
 6607 16f2 003F     		.short	16128
 6608 16f4 0004     		.short	1024
 6609 16f6 C003     		.short	960
 6610 16f8 00FF     		.short	-256
 6611 16fa 8080     		.short	-32640
 6612 16fc 4080     		.short	-32704
 6613 16fe 4080     		.short	-32704
 6614 1700 4080     		.short	-32704
 6615 1702 4080     		.short	-32704
 6616 1704 8080     		.short	-32640
 6617 1706 00FF     		.short	-256
 6618 1708 0088     		.short	-30720
 6619 170a 0084     		.short	-31744
 6620 170c 0082     		.short	-32256
 6621 170e 0081     		.short	-32512
 6622 1710 8080     		.short	-32640
 6623 1712 4080     		.short	-32704
 6624 1714 C03F     		.short	16320
 6625 1716 0040     		.short	16384
 6626 1718 0080     		.short	-32768
 6627 171a 0080     		.short	-32768
 6628 171c 0080     		.short	-32768
 6629 171e 0040     		.short	16384
 6630 1720 0038     		.short	14336
 6631 1722 0007     		.short	1792
 6632 1724 8000     		.short	128
 6633 1726 4000     		.short	64
 6634 1728 4000     		.short	64
 6635 172a 4000     		.short	64
 6636 172c 8000     		.short	128
 6637 172e 00FF     		.short	-256
 6638 1730 80FF     		.short	-128
 6639 1732 0008     		.short	2048
 6640 1734 0008     		.short	2048
 6641 1736 0008     		.short	2048
 6642 1738 0008     		.short	2048
 6643 173a 0008     		.short	2048
 6644 173c 0008     		.short	2048
 6645 173e 0008     		.short	2048
 6646 1740 0008     		.short	2048
 6647 1742 0008     		.short	2048
 6648 1744 0008     		.short	2048
 6649 1746 0008     		.short	2048
 6650 1748 0008     		.short	2048
 6651 174a 0008     		.short	2048
 6652 174c 4080     		.short	-32704
 6653 174e 4080     		.short	-32704
ARM GAS  C:\Users\arist\AppData\Local\Temp\ccSjK9zC.s 			page 140


 6654 1750 4080     		.short	-32704
 6655 1752 4080     		.short	-32704
 6656 1754 4080     		.short	-32704
 6657 1756 4080     		.short	-32704
 6658 1758 4080     		.short	-32704
 6659 175a 4080     		.short	-32704
 6660 175c 4080     		.short	-32704
 6661 175e 4080     		.short	-32704
 6662 1760 4080     		.short	-32704
 6663 1762 4080     		.short	-32704
 6664 1764 8040     		.short	16512
 6665 1766 003F     		.short	16128
 6666 1768 4080     		.short	-32704
 6667 176a 4080     		.short	-32704
 6668 176c 4080     		.short	-32704
 6669 176e 4080     		.short	-32704
 6670 1770 4080     		.short	-32704
 6671 1772 4080     		.short	-32704
 6672 1774 4080     		.short	-32704
 6673 1776 4080     		.short	-32704
 6674 1778 4080     		.short	-32704
 6675 177a 8040     		.short	16512
 6676 177c 0021     		.short	8448
 6677 177e 0021     		.short	8448
 6678 1780 0012     		.short	4608
 6679 1782 000C     		.short	3072
 6680 1784 4080     		.short	-32704
 6681 1786 4080     		.short	-32704
 6682 1788 4080     		.short	-32704
 6683 178a 4080     		.short	-32704
 6684 178c 4080     		.short	-32704
 6685 178e 4080     		.short	-32704
 6686 1790 4080     		.short	-32704
 6687 1792 4080     		.short	-32704
 6688 1794 4080     		.short	-32704
 6689 1796 4080     		.short	-32704
 6690 1798 4080     		.short	-32704
 6691 179a 408C     		.short	-29632
 6692 179c 8052     		.short	21120
 6693 179e 0021     		.short	8448
 6694 17a0 4080     		.short	-32704
 6695 17a2 4080     		.short	-32704
 6696 17a4 4080     		.short	-32704
 6697 17a6 8040     		.short	16512
 6698 17a8 0021     		.short	8448
 6699 17aa 0012     		.short	4608
 6700 17ac 000C     		.short	3072
 6701 17ae 000C     		.short	3072
 6702 17b0 0012     		.short	4608
 6703 17b2 0021     		.short	8448
 6704 17b4 8040     		.short	16512
 6705 17b6 4080     		.short	-32704
 6706 17b8 4080     		.short	-32704
 6707 17ba 4080     		.short	-32704
 6708 17bc 8080     		.short	-32640
 6709 17be 8080     		.short	-32640
 6710 17c0 8080     		.short	-32640
ARM GAS  C:\Users\arist\AppData\Local\Temp\ccSjK9zC.s 			page 141


 6711 17c2 8080     		.short	-32640
 6712 17c4 0041     		.short	16640
 6713 17c6 0022     		.short	8704
 6714 17c8 0014     		.short	5120
 6715 17ca 0008     		.short	2048
 6716 17cc 0008     		.short	2048
 6717 17ce 0008     		.short	2048
 6718 17d0 0008     		.short	2048
 6719 17d2 0008     		.short	2048
 6720 17d4 0008     		.short	2048
 6721 17d6 007F     		.short	32512
 6722 17d8 C0FF     		.short	-64
 6723 17da 4000     		.short	64
 6724 17dc 4000     		.short	64
 6725 17de 8000     		.short	128
 6726 17e0 0001     		.short	256
 6727 17e2 0002     		.short	512
 6728 17e4 0004     		.short	1024
 6729 17e6 0008     		.short	2048
 6730 17e8 0010     		.short	4096
 6731 17ea 0020     		.short	8192
 6732 17ec 0040     		.short	16384
 6733 17ee 0080     		.short	-32768
 6734 17f0 0080     		.short	-32768
 6735 17f2 C0FF     		.short	-64
 6736 17f4 003F     		.short	16128
 6737 17f6 0020     		.short	8192
 6738 17f8 0020     		.short	8192
 6739 17fa 0020     		.short	8192
 6740 17fc 0020     		.short	8192
 6741 17fe 0020     		.short	8192
 6742 1800 0020     		.short	8192
 6743 1802 0020     		.short	8192
 6744 1804 0020     		.short	8192
 6745 1806 0020     		.short	8192
 6746 1808 0020     		.short	8192
 6747 180a 0020     		.short	8192
 6748 180c 0020     		.short	8192
 6749 180e 003F     		.short	16128
 6750 1810 0000     		.short	0
 6751 1812 0040     		.short	16384
 6752 1814 0040     		.short	16384
 6753 1816 0020     		.short	8192
 6754 1818 0010     		.short	4096
 6755 181a 0010     		.short	4096
 6756 181c 0008     		.short	2048
 6757 181e 0004     		.short	1024
 6758 1820 0002     		.short	512
 6759 1822 0002     		.short	512
 6760 1824 0001     		.short	256
 6761 1826 8000     		.short	128
 6762 1828 8000     		.short	128
 6763 182a 0000     		.short	0
 6764 182c 003F     		.short	16128
 6765 182e 0001     		.short	256
 6766 1830 0001     		.short	256
 6767 1832 0001     		.short	256
ARM GAS  C:\Users\arist\AppData\Local\Temp\ccSjK9zC.s 			page 142


 6768 1834 0001     		.short	256
 6769 1836 0001     		.short	256
 6770 1838 0001     		.short	256
 6771 183a 0001     		.short	256
 6772 183c 0001     		.short	256
 6773 183e 0001     		.short	256
 6774 1840 0001     		.short	256
 6775 1842 0001     		.short	256
 6776 1844 0001     		.short	256
 6777 1846 003F     		.short	16128
 6778 1848 000C     		.short	3072
 6779 184a 0012     		.short	4608
 6780 184c 0021     		.short	8448
 6781 184e 0000     		.short	0
 6782 1850 0000     		.short	0
 6783 1852 0000     		.short	0
 6784 1854 0000     		.short	0
 6785 1856 0000     		.short	0
 6786 1858 0000     		.short	0
 6787 185a 0000     		.short	0
 6788 185c 0000     		.short	0
 6789 185e 0000     		.short	0
 6790 1860 0000     		.short	0
 6791 1862 0000     		.short	0
 6792 1864 0000     		.short	0
 6793 1866 0000     		.short	0
 6794 1868 0000     		.short	0
 6795 186a 0000     		.short	0
 6796 186c 0000     		.short	0
 6797 186e 0000     		.short	0
 6798 1870 0000     		.short	0
 6799 1872 0000     		.short	0
 6800 1874 0000     		.short	0
 6801 1876 0000     		.short	0
 6802 1878 0000     		.short	0
 6803 187a 0000     		.short	0
 6804 187c 0000     		.short	0
 6805 187e 807F     		.short	32640
 6806 1880 0008     		.short	2048
 6807 1882 0008     		.short	2048
 6808 1884 0008     		.short	2048
 6809 1886 0008     		.short	2048
 6810 1888 0000     		.short	0
 6811 188a 0000     		.short	0
 6812 188c 0000     		.short	0
 6813 188e 0000     		.short	0
 6814 1890 0000     		.short	0
 6815 1892 0000     		.short	0
 6816 1894 0000     		.short	0
 6817 1896 0000     		.short	0
 6818 1898 0000     		.short	0
 6819 189a 0000     		.short	0
 6820 189c 0000     		.short	0
 6821 189e 0000     		.short	0
 6822 18a0 0000     		.short	0
 6823 18a2 0000     		.short	0
 6824 18a4 003E     		.short	15872
ARM GAS  C:\Users\arist\AppData\Local\Temp\ccSjK9zC.s 			page 143


 6825 18a6 0041     		.short	16640
 6826 18a8 8000     		.short	128
 6827 18aa 803E     		.short	16000
 6828 18ac 8041     		.short	16768
 6829 18ae 8080     		.short	-32640
 6830 18b0 8080     		.short	-32640
 6831 18b2 8080     		.short	-32640
 6832 18b4 0041     		.short	16640
 6833 18b6 003E     		.short	15872
 6834 18b8 0080     		.short	-32768
 6835 18ba 0080     		.short	-32768
 6836 18bc 0080     		.short	-32768
 6837 18be 0080     		.short	-32768
 6838 18c0 00BE     		.short	-16896
 6839 18c2 00C1     		.short	-16128
 6840 18c4 8080     		.short	-32640
 6841 18c6 8080     		.short	-32640
 6842 18c8 8080     		.short	-32640
 6843 18ca 8080     		.short	-32640
 6844 18cc 8080     		.short	-32640
 6845 18ce 8080     		.short	-32640
 6846 18d0 0041     		.short	16640
 6847 18d2 003E     		.short	15872
 6848 18d4 0000     		.short	0
 6849 18d6 0000     		.short	0
 6850 18d8 0000     		.short	0
 6851 18da 0000     		.short	0
 6852 18dc 003F     		.short	16128
 6853 18de 0040     		.short	16384
 6854 18e0 0080     		.short	-32768
 6855 18e2 0080     		.short	-32768
 6856 18e4 0080     		.short	-32768
 6857 18e6 0080     		.short	-32768
 6858 18e8 0080     		.short	-32768
 6859 18ea 0080     		.short	-32768
 6860 18ec 0040     		.short	16384
 6861 18ee 003F     		.short	16128
 6862 18f0 8000     		.short	128
 6863 18f2 8000     		.short	128
 6864 18f4 8000     		.short	128
 6865 18f6 8000     		.short	128
 6866 18f8 803E     		.short	16000
 6867 18fa 8041     		.short	16768
 6868 18fc 8080     		.short	-32640
 6869 18fe 8080     		.short	-32640
 6870 1900 8080     		.short	-32640
 6871 1902 8080     		.short	-32640
 6872 1904 8080     		.short	-32640
 6873 1906 8080     		.short	-32640
 6874 1908 0041     		.short	16640
 6875 190a 003E     		.short	15872
 6876 190c 0000     		.short	0
 6877 190e 0000     		.short	0
 6878 1910 0000     		.short	0
 6879 1912 0000     		.short	0
 6880 1914 003E     		.short	15872
 6881 1916 0041     		.short	16640
ARM GAS  C:\Users\arist\AppData\Local\Temp\ccSjK9zC.s 			page 144


 6882 1918 8080     		.short	-32640
 6883 191a 8080     		.short	-32640
 6884 191c 8080     		.short	-32640
 6885 191e 00C1     		.short	-16128
 6886 1920 00BE     		.short	-16896
 6887 1922 0080     		.short	-32768
 6888 1924 8040     		.short	16512
 6889 1926 003F     		.short	16128
 6890 1928 0006     		.short	1536
 6891 192a 0009     		.short	2304
 6892 192c 8010     		.short	4224
 6893 192e 8010     		.short	4224
 6894 1930 0010     		.short	4096
 6895 1932 007C     		.short	31744
 6896 1934 0010     		.short	4096
 6897 1936 0010     		.short	4096
 6898 1938 0010     		.short	4096
 6899 193a 0010     		.short	4096
 6900 193c 0010     		.short	4096
 6901 193e 0010     		.short	4096
 6902 1940 0010     		.short	4096
 6903 1942 007C     		.short	31744
 6904 1944 0000     		.short	0
 6905 1946 0000     		.short	0
 6906 1948 0000     		.short	0
 6907 194a 0000     		.short	0
 6908 194c 803E     		.short	16000
 6909 194e 8041     		.short	16768
 6910 1950 8080     		.short	-32640
 6911 1952 8080     		.short	-32640
 6912 1954 8080     		.short	-32640
 6913 1956 8041     		.short	16768
 6914 1958 803E     		.short	16000
 6915 195a 8000     		.short	128
 6916 195c 0041     		.short	16640
 6917 195e 003E     		.short	15872
 6918 1960 0080     		.short	-32768
 6919 1962 0080     		.short	-32768
 6920 1964 0080     		.short	-32768
 6921 1966 0080     		.short	-32768
 6922 1968 009E     		.short	-25088
 6923 196a 00A1     		.short	-24320
 6924 196c 80C0     		.short	-16256
 6925 196e 8080     		.short	-32640
 6926 1970 8080     		.short	-32640
 6927 1972 8080     		.short	-32640
 6928 1974 8080     		.short	-32640
 6929 1976 8080     		.short	-32640
 6930 1978 8080     		.short	-32640
 6931 197a 8080     		.short	-32640
 6932 197c 0000     		.short	0
 6933 197e 0000     		.short	0
 6934 1980 0000     		.short	0
 6935 1982 0000     		.short	0
 6936 1984 0008     		.short	2048
 6937 1986 0000     		.short	0
 6938 1988 0000     		.short	0
ARM GAS  C:\Users\arist\AppData\Local\Temp\ccSjK9zC.s 			page 145


 6939 198a 0038     		.short	14336
 6940 198c 0008     		.short	2048
 6941 198e 0008     		.short	2048
 6942 1990 0008     		.short	2048
 6943 1992 0008     		.short	2048
 6944 1994 0008     		.short	2048
 6945 1996 003E     		.short	15872
 6946 1998 0000     		.short	0
 6947 199a 0000     		.short	0
 6948 199c 0000     		.short	0
 6949 199e 0000     		.short	0
 6950 19a0 0002     		.short	512
 6951 19a2 0000     		.short	0
 6952 19a4 003E     		.short	15872
 6953 19a6 0002     		.short	512
 6954 19a8 0002     		.short	512
 6955 19aa 0002     		.short	512
 6956 19ac 0042     		.short	16896
 6957 19ae 0042     		.short	16896
 6958 19b0 0022     		.short	8704
 6959 19b2 0018     		.short	6144
 6960 19b4 0080     		.short	-32768
 6961 19b6 0080     		.short	-32768
 6962 19b8 0080     		.short	-32768
 6963 19ba 0080     		.short	-32768
 6964 19bc 0081     		.short	-32512
 6965 19be 0082     		.short	-32256
 6966 19c0 0084     		.short	-31744
 6967 19c2 0088     		.short	-30720
 6968 19c4 0090     		.short	-28672
 6969 19c6 00F8     		.short	-2048
 6970 19c8 0084     		.short	-31744
 6971 19ca 0082     		.short	-32256
 6972 19cc 0081     		.short	-32512
 6973 19ce 8080     		.short	-32640
 6974 19d0 0000     		.short	0
 6975 19d2 0038     		.short	14336
 6976 19d4 0008     		.short	2048
 6977 19d6 0008     		.short	2048
 6978 19d8 0008     		.short	2048
 6979 19da 0008     		.short	2048
 6980 19dc 0008     		.short	2048
 6981 19de 0008     		.short	2048
 6982 19e0 0008     		.short	2048
 6983 19e2 0008     		.short	2048
 6984 19e4 0008     		.short	2048
 6985 19e6 0008     		.short	2048
 6986 19e8 0008     		.short	2048
 6987 19ea 003E     		.short	15872
 6988 19ec 0000     		.short	0
 6989 19ee 0000     		.short	0
 6990 19f0 0000     		.short	0
 6991 19f2 0000     		.short	0
 6992 19f4 0036     		.short	13824
 6993 19f6 0049     		.short	18688
 6994 19f8 8088     		.short	-30592
 6995 19fa 8088     		.short	-30592
ARM GAS  C:\Users\arist\AppData\Local\Temp\ccSjK9zC.s 			page 146


 6996 19fc 8088     		.short	-30592
 6997 19fe 8080     		.short	-32640
 6998 1a00 8080     		.short	-32640
 6999 1a02 8080     		.short	-32640
 7000 1a04 8080     		.short	-32640
 7001 1a06 8080     		.short	-32640
 7002 1a08 0000     		.short	0
 7003 1a0a 0000     		.short	0
 7004 1a0c 0000     		.short	0
 7005 1a0e 0000     		.short	0
 7006 1a10 009E     		.short	-25088
 7007 1a12 00A1     		.short	-24320
 7008 1a14 80C0     		.short	-16256
 7009 1a16 8080     		.short	-32640
 7010 1a18 8080     		.short	-32640
 7011 1a1a 8080     		.short	-32640
 7012 1a1c 8080     		.short	-32640
 7013 1a1e 8080     		.short	-32640
 7014 1a20 8080     		.short	-32640
 7015 1a22 8080     		.short	-32640
 7016 1a24 0000     		.short	0
 7017 1a26 0000     		.short	0
 7018 1a28 0000     		.short	0
 7019 1a2a 0000     		.short	0
 7020 1a2c 003E     		.short	15872
 7021 1a2e 0041     		.short	16640
 7022 1a30 8080     		.short	-32640
 7023 1a32 8080     		.short	-32640
 7024 1a34 8080     		.short	-32640
 7025 1a36 8080     		.short	-32640
 7026 1a38 8080     		.short	-32640
 7027 1a3a 8080     		.short	-32640
 7028 1a3c 0041     		.short	16640
 7029 1a3e 003E     		.short	15872
 7030 1a40 0000     		.short	0
 7031 1a42 0000     		.short	0
 7032 1a44 0000     		.short	0
 7033 1a46 0000     		.short	0
 7034 1a48 00BE     		.short	-16896
 7035 1a4a 00C1     		.short	-16128
 7036 1a4c 8080     		.short	-32640
 7037 1a4e 8080     		.short	-32640
 7038 1a50 8080     		.short	-32640
 7039 1a52 00C1     		.short	-16128
 7040 1a54 00BE     		.short	-16896
 7041 1a56 0080     		.short	-32768
 7042 1a58 0080     		.short	-32768
 7043 1a5a 0080     		.short	-32768
 7044 1a5c 0000     		.short	0
 7045 1a5e 0000     		.short	0
 7046 1a60 0000     		.short	0
 7047 1a62 0000     		.short	0
 7048 1a64 803E     		.short	16000
 7049 1a66 8041     		.short	16768
 7050 1a68 8080     		.short	-32640
 7051 1a6a 8080     		.short	-32640
 7052 1a6c 8080     		.short	-32640
ARM GAS  C:\Users\arist\AppData\Local\Temp\ccSjK9zC.s 			page 147


 7053 1a6e 8041     		.short	16768
 7054 1a70 803E     		.short	16000
 7055 1a72 8000     		.short	128
 7056 1a74 8000     		.short	128
 7057 1a76 8000     		.short	128
 7058 1a78 0000     		.short	0
 7059 1a7a 0000     		.short	0
 7060 1a7c 0000     		.short	0
 7061 1a7e 0000     		.short	0
 7062 1a80 8027     		.short	10112
 7063 1a82 4028     		.short	10304
 7064 1a84 4010     		.short	4160
 7065 1a86 0010     		.short	4096
 7066 1a88 0010     		.short	4096
 7067 1a8a 0010     		.short	4096
 7068 1a8c 0010     		.short	4096
 7069 1a8e 0010     		.short	4096
 7070 1a90 0010     		.short	4096
 7071 1a92 007C     		.short	31744
 7072 1a94 0000     		.short	0
 7073 1a96 0000     		.short	0
 7074 1a98 0000     		.short	0
 7075 1a9a 0000     		.short	0
 7076 1a9c 803F     		.short	16256
 7077 1a9e 0040     		.short	16384
 7078 1aa0 0080     		.short	-32768
 7079 1aa2 0080     		.short	-32768
 7080 1aa4 0078     		.short	30720
 7081 1aa6 000F     		.short	3840
 7082 1aa8 8000     		.short	128
 7083 1aaa 8000     		.short	128
 7084 1aac 0001     		.short	256
 7085 1aae 00FE     		.short	-512
 7086 1ab0 0000     		.short	0
 7087 1ab2 0000     		.short	0
 7088 1ab4 0008     		.short	2048
 7089 1ab6 0018     		.short	6144
 7090 1ab8 807F     		.short	32640
 7091 1aba 0008     		.short	2048
 7092 1abc 0008     		.short	2048
 7093 1abe 0008     		.short	2048
 7094 1ac0 0008     		.short	2048
 7095 1ac2 0008     		.short	2048
 7096 1ac4 0008     		.short	2048
 7097 1ac6 0008     		.short	2048
 7098 1ac8 0008     		.short	2048
 7099 1aca 0007     		.short	1792
 7100 1acc 0000     		.short	0
 7101 1ace 0000     		.short	0
 7102 1ad0 0000     		.short	0
 7103 1ad2 0000     		.short	0
 7104 1ad4 8080     		.short	-32640
 7105 1ad6 8080     		.short	-32640
 7106 1ad8 8080     		.short	-32640
 7107 1ada 8080     		.short	-32640
 7108 1adc 8080     		.short	-32640
 7109 1ade 8080     		.short	-32640
ARM GAS  C:\Users\arist\AppData\Local\Temp\ccSjK9zC.s 			page 148


 7110 1ae0 8080     		.short	-32640
 7111 1ae2 8080     		.short	-32640
 7112 1ae4 0041     		.short	16640
 7113 1ae6 003E     		.short	15872
 7114 1ae8 0000     		.short	0
 7115 1aea 0000     		.short	0
 7116 1aec 0000     		.short	0
 7117 1aee 0000     		.short	0
 7118 1af0 8080     		.short	-32640
 7119 1af2 8080     		.short	-32640
 7120 1af4 8080     		.short	-32640
 7121 1af6 8080     		.short	-32640
 7122 1af8 8080     		.short	-32640
 7123 1afa 8080     		.short	-32640
 7124 1afc 0041     		.short	16640
 7125 1afe 0022     		.short	8704
 7126 1b00 0014     		.short	5120
 7127 1b02 0008     		.short	2048
 7128 1b04 0000     		.short	0
 7129 1b06 0000     		.short	0
 7130 1b08 0000     		.short	0
 7131 1b0a 0000     		.short	0
 7132 1b0c 8080     		.short	-32640
 7133 1b0e 8080     		.short	-32640
 7134 1b10 8080     		.short	-32640
 7135 1b12 8080     		.short	-32640
 7136 1b14 8080     		.short	-32640
 7137 1b16 8088     		.short	-30592
 7138 1b18 8088     		.short	-30592
 7139 1b1a 8088     		.short	-30592
 7140 1b1c 0055     		.short	21760
 7141 1b1e 0022     		.short	8704
 7142 1b20 0000     		.short	0
 7143 1b22 0000     		.short	0
 7144 1b24 0000     		.short	0
 7145 1b26 0000     		.short	0
 7146 1b28 8080     		.short	-32640
 7147 1b2a 8080     		.short	-32640
 7148 1b2c 0041     		.short	16640
 7149 1b2e 0022     		.short	8704
 7150 1b30 001C     		.short	7168
 7151 1b32 001C     		.short	7168
 7152 1b34 0022     		.short	8704
 7153 1b36 0041     		.short	16640
 7154 1b38 8080     		.short	-32640
 7155 1b3a 8080     		.short	-32640
 7156 1b3c 0000     		.short	0
 7157 1b3e 0000     		.short	0
 7158 1b40 0000     		.short	0
 7159 1b42 0000     		.short	0
 7160 1b44 8080     		.short	-32640
 7161 1b46 8080     		.short	-32640
 7162 1b48 0041     		.short	16640
 7163 1b4a 0022     		.short	8704
 7164 1b4c 0014     		.short	5120
 7165 1b4e 0008     		.short	2048
 7166 1b50 0008     		.short	2048
ARM GAS  C:\Users\arist\AppData\Local\Temp\ccSjK9zC.s 			page 149


 7167 1b52 0008     		.short	2048
 7168 1b54 0008     		.short	2048
 7169 1b56 0070     		.short	28672
 7170 1b58 0000     		.short	0
 7171 1b5a 0000     		.short	0
 7172 1b5c 0000     		.short	0
 7173 1b5e 0000     		.short	0
 7174 1b60 80FF     		.short	-128
 7175 1b62 8000     		.short	128
 7176 1b64 0001     		.short	256
 7177 1b66 0002     		.short	512
 7178 1b68 0004     		.short	1024
 7179 1b6a 0018     		.short	6144
 7180 1b6c 0020     		.short	8192
 7181 1b6e 0040     		.short	16384
 7182 1b70 0080     		.short	-32768
 7183 1b72 80FF     		.short	-128
 7184 1b74 000E     		.short	3584
 7185 1b76 0010     		.short	4096
 7186 1b78 0010     		.short	4096
 7187 1b7a 0020     		.short	8192
 7188 1b7c 0020     		.short	8192
 7189 1b7e 0020     		.short	8192
 7190 1b80 0040     		.short	16384
 7191 1b82 0040     		.short	16384
 7192 1b84 0020     		.short	8192
 7193 1b86 0020     		.short	8192
 7194 1b88 0020     		.short	8192
 7195 1b8a 0010     		.short	4096
 7196 1b8c 0010     		.short	4096
 7197 1b8e 000E     		.short	3584
 7198 1b90 0008     		.short	2048
 7199 1b92 0008     		.short	2048
 7200 1b94 0008     		.short	2048
 7201 1b96 0008     		.short	2048
 7202 1b98 0008     		.short	2048
 7203 1b9a 0008     		.short	2048
 7204 1b9c 0008     		.short	2048
 7205 1b9e 0008     		.short	2048
 7206 1ba0 0008     		.short	2048
 7207 1ba2 0008     		.short	2048
 7208 1ba4 0008     		.short	2048
 7209 1ba6 0008     		.short	2048
 7210 1ba8 0008     		.short	2048
 7211 1baa 0008     		.short	2048
 7212 1bac 001C     		.short	7168
 7213 1bae 0002     		.short	512
 7214 1bb0 0002     		.short	512
 7215 1bb2 0001     		.short	256
 7216 1bb4 0001     		.short	256
 7217 1bb6 0001     		.short	256
 7218 1bb8 8000     		.short	128
 7219 1bba 8000     		.short	128
 7220 1bbc 0001     		.short	256
 7221 1bbe 0001     		.short	256
 7222 1bc0 0001     		.short	256
 7223 1bc2 0002     		.short	512
ARM GAS  C:\Users\arist\AppData\Local\Temp\ccSjK9zC.s 			page 150


 7224 1bc4 0002     		.short	512
 7225 1bc6 001C     		.short	7168
 7226 1bc8 0000     		.short	0
 7227 1bca 0000     		.short	0
 7228 1bcc 0000     		.short	0
 7229 1bce 0000     		.short	0
 7230 1bd0 0000     		.short	0
 7231 1bd2 8070     		.short	28800
 7232 1bd4 8088     		.short	-30592
 7233 1bd6 0087     		.short	-30976
 7234 1bd8 0000     		.short	0
 7235 1bda 0000     		.short	0
 7236 1bdc 0000     		.short	0
 7237 1bde 0000     		.short	0
 7238 1be0 0000     		.short	0
 7239 1be2 0000     		.short	0
 7240 1be4 0078     		.short	30720
 7241 1be6 0080     		.short	-32768
 7242 1be8 0080     		.short	-32768
 7243 1bea 0080     		.short	-32768
 7244 1bec 0080     		.short	-32768
 7245 1bee 0078     		.short	30720
 7246 1bf0 0020     		.short	8192
 7247 1bf2 00000000 		.space	14
 7247      00000000 
 7247      00000000 
 7247      0000
 7248 1c00 0050     		.short	20480
 7249 1c02 0000     		.short	0
 7250 1c04 0088     		.short	-30720
 7251 1c06 0088     		.short	-30720
 7252 1c08 0088     		.short	-30720
 7253 1c0a 0098     		.short	-26624
 7254 1c0c 0068     		.short	26624
 7255 1c0e 00000000 		.space	14
 7255      00000000 
 7255      00000000 
 7255      0000
 7256 1c1c 0010     		.short	4096
 7257 1c1e 0020     		.short	8192
 7258 1c20 0070     		.short	28672
 7259 1c22 0088     		.short	-30720
 7260 1c24 00F0     		.short	-4096
 7261 1c26 0080     		.short	-32768
 7262 1c28 0070     		.short	28672
 7263 1c2a 00000000 		.space	14
 7263      00000000 
 7263      00000000 
 7263      0000
 7264 1c38 0020     		.short	8192
 7265 1c3a 0050     		.short	20480
 7266 1c3c 0070     		.short	28672
 7267 1c3e 0008     		.short	2048
 7268 1c40 0078     		.short	30720
 7269 1c42 0088     		.short	-30720
 7270 1c44 0070     		.short	28672
 7271 1c46 00000000 		.space	14
ARM GAS  C:\Users\arist\AppData\Local\Temp\ccSjK9zC.s 			page 151


 7271      00000000 
 7271      00000000 
 7271      0000
 7272 1c54 0050     		.short	20480
 7273 1c56 0000     		.short	0
 7274 1c58 0070     		.short	28672
 7275 1c5a 0008     		.short	2048
 7276 1c5c 0078     		.short	30720
 7277 1c5e 0088     		.short	-30720
 7278 1c60 0070     		.short	28672
 7279 1c62 00000000 		.space	14
 7279      00000000 
 7279      00000000 
 7279      0000
 7280 1c70 0040     		.short	16384
 7281 1c72 0020     		.short	8192
 7282 1c74 0070     		.short	28672
 7283 1c76 0008     		.short	2048
 7284 1c78 0078     		.short	30720
 7285 1c7a 0088     		.short	-30720
 7286 1c7c 0070     		.short	28672
 7287 1c7e 00000000 		.space	14
 7287      00000000 
 7287      00000000 
 7287      0000
 7288 1c8c 0020     		.short	8192
 7289 1c8e 0000     		.short	0
 7290 1c90 0070     		.short	28672
 7291 1c92 0008     		.short	2048
 7292 1c94 0078     		.short	30720
 7293 1c96 0088     		.short	-30720
 7294 1c98 0070     		.short	28672
 7295 1c9a 00000000 		.space	14
 7295      00000000 
 7295      00000000 
 7295      0000
 7296 1ca8 0000     		.short	0
 7297 1caa 0000     		.short	0
 7298 1cac 0078     		.short	30720
 7299 1cae 0080     		.short	-32768
 7300 1cb0 0080     		.short	-32768
 7301 1cb2 0078     		.short	30720
 7302 1cb4 0020     		.short	8192
 7303 1cb6 00000000 		.space	14
 7303      00000000 
 7303      00000000 
 7303      0000
 7304 1cc4 0020     		.short	8192
 7305 1cc6 0050     		.short	20480
 7306 1cc8 0070     		.short	28672
 7307 1cca 0088     		.short	-30720
 7308 1ccc 00F0     		.short	-4096
 7309 1cce 0080     		.short	-32768
 7310 1cd0 0070     		.short	28672
 7311 1cd2 00000000 		.space	14
 7311      00000000 
 7311      00000000 
ARM GAS  C:\Users\arist\AppData\Local\Temp\ccSjK9zC.s 			page 152


 7311      0000
 7312 1ce0 0050     		.short	20480
 7313 1ce2 0000     		.short	0
 7314 1ce4 0070     		.short	28672
 7315 1ce6 0088     		.short	-30720
 7316 1ce8 00F0     		.short	-4096
 7317 1cea 0080     		.short	-32768
 7318 1cec 0070     		.short	28672
 7319 1cee 00000000 		.space	14
 7319      00000000 
 7319      00000000 
 7319      0000
 7320 1cfc 0040     		.short	16384
 7321 1cfe 0020     		.short	8192
 7322 1d00 0070     		.short	28672
 7323 1d02 0088     		.short	-30720
 7324 1d04 00F0     		.short	-4096
 7325 1d06 0080     		.short	-32768
 7326 1d08 0070     		.short	28672
 7327 1d0a 00000000 		.space	14
 7327      00000000 
 7327      00000000 
 7327      0000
 7328 1d18 0050     		.short	20480
 7329 1d1a 0000     		.short	0
 7330 1d1c 0000     		.short	0
 7331 1d1e 0060     		.short	24576
 7332 1d20 0020     		.short	8192
 7333 1d22 0020     		.short	8192
 7334 1d24 0070     		.short	28672
 7335 1d26 00000000 		.space	14
 7335      00000000 
 7335      00000000 
 7335      0000
 7336 1d34 0020     		.short	8192
 7337 1d36 0050     		.short	20480
 7338 1d38 0000     		.short	0
 7339 1d3a 0060     		.short	24576
 7340 1d3c 0020     		.short	8192
 7341 1d3e 0020     		.short	8192
 7342 1d40 0070     		.short	28672
 7343 1d42 00000000 		.space	14
 7343      00000000 
 7343      00000000 
 7343      0000
 7344 1d50 0040     		.short	16384
 7345 1d52 0020     		.short	8192
 7346 1d54 0000     		.short	0
 7347 1d56 0060     		.short	24576
 7348 1d58 0020     		.short	8192
 7349 1d5a 0020     		.short	8192
 7350 1d5c 0070     		.short	28672
 7351 1d5e 00000000 		.space	14
 7351      00000000 
 7351      00000000 
 7351      0000
 7352 1d6c 0050     		.short	20480
ARM GAS  C:\Users\arist\AppData\Local\Temp\ccSjK9zC.s 			page 153


 7353 1d6e 0000     		.short	0
 7354 1d70 0070     		.short	28672
 7355 1d72 0088     		.short	-30720
 7356 1d74 00F8     		.short	-2048
 7357 1d76 0088     		.short	-30720
 7358 1d78 0088     		.short	-30720
 7359 1d7a 00000000 		.space	14
 7359      00000000 
 7359      00000000 
 7359      0000
 7360 1d88 0020     		.short	8192
 7361 1d8a 0000     		.short	0
 7362 1d8c 0070     		.short	28672
 7363 1d8e 0088     		.short	-30720
 7364 1d90 00F8     		.short	-2048
 7365 1d92 0088     		.short	-30720
 7366 1d94 0088     		.short	-30720
 7367 1d96 00000000 		.space	14
 7367      00000000 
 7367      00000000 
 7367      0000
 7368 1da4 0010     		.short	4096
 7369 1da6 0020     		.short	8192
 7370 1da8 00F8     		.short	-2048
 7371 1daa 0080     		.short	-32768
 7372 1dac 00F0     		.short	-4096
 7373 1dae 0080     		.short	-32768
 7374 1db0 00F8     		.short	-2048
 7375 1db2 00000000 		.space	14
 7375      00000000 
 7375      00000000 
 7375      0000
 7376 1dc0 0000     		.short	0
 7377 1dc2 0000     		.short	0
 7378 1dc4 00D0     		.short	-12288
 7379 1dc6 0028     		.short	10240
 7380 1dc8 0070     		.short	28672
 7381 1dca 00A0     		.short	-24576
 7382 1dcc 0058     		.short	22528
 7383 1dce 00000000 		.space	14
 7383      00000000 
 7383      00000000 
 7383      0000
 7384 1ddc 0078     		.short	30720
 7385 1dde 00A0     		.short	-24576
 7386 1de0 00A0     		.short	-24576
 7387 1de2 00F8     		.short	-2048
 7388 1de4 00A0     		.short	-24576
 7389 1de6 00A0     		.short	-24576
 7390 1de8 00B8     		.short	-18432
 7391 1dea 00000000 		.space	14
 7391      00000000 
 7391      00000000 
 7391      0000
 7392 1df8 0020     		.short	8192
 7393 1dfa 0050     		.short	20480
 7394 1dfc 0070     		.short	28672
ARM GAS  C:\Users\arist\AppData\Local\Temp\ccSjK9zC.s 			page 154


 7395 1dfe 0088     		.short	-30720
 7396 1e00 0088     		.short	-30720
 7397 1e02 0088     		.short	-30720
 7398 1e04 0070     		.short	28672
 7399 1e06 00000000 		.space	14
 7399      00000000 
 7399      00000000 
 7399      0000
 7400 1e14 0050     		.short	20480
 7401 1e16 0000     		.short	0
 7402 1e18 0070     		.short	28672
 7403 1e1a 0088     		.short	-30720
 7404 1e1c 0088     		.short	-30720
 7405 1e1e 0088     		.short	-30720
 7406 1e20 0070     		.short	28672
 7407 1e22 00000000 		.space	14
 7407      00000000 
 7407      00000000 
 7407      0000
 7408 1e30 0040     		.short	16384
 7409 1e32 0020     		.short	8192
 7410 1e34 0070     		.short	28672
 7411 1e36 0088     		.short	-30720
 7412 1e38 0088     		.short	-30720
 7413 1e3a 0088     		.short	-30720
 7414 1e3c 0070     		.short	28672
 7415 1e3e 00000000 		.space	14
 7415      00000000 
 7415      00000000 
 7415      0000
 7416 1e4c 0020     		.short	8192
 7417 1e4e 0050     		.short	20480
 7418 1e50 0088     		.short	-30720
 7419 1e52 0088     		.short	-30720
 7420 1e54 0088     		.short	-30720
 7421 1e56 0098     		.short	-26624
 7422 1e58 0068     		.short	26624
 7423 1e5a 00000000 		.space	14
 7423      00000000 
 7423      00000000 
 7423      0000
 7424 1e68 0040     		.short	16384
 7425 1e6a 0020     		.short	8192
 7426 1e6c 0088     		.short	-30720
 7427 1e6e 0088     		.short	-30720
 7428 1e70 0088     		.short	-30720
 7429 1e72 0098     		.short	-26624
 7430 1e74 0068     		.short	26624
 7431 1e76 00000000 		.space	14
 7431      00000000 
 7431      00000000 
 7431      0000
 7432 1e84 0050     		.short	20480
 7433 1e86 0000     		.short	0
 7434 1e88 0088     		.short	-30720
 7435 1e8a 0050     		.short	20480
 7436 1e8c 0020     		.short	8192
ARM GAS  C:\Users\arist\AppData\Local\Temp\ccSjK9zC.s 			page 155


 7437 1e8e 0020     		.short	8192
 7438 1e90 00C0     		.short	-16384
 7439 1e92 00000000 		.space	14
 7439      00000000 
 7439      00000000 
 7439      0000
 7440 1ea0 0050     		.short	20480
 7441 1ea2 0070     		.short	28672
 7442 1ea4 0088     		.short	-30720
 7443 1ea6 0088     		.short	-30720
 7444 1ea8 0088     		.short	-30720
 7445 1eaa 0088     		.short	-30720
 7446 1eac 0070     		.short	28672
 7447 1eae 00000000 		.space	14
 7447      00000000 
 7447      00000000 
 7447      0000
 7448 1ebc 0050     		.short	20480
 7449 1ebe 0088     		.short	-30720
 7450 1ec0 0088     		.short	-30720
 7451 1ec2 0088     		.short	-30720
 7452 1ec4 0088     		.short	-30720
 7453 1ec6 0088     		.short	-30720
 7454 1ec8 0070     		.short	28672
 7455 1eca 00000000 		.space	14
 7455      00000000 
 7455      00000000 
 7455      0000
 7456 1ed8 0000     		.short	0
 7457 1eda 0000     		.short	0
 7458 1edc 0070     		.short	28672
 7459 1ede 0098     		.short	-26624
 7460 1ee0 00A8     		.short	-22528
 7461 1ee2 00C8     		.short	-14336
 7462 1ee4 0070     		.short	28672
 7463 1ee6 00000000 		.space	14
 7463      00000000 
 7463      00000000 
 7463      0000
 7464 1ef4 0030     		.short	12288
 7465 1ef6 0040     		.short	16384
 7466 1ef8 0020     		.short	8192
 7467 1efa 00F0     		.short	-4096
 7468 1efc 0040     		.short	16384
 7469 1efe 0080     		.short	-32768
 7470 1f00 00F8     		.short	-2048
 7471 1f02 00000000 		.space	14
 7471      00000000 
 7471      00000000 
 7471      0000
 7472 1f10 0070     		.short	28672
 7473 1f12 0088     		.short	-30720
 7474 1f14 0098     		.short	-26624
 7475 1f16 00A8     		.short	-22528
 7476 1f18 00C8     		.short	-14336
 7477 1f1a 0088     		.short	-30720
 7478 1f1c 0070     		.short	28672
ARM GAS  C:\Users\arist\AppData\Local\Temp\ccSjK9zC.s 			page 156


 7479 1f1e 00000000 		.space	14
 7479      00000000 
 7479      00000000 
 7479      0000
 7480 1f2c 0050     		.short	20480
 7481 1f2e 0020     		.short	8192
 7482 1f30 0050     		.short	20480
 7483 1f32 0000     		.short	0
 7484 1f34 0000     		.short	0
 7485 1f36 0000     		.short	0
 7486 1f38 0000     		.short	0
 7487 1f3a 00000000 		.space	14
 7487      00000000 
 7487      00000000 
 7487      0000
 7488 1f48 0018     		.short	6144
 7489 1f4a 0020     		.short	8192
 7490 1f4c 0020     		.short	8192
 7491 1f4e 0070     		.short	28672
 7492 1f50 0020     		.short	8192
 7493 1f52 0020     		.short	8192
 7494 1f54 00C0     		.short	-16384
 7495 1f56 00000000 		.space	14
 7495      00000000 
 7495      00000000 
 7495      0000
 7496 1f64 0010     		.short	4096
 7497 1f66 0020     		.short	8192
 7498 1f68 0070     		.short	28672
 7499 1f6a 0008     		.short	2048
 7500 1f6c 0078     		.short	30720
 7501 1f6e 0088     		.short	-30720
 7502 1f70 0070     		.short	28672
 7503 1f72 00000000 		.space	14
 7503      00000000 
 7503      00000000 
 7503      0000
 7504 1f80 0010     		.short	4096
 7505 1f82 0020     		.short	8192
 7506 1f84 0000     		.short	0
 7507 1f86 0060     		.short	24576
 7508 1f88 0020     		.short	8192
 7509 1f8a 0020     		.short	8192
 7510 1f8c 0070     		.short	28672
 7511 1f8e 00000000 		.space	14
 7511      00000000 
 7511      00000000 
 7511      0000
 7512 1f9c 0010     		.short	4096
 7513 1f9e 0020     		.short	8192
 7514 1fa0 0070     		.short	28672
 7515 1fa2 0088     		.short	-30720
 7516 1fa4 0088     		.short	-30720
 7517 1fa6 0088     		.short	-30720
 7518 1fa8 0070     		.short	28672
 7519 1faa 00000000 		.space	14
 7519      00000000 
ARM GAS  C:\Users\arist\AppData\Local\Temp\ccSjK9zC.s 			page 157


 7519      00000000 
 7519      0000
 7520 1fb8 0010     		.short	4096
 7521 1fba 0020     		.short	8192
 7522 1fbc 0088     		.short	-30720
 7523 1fbe 0088     		.short	-30720
 7524 1fc0 0088     		.short	-30720
 7525 1fc2 0098     		.short	-26624
 7526 1fc4 0068     		.short	26624
 7527 1fc6 00000000 		.space	14
 7527      00000000 
 7527      00000000 
 7527      0000
 7528 1fd4 0028     		.short	10240
 7529 1fd6 0050     		.short	20480
 7530 1fd8 00B0     		.short	-20480
 7531 1fda 00C8     		.short	-14336
 7532 1fdc 0088     		.short	-30720
 7533 1fde 0088     		.short	-30720
 7534 1fe0 0088     		.short	-30720
 7535 1fe2 00000000 		.space	14
 7535      00000000 
 7535      00000000 
 7535      0000
 7536 1ff0 0028     		.short	10240
 7537 1ff2 0050     		.short	20480
 7538 1ff4 0088     		.short	-30720
 7539 1ff6 00C8     		.short	-14336
 7540 1ff8 00A8     		.short	-22528
 7541 1ffa 0098     		.short	-26624
 7542 1ffc 0088     		.short	-30720
 7543 1ffe 00000000 		.space	14
 7543      00000000 
 7543      00000000 
 7543      0000
 7544 200c 0060     		.short	24576
 7545 200e 0010     		.short	4096
 7546 2010 0030     		.short	12288
 7547 2012 0050     		.short	20480
 7548 2014 0020     		.short	8192
 7549 2016 0000     		.short	0
 7550 2018 0000     		.short	0
 7551 201a 00000000 		.space	14
 7551      00000000 
 7551      00000000 
 7551      0000
 7552 2028 0020     		.short	8192
 7553 202a 0050     		.short	20480
 7554 202c 0020     		.short	8192
 7555 202e 0000     		.short	0
 7556 2030 0000     		.short	0
 7557 2032 0000     		.short	0
 7558 2034 0000     		.short	0
 7559 2036 00000000 		.space	14
 7559      00000000 
 7559      00000000 
 7559      0000
ARM GAS  C:\Users\arist\AppData\Local\Temp\ccSjK9zC.s 			page 158


 7560 2044 0020     		.short	8192
 7561 2046 0000     		.short	0
 7562 2048 0020     		.short	8192
 7563 204a 0020     		.short	8192
 7564 204c 0090     		.short	-28672
 7565 204e 0090     		.short	-28672
 7566 2050 0060     		.short	24576
 7567 2052 00000000 		.space	14
 7567      00000000 
 7567      00000000 
 7567      0000
 7568 2060 0000     		.short	0
 7569 2062 0070     		.short	28672
 7570 2064 00A8     		.short	-22528
 7571 2066 00B8     		.short	-18432
 7572 2068 00A8     		.short	-22528
 7573 206a 0070     		.short	28672
 7574 206c 0000     		.short	0
 7575 206e 00000000 		.space	14
 7575      00000000 
 7575      00000000 
 7575      0000
 7576 207c 0000     		.short	0
 7577 207e 0000     		.short	0
 7578 2080 0000     		.short	0
 7579 2082 00F8     		.short	-2048
 7580 2084 0008     		.short	2048
 7581 2086 0000     		.short	0
 7582 2088 0000     		.short	0
 7583 208a 00000000 		.space	14
 7583      00000000 
 7583      00000000 
 7583      0000
 7584 2098 0000     		.short	0
 7585 209a 0048     		.short	18432
 7586 209c 0010     		.short	4096
 7587 209e 0020     		.short	8192
 7588 20a0 0048     		.short	18432
 7589 20a2 0088     		.short	-30720
 7590 20a4 0000     		.short	0
 7591 20a6 00000000 		.space	14
 7591      00000000 
 7591      00000000 
 7591      0000
 7592 20b4 0000     		.short	0
 7593 20b6 0048     		.short	18432
 7594 20b8 0010     		.short	4096
 7595 20ba 0020     		.short	8192
 7596 20bc 0058     		.short	22528
 7597 20be 0098     		.short	-26624
 7598 20c0 0000     		.short	0
 7599 20c2 00000000 		.space	14
 7599      00000000 
 7599      00000000 
 7599      0000
 7600 20d0 0000     		.short	0
 7601 20d2 0000     		.short	0
ARM GAS  C:\Users\arist\AppData\Local\Temp\ccSjK9zC.s 			page 159


 7602 20d4 0020     		.short	8192
 7603 20d6 0000     		.short	0
 7604 20d8 0020     		.short	8192
 7605 20da 0020     		.short	8192
 7606 20dc 0020     		.short	8192
 7607 20de 00000000 		.space	14
 7607      00000000 
 7607      00000000 
 7607      0000
 7608 20ec 0000     		.short	0
 7609 20ee 0028     		.short	10240
 7610 20f0 0050     		.short	20480
 7611 20f2 00A0     		.short	-24576
 7612 20f4 0050     		.short	20480
 7613 20f6 0028     		.short	10240
 7614 20f8 0000     		.short	0
 7615 20fa 00000000 		.space	14
 7615      00000000 
 7615      00000000 
 7615      0000
 7616 2108 0000     		.short	0
 7617 210a 00A0     		.short	-24576
 7618 210c 0050     		.short	20480
 7619 210e 0028     		.short	10240
 7620 2110 0050     		.short	20480
 7621 2112 00A0     		.short	-24576
 7622 2114 0000     		.short	0
 7623 2116 00000000 		.space	14
 7623      00000000 
 7623      00000000 
 7623      0000
 7624 2124 00A8     		.short	-22528
 7625 2126 0050     		.short	20480
 7626 2128 00A8     		.short	-22528
 7627 212a 0050     		.short	20480
 7628 212c 00A8     		.short	-22528
 7629 212e 0050     		.short	20480
 7630 2130 00A8     		.short	-22528
 7631 2132 00000000 		.space	14
 7631      00000000 
 7631      00000000 
 7631      0000
 7632 2140 00F8     		.short	-2048
 7633 2142 0000     		.short	0
 7634 2144 0000     		.short	0
 7635 2146 00F8     		.short	-2048
 7636 2148 0000     		.short	0
 7637 214a 0000     		.short	0
 7638 214c 00F8     		.short	-2048
 7639 214e 00000000 		.space	14
 7639      00000000 
 7639      00000000 
 7639      0000
 7640 215c 00F8     		.short	-2048
 7641 215e 0000     		.short	0
 7642 2160 00F8     		.short	-2048
 7643 2162 0000     		.short	0
ARM GAS  C:\Users\arist\AppData\Local\Temp\ccSjK9zC.s 			page 160


 7644 2164 00F8     		.short	-2048
 7645 2166 0000     		.short	0
 7646 2168 00F8     		.short	-2048
 7647 216a 00000000 		.space	14
 7647      00000000 
 7647      00000000 
 7647      0000
 7648 2178 0020     		.short	8192
 7649 217a 0020     		.short	8192
 7650 217c 0020     		.short	8192
 7651 217e 0020     		.short	8192
 7652 2180 0020     		.short	8192
 7653 2182 0020     		.short	8192
 7654 2184 0020     		.short	8192
 7655 2186 00000000 		.space	14
 7655      00000000 
 7655      00000000 
 7655      0000
 7656 2194 0020     		.short	8192
 7657 2196 0020     		.short	8192
 7658 2198 0020     		.short	8192
 7659 219a 00E0     		.short	-8192
 7660 219c 0020     		.short	8192
 7661 219e 0020     		.short	8192
 7662 21a0 0020     		.short	8192
 7663 21a2 00000000 		.space	14
 7663      00000000 
 7663      00000000 
 7663      0000
 7664 21b0 0010     		.short	4096
 7665 21b2 0020     		.short	8192
 7666 21b4 0070     		.short	28672
 7667 21b6 0088     		.short	-30720
 7668 21b8 00F8     		.short	-2048
 7669 21ba 0088     		.short	-30720
 7670 21bc 0088     		.short	-30720
 7671 21be 00000000 		.space	14
 7671      00000000 
 7671      00000000 
 7671      0000
 7672 21cc 0020     		.short	8192
 7673 21ce 0050     		.short	20480
 7674 21d0 0070     		.short	28672
 7675 21d2 0088     		.short	-30720
 7676 21d4 00F8     		.short	-2048
 7677 21d6 0088     		.short	-30720
 7678 21d8 0088     		.short	-30720
 7679 21da 00000000 		.space	14
 7679      00000000 
 7679      00000000 
 7679      0000
 7680 21e8 0040     		.short	16384
 7681 21ea 0020     		.short	8192
 7682 21ec 0070     		.short	28672
 7683 21ee 0088     		.short	-30720
 7684 21f0 00F8     		.short	-2048
 7685 21f2 0088     		.short	-30720
ARM GAS  C:\Users\arist\AppData\Local\Temp\ccSjK9zC.s 			page 161


 7686 21f4 0088     		.short	-30720
 7687 21f6 00000000 		.space	14
 7687      00000000 
 7687      00000000 
 7687      0000
 7688 2204 0000     		.short	0
 7689 2206 0070     		.short	28672
 7690 2208 00A8     		.short	-22528
 7691 220a 00C8     		.short	-14336
 7692 220c 00A8     		.short	-22528
 7693 220e 0070     		.short	28672
 7694 2210 0000     		.short	0
 7695 2212 00000000 		.space	14
 7695      00000000 
 7695      00000000 
 7695      0000
 7696 2220 0050     		.short	20480
 7697 2222 0050     		.short	20480
 7698 2224 00D0     		.short	-12288
 7699 2226 0010     		.short	4096
 7700 2228 00D0     		.short	-12288
 7701 222a 0050     		.short	20480
 7702 222c 0050     		.short	20480
 7703 222e 00000000 		.space	14
 7703      00000000 
 7703      00000000 
 7703      0000
 7704 223c 0050     		.short	20480
 7705 223e 0050     		.short	20480
 7706 2240 0050     		.short	20480
 7707 2242 0050     		.short	20480
 7708 2244 0050     		.short	20480
 7709 2246 0050     		.short	20480
 7710 2248 0050     		.short	20480
 7711 224a 00000000 		.space	14
 7711      00000000 
 7711      00000000 
 7711      0000
 7712 2258 0000     		.short	0
 7713 225a 0000     		.short	0
 7714 225c 00F0     		.short	-4096
 7715 225e 0010     		.short	4096
 7716 2260 00D0     		.short	-12288
 7717 2262 0050     		.short	20480
 7718 2264 0050     		.short	20480
 7719 2266 00000000 		.space	14
 7719      00000000 
 7719      00000000 
 7719      0000
 7720 2274 0050     		.short	20480
 7721 2276 0050     		.short	20480
 7722 2278 00D0     		.short	-12288
 7723 227a 0001     		.short	256
 7724 227c 00F0     		.short	-4096
 7725 227e 0000     		.short	0
 7726 2280 0000     		.short	0
 7727 2282 00000000 		.space	14
ARM GAS  C:\Users\arist\AppData\Local\Temp\ccSjK9zC.s 			page 162


 7727      00000000 
 7727      00000000 
 7727      0000
 7728 2290 0002     		.short	512
 7729 2292 0078     		.short	30720
 7730 2294 0080     		.short	-32768
 7731 2296 0080     		.short	-32768
 7732 2298 0080     		.short	-32768
 7733 229a 0078     		.short	30720
 7734 229c 0020     		.short	8192
 7735 229e 00000000 		.space	14
 7735      00000000 
 7735      00000000 
 7735      0000
 7736 22ac 0050     		.short	20480
 7737 22ae 0050     		.short	20480
 7738 22b0 0020     		.short	8192
 7739 22b2 0070     		.short	28672
 7740 22b4 0020     		.short	8192
 7741 22b6 0070     		.short	28672
 7742 22b8 0020     		.short	8192
 7743 22ba 00000000 		.space	14
 7743      00000000 
 7743      00000000 
 7743      0000
 7744 22c8 0000     		.short	0
 7745 22ca 0000     		.short	0
 7746 22cc 0000     		.short	0
 7747 22ce 00E0     		.short	-8192
 7748 22d0 0020     		.short	8192
 7749 22d2 0020     		.short	8192
 7750 22d4 0020     		.short	8192
 7751 22d6 00000000 		.space	14
 7751      00000000 
 7751      00000000 
 7751      0000
 7752 22e4 0020     		.short	8192
 7753 22e6 0020     		.short	8192
 7754 22e8 0020     		.short	8192
 7755 22ea 0038     		.short	14336
 7756 22ec 0000     		.short	0
 7757 22ee 0000     		.short	0
 7758 22f0 0000     		.short	0
 7759 22f2 00000000 		.space	14
 7759      00000000 
 7759      00000000 
 7759      0000
 7760 2300 0020     		.short	8192
 7761 2302 0020     		.short	8192
 7762 2304 0020     		.short	8192
 7763 2306 00F8     		.short	-2048
 7764 2308 0000     		.short	0
 7765 230a 0000     		.short	0
 7766 230c 0000     		.short	0
 7767 230e 00000000 		.space	14
 7767      00000000 
 7767      00000000 
ARM GAS  C:\Users\arist\AppData\Local\Temp\ccSjK9zC.s 			page 163


 7767      0000
 7768 231c 0000     		.short	0
 7769 231e 0000     		.short	0
 7770 2320 0000     		.short	0
 7771 2322 00F8     		.short	-2048
 7772 2324 0020     		.short	8192
 7773 2326 0020     		.short	8192
 7774 2328 0020     		.short	8192
 7775 232a 00000000 		.space	14
 7775      00000000 
 7775      00000000 
 7775      0000
 7776 2338 0020     		.short	8192
 7777 233a 0020     		.short	8192
 7778 233c 0020     		.short	8192
 7779 233e 0038     		.short	14336
 7780 2340 0020     		.short	8192
 7781 2342 0020     		.short	8192
 7782 2344 0020     		.short	8192
 7783 2346 00000000 		.space	14
 7783      00000000 
 7783      00000000 
 7783      0000
 7784 2354 0000     		.short	0
 7785 2356 0000     		.short	0
 7786 2358 0000     		.short	0
 7787 235a 00F8     		.short	-2048
 7788 235c 0000     		.short	0
 7789 235e 0000     		.short	0
 7790 2360 0000     		.short	0
 7791 2362 00000000 		.space	14
 7791      00000000 
 7791      00000000 
 7791      0000
 7792 2370 0020     		.short	8192
 7793 2372 0020     		.short	8192
 7794 2374 0020     		.short	8192
 7795 2376 00F8     		.short	-2048
 7796 2378 0020     		.short	8192
 7797 237a 0020     		.short	8192
 7798 237c 0020     		.short	8192
 7799 237e 00000000 		.space	14
 7799      00000000 
 7799      00000000 
 7799      0000
 7800 238c 0028     		.short	10240
 7801 238e 0050     		.short	20480
 7802 2390 0070     		.short	28672
 7803 2392 0008     		.short	2048
 7804 2394 0078     		.short	30720
 7805 2396 0088     		.short	-30720
 7806 2398 0070     		.short	28672
 7807 239a 00000000 		.space	14
 7807      00000000 
 7807      00000000 
 7807      0000
 7808 23a8 0028     		.short	10240
ARM GAS  C:\Users\arist\AppData\Local\Temp\ccSjK9zC.s 			page 164


 7809 23aa 0050     		.short	20480
 7810 23ac 0070     		.short	28672
 7811 23ae 0088     		.short	-30720
 7812 23b0 00F8     		.short	-2048
 7813 23b2 0088     		.short	-30720
 7814 23b4 0088     		.short	-30720
 7815 23b6 00000000 		.space	14
 7815      00000000 
 7815      00000000 
 7815      0000
 7816 23c4 0050     		.short	20480
 7817 23c6 0050     		.short	20480
 7818 23c8 0058     		.short	22528
 7819 23ca 0040     		.short	16384
 7820 23cc 0078     		.short	30720
 7821 23ce 0000     		.short	0
 7822 23d0 0000     		.short	0
 7823 23d2 00000000 		.space	14
 7823      00000000 
 7823      00000000 
 7823      0000
 7824 23e0 0000     		.short	0
 7825 23e2 0000     		.short	0
 7826 23e4 0078     		.short	30720
 7827 23e6 0040     		.short	16384
 7828 23e8 0058     		.short	22528
 7829 23ea 0050     		.short	20480
 7830 23ec 0050     		.short	20480
 7831 23ee 00000000 		.space	14
 7831      00000000 
 7831      00000000 
 7831      0000
 7832 23fc 0050     		.short	20480
 7833 23fe 0050     		.short	20480
 7834 2400 00D8     		.short	-10240
 7835 2402 0000     		.short	0
 7836 2404 00F8     		.short	-2048
 7837 2406 0000     		.short	0
 7838 2408 0000     		.short	0
 7839 240a 00000000 		.space	14
 7839      00000000 
 7839      00000000 
 7839      0000
 7840 2418 0000     		.short	0
 7841 241a 0000     		.short	0
 7842 241c 00F8     		.short	-2048
 7843 241e 0000     		.short	0
 7844 2420 00D8     		.short	-10240
 7845 2422 0050     		.short	20480
 7846 2424 0050     		.short	20480
 7847 2426 00000000 		.space	14
 7847      00000000 
 7847      00000000 
 7847      0000
 7848 2434 0050     		.short	20480
 7849 2436 0050     		.short	20480
 7850 2438 0058     		.short	22528
ARM GAS  C:\Users\arist\AppData\Local\Temp\ccSjK9zC.s 			page 165


 7851 243a 0040     		.short	16384
 7852 243c 0058     		.short	22528
 7853 243e 0050     		.short	20480
 7854 2440 0050     		.short	20480
 7855 2442 00000000 		.space	14
 7855      00000000 
 7855      00000000 
 7855      0000
 7856 2450 0000     		.short	0
 7857 2452 0000     		.short	0
 7858 2454 00F8     		.short	-2048
 7859 2456 0000     		.short	0
 7860 2458 00F8     		.short	-2048
 7861 245a 0000     		.short	0
 7862 245c 0000     		.short	0
 7863 245e 00000000 		.space	14
 7863      00000000 
 7863      00000000 
 7863      0000
 7864 246c 0050     		.short	20480
 7865 246e 0050     		.short	20480
 7866 2470 00D8     		.short	-10240
 7867 2472 0000     		.short	0
 7868 2474 00D8     		.short	-10240
 7869 2476 0050     		.short	20480
 7870 2478 0050     		.short	20480
 7871 247a 00000000 		.space	14
 7871      00000000 
 7871      00000000 
 7871      0000
 7872 2488 00F8     		.short	-2048
 7873 248a 0050     		.short	20480
 7874 248c 0050     		.short	20480
 7875 248e 00F8     		.short	-2048
 7876 2490 0000     		.short	0
 7877 2492 0000     		.short	0
 7878 2494 0000     		.short	0
 7879 2496 00000000 		.space	14
 7879      00000000 
 7879      00000000 
 7879      0000
 7880 24a4 0050     		.short	20480
 7881 24a6 0020     		.short	8192
 7882 24a8 0070     		.short	28672
 7883 24aa 0088     		.short	-30720
 7884 24ac 0088     		.short	-30720
 7885 24ae 0088     		.short	-30720
 7886 24b0 0070     		.short	28672
 7887 24b2 00000000 		.space	14
 7887      00000000 
 7887      00000000 
 7887      0000
 7888 24c0 0070     		.short	28672
 7889 24c2 0048     		.short	18432
 7890 24c4 0048     		.short	18432
 7891 24c6 00E8     		.short	-6144
 7892 24c8 0048     		.short	18432
ARM GAS  C:\Users\arist\AppData\Local\Temp\ccSjK9zC.s 			page 166


 7893 24ca 0048     		.short	18432
 7894 24cc 0070     		.short	28672
 7895 24ce 00000000 		.space	14
 7895      00000000 
 7895      00000000 
 7895      0000
 7896 24dc 0020     		.short	8192
 7897 24de 0050     		.short	20480
 7898 24e0 00F8     		.short	-2048
 7899 24e2 0080     		.short	-32768
 7900 24e4 00F0     		.short	-4096
 7901 24e6 0080     		.short	-32768
 7902 24e8 00F8     		.short	-2048
 7903 24ea 00000000 		.space	14
 7903      00000000 
 7903      00000000 
 7903      0000
 7904 24f8 0050     		.short	20480
 7905 24fa 0000     		.short	0
 7906 24fc 00F8     		.short	-2048
 7907 24fe 0080     		.short	-32768
 7908 2500 00F0     		.short	-4096
 7909 2502 0080     		.short	-32768
 7910 2504 00F8     		.short	-2048
 7911 2506 00000000 		.space	14
 7911      00000000 
 7911      00000000 
 7911      0000
 7912 2514 0040     		.short	16384
 7913 2516 0020     		.short	8192
 7914 2518 00F8     		.short	-2048
 7915 251a 0080     		.short	-32768
 7916 251c 00F0     		.short	-4096
 7917 251e 0080     		.short	-32768
 7918 2520 00F8     		.short	-2048
 7919 2522 00000000 		.space	14
 7919      00000000 
 7919      00000000 
 7919      0000
 7920 2530 0000     		.short	0
 7921 2532 0000     		.short	0
 7922 2534 0000     		.short	0
 7923 2536 0060     		.short	24576
 7924 2538 0020     		.short	8192
 7925 253a 0020     		.short	8192
 7926 253c 0070     		.short	28672
 7927 253e 00000000 		.space	14
 7927      00000000 
 7927      00000000 
 7927      0000
 7928 254c 0010     		.short	4096
 7929 254e 0020     		.short	8192
 7930 2550 00F8     		.short	-2048
 7931 2552 0020     		.short	8192
 7932 2554 0020     		.short	8192
 7933 2556 0020     		.short	8192
 7934 2558 00F8     		.short	-2048
ARM GAS  C:\Users\arist\AppData\Local\Temp\ccSjK9zC.s 			page 167


 7935 255a 00000000 		.space	14
 7935      00000000 
 7935      00000000 
 7935      0000
 7936 2568 0020     		.short	8192
 7937 256a 0050     		.short	20480
 7938 256c 00F8     		.short	-2048
 7939 256e 0020     		.short	8192
 7940 2570 0020     		.short	8192
 7941 2572 0020     		.short	8192
 7942 2574 00F8     		.short	-2048
 7943 2576 00000000 		.space	14
 7943      00000000 
 7943      00000000 
 7943      0000
 7944 2584 0050     		.short	20480
 7945 2586 0000     		.short	0
 7946 2588 00F8     		.short	-2048
 7947 258a 0020     		.short	8192
 7948 258c 0020     		.short	8192
 7949 258e 0020     		.short	8192
 7950 2590 00F8     		.short	-2048
 7951 2592 00000000 		.space	14
 7951      00000000 
 7951      00000000 
 7951      0000
 7952 25a0 0020     		.short	8192
 7953 25a2 0020     		.short	8192
 7954 25a4 0020     		.short	8192
 7955 25a6 00E0     		.short	-8192
 7956 25a8 0000     		.short	0
 7957 25aa 0000     		.short	0
 7958 25ac 0000     		.short	0
 7959 25ae 00000000 		.space	14
 7959      00000000 
 7959      00000000 
 7959      0000
 7960 25bc 0000     		.short	0
 7961 25be 0000     		.short	0
 7962 25c0 0000     		.short	0
 7963 25c2 0038     		.short	14336
 7964 25c4 0020     		.short	8192
 7965 25c6 0020     		.short	8192
 7966 25c8 0020     		.short	8192
 7967 25ca 00000000 		.space	14
 7967      00000000 
 7967      00000000 
 7967      0000
 7968 25d8 00F8     		.short	-2048
 7969 25da 00F8     		.short	-2048
 7970 25dc 00F8     		.short	-2048
 7971 25de 00F8     		.short	-2048
 7972 25e0 00F8     		.short	-2048
 7973 25e2 00F8     		.short	-2048
 7974 25e4 00F8     		.short	-2048
 7975 25e6 00000000 		.space	14
 7975      00000000 
ARM GAS  C:\Users\arist\AppData\Local\Temp\ccSjK9zC.s 			page 168


 7975      00000000 
 7975      0000
 7976 25f4 0000     		.short	0
 7977 25f6 0000     		.short	0
 7978 25f8 0000     		.short	0
 7979 25fa 0000     		.short	0
 7980 25fc 00F8     		.short	-2048
 7981 25fe 00F8     		.short	-2048
 7982 2600 00F8     		.short	-2048
 7983 2602 00000000 		.space	14
 7983      00000000 
 7983      00000000 
 7983      0000
 7984 2610 0000     		.short	0
 7985 2612 0020     		.short	8192
 7986 2614 0020     		.short	8192
 7987 2616 0000     		.short	0
 7988 2618 0020     		.short	8192
 7989 261a 0020     		.short	8192
 7990 261c 0000     		.short	0
 7991 261e 00000000 		.space	14
 7991      00000000 
 7991      00000000 
 7991      0000
 7992 262c 0000     		.short	0
 7993 262e 0000     		.short	0
 7994 2630 00F8     		.short	-2048
 7995 2632 00F8     		.short	-2048
 7996 2634 00F8     		.short	-2048
 7997 2636 0000     		.short	0
 7998 2638 0000     		.short	0
 7999 263a 00000000 		.space	14
 7999      00000000 
 7999      00000000 
 7999      0000
 8000 2648 00F8     		.short	-2048
 8001 264a 00F8     		.short	-2048
 8002 264c 00F8     		.short	-2048
 8003 264e 00F8     		.short	-2048
 8004 2650 0000     		.short	0
 8005 2652 0000     		.short	0
 8006 2654 0000     		.short	0
 8007 2656 00000000 		.space	14
 8007      00000000 
 8007      00000000 
 8007      0000
 8008 2664 0010     		.short	4096
 8009 2666 0020     		.short	8192
 8010 2668 0078     		.short	30720
 8011 266a 0088     		.short	-30720
 8012 266c 0088     		.short	-30720
 8013 266e 0088     		.short	-30720
 8014 2670 0070     		.short	28672
 8015 2672 00000000 		.space	14
 8015      00000000 
 8015      00000000 
 8015      0000
ARM GAS  C:\Users\arist\AppData\Local\Temp\ccSjK9zC.s 			page 169


 8016 2680 00E0     		.short	-8192
 8017 2682 0090     		.short	-28672
 8018 2684 00E0     		.short	-8192
 8019 2686 0090     		.short	-28672
 8020 2688 0088     		.short	-30720
 8021 268a 0088     		.short	-30720
 8022 268c 00F0     		.short	-4096
 8023 268e 00000000 		.space	14
 8023      00000000 
 8023      00000000 
 8023      0000
 8024 269c 0020     		.short	8192
 8025 269e 0050     		.short	20480
 8026 26a0 0078     		.short	30720
 8027 26a2 0088     		.short	-30720
 8028 26a4 0088     		.short	-30720
 8029 26a6 0088     		.short	-30720
 8030 26a8 0070     		.short	28672
 8031 26aa 00000000 		.space	14
 8031      00000000 
 8031      00000000 
 8031      0000
 8032 26b8 0040     		.short	16384
 8033 26ba 0020     		.short	8192
 8034 26bc 0078     		.short	30720
 8035 26be 0088     		.short	-30720
 8036 26c0 0088     		.short	-30720
 8037 26c2 0088     		.short	-30720
 8038 26c4 0070     		.short	28672
 8039 26c6 00000000 		.space	14
 8039      00000000 
 8039      00000000 
 8039      0000
 8040 26d4 0028     		.short	10240
 8041 26d6 0050     		.short	20480
 8042 26d8 0078     		.short	30720
 8043 26da 0088     		.short	-30720
 8044 26dc 0088     		.short	-30720
 8045 26de 0088     		.short	-30720
 8046 26e0 0070     		.short	28672
 8047 26e2 00000000 		.space	14
 8047      00000000 
 8047      00000000 
 8047      0000
 8048 26f0 0028     		.short	10240
 8049 26f2 0050     		.short	20480
 8050 26f4 0078     		.short	30720
 8051 26f6 0088     		.short	-30720
 8052 26f8 0088     		.short	-30720
 8053 26fa 0088     		.short	-30720
 8054 26fc 0070     		.short	28672
 8055 26fe 00000000 		.space	14
 8055      00000000 
 8055      00000000 
 8055      0000
 8056 270c 0000     		.short	0
 8057 270e 0000     		.short	0
ARM GAS  C:\Users\arist\AppData\Local\Temp\ccSjK9zC.s 			page 170


 8058 2710 0088     		.short	-30720
 8059 2712 0088     		.short	-30720
 8060 2714 00C8     		.short	-14336
 8061 2716 00B0     		.short	-20480
 8062 2718 0080     		.short	-32768
 8063 271a 00000000 		.space	14
 8063      00000000 
 8063      00000000 
 8063      0000
 8064 2728 00C0     		.short	-16384
 8065 272a 0050     		.short	20480
 8066 272c 0068     		.short	26624
 8067 272e 0068     		.short	26624
 8068 2730 0050     		.short	20480
 8069 2732 0040     		.short	16384
 8070 2734 00E0     		.short	-8192
 8071 2736 00000000 		.space	14
 8071      00000000 
 8071      00000000 
 8071      0000
 8072 2744 00E0     		.short	-8192
 8073 2746 0040     		.short	16384
 8074 2748 0070     		.short	28672
 8075 274a 0048     		.short	18432
 8076 274c 0070     		.short	28672
 8077 274e 0040     		.short	16384
 8078 2750 00E0     		.short	-8192
 8079 2752 00000000 		.space	14
 8079      00000000 
 8079      00000000 
 8079      0000
 8080 2760 0010     		.short	4096
 8081 2762 00A8     		.short	-22528
 8082 2764 0088     		.short	-30720
 8083 2766 0088     		.short	-30720
 8084 2768 0088     		.short	-30720
 8085 276a 0088     		.short	-30720
 8086 276c 0070     		.short	28672
 8087 276e 00000000 		.space	14
 8087      00000000 
 8087      00000000 
 8087      0000
 8088 277c 0020     		.short	8192
 8089 277e 0050     		.short	20480
 8090 2780 0088     		.short	-30720
 8091 2782 0088     		.short	-30720
 8092 2784 0088     		.short	-30720
 8093 2786 0088     		.short	-30720
 8094 2788 0070     		.short	28672
 8095 278a 00000000 		.space	14
 8095      00000000 
 8095      00000000 
 8095      0000
 8096 2798 0040     		.short	16384
 8097 279a 00A8     		.short	-22528
 8098 279c 0088     		.short	-30720
 8099 279e 0088     		.short	-30720
ARM GAS  C:\Users\arist\AppData\Local\Temp\ccSjK9zC.s 			page 171


 8100 27a0 0088     		.short	-30720
 8101 27a2 0088     		.short	-30720
 8102 27a4 0070     		.short	28672
 8103 27a6 00000000 		.space	14
 8103      00000000 
 8103      00000000 
 8103      0000
 8104 27b4 0010     		.short	4096
 8105 27b6 0020     		.short	8192
 8106 27b8 0088     		.short	-30720
 8107 27ba 0050     		.short	20480
 8108 27bc 0020     		.short	8192
 8109 27be 0020     		.short	8192
 8110 27c0 00C0     		.short	-16384
 8111 27c2 00000000 		.space	14
 8111      00000000 
 8111      00000000 
 8111      0000
 8112 27d0 0010     		.short	4096
 8113 27d2 0020     		.short	8192
 8114 27d4 0088     		.short	-30720
 8115 27d6 0050     		.short	20480
 8116 27d8 0020     		.short	8192
 8117 27da 0020     		.short	8192
 8118 27dc 0070     		.short	28672
 8119 27de 00000000 		.space	14
 8119      00000000 
 8119      00000000 
 8119      0000
 8120 27ec 00F8     		.short	-2048
 8121 27ee 0000     		.short	0
 8122 27f0 0000     		.short	0
 8123 27f2 0000     		.short	0
 8124 27f4 0000     		.short	0
 8125 27f6 0000     		.short	0
 8126 27f8 0000     		.short	0
 8127 27fa 00000000 		.space	14
 8127      00000000 
 8127      00000000 
 8127      0000
 8128 2808 0010     		.short	4096
 8129 280a 0020     		.short	8192
 8130 280c 0000     		.short	0
 8131 280e 0000     		.short	0
 8132 2810 0000     		.short	0
 8133 2812 0000     		.short	0
 8134 2814 0008     		.short	2048
 8135 2816 00000000 		.space	14
 8135      00000000 
 8135      00000000 
 8135      0000
 8136 2824 0000     		.short	0
 8137 2826 0000     		.short	0
 8138 2828 0000     		.short	0
 8139 282a 0070     		.short	28672
 8140 282c 0000     		.short	0
 8141 282e 0000     		.short	0
ARM GAS  C:\Users\arist\AppData\Local\Temp\ccSjK9zC.s 			page 172


 8142 2830 0000     		.short	0
 8143 2832 00000000 		.space	14
 8143      00000000 
 8143      00000000 
 8143      0000
 8144 2840 0020     		.short	8192
 8145 2842 0020     		.short	8192
 8146 2844 00F8     		.short	-2048
 8147 2846 0020     		.short	8192
 8148 2848 0020     		.short	8192
 8149 284a 0000     		.short	0
 8150 284c 00F8     		.short	-2048
 8151 284e 00000000 		.space	14
 8151      00000000 
 8151      00000000 
 8151      0000
 8152 285c 0000     		.short	0
 8153 285e 0000     		.short	0
 8154 2860 0000     		.short	0
 8155 2862 0000     		.short	0
 8156 2864 00F8     		.short	-2048
 8157 2866 0000     		.short	0
 8158 2868 00F8     		.short	-2048
 8159 286a 00000000 		.space	14
 8159      00000000 
 8159      00000000 
 8159      0000
 8160 2878 0000     		.short	0
 8161 287a 0048     		.short	18432
 8162 287c 00D0     		.short	-12288
 8163 287e 0020     		.short	8192
 8164 2880 0058     		.short	22528
 8165 2882 0098     		.short	-26624
 8166 2884 0000     		.short	0
 8167 2886 00000000 		.space	14
 8167      00000000 
 8167      00000000 
 8167      0000
 8168 2894 0078     		.short	30720
 8169 2896 0098     		.short	-26624
 8170 2898 0098     		.short	-26624
 8171 289a 0078     		.short	30720
 8172 289c 0018     		.short	6144
 8173 289e 0018     		.short	6144
 8174 28a0 0078     		.short	30720
 8175 28a2 00000000 		.space	14
 8175      00000000 
 8175      00000000 
 8175      0000
 8176 28b0 0078     		.short	30720
 8177 28b2 00A0     		.short	-24576
 8178 28b4 0090     		.short	-28672
 8179 28b6 0088     		.short	-30720
 8180 28b8 0048     		.short	18432
 8181 28ba 0028     		.short	10240
 8182 28bc 00F0     		.short	-4096
 8183 28be 00000000 		.space	14
ARM GAS  C:\Users\arist\AppData\Local\Temp\ccSjK9zC.s 			page 173


 8183      00000000 
 8183      00000000 
 8183      0000
 8184 28cc 0000     		.short	0
 8185 28ce 0020     		.short	8192
 8186 28d0 0000     		.short	0
 8187 28d2 00F8     		.short	-2048
 8188 28d4 0000     		.short	0
 8189 28d6 0020     		.short	8192
 8190 28d8 0000     		.short	0
 8191 28da 00000000 		.space	14
 8191      00000000 
 8191      00000000 
 8191      0000
 8192 28e8 0000     		.short	0
 8193 28ea 0000     		.short	0
 8194 28ec 0000     		.short	0
 8195 28ee 0000     		.short	0
 8196 28f0 0030     		.short	12288
 8197 28f2 0030     		.short	12288
 8198 28f4 0060     		.short	24576
 8199 28f6 00000000 		.space	14
 8199      00000000 
 8199      00000000 
 8199      0000
 8200 2904 0020     		.short	8192
 8201 2906 0050     		.short	20480
 8202 2908 0020     		.short	8192
 8203 290a 0000     		.short	0
 8204 290c 0000     		.short	0
 8205 290e 0000     		.short	0
 8206 2910 0000     		.short	0
 8207 2912 00000000 		.space	14
 8207      00000000 
 8207      00000000 
 8207      0000
 8208 2920 0050     		.short	20480
 8209 2922 0000     		.short	0
 8210 2924 0000     		.short	0
 8211 2926 0000     		.short	0
 8212 2928 0000     		.short	0
 8213 292a 0000     		.short	0
 8214 292c 0000     		.short	0
 8215 292e 00000000 		.space	14
 8215      00000000 
 8215      00000000 
 8215      0000
 8216 293c 0000     		.short	0
 8217 293e 0030     		.short	12288
 8218 2940 0030     		.short	12288
 8219 2942 0000     		.short	0
 8220 2944 0000     		.short	0
 8221 2946 0000     		.short	0
 8222 2948 0000     		.short	0
 8223 294a 00000000 		.space	14
 8223      00000000 
 8223      00000000 
ARM GAS  C:\Users\arist\AppData\Local\Temp\ccSjK9zC.s 			page 174


 8223      0000
 8224 2958 0020     		.short	8192
 8225 295a 0060     		.short	24576
 8226 295c 0020     		.short	8192
 8227 295e 0020     		.short	8192
 8228 2960 0070     		.short	28672
 8229 2962 0000     		.short	0
 8230 2964 0000     		.short	0
 8231 2966 00000000 		.space	14
 8231      00000000 
 8231      00000000 
 8231      0000
 8232 2974 0060     		.short	24576
 8233 2976 0010     		.short	4096
 8234 2978 0020     		.short	8192
 8235 297a 0010     		.short	4096
 8236 297c 0030     		.short	12288
 8237 297e 0000     		.short	0
 8238 2980 0000     		.short	0
 8239 2982 00000000 		.space	14
 8239      00000000 
 8239      00000000 
 8239      0000
 8240 2990 0060     		.short	24576
 8241 2992 0010     		.short	4096
 8242 2994 0030     		.short	12288
 8243 2996 0040     		.short	16384
 8244 2998 0070     		.short	28672
 8245 299a 0000     		.short	0
 8246 299c 0000     		.short	0
 8247 299e 00000000 		.space	14
 8247      00000000 
 8247      00000000 
 8247      0000
 8248 29ac 00F8     		.short	-2048
 8249 29ae 00F8     		.short	-2048
 8250 29b0 00F8     		.short	-2048
 8251 29b2 00F8     		.short	-2048
 8252 29b4 0000     		.short	0
 8253 29b6 0000     		.short	0
 8254 29b8 0000     		.short	0
 8255 29ba 00000000 		.space	14
 8255      00000000 
 8255      00000000 
 8255      0000
 8256 29c8 00000000 		.space	56
 8256      00000000 
 8256      00000000 
 8256      00000000 
 8256      00000000 
 8257              		.type	font_l, %object
 8258              		.size	font_l, 3584
 8259              	font_l:
 8260 2a00 00FF     		.short	-256
 8261 2a02 00FF     		.short	-256
 8262 2a04 00FF     		.short	-256
 8263 2a06 00FF     		.short	-256
ARM GAS  C:\Users\arist\AppData\Local\Temp\ccSjK9zC.s 			page 175


 8264 2a08 00FF     		.short	-256
 8265 2a0a 00FF     		.short	-256
 8266 2a0c 0001     		.short	256
 8267 2a0e 0070     		.short	28672
 8268 2a10 0088     		.short	-30720
 8269 2a12 00D8     		.short	-10240
 8270 2a14 0088     		.short	-30720
 8271 2a16 00A8     		.short	-22528
 8272 2a18 0088     		.short	-30720
 8273 2a1a 0070     		.short	28672
 8274 2a1c 0070     		.short	28672
 8275 2a1e 00F8     		.short	-2048
 8276 2a20 00A8     		.short	-22528
 8277 2a22 00F8     		.short	-2048
 8278 2a24 00D8     		.short	-10240
 8279 2a26 00F8     		.short	-2048
 8280 2a28 0070     		.short	28672
 8281 2a2a 0050     		.short	20480
 8282 2a2c 00F8     		.short	-2048
 8283 2a2e 00F8     		.short	-2048
 8284 2a30 00F8     		.short	-2048
 8285 2a32 0070     		.short	28672
 8286 2a34 0020     		.short	8192
 8287 2a36 0000     		.short	0
 8288 2a38 0000     		.short	0
 8289 2a3a 0020     		.short	8192
 8290 2a3c 0070     		.short	28672
 8291 2a3e 00F8     		.short	-2048
 8292 2a40 0070     		.short	28672
 8293 2a42 0020     		.short	8192
 8294 2a44 0000     		.short	0
 8295 2a46 0070     		.short	28672
 8296 2a48 0070     		.short	28672
 8297 2a4a 00F8     		.short	-2048
 8298 2a4c 00F8     		.short	-2048
 8299 2a4e 0020     		.short	8192
 8300 2a50 00F8     		.short	-2048
 8301 2a52 0000     		.short	0
 8302 2a54 0020     		.short	8192
 8303 2a56 0070     		.short	28672
 8304 2a58 00F8     		.short	-2048
 8305 2a5a 00F8     		.short	-2048
 8306 2a5c 00F8     		.short	-2048
 8307 2a5e 0020     		.short	8192
 8308 2a60 00F8     		.short	-2048
 8309 2a62 0000     		.short	0
 8310 2a64 0000     		.short	0
 8311 2a66 0070     		.short	28672
 8312 2a68 0070     		.short	28672
 8313 2a6a 0070     		.short	28672
 8314 2a6c 0000     		.short	0
 8315 2a6e 0000     		.short	0
 8316 2a70 0000     		.short	0
 8317 2a72 00F8     		.short	-2048
 8318 2a74 0088     		.short	-30720
 8319 2a76 0088     		.short	-30720
 8320 2a78 0088     		.short	-30720
ARM GAS  C:\Users\arist\AppData\Local\Temp\ccSjK9zC.s 			page 176


 8321 2a7a 00F8     		.short	-2048
 8322 2a7c 0000     		.short	0
 8323 2a7e 0000     		.short	0
 8324 2a80 0070     		.short	28672
 8325 2a82 0088     		.short	-30720
 8326 2a84 0088     		.short	-30720
 8327 2a86 0088     		.short	-30720
 8328 2a88 0070     		.short	28672
 8329 2a8a 0000     		.short	0
 8330 2a8c 00F8     		.short	-2048
 8331 2a8e 0088     		.short	-30720
 8332 2a90 0070     		.short	28672
 8333 2a92 0070     		.short	28672
 8334 2a94 0070     		.short	28672
 8335 2a96 0088     		.short	-30720
 8336 2a98 00F8     		.short	-2048
 8337 2a9a 0000     		.short	0
 8338 2a9c 0038     		.short	14336
 8339 2a9e 0018     		.short	6144
 8340 2aa0 0068     		.short	26624
 8341 2aa2 00A0     		.short	-24576
 8342 2aa4 0040     		.short	16384
 8343 2aa6 0000     		.short	0
 8344 2aa8 0070     		.short	28672
 8345 2aaa 0088     		.short	-30720
 8346 2aac 0088     		.short	-30720
 8347 2aae 0070     		.short	28672
 8348 2ab0 0020     		.short	8192
 8349 2ab2 0070     		.short	28672
 8350 2ab4 0020     		.short	8192
 8351 2ab6 0020     		.short	8192
 8352 2ab8 0030     		.short	12288
 8353 2aba 0028     		.short	10240
 8354 2abc 0020     		.short	8192
 8355 2abe 0060     		.short	24576
 8356 2ac0 00E0     		.short	-8192
 8357 2ac2 0040     		.short	16384
 8358 2ac4 0008     		.short	2048
 8359 2ac6 0018     		.short	6144
 8360 2ac8 0028     		.short	10240
 8361 2aca 0048     		.short	18432
 8362 2acc 0058     		.short	22528
 8363 2ace 00D8     		.short	-10240
 8364 2ad0 00C0     		.short	-16384
 8365 2ad2 0000     		.short	0
 8366 2ad4 00A8     		.short	-22528
 8367 2ad6 0070     		.short	28672
 8368 2ad8 00D8     		.short	-10240
 8369 2ada 0070     		.short	28672
 8370 2adc 00A8     		.short	-22528
 8371 2ade 0000     		.short	0
 8372 2ae0 0000     		.short	0
 8373 2ae2 0040     		.short	16384
 8374 2ae4 0060     		.short	24576
 8375 2ae6 0070     		.short	28672
 8376 2ae8 0060     		.short	24576
 8377 2aea 0040     		.short	16384
ARM GAS  C:\Users\arist\AppData\Local\Temp\ccSjK9zC.s 			page 177


 8378 2aec 0000     		.short	0
 8379 2aee 0000     		.short	0
 8380 2af0 0010     		.short	4096
 8381 2af2 0030     		.short	12288
 8382 2af4 0070     		.short	28672
 8383 2af6 0030     		.short	12288
 8384 2af8 0010     		.short	4096
 8385 2afa 0000     		.short	0
 8386 2afc 0020     		.short	8192
 8387 2afe 0070     		.short	28672
 8388 2b00 0020     		.short	8192
 8389 2b02 0020     		.short	8192
 8390 2b04 0070     		.short	28672
 8391 2b06 0020     		.short	8192
 8392 2b08 0000     		.short	0
 8393 2b0a 0050     		.short	20480
 8394 2b0c 0050     		.short	20480
 8395 2b0e 0050     		.short	20480
 8396 2b10 0050     		.short	20480
 8397 2b12 0050     		.short	20480
 8398 2b14 0000     		.short	0
 8399 2b16 0050     		.short	20480
 8400 2b18 00D8     		.short	-10240
 8401 2b1a 00D8     		.short	-10240
 8402 2b1c 00D8     		.short	-10240
 8403 2b1e 00D8     		.short	-10240
 8404 2b20 00D8     		.short	-10240
 8405 2b22 00D8     		.short	-10240
 8406 2b24 00D8     		.short	-10240
 8407 2b26 0000     		.short	0
 8408 2b28 0020     		.short	8192
 8409 2b2a 00A8     		.short	-22528
 8410 2b2c 00A8     		.short	-22528
 8411 2b2e 0088     		.short	-30720
 8412 2b30 0070     		.short	28672
 8413 2b32 0000     		.short	0
 8414 2b34 0000     		.short	0
 8415 2b36 0038     		.short	14336
 8416 2b38 0030     		.short	12288
 8417 2b3a 00A8     		.short	-22528
 8418 2b3c 0088     		.short	-30720
 8419 2b3e 0088     		.short	-30720
 8420 2b40 0070     		.short	28672
 8421 2b42 0000     		.short	0
 8422 2b44 0020     		.short	8192
 8423 2b46 0070     		.short	28672
 8424 2b48 0020     		.short	8192
 8425 2b4a 0070     		.short	28672
 8426 2b4c 0020     		.short	8192
 8427 2b4e 0070     		.short	28672
 8428 2b50 0000     		.short	0
 8429 2b52 0020     		.short	8192
 8430 2b54 0070     		.short	28672
 8431 2b56 0020     		.short	8192
 8432 2b58 0020     		.short	8192
 8433 2b5a 0020     		.short	8192
 8434 2b5c 0000     		.short	0
ARM GAS  C:\Users\arist\AppData\Local\Temp\ccSjK9zC.s 			page 178


 8435 2b5e 0000     		.short	0
 8436 2b60 0020     		.short	8192
 8437 2b62 0020     		.short	8192
 8438 2b64 0020     		.short	8192
 8439 2b66 0070     		.short	28672
 8440 2b68 0020     		.short	8192
 8441 2b6a 0000     		.short	0
 8442 2b6c 0000     		.short	0
 8443 2b6e 0000     		.short	0
 8444 2b70 0010     		.short	4096
 8445 2b72 00F8     		.short	-2048
 8446 2b74 0010     		.short	4096
 8447 2b76 0000     		.short	0
 8448 2b78 0000     		.short	0
 8449 2b7a 0000     		.short	0
 8450 2b7c 0000     		.short	0
 8451 2b7e 0040     		.short	16384
 8452 2b80 00F8     		.short	-2048
 8453 2b82 0040     		.short	16384
 8454 2b84 0000     		.short	0
 8455 2b86 0000     		.short	0
 8456 2b88 0080     		.short	-32768
 8457 2b8a 0080     		.short	-32768
 8458 2b8c 0080     		.short	-32768
 8459 2b8e 0080     		.short	-32768
 8460 2b90 0080     		.short	-32768
 8461 2b92 0080     		.short	-32768
 8462 2b94 00F8     		.short	-2048
 8463 2b96 0000     		.short	0
 8464 2b98 0000     		.short	0
 8465 2b9a 0050     		.short	20480
 8466 2b9c 00F8     		.short	-2048
 8467 2b9e 0050     		.short	20480
 8468 2ba0 0000     		.short	0
 8469 2ba2 0000     		.short	0
 8470 2ba4 0000     		.short	0
 8471 2ba6 0000     		.short	0
 8472 2ba8 0020     		.short	8192
 8473 2baa 0070     		.short	28672
 8474 2bac 00F8     		.short	-2048
 8475 2bae 0000     		.short	0
 8476 2bb0 0000     		.short	0
 8477 2bb2 0000     		.short	0
 8478 2bb4 0000     		.short	0
 8479 2bb6 00F8     		.short	-2048
 8480 2bb8 0070     		.short	28672
 8481 2bba 0020     		.short	8192
 8482 2bbc 0000     		.short	0
 8483 2bbe 0000     		.short	0
 8484 2bc0 0000     		.short	0
 8485 2bc2 0000     		.short	0
 8486 2bc4 0000     		.short	0
 8487 2bc6 0000     		.short	0
 8488 2bc8 0000     		.short	0
 8489 2bca 0000     		.short	0
 8490 2bcc 0000     		.short	0
 8491 2bce 0020     		.short	8192
ARM GAS  C:\Users\arist\AppData\Local\Temp\ccSjK9zC.s 			page 179


 8492 2bd0 0020     		.short	8192
 8493 2bd2 0020     		.short	8192
 8494 2bd4 0020     		.short	8192
 8495 2bd6 0020     		.short	8192
 8496 2bd8 0000     		.short	0
 8497 2bda 0020     		.short	8192
 8498 2bdc 0050     		.short	20480
 8499 2bde 0050     		.short	20480
 8500 2be0 0050     		.short	20480
 8501 2be2 0000     		.short	0
 8502 2be4 0000     		.short	0
 8503 2be6 0000     		.short	0
 8504 2be8 0000     		.short	0
 8505 2bea 0000     		.short	0
 8506 2bec 0050     		.short	20480
 8507 2bee 00F8     		.short	-2048
 8508 2bf0 0050     		.short	20480
 8509 2bf2 00F8     		.short	-2048
 8510 2bf4 0050     		.short	20480
 8511 2bf6 0000     		.short	0
 8512 2bf8 0020     		.short	8192
 8513 2bfa 0070     		.short	28672
 8514 2bfc 0080     		.short	-32768
 8515 2bfe 0070     		.short	28672
 8516 2c00 0008     		.short	2048
 8517 2c02 0070     		.short	28672
 8518 2c04 0020     		.short	8192
 8519 2c06 0000     		.short	0
 8520 2c08 00C8     		.short	-14336
 8521 2c0a 00D0     		.short	-12288
 8522 2c0c 0020     		.short	8192
 8523 2c0e 0058     		.short	22528
 8524 2c10 0098     		.short	-26624
 8525 2c12 0000     		.short	0
 8526 2c14 0020     		.short	8192
 8527 2c16 0050     		.short	20480
 8528 2c18 0050     		.short	20480
 8529 2c1a 0020     		.short	8192
 8530 2c1c 0050     		.short	20480
 8531 2c1e 00F8     		.short	-2048
 8532 2c20 0010     		.short	4096
 8533 2c22 0020     		.short	8192
 8534 2c24 0020     		.short	8192
 8535 2c26 0020     		.short	8192
 8536 2c28 0000     		.short	0
 8537 2c2a 0000     		.short	0
 8538 2c2c 0000     		.short	0
 8539 2c2e 0000     		.short	0
 8540 2c30 0010     		.short	4096
 8541 2c32 0020     		.short	8192
 8542 2c34 0040     		.short	16384
 8543 2c36 0040     		.short	16384
 8544 2c38 0040     		.short	16384
 8545 2c3a 0020     		.short	8192
 8546 2c3c 0010     		.short	4096
 8547 2c3e 0040     		.short	16384
 8548 2c40 0020     		.short	8192
ARM GAS  C:\Users\arist\AppData\Local\Temp\ccSjK9zC.s 			page 180


 8549 2c42 0010     		.short	4096
 8550 2c44 0010     		.short	4096
 8551 2c46 0010     		.short	4096
 8552 2c48 0020     		.short	8192
 8553 2c4a 0040     		.short	16384
 8554 2c4c 0000     		.short	0
 8555 2c4e 0020     		.short	8192
 8556 2c50 0070     		.short	28672
 8557 2c52 0020     		.short	8192
 8558 2c54 0050     		.short	20480
 8559 2c56 0000     		.short	0
 8560 2c58 0000     		.short	0
 8561 2c5a 0000     		.short	0
 8562 2c5c 0020     		.short	8192
 8563 2c5e 0020     		.short	8192
 8564 2c60 00F8     		.short	-2048
 8565 2c62 0020     		.short	8192
 8566 2c64 0020     		.short	8192
 8567 2c66 0000     		.short	0
 8568 2c68 0000     		.short	0
 8569 2c6a 0000     		.short	0
 8570 2c6c 0000     		.short	0
 8571 2c6e 0000     		.short	0
 8572 2c70 0020     		.short	8192
 8573 2c72 0020     		.short	8192
 8574 2c74 0040     		.short	16384
 8575 2c76 0000     		.short	0
 8576 2c78 0000     		.short	0
 8577 2c7a 0000     		.short	0
 8578 2c7c 00F8     		.short	-2048
 8579 2c7e 0000     		.short	0
 8580 2c80 0000     		.short	0
 8581 2c82 0000     		.short	0
 8582 2c84 0000     		.short	0
 8583 2c86 0000     		.short	0
 8584 2c88 0000     		.short	0
 8585 2c8a 0000     		.short	0
 8586 2c8c 0000     		.short	0
 8587 2c8e 0000     		.short	0
 8588 2c90 0020     		.short	8192
 8589 2c92 0000     		.short	0
 8590 2c94 0008     		.short	2048
 8591 2c96 0010     		.short	4096
 8592 2c98 0020     		.short	8192
 8593 2c9a 0040     		.short	16384
 8594 2c9c 0080     		.short	-32768
 8595 2c9e 0000     		.short	0
 8596 2ca0 0060     		.short	24576
 8597 2ca2 0090     		.short	-28672
 8598 2ca4 0090     		.short	-28672
 8599 2ca6 0090     		.short	-28672
 8600 2ca8 0090     		.short	-28672
 8601 2caa 0090     		.short	-28672
 8602 2cac 0060     		.short	24576
 8603 2cae 0020     		.short	8192
 8604 2cb0 0060     		.short	24576
 8605 2cb2 0020     		.short	8192
ARM GAS  C:\Users\arist\AppData\Local\Temp\ccSjK9zC.s 			page 181


 8606 2cb4 0020     		.short	8192
 8607 2cb6 0020     		.short	8192
 8608 2cb8 0020     		.short	8192
 8609 2cba 0070     		.short	28672
 8610 2cbc 0060     		.short	24576
 8611 2cbe 0090     		.short	-28672
 8612 2cc0 0010     		.short	4096
 8613 2cc2 0020     		.short	8192
 8614 2cc4 0040     		.short	16384
 8615 2cc6 0080     		.short	-32768
 8616 2cc8 00F0     		.short	-4096
 8617 2cca 0060     		.short	24576
 8618 2ccc 0090     		.short	-28672
 8619 2cce 0010     		.short	4096
 8620 2cd0 0020     		.short	8192
 8621 2cd2 0010     		.short	4096
 8622 2cd4 0090     		.short	-28672
 8623 2cd6 0060     		.short	24576
 8624 2cd8 0020     		.short	8192
 8625 2cda 0060     		.short	24576
 8626 2cdc 00A0     		.short	-24576
 8627 2cde 00F0     		.short	-4096
 8628 2ce0 0020     		.short	8192
 8629 2ce2 0020     		.short	8192
 8630 2ce4 0070     		.short	28672
 8631 2ce6 00F0     		.short	-4096
 8632 2ce8 0080     		.short	-32768
 8633 2cea 0080     		.short	-32768
 8634 2cec 0060     		.short	24576
 8635 2cee 0010     		.short	4096
 8636 2cf0 0090     		.short	-28672
 8637 2cf2 0060     		.short	24576
 8638 2cf4 0060     		.short	24576
 8639 2cf6 0090     		.short	-28672
 8640 2cf8 0080     		.short	-32768
 8641 2cfa 00E0     		.short	-8192
 8642 2cfc 0090     		.short	-28672
 8643 2cfe 0090     		.short	-28672
 8644 2d00 0060     		.short	24576
 8645 2d02 00E0     		.short	-8192
 8646 2d04 0010     		.short	4096
 8647 2d06 0010     		.short	4096
 8648 2d08 0020     		.short	8192
 8649 2d0a 0040     		.short	16384
 8650 2d0c 0040     		.short	16384
 8651 2d0e 0040     		.short	16384
 8652 2d10 0060     		.short	24576
 8653 2d12 0090     		.short	-28672
 8654 2d14 0090     		.short	-28672
 8655 2d16 0060     		.short	24576
 8656 2d18 0090     		.short	-28672
 8657 2d1a 0090     		.short	-28672
 8658 2d1c 0060     		.short	24576
 8659 2d1e 0060     		.short	24576
 8660 2d20 0090     		.short	-28672
 8661 2d22 0090     		.short	-28672
 8662 2d24 0070     		.short	28672
ARM GAS  C:\Users\arist\AppData\Local\Temp\ccSjK9zC.s 			page 182


 8663 2d26 0010     		.short	4096
 8664 2d28 0090     		.short	-28672
 8665 2d2a 0060     		.short	24576
 8666 2d2c 0000     		.short	0
 8667 2d2e 0000     		.short	0
 8668 2d30 0020     		.short	8192
 8669 2d32 0000     		.short	0
 8670 2d34 0020     		.short	8192
 8671 2d36 0000     		.short	0
 8672 2d38 0000     		.short	0
 8673 2d3a 0000     		.short	0
 8674 2d3c 0000     		.short	0
 8675 2d3e 0020     		.short	8192
 8676 2d40 0000     		.short	0
 8677 2d42 0020     		.short	8192
 8678 2d44 0020     		.short	8192
 8679 2d46 0040     		.short	16384
 8680 2d48 0000     		.short	0
 8681 2d4a 0020     		.short	8192
 8682 2d4c 0040     		.short	16384
 8683 2d4e 0080     		.short	-32768
 8684 2d50 0040     		.short	16384
 8685 2d52 0020     		.short	8192
 8686 2d54 0000     		.short	0
 8687 2d56 0000     		.short	0
 8688 2d58 0000     		.short	0
 8689 2d5a 0070     		.short	28672
 8690 2d5c 0000     		.short	0
 8691 2d5e 0070     		.short	28672
 8692 2d60 0000     		.short	0
 8693 2d62 0000     		.short	0
 8694 2d64 0000     		.short	0
 8695 2d66 0020     		.short	8192
 8696 2d68 0010     		.short	4096
 8697 2d6a 0008     		.short	2048
 8698 2d6c 0010     		.short	4096
 8699 2d6e 0020     		.short	8192
 8700 2d70 0000     		.short	0
 8701 2d72 0060     		.short	24576
 8702 2d74 0090     		.short	-28672
 8703 2d76 0090     		.short	-28672
 8704 2d78 0020     		.short	8192
 8705 2d7a 0020     		.short	8192
 8706 2d7c 0000     		.short	0
 8707 2d7e 0020     		.short	8192
 8708 2d80 0070     		.short	28672
 8709 2d82 0088     		.short	-30720
 8710 2d84 0098     		.short	-26624
 8711 2d86 00A8     		.short	-22528
 8712 2d88 00B0     		.short	-20480
 8713 2d8a 0080     		.short	-32768
 8714 2d8c 0070     		.short	28672
 8715 2d8e 0070     		.short	28672
 8716 2d90 0088     		.short	-30720
 8717 2d92 0088     		.short	-30720
 8718 2d94 00F8     		.short	-2048
 8719 2d96 0088     		.short	-30720
ARM GAS  C:\Users\arist\AppData\Local\Temp\ccSjK9zC.s 			page 183


 8720 2d98 0088     		.short	-30720
 8721 2d9a 0088     		.short	-30720
 8722 2d9c 00F0     		.short	-4096
 8723 2d9e 0088     		.short	-30720
 8724 2da0 0088     		.short	-30720
 8725 2da2 00F0     		.short	-4096
 8726 2da4 0088     		.short	-30720
 8727 2da6 0088     		.short	-30720
 8728 2da8 00F0     		.short	-4096
 8729 2daa 0078     		.short	30720
 8730 2dac 0080     		.short	-32768
 8731 2dae 0080     		.short	-32768
 8732 2db0 0080     		.short	-32768
 8733 2db2 0080     		.short	-32768
 8734 2db4 0080     		.short	-32768
 8735 2db6 0078     		.short	30720
 8736 2db8 00E0     		.short	-8192
 8737 2dba 0090     		.short	-28672
 8738 2dbc 0088     		.short	-30720
 8739 2dbe 0088     		.short	-30720
 8740 2dc0 0088     		.short	-30720
 8741 2dc2 0090     		.short	-28672
 8742 2dc4 00E0     		.short	-8192
 8743 2dc6 0078     		.short	30720
 8744 2dc8 0080     		.short	-32768
 8745 2dca 0080     		.short	-32768
 8746 2dcc 00F0     		.short	-4096
 8747 2dce 0080     		.short	-32768
 8748 2dd0 0080     		.short	-32768
 8749 2dd2 0078     		.short	30720
 8750 2dd4 0078     		.short	30720
 8751 2dd6 0080     		.short	-32768
 8752 2dd8 0080     		.short	-32768
 8753 2dda 00F0     		.short	-4096
 8754 2ddc 0080     		.short	-32768
 8755 2dde 0080     		.short	-32768
 8756 2de0 0080     		.short	-32768
 8757 2de2 0070     		.short	28672
 8758 2de4 0088     		.short	-30720
 8759 2de6 0080     		.short	-32768
 8760 2de8 00B8     		.short	-18432
 8761 2dea 0088     		.short	-30720
 8762 2dec 0088     		.short	-30720
 8763 2dee 0070     		.short	28672
 8764 2df0 0088     		.short	-30720
 8765 2df2 0088     		.short	-30720
 8766 2df4 0088     		.short	-30720
 8767 2df6 0070     		.short	28672
 8768 2df8 0088     		.short	-30720
 8769 2dfa 0088     		.short	-30720
 8770 2dfc 0088     		.short	-30720
 8771 2dfe 00F8     		.short	-2048
 8772 2e00 0020     		.short	8192
 8773 2e02 0020     		.short	8192
 8774 2e04 0020     		.short	8192
 8775 2e06 0020     		.short	8192
 8776 2e08 0020     		.short	8192
ARM GAS  C:\Users\arist\AppData\Local\Temp\ccSjK9zC.s 			page 184


 8777 2e0a 00F8     		.short	-2048
 8778 2e0c 00F8     		.short	-2048
 8779 2e0e 0020     		.short	8192
 8780 2e10 0020     		.short	8192
 8781 2e12 0020     		.short	8192
 8782 2e14 00A0     		.short	-24576
 8783 2e16 00A0     		.short	-24576
 8784 2e18 0040     		.short	16384
 8785 2e1a 0090     		.short	-28672
 8786 2e1c 0090     		.short	-28672
 8787 2e1e 00A0     		.short	-24576
 8788 2e20 00C0     		.short	-16384
 8789 2e22 00A0     		.short	-24576
 8790 2e24 0090     		.short	-28672
 8791 2e26 0088     		.short	-30720
 8792 2e28 0080     		.short	-32768
 8793 2e2a 0080     		.short	-32768
 8794 2e2c 0080     		.short	-32768
 8795 2e2e 0080     		.short	-32768
 8796 2e30 0080     		.short	-32768
 8797 2e32 0080     		.short	-32768
 8798 2e34 00F8     		.short	-2048
 8799 2e36 0088     		.short	-30720
 8800 2e38 00D8     		.short	-10240
 8801 2e3a 00A8     		.short	-22528
 8802 2e3c 00A8     		.short	-22528
 8803 2e3e 0088     		.short	-30720
 8804 2e40 0088     		.short	-30720
 8805 2e42 0088     		.short	-30720
 8806 2e44 0088     		.short	-30720
 8807 2e46 0088     		.short	-30720
 8808 2e48 00C8     		.short	-14336
 8809 2e4a 00A8     		.short	-22528
 8810 2e4c 0098     		.short	-26624
 8811 2e4e 0088     		.short	-30720
 8812 2e50 0088     		.short	-30720
 8813 2e52 0070     		.short	28672
 8814 2e54 0088     		.short	-30720
 8815 2e56 0088     		.short	-30720
 8816 2e58 0088     		.short	-30720
 8817 2e5a 0088     		.short	-30720
 8818 2e5c 0088     		.short	-30720
 8819 2e5e 0070     		.short	28672
 8820 2e60 00F0     		.short	-4096
 8821 2e62 0088     		.short	-30720
 8822 2e64 0088     		.short	-30720
 8823 2e66 00F0     		.short	-4096
 8824 2e68 0080     		.short	-32768
 8825 2e6a 0080     		.short	-32768
 8826 2e6c 0080     		.short	-32768
 8827 2e6e 0070     		.short	28672
 8828 2e70 0088     		.short	-30720
 8829 2e72 0088     		.short	-30720
 8830 2e74 0088     		.short	-30720
 8831 2e76 00A8     		.short	-22528
 8832 2e78 0070     		.short	28672
 8833 2e7a 0018     		.short	6144
ARM GAS  C:\Users\arist\AppData\Local\Temp\ccSjK9zC.s 			page 185


 8834 2e7c 00F0     		.short	-4096
 8835 2e7e 0088     		.short	-30720
 8836 2e80 0088     		.short	-30720
 8837 2e82 00F0     		.short	-4096
 8838 2e84 00A0     		.short	-24576
 8839 2e86 0090     		.short	-28672
 8840 2e88 0088     		.short	-30720
 8841 2e8a 0078     		.short	30720
 8842 2e8c 0080     		.short	-32768
 8843 2e8e 0080     		.short	-32768
 8844 2e90 0070     		.short	28672
 8845 2e92 0008     		.short	2048
 8846 2e94 0008     		.short	2048
 8847 2e96 00F0     		.short	-4096
 8848 2e98 00F8     		.short	-2048
 8849 2e9a 0020     		.short	8192
 8850 2e9c 0020     		.short	8192
 8851 2e9e 0020     		.short	8192
 8852 2ea0 0020     		.short	8192
 8853 2ea2 0020     		.short	8192
 8854 2ea4 0020     		.short	8192
 8855 2ea6 0088     		.short	-30720
 8856 2ea8 0088     		.short	-30720
 8857 2eaa 0088     		.short	-30720
 8858 2eac 0088     		.short	-30720
 8859 2eae 0088     		.short	-30720
 8860 2eb0 0088     		.short	-30720
 8861 2eb2 0070     		.short	28672
 8862 2eb4 0088     		.short	-30720
 8863 2eb6 0088     		.short	-30720
 8864 2eb8 0088     		.short	-30720
 8865 2eba 0088     		.short	-30720
 8866 2ebc 0088     		.short	-30720
 8867 2ebe 0050     		.short	20480
 8868 2ec0 0020     		.short	8192
 8869 2ec2 0088     		.short	-30720
 8870 2ec4 0088     		.short	-30720
 8871 2ec6 0088     		.short	-30720
 8872 2ec8 00A8     		.short	-22528
 8873 2eca 00A8     		.short	-22528
 8874 2ecc 00A8     		.short	-22528
 8875 2ece 0050     		.short	20480
 8876 2ed0 0088     		.short	-30720
 8877 2ed2 0088     		.short	-30720
 8878 2ed4 0050     		.short	20480
 8879 2ed6 0020     		.short	8192
 8880 2ed8 0050     		.short	20480
 8881 2eda 0088     		.short	-30720
 8882 2edc 0088     		.short	-30720
 8883 2ede 0088     		.short	-30720
 8884 2ee0 0088     		.short	-30720
 8885 2ee2 0050     		.short	20480
 8886 2ee4 0020     		.short	8192
 8887 2ee6 0020     		.short	8192
 8888 2ee8 0020     		.short	8192
 8889 2eea 0070     		.short	28672
 8890 2eec 00F8     		.short	-2048
ARM GAS  C:\Users\arist\AppData\Local\Temp\ccSjK9zC.s 			page 186


 8891 2eee 0008     		.short	2048
 8892 2ef0 0010     		.short	4096
 8893 2ef2 0020     		.short	8192
 8894 2ef4 0040     		.short	16384
 8895 2ef6 0080     		.short	-32768
 8896 2ef8 00F8     		.short	-2048
 8897 2efa 0070     		.short	28672
 8898 2efc 0040     		.short	16384
 8899 2efe 0040     		.short	16384
 8900 2f00 0040     		.short	16384
 8901 2f02 0040     		.short	16384
 8902 2f04 0040     		.short	16384
 8903 2f06 0070     		.short	28672
 8904 2f08 0000     		.short	0
 8905 2f0a 0080     		.short	-32768
 8906 2f0c 0040     		.short	16384
 8907 2f0e 0020     		.short	8192
 8908 2f10 0010     		.short	4096
 8909 2f12 0008     		.short	2048
 8910 2f14 0000     		.short	0
 8911 2f16 0070     		.short	28672
 8912 2f18 0010     		.short	4096
 8913 2f1a 0010     		.short	4096
 8914 2f1c 0010     		.short	4096
 8915 2f1e 0010     		.short	4096
 8916 2f20 0010     		.short	4096
 8917 2f22 0070     		.short	28672
 8918 2f24 0020     		.short	8192
 8919 2f26 0050     		.short	20480
 8920 2f28 0000     		.short	0
 8921 2f2a 0000     		.short	0
 8922 2f2c 0000     		.short	0
 8923 2f2e 0000     		.short	0
 8924 2f30 0000     		.short	0
 8925 2f32 0000     		.short	0
 8926 2f34 0000     		.short	0
 8927 2f36 0000     		.short	0
 8928 2f38 0000     		.short	0
 8929 2f3a 0000     		.short	0
 8930 2f3c 0000     		.short	0
 8931 2f3e 00F8     		.short	-2048
 8932 2f40 0020     		.short	8192
 8933 2f42 0010     		.short	4096
 8934 2f44 0000     		.short	0
 8935 2f46 0000     		.short	0
 8936 2f48 0000     		.short	0
 8937 2f4a 0000     		.short	0
 8938 2f4c 0000     		.short	0
 8939 2f4e 0000     		.short	0
 8940 2f50 0000     		.short	0
 8941 2f52 0070     		.short	28672
 8942 2f54 0008     		.short	2048
 8943 2f56 0078     		.short	30720
 8944 2f58 0088     		.short	-30720
 8945 2f5a 0070     		.short	28672
 8946 2f5c 0080     		.short	-32768
 8947 2f5e 0080     		.short	-32768
ARM GAS  C:\Users\arist\AppData\Local\Temp\ccSjK9zC.s 			page 187


 8948 2f60 00B0     		.short	-20480
 8949 2f62 00C8     		.short	-14336
 8950 2f64 0088     		.short	-30720
 8951 2f66 0088     		.short	-30720
 8952 2f68 0070     		.short	28672
 8953 2f6a 0000     		.short	0
 8954 2f6c 0000     		.short	0
 8955 2f6e 0078     		.short	30720
 8956 2f70 0080     		.short	-32768
 8957 2f72 0080     		.short	-32768
 8958 2f74 0080     		.short	-32768
 8959 2f76 0078     		.short	30720
 8960 2f78 0008     		.short	2048
 8961 2f7a 0008     		.short	2048
 8962 2f7c 0068     		.short	26624
 8963 2f7e 0098     		.short	-26624
 8964 2f80 0088     		.short	-30720
 8965 2f82 0088     		.short	-30720
 8966 2f84 0070     		.short	28672
 8967 2f86 0000     		.short	0
 8968 2f88 0000     		.short	0
 8969 2f8a 0070     		.short	28672
 8970 2f8c 0088     		.short	-30720
 8971 2f8e 00F0     		.short	-4096
 8972 2f90 0080     		.short	-32768
 8973 2f92 0070     		.short	28672
 8974 2f94 0018     		.short	6144
 8975 2f96 0020     		.short	8192
 8976 2f98 0070     		.short	28672
 8977 2f9a 0020     		.short	8192
 8978 2f9c 0020     		.short	8192
 8979 2f9e 0020     		.short	8192
 8980 2fa0 0070     		.short	28672
 8981 2fa2 0000     		.short	0
 8982 2fa4 0070     		.short	28672
 8983 2fa6 0088     		.short	-30720
 8984 2fa8 0088     		.short	-30720
 8985 2faa 0078     		.short	30720
 8986 2fac 0008     		.short	2048
 8987 2fae 0070     		.short	28672
 8988 2fb0 0080     		.short	-32768
 8989 2fb2 0080     		.short	-32768
 8990 2fb4 00B0     		.short	-20480
 8991 2fb6 00C8     		.short	-14336
 8992 2fb8 0088     		.short	-30720
 8993 2fba 0088     		.short	-30720
 8994 2fbc 0088     		.short	-30720
 8995 2fbe 0000     		.short	0
 8996 2fc0 0020     		.short	8192
 8997 2fc2 0000     		.short	0
 8998 2fc4 0060     		.short	24576
 8999 2fc6 0020     		.short	8192
 9000 2fc8 0020     		.short	8192
 9001 2fca 0070     		.short	28672
 9002 2fcc 0000     		.short	0
 9003 2fce 0010     		.short	4096
 9004 2fd0 0000     		.short	0
ARM GAS  C:\Users\arist\AppData\Local\Temp\ccSjK9zC.s 			page 188


 9005 2fd2 0070     		.short	28672
 9006 2fd4 0010     		.short	4096
 9007 2fd6 0090     		.short	-28672
 9008 2fd8 0060     		.short	24576
 9009 2fda 0080     		.short	-32768
 9010 2fdc 0080     		.short	-32768
 9011 2fde 0090     		.short	-28672
 9012 2fe0 00A0     		.short	-24576
 9013 2fe2 00C0     		.short	-16384
 9014 2fe4 00A0     		.short	-24576
 9015 2fe6 0090     		.short	-28672
 9016 2fe8 0060     		.short	24576
 9017 2fea 0020     		.short	8192
 9018 2fec 0020     		.short	8192
 9019 2fee 0020     		.short	8192
 9020 2ff0 0020     		.short	8192
 9021 2ff2 0020     		.short	8192
 9022 2ff4 0070     		.short	28672
 9023 2ff6 0000     		.short	0
 9024 2ff8 0000     		.short	0
 9025 2ffa 0050     		.short	20480
 9026 2ffc 00A8     		.short	-22528
 9027 2ffe 00A8     		.short	-22528
 9028 3000 00A8     		.short	-22528
 9029 3002 00A8     		.short	-22528
 9030 3004 0000     		.short	0
 9031 3006 0000     		.short	0
 9032 3008 00B0     		.short	-20480
 9033 300a 00C8     		.short	-14336
 9034 300c 0088     		.short	-30720
 9035 300e 0088     		.short	-30720
 9036 3010 0088     		.short	-30720
 9037 3012 0000     		.short	0
 9038 3014 0000     		.short	0
 9039 3016 0070     		.short	28672
 9040 3018 0088     		.short	-30720
 9041 301a 0088     		.short	-30720
 9042 301c 0088     		.short	-30720
 9043 301e 0070     		.short	28672
 9044 3020 0000     		.short	0
 9045 3022 0000     		.short	0
 9046 3024 0070     		.short	28672
 9047 3026 0088     		.short	-30720
 9048 3028 0088     		.short	-30720
 9049 302a 00F0     		.short	-4096
 9050 302c 0080     		.short	-32768
 9051 302e 0000     		.short	0
 9052 3030 0000     		.short	0
 9053 3032 0070     		.short	28672
 9054 3034 0088     		.short	-30720
 9055 3036 0088     		.short	-30720
 9056 3038 0078     		.short	30720
 9057 303a 0008     		.short	2048
 9058 303c 0000     		.short	0
 9059 303e 0000     		.short	0
 9060 3040 0068     		.short	26624
 9061 3042 0030     		.short	12288
ARM GAS  C:\Users\arist\AppData\Local\Temp\ccSjK9zC.s 			page 189


 9062 3044 0020     		.short	8192
 9063 3046 0020     		.short	8192
 9064 3048 0070     		.short	28672
 9065 304a 0000     		.short	0
 9066 304c 0000     		.short	0
 9067 304e 0078     		.short	30720
 9068 3050 0080     		.short	-32768
 9069 3052 0070     		.short	28672
 9070 3054 0008     		.short	2048
 9071 3056 00F0     		.short	-4096
 9072 3058 0000     		.short	0
 9073 305a 0040     		.short	16384
 9074 305c 00F0     		.short	-4096
 9075 305e 0040     		.short	16384
 9076 3060 0040     		.short	16384
 9077 3062 0040     		.short	16384
 9078 3064 0030     		.short	12288
 9079 3066 0000     		.short	0
 9080 3068 0000     		.short	0
 9081 306a 0088     		.short	-30720
 9082 306c 0088     		.short	-30720
 9083 306e 0088     		.short	-30720
 9084 3070 0098     		.short	-26624
 9085 3072 0068     		.short	26624
 9086 3074 0000     		.short	0
 9087 3076 0000     		.short	0
 9088 3078 0088     		.short	-30720
 9089 307a 0088     		.short	-30720
 9090 307c 0088     		.short	-30720
 9091 307e 0050     		.short	20480
 9092 3080 0020     		.short	8192
 9093 3082 0000     		.short	0
 9094 3084 0000     		.short	0
 9095 3086 0088     		.short	-30720
 9096 3088 0088     		.short	-30720
 9097 308a 00A8     		.short	-22528
 9098 308c 00A8     		.short	-22528
 9099 308e 0050     		.short	20480
 9100 3090 0000     		.short	0
 9101 3092 0000     		.short	0
 9102 3094 0088     		.short	-30720
 9103 3096 0050     		.short	20480
 9104 3098 0020     		.short	8192
 9105 309a 0050     		.short	20480
 9106 309c 0088     		.short	-30720
 9107 309e 0000     		.short	0
 9108 30a0 0000     		.short	0
 9109 30a2 0088     		.short	-30720
 9110 30a4 0050     		.short	20480
 9111 30a6 0020     		.short	8192
 9112 30a8 0020     		.short	8192
 9113 30aa 00C0     		.short	-16384
 9114 30ac 0000     		.short	0
 9115 30ae 0000     		.short	0
 9116 30b0 00F8     		.short	-2048
 9117 30b2 0010     		.short	4096
 9118 30b4 0020     		.short	8192
ARM GAS  C:\Users\arist\AppData\Local\Temp\ccSjK9zC.s 			page 190


 9119 30b6 0040     		.short	16384
 9120 30b8 00F8     		.short	-2048
 9121 30ba 0010     		.short	4096
 9122 30bc 0020     		.short	8192
 9123 30be 0020     		.short	8192
 9124 30c0 0040     		.short	16384
 9125 30c2 0020     		.short	8192
 9126 30c4 0020     		.short	8192
 9127 30c6 0010     		.short	4096
 9128 30c8 0020     		.short	8192
 9129 30ca 0020     		.short	8192
 9130 30cc 0020     		.short	8192
 9131 30ce 0020     		.short	8192
 9132 30d0 0020     		.short	8192
 9133 30d2 0020     		.short	8192
 9134 30d4 0020     		.short	8192
 9135 30d6 0040     		.short	16384
 9136 30d8 0020     		.short	8192
 9137 30da 0020     		.short	8192
 9138 30dc 0010     		.short	4096
 9139 30de 0020     		.short	8192
 9140 30e0 0020     		.short	8192
 9141 30e2 0040     		.short	16384
 9142 30e4 0000     		.short	0
 9143 30e6 0000     		.short	0
 9144 30e8 0040     		.short	16384
 9145 30ea 00A8     		.short	-22528
 9146 30ec 0010     		.short	4096
 9147 30ee 0000     		.short	0
 9148 30f0 0000     		.short	0
 9149 30f2 0078     		.short	30720
 9150 30f4 0080     		.short	-32768
 9151 30f6 0080     		.short	-32768
 9152 30f8 0080     		.short	-32768
 9153 30fa 0080     		.short	-32768
 9154 30fc 0078     		.short	30720
 9155 30fe 0020     		.short	8192
 9156 3100 0050     		.short	20480
 9157 3102 0000     		.short	0
 9158 3104 0088     		.short	-30720
 9159 3106 0088     		.short	-30720
 9160 3108 0088     		.short	-30720
 9161 310a 0098     		.short	-26624
 9162 310c 0068     		.short	26624
 9163 310e 0010     		.short	4096
 9164 3110 0020     		.short	8192
 9165 3112 0070     		.short	28672
 9166 3114 0088     		.short	-30720
 9167 3116 00F0     		.short	-4096
 9168 3118 0080     		.short	-32768
 9169 311a 0070     		.short	28672
 9170 311c 0020     		.short	8192
 9171 311e 0050     		.short	20480
 9172 3120 0070     		.short	28672
 9173 3122 0008     		.short	2048
 9174 3124 0078     		.short	30720
 9175 3126 0088     		.short	-30720
ARM GAS  C:\Users\arist\AppData\Local\Temp\ccSjK9zC.s 			page 191


 9176 3128 0070     		.short	28672
 9177 312a 0050     		.short	20480
 9178 312c 0000     		.short	0
 9179 312e 0070     		.short	28672
 9180 3130 0008     		.short	2048
 9181 3132 0078     		.short	30720
 9182 3134 0088     		.short	-30720
 9183 3136 0070     		.short	28672
 9184 3138 0040     		.short	16384
 9185 313a 0020     		.short	8192
 9186 313c 0070     		.short	28672
 9187 313e 0008     		.short	2048
 9188 3140 0078     		.short	30720
 9189 3142 0088     		.short	-30720
 9190 3144 0070     		.short	28672
 9191 3146 0020     		.short	8192
 9192 3148 0000     		.short	0
 9193 314a 0070     		.short	28672
 9194 314c 0008     		.short	2048
 9195 314e 0078     		.short	30720
 9196 3150 0088     		.short	-30720
 9197 3152 0070     		.short	28672
 9198 3154 0000     		.short	0
 9199 3156 0000     		.short	0
 9200 3158 0078     		.short	30720
 9201 315a 0080     		.short	-32768
 9202 315c 0080     		.short	-32768
 9203 315e 0078     		.short	30720
 9204 3160 0020     		.short	8192
 9205 3162 0020     		.short	8192
 9206 3164 0050     		.short	20480
 9207 3166 0070     		.short	28672
 9208 3168 0088     		.short	-30720
 9209 316a 00F0     		.short	-4096
 9210 316c 0080     		.short	-32768
 9211 316e 0070     		.short	28672
 9212 3170 0050     		.short	20480
 9213 3172 0000     		.short	0
 9214 3174 0070     		.short	28672
 9215 3176 0088     		.short	-30720
 9216 3178 00F0     		.short	-4096
 9217 317a 0080     		.short	-32768
 9218 317c 0070     		.short	28672
 9219 317e 0040     		.short	16384
 9220 3180 0020     		.short	8192
 9221 3182 0070     		.short	28672
 9222 3184 0088     		.short	-30720
 9223 3186 00F0     		.short	-4096
 9224 3188 0080     		.short	-32768
 9225 318a 0070     		.short	28672
 9226 318c 0050     		.short	20480
 9227 318e 0000     		.short	0
 9228 3190 0000     		.short	0
 9229 3192 0060     		.short	24576
 9230 3194 0020     		.short	8192
 9231 3196 0020     		.short	8192
 9232 3198 0070     		.short	28672
ARM GAS  C:\Users\arist\AppData\Local\Temp\ccSjK9zC.s 			page 192


 9233 319a 0020     		.short	8192
 9234 319c 0050     		.short	20480
 9235 319e 0000     		.short	0
 9236 31a0 0060     		.short	24576
 9237 31a2 0020     		.short	8192
 9238 31a4 0020     		.short	8192
 9239 31a6 0070     		.short	28672
 9240 31a8 0040     		.short	16384
 9241 31aa 0020     		.short	8192
 9242 31ac 0000     		.short	0
 9243 31ae 0060     		.short	24576
 9244 31b0 0020     		.short	8192
 9245 31b2 0020     		.short	8192
 9246 31b4 0070     		.short	28672
 9247 31b6 0050     		.short	20480
 9248 31b8 0000     		.short	0
 9249 31ba 0070     		.short	28672
 9250 31bc 0088     		.short	-30720
 9251 31be 00F8     		.short	-2048
 9252 31c0 0088     		.short	-30720
 9253 31c2 0088     		.short	-30720
 9254 31c4 0020     		.short	8192
 9255 31c6 0000     		.short	0
 9256 31c8 0070     		.short	28672
 9257 31ca 0088     		.short	-30720
 9258 31cc 00F8     		.short	-2048
 9259 31ce 0088     		.short	-30720
 9260 31d0 0088     		.short	-30720
 9261 31d2 0010     		.short	4096
 9262 31d4 0020     		.short	8192
 9263 31d6 00F8     		.short	-2048
 9264 31d8 0080     		.short	-32768
 9265 31da 00F0     		.short	-4096
 9266 31dc 0080     		.short	-32768
 9267 31de 00F8     		.short	-2048
 9268 31e0 0000     		.short	0
 9269 31e2 0000     		.short	0
 9270 31e4 00D0     		.short	-12288
 9271 31e6 0028     		.short	10240
 9272 31e8 0070     		.short	28672
 9273 31ea 00A0     		.short	-24576
 9274 31ec 0058     		.short	22528
 9275 31ee 0078     		.short	30720
 9276 31f0 00A0     		.short	-24576
 9277 31f2 00A0     		.short	-24576
 9278 31f4 00F8     		.short	-2048
 9279 31f6 00A0     		.short	-24576
 9280 31f8 00A0     		.short	-24576
 9281 31fa 00B8     		.short	-18432
 9282 31fc 0020     		.short	8192
 9283 31fe 0050     		.short	20480
 9284 3200 0070     		.short	28672
 9285 3202 0088     		.short	-30720
 9286 3204 0088     		.short	-30720
 9287 3206 0088     		.short	-30720
 9288 3208 0070     		.short	28672
 9289 320a 0050     		.short	20480
ARM GAS  C:\Users\arist\AppData\Local\Temp\ccSjK9zC.s 			page 193


 9290 320c 0000     		.short	0
 9291 320e 0070     		.short	28672
 9292 3210 0088     		.short	-30720
 9293 3212 0088     		.short	-30720
 9294 3214 0088     		.short	-30720
 9295 3216 0070     		.short	28672
 9296 3218 0040     		.short	16384
 9297 321a 0020     		.short	8192
 9298 321c 0070     		.short	28672
 9299 321e 0088     		.short	-30720
 9300 3220 0088     		.short	-30720
 9301 3222 0088     		.short	-30720
 9302 3224 0070     		.short	28672
 9303 3226 0020     		.short	8192
 9304 3228 0050     		.short	20480
 9305 322a 0088     		.short	-30720
 9306 322c 0088     		.short	-30720
 9307 322e 0088     		.short	-30720
 9308 3230 0098     		.short	-26624
 9309 3232 0068     		.short	26624
 9310 3234 0040     		.short	16384
 9311 3236 0020     		.short	8192
 9312 3238 0088     		.short	-30720
 9313 323a 0088     		.short	-30720
 9314 323c 0088     		.short	-30720
 9315 323e 0098     		.short	-26624
 9316 3240 0068     		.short	26624
 9317 3242 0050     		.short	20480
 9318 3244 0000     		.short	0
 9319 3246 0088     		.short	-30720
 9320 3248 0050     		.short	20480
 9321 324a 0020     		.short	8192
 9322 324c 0020     		.short	8192
 9323 324e 00C0     		.short	-16384
 9324 3250 0050     		.short	20480
 9325 3252 0070     		.short	28672
 9326 3254 0088     		.short	-30720
 9327 3256 0088     		.short	-30720
 9328 3258 0088     		.short	-30720
 9329 325a 0088     		.short	-30720
 9330 325c 0070     		.short	28672
 9331 325e 0050     		.short	20480
 9332 3260 0088     		.short	-30720
 9333 3262 0088     		.short	-30720
 9334 3264 0088     		.short	-30720
 9335 3266 0088     		.short	-30720
 9336 3268 0088     		.short	-30720
 9337 326a 0070     		.short	28672
 9338 326c 0000     		.short	0
 9339 326e 0000     		.short	0
 9340 3270 0070     		.short	28672
 9341 3272 0098     		.short	-26624
 9342 3274 00A8     		.short	-22528
 9343 3276 00C8     		.short	-14336
 9344 3278 0070     		.short	28672
 9345 327a 0030     		.short	12288
 9346 327c 0040     		.short	16384
ARM GAS  C:\Users\arist\AppData\Local\Temp\ccSjK9zC.s 			page 194


 9347 327e 0020     		.short	8192
 9348 3280 00F0     		.short	-4096
 9349 3282 0040     		.short	16384
 9350 3284 0080     		.short	-32768
 9351 3286 00F8     		.short	-2048
 9352 3288 0070     		.short	28672
 9353 328a 0088     		.short	-30720
 9354 328c 0098     		.short	-26624
 9355 328e 00A8     		.short	-22528
 9356 3290 00C8     		.short	-14336
 9357 3292 0088     		.short	-30720
 9358 3294 0070     		.short	28672
 9359 3296 0050     		.short	20480
 9360 3298 0020     		.short	8192
 9361 329a 0050     		.short	20480
 9362 329c 0000     		.short	0
 9363 329e 0000     		.short	0
 9364 32a0 0000     		.short	0
 9365 32a2 0000     		.short	0
 9366 32a4 0018     		.short	6144
 9367 32a6 0020     		.short	8192
 9368 32a8 0020     		.short	8192
 9369 32aa 0070     		.short	28672
 9370 32ac 0020     		.short	8192
 9371 32ae 0020     		.short	8192
 9372 32b0 00C0     		.short	-16384
 9373 32b2 0010     		.short	4096
 9374 32b4 0020     		.short	8192
 9375 32b6 0070     		.short	28672
 9376 32b8 0008     		.short	2048
 9377 32ba 0078     		.short	30720
 9378 32bc 0088     		.short	-30720
 9379 32be 0070     		.short	28672
 9380 32c0 0010     		.short	4096
 9381 32c2 0020     		.short	8192
 9382 32c4 0000     		.short	0
 9383 32c6 0060     		.short	24576
 9384 32c8 0020     		.short	8192
 9385 32ca 0020     		.short	8192
 9386 32cc 0070     		.short	28672
 9387 32ce 0010     		.short	4096
 9388 32d0 0020     		.short	8192
 9389 32d2 0070     		.short	28672
 9390 32d4 0088     		.short	-30720
 9391 32d6 0088     		.short	-30720
 9392 32d8 0088     		.short	-30720
 9393 32da 0070     		.short	28672
 9394 32dc 0010     		.short	4096
 9395 32de 0020     		.short	8192
 9396 32e0 0088     		.short	-30720
 9397 32e2 0088     		.short	-30720
 9398 32e4 0088     		.short	-30720
 9399 32e6 0098     		.short	-26624
 9400 32e8 0068     		.short	26624
 9401 32ea 0028     		.short	10240
 9402 32ec 0050     		.short	20480
 9403 32ee 00B0     		.short	-20480
ARM GAS  C:\Users\arist\AppData\Local\Temp\ccSjK9zC.s 			page 195


 9404 32f0 00C8     		.short	-14336
 9405 32f2 0088     		.short	-30720
 9406 32f4 0088     		.short	-30720
 9407 32f6 0088     		.short	-30720
 9408 32f8 0028     		.short	10240
 9409 32fa 0050     		.short	20480
 9410 32fc 0088     		.short	-30720
 9411 32fe 00C8     		.short	-14336
 9412 3300 00A8     		.short	-22528
 9413 3302 0098     		.short	-26624
 9414 3304 0088     		.short	-30720
 9415 3306 0060     		.short	24576
 9416 3308 0010     		.short	4096
 9417 330a 0030     		.short	12288
 9418 330c 0050     		.short	20480
 9419 330e 0020     		.short	8192
 9420 3310 0000     		.short	0
 9421 3312 0000     		.short	0
 9422 3314 0020     		.short	8192
 9423 3316 0050     		.short	20480
 9424 3318 0020     		.short	8192
 9425 331a 0000     		.short	0
 9426 331c 0000     		.short	0
 9427 331e 0000     		.short	0
 9428 3320 0000     		.short	0
 9429 3322 0020     		.short	8192
 9430 3324 0000     		.short	0
 9431 3326 0020     		.short	8192
 9432 3328 0020     		.short	8192
 9433 332a 0090     		.short	-28672
 9434 332c 0090     		.short	-28672
 9435 332e 0060     		.short	24576
 9436 3330 0000     		.short	0
 9437 3332 0070     		.short	28672
 9438 3334 00A8     		.short	-22528
 9439 3336 00B8     		.short	-18432
 9440 3338 00A8     		.short	-22528
 9441 333a 0070     		.short	28672
 9442 333c 0000     		.short	0
 9443 333e 0000     		.short	0
 9444 3340 0000     		.short	0
 9445 3342 0000     		.short	0
 9446 3344 00F8     		.short	-2048
 9447 3346 0008     		.short	2048
 9448 3348 0000     		.short	0
 9449 334a 0000     		.short	0
 9450 334c 0000     		.short	0
 9451 334e 0048     		.short	18432
 9452 3350 0010     		.short	4096
 9453 3352 0020     		.short	8192
 9454 3354 0048     		.short	18432
 9455 3356 0088     		.short	-30720
 9456 3358 0000     		.short	0
 9457 335a 0000     		.short	0
 9458 335c 0048     		.short	18432
 9459 335e 0010     		.short	4096
 9460 3360 0020     		.short	8192
ARM GAS  C:\Users\arist\AppData\Local\Temp\ccSjK9zC.s 			page 196


 9461 3362 0058     		.short	22528
 9462 3364 0098     		.short	-26624
 9463 3366 0000     		.short	0
 9464 3368 0000     		.short	0
 9465 336a 0000     		.short	0
 9466 336c 0020     		.short	8192
 9467 336e 0000     		.short	0
 9468 3370 0020     		.short	8192
 9469 3372 0020     		.short	8192
 9470 3374 0020     		.short	8192
 9471 3376 0000     		.short	0
 9472 3378 0028     		.short	10240
 9473 337a 0050     		.short	20480
 9474 337c 00A0     		.short	-24576
 9475 337e 0050     		.short	20480
 9476 3380 0028     		.short	10240
 9477 3382 0000     		.short	0
 9478 3384 0000     		.short	0
 9479 3386 00A0     		.short	-24576
 9480 3388 0050     		.short	20480
 9481 338a 0028     		.short	10240
 9482 338c 0050     		.short	20480
 9483 338e 00A0     		.short	-24576
 9484 3390 0000     		.short	0
 9485 3392 00A8     		.short	-22528
 9486 3394 0050     		.short	20480
 9487 3396 00A8     		.short	-22528
 9488 3398 0050     		.short	20480
 9489 339a 00A8     		.short	-22528
 9490 339c 0050     		.short	20480
 9491 339e 00A8     		.short	-22528
 9492 33a0 00F8     		.short	-2048
 9493 33a2 0000     		.short	0
 9494 33a4 0000     		.short	0
 9495 33a6 00F8     		.short	-2048
 9496 33a8 0000     		.short	0
 9497 33aa 0000     		.short	0
 9498 33ac 00F8     		.short	-2048
 9499 33ae 00F8     		.short	-2048
 9500 33b0 0000     		.short	0
 9501 33b2 00F8     		.short	-2048
 9502 33b4 0000     		.short	0
 9503 33b6 00F8     		.short	-2048
 9504 33b8 0000     		.short	0
 9505 33ba 00F8     		.short	-2048
 9506 33bc 0020     		.short	8192
 9507 33be 0020     		.short	8192
 9508 33c0 0020     		.short	8192
 9509 33c2 0020     		.short	8192
 9510 33c4 0020     		.short	8192
 9511 33c6 0020     		.short	8192
 9512 33c8 0020     		.short	8192
 9513 33ca 0020     		.short	8192
 9514 33cc 0020     		.short	8192
 9515 33ce 0020     		.short	8192
 9516 33d0 00E0     		.short	-8192
 9517 33d2 0020     		.short	8192
ARM GAS  C:\Users\arist\AppData\Local\Temp\ccSjK9zC.s 			page 197


 9518 33d4 0020     		.short	8192
 9519 33d6 0020     		.short	8192
 9520 33d8 0010     		.short	4096
 9521 33da 0020     		.short	8192
 9522 33dc 0070     		.short	28672
 9523 33de 0088     		.short	-30720
 9524 33e0 00F8     		.short	-2048
 9525 33e2 0088     		.short	-30720
 9526 33e4 0088     		.short	-30720
 9527 33e6 0020     		.short	8192
 9528 33e8 0050     		.short	20480
 9529 33ea 0070     		.short	28672
 9530 33ec 0088     		.short	-30720
 9531 33ee 00F8     		.short	-2048
 9532 33f0 0088     		.short	-30720
 9533 33f2 0088     		.short	-30720
 9534 33f4 0040     		.short	16384
 9535 33f6 0020     		.short	8192
 9536 33f8 0070     		.short	28672
 9537 33fa 0088     		.short	-30720
 9538 33fc 00F8     		.short	-2048
 9539 33fe 0088     		.short	-30720
 9540 3400 0088     		.short	-30720
 9541 3402 0000     		.short	0
 9542 3404 0070     		.short	28672
 9543 3406 00A8     		.short	-22528
 9544 3408 00C8     		.short	-14336
 9545 340a 00A8     		.short	-22528
 9546 340c 0070     		.short	28672
 9547 340e 0000     		.short	0
 9548 3410 0050     		.short	20480
 9549 3412 0050     		.short	20480
 9550 3414 00D0     		.short	-12288
 9551 3416 0010     		.short	4096
 9552 3418 00D0     		.short	-12288
 9553 341a 0050     		.short	20480
 9554 341c 0050     		.short	20480
 9555 341e 0050     		.short	20480
 9556 3420 0050     		.short	20480
 9557 3422 0050     		.short	20480
 9558 3424 0050     		.short	20480
 9559 3426 0050     		.short	20480
 9560 3428 0050     		.short	20480
 9561 342a 0050     		.short	20480
 9562 342c 0000     		.short	0
 9563 342e 0000     		.short	0
 9564 3430 00F0     		.short	-4096
 9565 3432 0010     		.short	4096
 9566 3434 00D0     		.short	-12288
 9567 3436 0050     		.short	20480
 9568 3438 0050     		.short	20480
 9569 343a 0050     		.short	20480
 9570 343c 0050     		.short	20480
 9571 343e 00D0     		.short	-12288
 9572 3440 0001     		.short	256
 9573 3442 00F0     		.short	-4096
 9574 3444 0000     		.short	0
ARM GAS  C:\Users\arist\AppData\Local\Temp\ccSjK9zC.s 			page 198


 9575 3446 0000     		.short	0
 9576 3448 0002     		.short	512
 9577 344a 0078     		.short	30720
 9578 344c 0080     		.short	-32768
 9579 344e 0080     		.short	-32768
 9580 3450 0080     		.short	-32768
 9581 3452 0078     		.short	30720
 9582 3454 0020     		.short	8192
 9583 3456 0050     		.short	20480
 9584 3458 0050     		.short	20480
 9585 345a 0020     		.short	8192
 9586 345c 0070     		.short	28672
 9587 345e 0020     		.short	8192
 9588 3460 0070     		.short	28672
 9589 3462 0020     		.short	8192
 9590 3464 0000     		.short	0
 9591 3466 0000     		.short	0
 9592 3468 0000     		.short	0
 9593 346a 00E0     		.short	-8192
 9594 346c 0020     		.short	8192
 9595 346e 0020     		.short	8192
 9596 3470 0020     		.short	8192
 9597 3472 0020     		.short	8192
 9598 3474 0020     		.short	8192
 9599 3476 0020     		.short	8192
 9600 3478 0038     		.short	14336
 9601 347a 0000     		.short	0
 9602 347c 0000     		.short	0
 9603 347e 0000     		.short	0
 9604 3480 0020     		.short	8192
 9605 3482 0020     		.short	8192
 9606 3484 0020     		.short	8192
 9607 3486 00F8     		.short	-2048
 9608 3488 0000     		.short	0
 9609 348a 0000     		.short	0
 9610 348c 0000     		.short	0
 9611 348e 0000     		.short	0
 9612 3490 0000     		.short	0
 9613 3492 0000     		.short	0
 9614 3494 00F8     		.short	-2048
 9615 3496 0020     		.short	8192
 9616 3498 0020     		.short	8192
 9617 349a 0020     		.short	8192
 9618 349c 0020     		.short	8192
 9619 349e 0020     		.short	8192
 9620 34a0 0020     		.short	8192
 9621 34a2 0038     		.short	14336
 9622 34a4 0020     		.short	8192
 9623 34a6 0020     		.short	8192
 9624 34a8 0020     		.short	8192
 9625 34aa 0000     		.short	0
 9626 34ac 0000     		.short	0
 9627 34ae 0000     		.short	0
 9628 34b0 00F8     		.short	-2048
 9629 34b2 0000     		.short	0
 9630 34b4 0000     		.short	0
 9631 34b6 0000     		.short	0
ARM GAS  C:\Users\arist\AppData\Local\Temp\ccSjK9zC.s 			page 199


 9632 34b8 0020     		.short	8192
 9633 34ba 0020     		.short	8192
 9634 34bc 0020     		.short	8192
 9635 34be 00F8     		.short	-2048
 9636 34c0 0020     		.short	8192
 9637 34c2 0020     		.short	8192
 9638 34c4 0020     		.short	8192
 9639 34c6 0028     		.short	10240
 9640 34c8 0050     		.short	20480
 9641 34ca 0070     		.short	28672
 9642 34cc 0008     		.short	2048
 9643 34ce 0078     		.short	30720
 9644 34d0 0088     		.short	-30720
 9645 34d2 0070     		.short	28672
 9646 34d4 0028     		.short	10240
 9647 34d6 0050     		.short	20480
 9648 34d8 0070     		.short	28672
 9649 34da 0088     		.short	-30720
 9650 34dc 00F8     		.short	-2048
 9651 34de 0088     		.short	-30720
 9652 34e0 0088     		.short	-30720
 9653 34e2 0050     		.short	20480
 9654 34e4 0050     		.short	20480
 9655 34e6 0058     		.short	22528
 9656 34e8 0040     		.short	16384
 9657 34ea 0078     		.short	30720
 9658 34ec 0000     		.short	0
 9659 34ee 0000     		.short	0
 9660 34f0 0000     		.short	0
 9661 34f2 0000     		.short	0
 9662 34f4 0078     		.short	30720
 9663 34f6 0040     		.short	16384
 9664 34f8 0058     		.short	22528
 9665 34fa 0050     		.short	20480
 9666 34fc 0050     		.short	20480
 9667 34fe 0050     		.short	20480
 9668 3500 0050     		.short	20480
 9669 3502 00D8     		.short	-10240
 9670 3504 0000     		.short	0
 9671 3506 00F8     		.short	-2048
 9672 3508 0000     		.short	0
 9673 350a 0000     		.short	0
 9674 350c 0000     		.short	0
 9675 350e 0000     		.short	0
 9676 3510 00F8     		.short	-2048
 9677 3512 0000     		.short	0
 9678 3514 00D8     		.short	-10240
 9679 3516 0050     		.short	20480
 9680 3518 0050     		.short	20480
 9681 351a 0050     		.short	20480
 9682 351c 0050     		.short	20480
 9683 351e 0058     		.short	22528
 9684 3520 0040     		.short	16384
 9685 3522 0058     		.short	22528
 9686 3524 0050     		.short	20480
 9687 3526 0050     		.short	20480
 9688 3528 0000     		.short	0
ARM GAS  C:\Users\arist\AppData\Local\Temp\ccSjK9zC.s 			page 200


 9689 352a 0000     		.short	0
 9690 352c 00F8     		.short	-2048
 9691 352e 0000     		.short	0
 9692 3530 00F8     		.short	-2048
 9693 3532 0000     		.short	0
 9694 3534 0000     		.short	0
 9695 3536 0050     		.short	20480
 9696 3538 0050     		.short	20480
 9697 353a 00D8     		.short	-10240
 9698 353c 0000     		.short	0
 9699 353e 00D8     		.short	-10240
 9700 3540 0050     		.short	20480
 9701 3542 0050     		.short	20480
 9702 3544 00F8     		.short	-2048
 9703 3546 0050     		.short	20480
 9704 3548 0050     		.short	20480
 9705 354a 00F8     		.short	-2048
 9706 354c 0000     		.short	0
 9707 354e 0000     		.short	0
 9708 3550 0000     		.short	0
 9709 3552 0050     		.short	20480
 9710 3554 0020     		.short	8192
 9711 3556 0070     		.short	28672
 9712 3558 0088     		.short	-30720
 9713 355a 0088     		.short	-30720
 9714 355c 0088     		.short	-30720
 9715 355e 0070     		.short	28672
 9716 3560 0070     		.short	28672
 9717 3562 0048     		.short	18432
 9718 3564 0048     		.short	18432
 9719 3566 00E8     		.short	-6144
 9720 3568 0048     		.short	18432
 9721 356a 0048     		.short	18432
 9722 356c 0070     		.short	28672
 9723 356e 0020     		.short	8192
 9724 3570 0050     		.short	20480
 9725 3572 00F8     		.short	-2048
 9726 3574 0080     		.short	-32768
 9727 3576 00F0     		.short	-4096
 9728 3578 0080     		.short	-32768
 9729 357a 00F8     		.short	-2048
 9730 357c 0050     		.short	20480
 9731 357e 0000     		.short	0
 9732 3580 00F8     		.short	-2048
 9733 3582 0080     		.short	-32768
 9734 3584 00F0     		.short	-4096
 9735 3586 0080     		.short	-32768
 9736 3588 00F8     		.short	-2048
 9737 358a 0040     		.short	16384
 9738 358c 0020     		.short	8192
 9739 358e 00F8     		.short	-2048
 9740 3590 0080     		.short	-32768
 9741 3592 00F0     		.short	-4096
 9742 3594 0080     		.short	-32768
 9743 3596 00F8     		.short	-2048
 9744 3598 0000     		.short	0
 9745 359a 0000     		.short	0
ARM GAS  C:\Users\arist\AppData\Local\Temp\ccSjK9zC.s 			page 201


 9746 359c 0000     		.short	0
 9747 359e 0060     		.short	24576
 9748 35a0 0020     		.short	8192
 9749 35a2 0020     		.short	8192
 9750 35a4 0070     		.short	28672
 9751 35a6 0010     		.short	4096
 9752 35a8 0020     		.short	8192
 9753 35aa 00F8     		.short	-2048
 9754 35ac 0020     		.short	8192
 9755 35ae 0020     		.short	8192
 9756 35b0 0020     		.short	8192
 9757 35b2 00F8     		.short	-2048
 9758 35b4 0020     		.short	8192
 9759 35b6 0050     		.short	20480
 9760 35b8 00F8     		.short	-2048
 9761 35ba 0020     		.short	8192
 9762 35bc 0020     		.short	8192
 9763 35be 0020     		.short	8192
 9764 35c0 00F8     		.short	-2048
 9765 35c2 0050     		.short	20480
 9766 35c4 0000     		.short	0
 9767 35c6 00F8     		.short	-2048
 9768 35c8 0020     		.short	8192
 9769 35ca 0020     		.short	8192
 9770 35cc 0020     		.short	8192
 9771 35ce 00F8     		.short	-2048
 9772 35d0 0020     		.short	8192
 9773 35d2 0020     		.short	8192
 9774 35d4 0020     		.short	8192
 9775 35d6 00E0     		.short	-8192
 9776 35d8 0000     		.short	0
 9777 35da 0000     		.short	0
 9778 35dc 0000     		.short	0
 9779 35de 0000     		.short	0
 9780 35e0 0000     		.short	0
 9781 35e2 0000     		.short	0
 9782 35e4 0038     		.short	14336
 9783 35e6 0020     		.short	8192
 9784 35e8 0020     		.short	8192
 9785 35ea 0020     		.short	8192
 9786 35ec 00F8     		.short	-2048
 9787 35ee 00F8     		.short	-2048
 9788 35f0 00F8     		.short	-2048
 9789 35f2 00F8     		.short	-2048
 9790 35f4 00F8     		.short	-2048
 9791 35f6 00F8     		.short	-2048
 9792 35f8 00F8     		.short	-2048
 9793 35fa 0000     		.short	0
 9794 35fc 0000     		.short	0
 9795 35fe 0000     		.short	0
 9796 3600 0000     		.short	0
 9797 3602 00F8     		.short	-2048
 9798 3604 00F8     		.short	-2048
 9799 3606 00F8     		.short	-2048
 9800 3608 0000     		.short	0
 9801 360a 0020     		.short	8192
 9802 360c 0020     		.short	8192
ARM GAS  C:\Users\arist\AppData\Local\Temp\ccSjK9zC.s 			page 202


 9803 360e 0000     		.short	0
 9804 3610 0020     		.short	8192
 9805 3612 0020     		.short	8192
 9806 3614 0000     		.short	0
 9807 3616 0000     		.short	0
 9808 3618 0000     		.short	0
 9809 361a 00F8     		.short	-2048
 9810 361c 00F8     		.short	-2048
 9811 361e 00F8     		.short	-2048
 9812 3620 0000     		.short	0
 9813 3622 0000     		.short	0
 9814 3624 00F8     		.short	-2048
 9815 3626 00F8     		.short	-2048
 9816 3628 00F8     		.short	-2048
 9817 362a 00F8     		.short	-2048
 9818 362c 0000     		.short	0
 9819 362e 0000     		.short	0
 9820 3630 0000     		.short	0
 9821 3632 0010     		.short	4096
 9822 3634 0020     		.short	8192
 9823 3636 0078     		.short	30720
 9824 3638 0088     		.short	-30720
 9825 363a 0088     		.short	-30720
 9826 363c 0088     		.short	-30720
 9827 363e 0070     		.short	28672
 9828 3640 00E0     		.short	-8192
 9829 3642 0090     		.short	-28672
 9830 3644 00E0     		.short	-8192
 9831 3646 0090     		.short	-28672
 9832 3648 0088     		.short	-30720
 9833 364a 0088     		.short	-30720
 9834 364c 00F0     		.short	-4096
 9835 364e 0020     		.short	8192
 9836 3650 0050     		.short	20480
 9837 3652 0078     		.short	30720
 9838 3654 0088     		.short	-30720
 9839 3656 0088     		.short	-30720
 9840 3658 0088     		.short	-30720
 9841 365a 0070     		.short	28672
 9842 365c 0040     		.short	16384
 9843 365e 0020     		.short	8192
 9844 3660 0078     		.short	30720
 9845 3662 0088     		.short	-30720
 9846 3664 0088     		.short	-30720
 9847 3666 0088     		.short	-30720
 9848 3668 0070     		.short	28672
 9849 366a 0028     		.short	10240
 9850 366c 0050     		.short	20480
 9851 366e 0078     		.short	30720
 9852 3670 0088     		.short	-30720
 9853 3672 0088     		.short	-30720
 9854 3674 0088     		.short	-30720
 9855 3676 0070     		.short	28672
 9856 3678 0028     		.short	10240
 9857 367a 0050     		.short	20480
 9858 367c 0078     		.short	30720
 9859 367e 0088     		.short	-30720
ARM GAS  C:\Users\arist\AppData\Local\Temp\ccSjK9zC.s 			page 203


 9860 3680 0088     		.short	-30720
 9861 3682 0088     		.short	-30720
 9862 3684 0070     		.short	28672
 9863 3686 0000     		.short	0
 9864 3688 0000     		.short	0
 9865 368a 0088     		.short	-30720
 9866 368c 0088     		.short	-30720
 9867 368e 00C8     		.short	-14336
 9868 3690 00B0     		.short	-20480
 9869 3692 0080     		.short	-32768
 9870 3694 00C0     		.short	-16384
 9871 3696 0050     		.short	20480
 9872 3698 0068     		.short	26624
 9873 369a 0068     		.short	26624
 9874 369c 0050     		.short	20480
 9875 369e 0040     		.short	16384
 9876 36a0 00E0     		.short	-8192
 9877 36a2 00E0     		.short	-8192
 9878 36a4 0040     		.short	16384
 9879 36a6 0070     		.short	28672
 9880 36a8 0048     		.short	18432
 9881 36aa 0070     		.short	28672
 9882 36ac 0040     		.short	16384
 9883 36ae 00E0     		.short	-8192
 9884 36b0 0010     		.short	4096
 9885 36b2 00A8     		.short	-22528
 9886 36b4 0088     		.short	-30720
 9887 36b6 0088     		.short	-30720
 9888 36b8 0088     		.short	-30720
 9889 36ba 0088     		.short	-30720
 9890 36bc 0070     		.short	28672
 9891 36be 0020     		.short	8192
 9892 36c0 0050     		.short	20480
 9893 36c2 0088     		.short	-30720
 9894 36c4 0088     		.short	-30720
 9895 36c6 0088     		.short	-30720
 9896 36c8 0088     		.short	-30720
 9897 36ca 0070     		.short	28672
 9898 36cc 0040     		.short	16384
 9899 36ce 00A8     		.short	-22528
 9900 36d0 0088     		.short	-30720
 9901 36d2 0088     		.short	-30720
 9902 36d4 0088     		.short	-30720
 9903 36d6 0088     		.short	-30720
 9904 36d8 0070     		.short	28672
 9905 36da 0010     		.short	4096
 9906 36dc 0020     		.short	8192
 9907 36de 0088     		.short	-30720
 9908 36e0 0050     		.short	20480
 9909 36e2 0020     		.short	8192
 9910 36e4 0020     		.short	8192
 9911 36e6 00C0     		.short	-16384
 9912 36e8 0010     		.short	4096
 9913 36ea 0020     		.short	8192
 9914 36ec 0088     		.short	-30720
 9915 36ee 0050     		.short	20480
 9916 36f0 0020     		.short	8192
ARM GAS  C:\Users\arist\AppData\Local\Temp\ccSjK9zC.s 			page 204


 9917 36f2 0020     		.short	8192
 9918 36f4 0070     		.short	28672
 9919 36f6 00F8     		.short	-2048
 9920 36f8 0000     		.short	0
 9921 36fa 0000     		.short	0
 9922 36fc 0000     		.short	0
 9923 36fe 0000     		.short	0
 9924 3700 0000     		.short	0
 9925 3702 0000     		.short	0
 9926 3704 0010     		.short	4096
 9927 3706 0020     		.short	8192
 9928 3708 0000     		.short	0
 9929 370a 0000     		.short	0
 9930 370c 0000     		.short	0
 9931 370e 0000     		.short	0
 9932 3710 0008     		.short	2048
 9933 3712 0000     		.short	0
 9934 3714 0000     		.short	0
 9935 3716 0000     		.short	0
 9936 3718 0070     		.short	28672
 9937 371a 0000     		.short	0
 9938 371c 0000     		.short	0
 9939 371e 0000     		.short	0
 9940 3720 0020     		.short	8192
 9941 3722 0020     		.short	8192
 9942 3724 00F8     		.short	-2048
 9943 3726 0020     		.short	8192
 9944 3728 0020     		.short	8192
 9945 372a 0000     		.short	0
 9946 372c 00F8     		.short	-2048
 9947 372e 0000     		.short	0
 9948 3730 0000     		.short	0
 9949 3732 0000     		.short	0
 9950 3734 0000     		.short	0
 9951 3736 00F8     		.short	-2048
 9952 3738 0000     		.short	0
 9953 373a 00F8     		.short	-2048
 9954 373c 0000     		.short	0
 9955 373e 0048     		.short	18432
 9956 3740 00D0     		.short	-12288
 9957 3742 0020     		.short	8192
 9958 3744 0058     		.short	22528
 9959 3746 0098     		.short	-26624
 9960 3748 0000     		.short	0
 9961 374a 0078     		.short	30720
 9962 374c 0098     		.short	-26624
 9963 374e 0098     		.short	-26624
 9964 3750 0078     		.short	30720
 9965 3752 0018     		.short	6144
 9966 3754 0018     		.short	6144
 9967 3756 0078     		.short	30720
 9968 3758 0078     		.short	30720
 9969 375a 00A0     		.short	-24576
 9970 375c 0090     		.short	-28672
 9971 375e 0088     		.short	-30720
 9972 3760 0048     		.short	18432
 9973 3762 0028     		.short	10240
ARM GAS  C:\Users\arist\AppData\Local\Temp\ccSjK9zC.s 			page 205


 9974 3764 00F0     		.short	-4096
 9975 3766 0000     		.short	0
 9976 3768 0020     		.short	8192
 9977 376a 0000     		.short	0
 9978 376c 00F8     		.short	-2048
 9979 376e 0000     		.short	0
 9980 3770 0020     		.short	8192
 9981 3772 0000     		.short	0
 9982 3774 0000     		.short	0
 9983 3776 0000     		.short	0
 9984 3778 0000     		.short	0
 9985 377a 0000     		.short	0
 9986 377c 0030     		.short	12288
 9987 377e 0030     		.short	12288
 9988 3780 0060     		.short	24576
 9989 3782 0020     		.short	8192
 9990 3784 0050     		.short	20480
 9991 3786 0020     		.short	8192
 9992 3788 0000     		.short	0
 9993 378a 0000     		.short	0
 9994 378c 0000     		.short	0
 9995 378e 0000     		.short	0
 9996 3790 0050     		.short	20480
 9997 3792 0000     		.short	0
 9998 3794 0000     		.short	0
 9999 3796 0000     		.short	0
 10000 3798 0000     		.short	0
 10001 379a 0000     		.short	0
 10002 379c 0000     		.short	0
 10003 379e 0000     		.short	0
 10004 37a0 0030     		.short	12288
 10005 37a2 0030     		.short	12288
 10006 37a4 0000     		.short	0
 10007 37a6 0000     		.short	0
 10008 37a8 0000     		.short	0
 10009 37aa 0000     		.short	0
 10010 37ac 0020     		.short	8192
 10011 37ae 0060     		.short	24576
 10012 37b0 0020     		.short	8192
 10013 37b2 0020     		.short	8192
 10014 37b4 0070     		.short	28672
 10015 37b6 0000     		.short	0
 10016 37b8 0000     		.short	0
 10017 37ba 0060     		.short	24576
 10018 37bc 0010     		.short	4096
 10019 37be 0020     		.short	8192
 10020 37c0 0010     		.short	4096
 10021 37c2 0030     		.short	12288
 10022 37c4 0000     		.short	0
 10023 37c6 0000     		.short	0
 10024 37c8 0060     		.short	24576
 10025 37ca 0010     		.short	4096
 10026 37cc 0030     		.short	12288
 10027 37ce 0040     		.short	16384
 10028 37d0 0070     		.short	28672
 10029 37d2 0000     		.short	0
 10030 37d4 0000     		.short	0
ARM GAS  C:\Users\arist\AppData\Local\Temp\ccSjK9zC.s 			page 206


 10031 37d6 00F8     		.short	-2048
 10032 37d8 00F8     		.short	-2048
 10033 37da 00F8     		.short	-2048
 10034 37dc 00F8     		.short	-2048
 10035 37de 0000     		.short	0
 10036 37e0 0000     		.short	0
 10037 37e2 0000     		.short	0
 10038 37e4 00000000 		.space	28
 10038      00000000 
 10038      00000000 
 10038      00000000 
 10038      00000000 
 10039              		.bss
 10040              		.set	.LANCHOR0,. + 0
 10041              		.type	font_height, %object
 10042              		.size	font_height, 1
 10043              	font_height:
 10044 0000 00       		.space	1
 10045              		.type	font_width, %object
 10046              		.size	font_width, 1
 10047              	font_width:
 10048 0001 00       		.space	1
 10049              		.type	dx.5132, %object
 10050              		.size	dx.5132, 1
 10051              	dx.5132:
 10052 0002 00       		.space	1
 10053              		.type	x_cnt.5134, %object
 10054              		.size	x_cnt.5134, 1
 10055              	x_cnt.5134:
 10056 0003 00       		.space	1
 10057              		.type	old_data.5131, %object
 10058              		.size	old_data.5131, 1
 10059              	old_data.5131:
 10060 0004 00       		.space	1
 10061              		.type	x.5133, %object
 10062              		.size	x.5133, 1
 10063              	x.5133:
 10064 0005 00       		.space	1
 10065              		.type	dx.5146, %object
 10066              		.size	dx.5146, 1
 10067              	dx.5146:
 10068 0006 00       		.space	1
 10069              		.type	x_cnt.5148, %object
 10070              		.size	x_cnt.5148, 1
 10071              	x_cnt.5148:
 10072 0007 00       		.space	1
 10073              		.type	old_data.5145, %object
 10074              		.size	old_data.5145, 1
 10075              	old_data.5145:
 10076 0008 00       		.space	1
 10077              		.type	x.5147, %object
 10078              		.size	x.5147, 1
 10079              	x.5147:
 10080 0009 00       		.space	1
 10081              		.text
 10082              	.Letext0:
 10083              		.file 2 "c:\\program files (x86)\\cypress\\psoc creator\\4.4\\psoc creator\\import\\gnu\\arm\\5.4.
ARM GAS  C:\Users\arist\AppData\Local\Temp\ccSjK9zC.s 			page 207


 10084              		.file 3 "c:\\program files (x86)\\cypress\\psoc creator\\4.4\\psoc creator\\import\\gnu\\arm\\5.4.
 10085              		.file 4 "display\\GEVA.h"
 10086              		.file 5 "display\\GEVA_font.h"
 10087              		.file 6 "c:\\program files (x86)\\cypress\\psoc creator\\4.4\\psoc creator\\import\\gnu\\arm\\5.4.
 10088              		.file 7 "c:\\program files (x86)\\cypress\\psoc creator\\4.4\\psoc creator\\import\\gnu\\arm\\5.4.
 10089              		.section	.debug_info,"",%progbits
 10090              	.Ldebug_info0:
 10091 0000 C61A0000 		.4byte	0x1ac6
 10092 0004 0400     		.2byte	0x4
 10093 0006 00000000 		.4byte	.Ldebug_abbrev0
 10094 000a 04       		.byte	0x4
 10095 000b 01       		.uleb128 0x1
 10096 000c 65010000 		.4byte	.LASF146
 10097 0010 0C       		.byte	0xc
 10098 0011 5B030000 		.4byte	.LASF147
 10099 0015 F9050000 		.4byte	.LASF148
 10100 0019 B0010000 		.4byte	.Ldebug_ranges0+0x1b0
 10101 001d 00000000 		.4byte	0
 10102 0021 00000000 		.4byte	.Ldebug_line0
 10103 0025 02       		.uleb128 0x2
 10104 0026 04       		.byte	0x4
 10105 0027 04       		.byte	0x4
 10106 0028 06010000 		.4byte	.LASF0
 10107 002c 03       		.uleb128 0x3
 10108 002d DA030000 		.4byte	.LASF2
 10109 0031 02       		.byte	0x2
 10110 0032 1B       		.byte	0x1b
 10111 0033 37000000 		.4byte	0x37
 10112 0037 02       		.uleb128 0x2
 10113 0038 01       		.byte	0x1
 10114 0039 06       		.byte	0x6
 10115 003a 96050000 		.4byte	.LASF1
 10116 003e 03       		.uleb128 0x3
 10117 003f 9A040000 		.4byte	.LASF3
 10118 0043 02       		.byte	0x2
 10119 0044 1D       		.byte	0x1d
 10120 0045 49000000 		.4byte	0x49
 10121 0049 02       		.uleb128 0x2
 10122 004a 01       		.byte	0x1
 10123 004b 08       		.byte	0x8
 10124 004c 4C050000 		.4byte	.LASF4
 10125 0050 03       		.uleb128 0x3
 10126 0051 36030000 		.4byte	.LASF5
 10127 0055 02       		.byte	0x2
 10128 0056 29       		.byte	0x29
 10129 0057 5B000000 		.4byte	0x5b
 10130 005b 02       		.uleb128 0x2
 10131 005c 02       		.byte	0x2
 10132 005d 05       		.byte	0x5
 10133 005e 52040000 		.4byte	.LASF6
 10134 0062 03       		.uleb128 0x3
 10135 0063 54010000 		.4byte	.LASF7
 10136 0067 02       		.byte	0x2
 10137 0068 2B       		.byte	0x2b
 10138 0069 6D000000 		.4byte	0x6d
 10139 006d 02       		.uleb128 0x2
 10140 006e 02       		.byte	0x2
ARM GAS  C:\Users\arist\AppData\Local\Temp\ccSjK9zC.s 			page 208


 10141 006f 07       		.byte	0x7
 10142 0070 A9050000 		.4byte	.LASF8
 10143 0074 02       		.uleb128 0x2
 10144 0075 04       		.byte	0x4
 10145 0076 05       		.byte	0x5
 10146 0077 67040000 		.4byte	.LASF9
 10147 007b 02       		.uleb128 0x2
 10148 007c 04       		.byte	0x4
 10149 007d 07       		.byte	0x7
 10150 007e 08050000 		.4byte	.LASF10
 10151 0082 02       		.uleb128 0x2
 10152 0083 08       		.byte	0x8
 10153 0084 05       		.byte	0x5
 10154 0085 EF020000 		.4byte	.LASF11
 10155 0089 02       		.uleb128 0x2
 10156 008a 08       		.byte	0x8
 10157 008b 07       		.byte	0x7
 10158 008c 32010000 		.4byte	.LASF12
 10159 0090 04       		.uleb128 0x4
 10160 0091 04       		.byte	0x4
 10161 0092 05       		.byte	0x5
 10162 0093 696E7400 		.ascii	"int\000"
 10163 0097 02       		.uleb128 0x2
 10164 0098 04       		.byte	0x4
 10165 0099 07       		.byte	0x7
 10166 009a 29000000 		.4byte	.LASF13
 10167 009e 03       		.uleb128 0x3
 10168 009f D1000000 		.4byte	.LASF14
 10169 00a3 03       		.byte	0x3
 10170 00a4 14       		.byte	0x14
 10171 00a5 2C000000 		.4byte	0x2c
 10172 00a9 03       		.uleb128 0x3
 10173 00aa D0020000 		.4byte	.LASF15
 10174 00ae 03       		.byte	0x3
 10175 00af 18       		.byte	0x18
 10176 00b0 3E000000 		.4byte	0x3e
 10177 00b4 03       		.uleb128 0x3
 10178 00b5 24010000 		.4byte	.LASF16
 10179 00b9 03       		.byte	0x3
 10180 00ba 20       		.byte	0x20
 10181 00bb 50000000 		.4byte	0x50
 10182 00bf 03       		.uleb128 0x3
 10183 00c0 FB030000 		.4byte	.LASF17
 10184 00c4 03       		.byte	0x3
 10185 00c5 24       		.byte	0x24
 10186 00c6 62000000 		.4byte	0x62
 10187 00ca 02       		.uleb128 0x2
 10188 00cb 08       		.byte	0x8
 10189 00cc 04       		.byte	0x4
 10190 00cd EF030000 		.4byte	.LASF18
 10191 00d1 02       		.uleb128 0x2
 10192 00d2 04       		.byte	0x4
 10193 00d3 07       		.byte	0x7
 10194 00d4 FF040000 		.4byte	.LASF19
 10195 00d8 02       		.uleb128 0x2
 10196 00d9 01       		.byte	0x1
 10197 00da 08       		.byte	0x8
ARM GAS  C:\Users\arist\AppData\Local\Temp\ccSjK9zC.s 			page 209


 10198 00db 85020000 		.4byte	.LASF20
 10199 00df 05       		.uleb128 0x5
 10200 00e0 8B040000 		.4byte	.LASF22
 10201 00e4 01       		.byte	0x1
 10202 00e5 49000000 		.4byte	0x49
 10203 00e9 04       		.byte	0x4
 10204 00ea 0E       		.byte	0xe
 10205 00eb FC000000 		.4byte	0xfc
 10206 00ef 06       		.uleb128 0x6
 10207 00f0 B9000000 		.4byte	.LASF21
 10208 00f4 00       		.byte	0
 10209 00f5 07       		.uleb128 0x7
 10210 00f6 53455400 		.ascii	"SET\000"
 10211 00fa 01       		.byte	0x1
 10212 00fb 00       		.byte	0
 10213 00fc 05       		.uleb128 0x5
 10214 00fd 95000000 		.4byte	.LASF23
 10215 0101 01       		.byte	0x1
 10216 0102 49000000 		.4byte	0x49
 10217 0106 04       		.byte	0x4
 10218 0107 13       		.byte	0x13
 10219 0108 19010000 		.4byte	0x119
 10220 010c 06       		.uleb128 0x6
 10221 010d 93020000 		.4byte	.LASF24
 10222 0111 00       		.byte	0
 10223 0112 06       		.uleb128 0x6
 10224 0113 91040000 		.4byte	.LASF25
 10225 0117 01       		.byte	0x1
 10226 0118 00       		.byte	0
 10227 0119 05       		.uleb128 0x5
 10228 011a AD000000 		.4byte	.LASF26
 10229 011e 01       		.byte	0x1
 10230 011f 49000000 		.4byte	0x49
 10231 0123 04       		.byte	0x4
 10232 0124 18       		.byte	0x18
 10233 0125 42010000 		.4byte	0x142
 10234 0129 06       		.uleb128 0x6
 10235 012a 00000000 		.4byte	.LASF27
 10236 012e 00       		.byte	0
 10237 012f 06       		.uleb128 0x6
 10238 0130 E7000000 		.4byte	.LASF28
 10239 0134 01       		.byte	0x1
 10240 0135 06       		.uleb128 0x6
 10241 0136 87050000 		.4byte	.LASF29
 10242 013a 02       		.byte	0x2
 10243 013b 06       		.uleb128 0x6
 10244 013c 3A040000 		.4byte	.LASF30
 10245 0140 03       		.byte	0x3
 10246 0141 00       		.byte	0
 10247 0142 08       		.uleb128 0x8
 10248 0143 EC050000 		.4byte	.LASF39
 10249 0147 14       		.byte	0x14
 10250 0148 04       		.byte	0x4
 10251 0149 20       		.byte	0x20
 10252 014a BB010000 		.4byte	0x1bb
 10253 014e 09       		.uleb128 0x9
 10254 014f F3010000 		.4byte	.LASF31
ARM GAS  C:\Users\arist\AppData\Local\Temp\ccSjK9zC.s 			page 210


 10255 0153 04       		.byte	0x4
 10256 0154 21       		.byte	0x21
 10257 0155 A9000000 		.4byte	0xa9
 10258 0159 00       		.byte	0
 10259 015a 09       		.uleb128 0x9
 10260 015b FA010000 		.4byte	.LASF32
 10261 015f 04       		.byte	0x4
 10262 0160 22       		.byte	0x22
 10263 0161 A9000000 		.4byte	0xa9
 10264 0165 01       		.byte	0x1
 10265 0166 09       		.uleb128 0x9
 10266 0167 D8020000 		.4byte	.LASF33
 10267 016b 04       		.byte	0x4
 10268 016c 24       		.byte	0x24
 10269 016d BB010000 		.4byte	0x1bb
 10270 0171 04       		.byte	0x4
 10271 0172 09       		.uleb128 0x9
 10272 0173 A4040000 		.4byte	.LASF34
 10273 0177 04       		.byte	0x4
 10274 0178 26       		.byte	0x26
 10275 0179 A9000000 		.4byte	0xa9
 10276 017d 08       		.byte	0x8
 10277 017e 09       		.uleb128 0x9
 10278 017f CF050000 		.4byte	.LASF35
 10279 0183 04       		.byte	0x4
 10280 0184 27       		.byte	0x27
 10281 0185 BF000000 		.4byte	0xbf
 10282 0189 0A       		.byte	0xa
 10283 018a 09       		.uleb128 0x9
 10284 018b 95000000 		.4byte	.LASF23
 10285 018f 04       		.byte	0x4
 10286 0190 29       		.byte	0x29
 10287 0191 FC000000 		.4byte	0xfc
 10288 0195 0C       		.byte	0xc
 10289 0196 09       		.uleb128 0x9
 10290 0197 A2050000 		.4byte	.LASF36
 10291 019b 04       		.byte	0x4
 10292 019c 2B       		.byte	0x2b
 10293 019d 19010000 		.4byte	0x119
 10294 01a1 0D       		.byte	0xd
 10295 01a2 09       		.uleb128 0x9
 10296 01a3 4C020000 		.4byte	.LASF37
 10297 01a7 04       		.byte	0x4
 10298 01a8 2C       		.byte	0x2c
 10299 01a9 C1010000 		.4byte	0x1c1
 10300 01ad 0E       		.byte	0xe
 10301 01ae 09       		.uleb128 0x9
 10302 01af BF000000 		.4byte	.LASF38
 10303 01b3 04       		.byte	0x4
 10304 01b4 2D       		.byte	0x2d
 10305 01b5 D1010000 		.4byte	0x1d1
 10306 01b9 10       		.byte	0x10
 10307 01ba 00       		.byte	0
 10308 01bb 0A       		.uleb128 0xa
 10309 01bc 04       		.byte	0x4
 10310 01bd A9000000 		.4byte	0xa9
 10311 01c1 0B       		.uleb128 0xb
ARM GAS  C:\Users\arist\AppData\Local\Temp\ccSjK9zC.s 			page 211


 10312 01c2 A9000000 		.4byte	0xa9
 10313 01c6 D1010000 		.4byte	0x1d1
 10314 01ca 0C       		.uleb128 0xc
 10315 01cb D1000000 		.4byte	0xd1
 10316 01cf 01       		.byte	0x1
 10317 01d0 00       		.byte	0
 10318 01d1 0B       		.uleb128 0xb
 10319 01d2 9E000000 		.4byte	0x9e
 10320 01d6 E1010000 		.4byte	0x1e1
 10321 01da 0C       		.uleb128 0xc
 10322 01db D1000000 		.4byte	0xd1
 10323 01df 03       		.byte	0x3
 10324 01e0 00       		.byte	0
 10325 01e1 03       		.uleb128 0x3
 10326 01e2 EC050000 		.4byte	.LASF39
 10327 01e6 04       		.byte	0x4
 10328 01e7 2F       		.byte	0x2f
 10329 01e8 42010000 		.4byte	0x142
 10330 01ec 0D       		.uleb128 0xd
 10331 01ed 05       		.byte	0x5
 10332 01ee 04       		.byte	0x4
 10333 01ef 33       		.byte	0x33
 10334 01f0 30020000 		.4byte	0x230
 10335 01f4 0E       		.uleb128 0xe
 10336 01f5 696400   		.ascii	"id\000"
 10337 01f8 04       		.byte	0x4
 10338 01f9 34       		.byte	0x34
 10339 01fa A9000000 		.4byte	0xa9
 10340 01fe 00       		.byte	0
 10341 01ff 09       		.uleb128 0x9
 10342 0200 01020000 		.4byte	.LASF40
 10343 0204 04       		.byte	0x4
 10344 0205 35       		.byte	0x35
 10345 0206 A9000000 		.4byte	0xa9
 10346 020a 01       		.byte	0x1
 10347 020b 09       		.uleb128 0x9
 10348 020c B6030000 		.4byte	.LASF41
 10349 0210 04       		.byte	0x4
 10350 0211 36       		.byte	0x36
 10351 0212 A9000000 		.4byte	0xa9
 10352 0216 02       		.byte	0x2
 10353 0217 09       		.uleb128 0x9
 10354 0218 A5020000 		.4byte	.LASF42
 10355 021c 04       		.byte	0x4
 10356 021d 37       		.byte	0x37
 10357 021e A9000000 		.4byte	0xa9
 10358 0222 03       		.byte	0x3
 10359 0223 09       		.uleb128 0x9
 10360 0224 B0020000 		.4byte	.LASF43
 10361 0228 04       		.byte	0x4
 10362 0229 38       		.byte	0x38
 10363 022a A9000000 		.4byte	0xa9
 10364 022e 04       		.byte	0x4
 10365 022f 00       		.byte	0
 10366 0230 08       		.uleb128 0x8
 10367 0231 8A020000 		.4byte	.LASF44
 10368 0235 0C       		.byte	0xc
ARM GAS  C:\Users\arist\AppData\Local\Temp\ccSjK9zC.s 			page 212


 10369 0236 04       		.byte	0x4
 10370 0237 31       		.byte	0x31
 10371 0238 55020000 		.4byte	0x255
 10372 023c 09       		.uleb128 0x9
 10373 023d A5030000 		.4byte	.LASF45
 10374 0241 04       		.byte	0x4
 10375 0242 39       		.byte	0x39
 10376 0243 EC010000 		.4byte	0x1ec
 10377 0247 00       		.byte	0
 10378 0248 09       		.uleb128 0x9
 10379 0249 2C050000 		.4byte	.LASF46
 10380 024d 04       		.byte	0x4
 10381 024e 3B       		.byte	0x3b
 10382 024f BB010000 		.4byte	0x1bb
 10383 0253 08       		.byte	0x8
 10384 0254 00       		.byte	0
 10385 0255 03       		.uleb128 0x3
 10386 0256 8A020000 		.4byte	.LASF44
 10387 025a 04       		.byte	0x4
 10388 025b 3C       		.byte	0x3c
 10389 025c 30020000 		.4byte	0x230
 10390 0260 05       		.uleb128 0x5
 10391 0261 FD020000 		.4byte	.LASF47
 10392 0265 01       		.byte	0x1
 10393 0266 49000000 		.4byte	0x49
 10394 026a 04       		.byte	0x4
 10395 026b 3E       		.byte	0x3e
 10396 026c 83020000 		.4byte	0x283
 10397 0270 06       		.uleb128 0x6
 10398 0271 5F010000 		.4byte	.LASF48
 10399 0275 00       		.byte	0
 10400 0276 06       		.uleb128 0x6
 10401 0277 C8050000 		.4byte	.LASF49
 10402 027b 01       		.byte	0x1
 10403 027c 06       		.uleb128 0x6
 10404 027d 17010000 		.4byte	.LASF50
 10405 0281 02       		.byte	0x2
 10406 0282 00       		.byte	0
 10407 0283 05       		.uleb128 0x5
 10408 0284 31050000 		.4byte	.LASF51
 10409 0288 01       		.byte	0x1
 10410 0289 49000000 		.4byte	0x49
 10411 028d 04       		.byte	0x4
 10412 028e 46       		.byte	0x46
 10413 028f B1020000 		.4byte	0x2b1
 10414 0293 07       		.uleb128 0x7
 10415 0294 42415200 		.ascii	"BAR\000"
 10416 0298 00       		.byte	0
 10417 0299 07       		.uleb128 0x7
 10418 029a 434F4C00 		.ascii	"COL\000"
 10419 029e 01       		.byte	0x1
 10420 029f 06       		.uleb128 0x6
 10421 02a0 6A030000 		.4byte	.LASF52
 10422 02a4 02       		.byte	0x2
 10423 02a5 07       		.uleb128 0x7
 10424 02a6 585900   		.ascii	"XY\000"
 10425 02a9 03       		.byte	0x3
ARM GAS  C:\Users\arist\AppData\Local\Temp\ccSjK9zC.s 			page 213


 10426 02aa 06       		.uleb128 0x6
 10427 02ab 40000000 		.4byte	.LASF53
 10428 02af 04       		.byte	0x4
 10429 02b0 00       		.byte	0
 10430 02b1 0D       		.uleb128 0xd
 10431 02b2 0C       		.byte	0xc
 10432 02b3 04       		.byte	0x4
 10433 02b4 57       		.byte	0x57
 10434 02b5 DA020000 		.4byte	0x2da
 10435 02b9 09       		.uleb128 0x9
 10436 02ba E0040000 		.4byte	.LASF54
 10437 02be 04       		.byte	0x4
 10438 02bf 58       		.byte	0x58
 10439 02c0 A9000000 		.4byte	0xa9
 10440 02c4 00       		.byte	0
 10441 02c5 0E       		.uleb128 0xe
 10442 02c6 7800     		.ascii	"x\000"
 10443 02c8 04       		.byte	0x4
 10444 02c9 59       		.byte	0x59
 10445 02ca DA020000 		.4byte	0x2da
 10446 02ce 04       		.byte	0x4
 10447 02cf 0E       		.uleb128 0xe
 10448 02d0 7900     		.ascii	"y\000"
 10449 02d2 04       		.byte	0x4
 10450 02d3 5A       		.byte	0x5a
 10451 02d4 DA020000 		.4byte	0x2da
 10452 02d8 08       		.byte	0x8
 10453 02d9 00       		.byte	0
 10454 02da 0A       		.uleb128 0xa
 10455 02db 04       		.byte	0x4
 10456 02dc 25000000 		.4byte	0x25
 10457 02e0 08       		.uleb128 0x8
 10458 02e1 14020000 		.4byte	.LASF55
 10459 02e5 28       		.byte	0x28
 10460 02e6 04       		.byte	0x4
 10461 02e7 4E       		.byte	0x4e
 10462 02e8 7D030000 		.4byte	0x37d
 10463 02ec 0E       		.uleb128 0xe
 10464 02ed 6F5F7800 		.ascii	"o_x\000"
 10465 02f1 04       		.byte	0x4
 10466 02f2 50       		.byte	0x50
 10467 02f3 A9000000 		.4byte	0xa9
 10468 02f7 00       		.byte	0
 10469 02f8 0E       		.uleb128 0xe
 10470 02f9 6F5F7900 		.ascii	"o_y\000"
 10471 02fd 04       		.byte	0x4
 10472 02fe 50       		.byte	0x50
 10473 02ff A9000000 		.4byte	0xa9
 10474 0303 01       		.byte	0x1
 10475 0304 09       		.uleb128 0x9
 10476 0305 47050000 		.4byte	.LASF56
 10477 0309 04       		.byte	0x4
 10478 030a 51       		.byte	0x51
 10479 030b 83020000 		.4byte	0x283
 10480 030f 02       		.byte	0x2
 10481 0310 09       		.uleb128 0x9
 10482 0311 4E010000 		.4byte	.LASF57
ARM GAS  C:\Users\arist\AppData\Local\Temp\ccSjK9zC.s 			page 214


 10483 0315 04       		.byte	0x4
 10484 0316 52       		.byte	0x52
 10485 0317 A9000000 		.4byte	0xa9
 10486 031b 03       		.byte	0x3
 10487 031c 09       		.uleb128 0x9
 10488 031d 6F030000 		.4byte	.LASF58
 10489 0321 04       		.byte	0x4
 10490 0322 52       		.byte	0x52
 10491 0323 A9000000 		.4byte	0xa9
 10492 0327 04       		.byte	0x4
 10493 0328 09       		.uleb128 0x9
 10494 0329 48000000 		.4byte	.LASF59
 10495 032d 04       		.byte	0x4
 10496 032e 52       		.byte	0x52
 10497 032f A9000000 		.4byte	0xa9
 10498 0333 05       		.byte	0x5
 10499 0334 0E       		.uleb128 0xe
 10500 0335 6D617800 		.ascii	"max\000"
 10501 0339 04       		.byte	0x4
 10502 033a 53       		.byte	0x53
 10503 033b 25000000 		.4byte	0x25
 10504 033f 08       		.byte	0x8
 10505 0340 0E       		.uleb128 0xe
 10506 0341 6D696E00 		.ascii	"min\000"
 10507 0345 04       		.byte	0x4
 10508 0346 53       		.byte	0x53
 10509 0347 25000000 		.4byte	0x25
 10510 034b 0C       		.byte	0xc
 10511 034c 09       		.uleb128 0x9
 10512 034d 90050000 		.4byte	.LASF60
 10513 0351 04       		.byte	0x4
 10514 0352 53       		.byte	0x53
 10515 0353 25000000 		.4byte	0x25
 10516 0357 10       		.byte	0x10
 10517 0358 09       		.uleb128 0x9
 10518 0359 C3020000 		.4byte	.LASF61
 10519 035d 04       		.byte	0x4
 10520 035e 54       		.byte	0x54
 10521 035f 25000000 		.4byte	0x25
 10522 0363 14       		.byte	0x14
 10523 0364 09       		.uleb128 0x9
 10524 0365 5C040000 		.4byte	.LASF62
 10525 0369 04       		.byte	0x4
 10526 036a 55       		.byte	0x55
 10527 036b A9000000 		.4byte	0xa9
 10528 036f 18       		.byte	0x18
 10529 0370 09       		.uleb128 0x9
 10530 0371 50030000 		.4byte	.LASF63
 10531 0375 04       		.byte	0x4
 10532 0376 5B       		.byte	0x5b
 10533 0377 B1020000 		.4byte	0x2b1
 10534 037b 1C       		.byte	0x1c
 10535 037c 00       		.byte	0
 10536 037d 03       		.uleb128 0x3
 10537 037e 14020000 		.4byte	.LASF55
 10538 0382 04       		.byte	0x4
 10539 0383 5D       		.byte	0x5d
ARM GAS  C:\Users\arist\AppData\Local\Temp\ccSjK9zC.s 			page 215


 10540 0384 E0020000 		.4byte	0x2e0
 10541 0388 0F       		.uleb128 0xf
 10542 0389 D8000000 		.4byte	.LASF64
 10543 038d 01       		.byte	0x1
 10544 038e 35       		.byte	0x35
 10545 038f 00000000 		.4byte	.LFB1
 10546 0393 1E000000 		.4byte	.LFE1-.LFB1
 10547 0397 01       		.uleb128 0x1
 10548 0398 9C       		.byte	0x9c
 10549 0399 CD030000 		.4byte	0x3cd
 10550 039d 10       		.uleb128 0x10
 10551 039e 95000000 		.4byte	.LASF23
 10552 03a2 01       		.byte	0x1
 10553 03a3 35       		.byte	0x35
 10554 03a4 FC000000 		.4byte	0xfc
 10555 03a8 00000000 		.4byte	.LLST0
 10556 03ac 11       		.uleb128 0x11
 10557 03ad 62756600 		.ascii	"buf\000"
 10558 03b1 01       		.byte	0x1
 10559 03b2 35       		.byte	0x35
 10560 03b3 CD030000 		.4byte	0x3cd
 10561 03b7 01       		.uleb128 0x1
 10562 03b8 51       		.byte	0x51
 10563 03b9 12       		.uleb128 0x12
 10564 03ba 00000000 		.4byte	.Ldebug_ranges0+0
 10565 03be 13       		.uleb128 0x13
 10566 03bf 6900     		.ascii	"i\000"
 10567 03c1 01       		.byte	0x1
 10568 03c2 3A       		.byte	0x3a
 10569 03c3 BF000000 		.4byte	0xbf
 10570 03c7 3A000000 		.4byte	.LLST1
 10571 03cb 00       		.byte	0
 10572 03cc 00       		.byte	0
 10573 03cd 0A       		.uleb128 0xa
 10574 03ce 04       		.byte	0x4
 10575 03cf E1010000 		.4byte	0x1e1
 10576 03d3 0F       		.uleb128 0xf
 10577 03d4 75020000 		.4byte	.LASF65
 10578 03d8 01       		.byte	0x1
 10579 03d9 41       		.byte	0x41
 10580 03da 00000000 		.4byte	.LFB2
 10581 03de 7C000000 		.4byte	.LFE2-.LFB2
 10582 03e2 01       		.uleb128 0x1
 10583 03e3 9C       		.byte	0x9c
 10584 03e4 01040000 		.4byte	0x401
 10585 03e8 11       		.uleb128 0x11
 10586 03e9 6F00     		.ascii	"o\000"
 10587 03eb 01       		.byte	0x1
 10588 03ec 41       		.byte	0x41
 10589 03ed 19010000 		.4byte	0x119
 10590 03f1 01       		.uleb128 0x1
 10591 03f2 50       		.byte	0x50
 10592 03f3 11       		.uleb128 0x11
 10593 03f4 62756600 		.ascii	"buf\000"
 10594 03f8 01       		.byte	0x1
 10595 03f9 41       		.byte	0x41
 10596 03fa CD030000 		.4byte	0x3cd
ARM GAS  C:\Users\arist\AppData\Local\Temp\ccSjK9zC.s 			page 216


 10597 03fe 01       		.uleb128 0x1
 10598 03ff 51       		.byte	0x51
 10599 0400 00       		.byte	0
 10600 0401 14       		.uleb128 0x14
 10601 0402 0C010000 		.4byte	.LASF67
 10602 0406 01       		.byte	0x1
 10603 0407 76       		.byte	0x76
 10604 0408 A9000000 		.4byte	0xa9
 10605 040c 00000000 		.4byte	.LFB3
 10606 0410 20000000 		.4byte	.LFE3-.LFB3
 10607 0414 01       		.uleb128 0x1
 10608 0415 9C       		.byte	0x9c
 10609 0416 58040000 		.4byte	0x458
 10610 041a 15       		.uleb128 0x15
 10611 041b 62756600 		.ascii	"buf\000"
 10612 041f 01       		.byte	0x1
 10613 0420 76       		.byte	0x76
 10614 0421 CD030000 		.4byte	0x3cd
 10615 0425 63000000 		.4byte	.LLST2
 10616 0429 13       		.uleb128 0x13
 10617 042a 64656600 		.ascii	"def\000"
 10618 042e 01       		.byte	0x1
 10619 042f 78       		.byte	0x78
 10620 0430 A9000000 		.4byte	0xa9
 10621 0434 9D000000 		.4byte	.LLST3
 10622 0438 16       		.uleb128 0x16
 10623 0439 7E000000 		.4byte	.LASF66
 10624 043d 01       		.byte	0x1
 10625 043e 79       		.byte	0x79
 10626 043f A9000000 		.4byte	0xa9
 10627 0443 BB000000 		.4byte	.LLST4
 10628 0447 17       		.uleb128 0x17
 10629 0448 18000000 		.4byte	.LVL10
 10630 044c 921A0000 		.4byte	0x1a92
 10631 0450 18       		.uleb128 0x18
 10632 0451 01       		.uleb128 0x1
 10633 0452 50       		.byte	0x50
 10634 0453 02       		.uleb128 0x2
 10635 0454 74       		.byte	0x74
 10636 0455 00       		.sleb128 0
 10637 0456 00       		.byte	0
 10638 0457 00       		.byte	0
 10639 0458 19       		.uleb128 0x19
 10640 0459 A4040000 		.4byte	.LASF34
 10641 045d 01       		.byte	0x1
 10642 045e 4F02     		.2byte	0x24f
 10643 0460 A9000000 		.4byte	0xa9
 10644 0464 00000000 		.4byte	.LFB14
 10645 0468 0E000000 		.4byte	.LFE14-.LFB14
 10646 046c 01       		.uleb128 0x1
 10647 046d 9C       		.byte	0x9c
 10648 046e 91040000 		.4byte	0x491
 10649 0472 1A       		.uleb128 0x1a
 10650 0473 F3010000 		.4byte	.LASF31
 10651 0477 01       		.byte	0x1
 10652 0478 4F02     		.2byte	0x24f
 10653 047a A9000000 		.4byte	0xa9
ARM GAS  C:\Users\arist\AppData\Local\Temp\ccSjK9zC.s 			page 217


 10654 047e F2000000 		.4byte	.LLST5
 10655 0482 1B       		.uleb128 0x1b
 10656 0483 4C040000 		.4byte	.LASF68
 10657 0487 01       		.byte	0x1
 10658 0488 5102     		.2byte	0x251
 10659 048a A9000000 		.4byte	0xa9
 10660 048e 01       		.uleb128 0x1
 10661 048f 53       		.byte	0x53
 10662 0490 00       		.byte	0
 10663 0491 19       		.uleb128 0x19
 10664 0492 95030000 		.4byte	.LASF69
 10665 0496 01       		.byte	0x1
 10666 0497 5A02     		.2byte	0x25a
 10667 0499 BF000000 		.4byte	0xbf
 10668 049d 00000000 		.4byte	.LFB15
 10669 04a1 0A000000 		.4byte	.LFE15-.LFB15
 10670 04a5 01       		.uleb128 0x1
 10671 04a6 9C       		.byte	0x9c
 10672 04a7 BC040000 		.4byte	0x4bc
 10673 04ab 1C       		.uleb128 0x1c
 10674 04ac 62756600 		.ascii	"buf\000"
 10675 04b0 01       		.byte	0x1
 10676 04b1 5A02     		.2byte	0x25a
 10677 04b3 CD030000 		.4byte	0x3cd
 10678 04b7 13010000 		.4byte	.LLST6
 10679 04bb 00       		.byte	0
 10680 04bc 14       		.uleb128 0x14
 10681 04bd E6020000 		.4byte	.LASF70
 10682 04c1 01       		.byte	0x1
 10683 04c2 1E       		.byte	0x1e
 10684 04c3 A9000000 		.4byte	0xa9
 10685 04c7 00000000 		.4byte	.LFB0
 10686 04cb 46000000 		.4byte	.LFE0-.LFB0
 10687 04cf 01       		.uleb128 0x1
 10688 04d0 9C       		.byte	0x9c
 10689 04d1 79050000 		.4byte	0x579
 10690 04d5 15       		.uleb128 0x15
 10691 04d6 62756600 		.ascii	"buf\000"
 10692 04da 01       		.byte	0x1
 10693 04db 1E       		.byte	0x1e
 10694 04dc CD030000 		.4byte	0x3cd
 10695 04e0 34010000 		.4byte	.LLST7
 10696 04e4 10       		.uleb128 0x10
 10697 04e5 F3010000 		.4byte	.LASF31
 10698 04e9 01       		.byte	0x1
 10699 04ea 1E       		.byte	0x1e
 10700 04eb A9000000 		.4byte	0xa9
 10701 04ef 52010000 		.4byte	.LLST8
 10702 04f3 10       		.uleb128 0x10
 10703 04f4 FA010000 		.4byte	.LASF32
 10704 04f8 01       		.byte	0x1
 10705 04f9 1E       		.byte	0x1e
 10706 04fa A9000000 		.4byte	0xa9
 10707 04fe 73010000 		.4byte	.LLST9
 10708 0502 1D       		.uleb128 0x1d
 10709 0503 7E000000 		.4byte	.LASF66
 10710 0507 01       		.byte	0x1
ARM GAS  C:\Users\arist\AppData\Local\Temp\ccSjK9zC.s 			page 218


 10711 0508 1F       		.byte	0x1f
 10712 0509 A9000000 		.4byte	0xa9
 10713 050d 00       		.byte	0
 10714 050e 1E       		.uleb128 0x1e
 10715 050f 0E000000 		.4byte	.LVL22
 10716 0513 58040000 		.4byte	0x458
 10717 0517 1F       		.uleb128 0x1f
 10718 0518 16000000 		.4byte	.LVL23
 10719 051c 91040000 		.4byte	0x491
 10720 0520 2B050000 		.4byte	0x52b
 10721 0524 18       		.uleb128 0x18
 10722 0525 01       		.uleb128 0x1
 10723 0526 50       		.byte	0x50
 10724 0527 02       		.uleb128 0x2
 10725 0528 74       		.byte	0x74
 10726 0529 00       		.sleb128 0
 10727 052a 00       		.byte	0
 10728 052b 1E       		.uleb128 0x1e
 10729 052c 1C000000 		.4byte	.LVL24
 10730 0530 9D1A0000 		.4byte	0x1a9d
 10731 0534 1F       		.uleb128 0x1f
 10732 0535 32000000 		.4byte	.LVL25
 10733 0539 01040000 		.4byte	0x401
 10734 053d 48050000 		.4byte	0x548
 10735 0541 18       		.uleb128 0x18
 10736 0542 01       		.uleb128 0x1
 10737 0543 50       		.byte	0x50
 10738 0544 02       		.uleb128 0x2
 10739 0545 74       		.byte	0x74
 10740 0546 00       		.sleb128 0
 10741 0547 00       		.byte	0
 10742 0548 1F       		.uleb128 0x1f
 10743 0549 3A000000 		.4byte	.LVL26
 10744 054d 88030000 		.4byte	0x388
 10745 0551 62050000 		.4byte	0x562
 10746 0555 18       		.uleb128 0x18
 10747 0556 01       		.uleb128 0x1
 10748 0557 50       		.byte	0x50
 10749 0558 02       		.uleb128 0x2
 10750 0559 75       		.byte	0x75
 10751 055a 00       		.sleb128 0
 10752 055b 18       		.uleb128 0x18
 10753 055c 01       		.uleb128 0x1
 10754 055d 51       		.byte	0x51
 10755 055e 02       		.uleb128 0x2
 10756 055f 74       		.byte	0x74
 10757 0560 00       		.sleb128 0
 10758 0561 00       		.byte	0
 10759 0562 17       		.uleb128 0x17
 10760 0563 42000000 		.4byte	.LVL27
 10761 0567 D3030000 		.4byte	0x3d3
 10762 056b 18       		.uleb128 0x18
 10763 056c 01       		.uleb128 0x1
 10764 056d 50       		.byte	0x50
 10765 056e 02       		.uleb128 0x2
 10766 056f 75       		.byte	0x75
 10767 0570 00       		.sleb128 0
ARM GAS  C:\Users\arist\AppData\Local\Temp\ccSjK9zC.s 			page 219


 10768 0571 18       		.uleb128 0x18
 10769 0572 01       		.uleb128 0x1
 10770 0573 51       		.byte	0x51
 10771 0574 02       		.uleb128 0x2
 10772 0575 74       		.byte	0x74
 10773 0576 00       		.sleb128 0
 10774 0577 00       		.byte	0
 10775 0578 00       		.byte	0
 10776 0579 19       		.uleb128 0x19
 10777 057a 84000000 		.4byte	.LASF71
 10778 057e 01       		.byte	0x1
 10779 057f 6202     		.2byte	0x262
 10780 0581 BF000000 		.4byte	0xbf
 10781 0585 00000000 		.4byte	.LFB16
 10782 0589 0C000000 		.4byte	.LFE16-.LFB16
 10783 058d 01       		.uleb128 0x1
 10784 058e 9C       		.byte	0x9c
 10785 058f C2050000 		.4byte	0x5c2
 10786 0593 1A       		.uleb128 0x1a
 10787 0594 BC050000 		.4byte	.LASF72
 10788 0598 01       		.byte	0x1
 10789 0599 6202     		.2byte	0x262
 10790 059b A9000000 		.4byte	0xa9
 10791 059f 94010000 		.4byte	.LLST10
 10792 05a3 20       		.uleb128 0x20
 10793 05a4 C2050000 		.4byte	.LASF73
 10794 05a8 01       		.byte	0x1
 10795 05a9 6202     		.2byte	0x262
 10796 05ab A9000000 		.4byte	0xa9
 10797 05af 01       		.uleb128 0x1
 10798 05b0 51       		.byte	0x51
 10799 05b1 1A       		.uleb128 0x1a
 10800 05b2 0A000000 		.4byte	.LASF74
 10801 05b6 01       		.byte	0x1
 10802 05b7 6202     		.2byte	0x262
 10803 05b9 A9000000 		.4byte	0xa9
 10804 05bd B5010000 		.4byte	.LLST11
 10805 05c1 00       		.byte	0
 10806 05c2 19       		.uleb128 0x19
 10807 05c3 BB020000 		.4byte	.LASF75
 10808 05c7 01       		.byte	0x1
 10809 05c8 DB01     		.2byte	0x1db
 10810 05ca A9000000 		.4byte	0xa9
 10811 05ce 00000000 		.4byte	.LFB9
 10812 05d2 E4000000 		.4byte	.LFE9-.LFB9
 10813 05d6 01       		.uleb128 0x1
 10814 05d7 9C       		.byte	0x9c
 10815 05d8 E4060000 		.4byte	0x6e4
 10816 05dc 20       		.uleb128 0x20
 10817 05dd 49010000 		.4byte	.LASF76
 10818 05e1 01       		.byte	0x1
 10819 05e2 DB01     		.2byte	0x1db
 10820 05e4 55020000 		.4byte	0x255
 10821 05e8 02       		.uleb128 0x2
 10822 05e9 91       		.byte	0x91
 10823 05ea 4C       		.sleb128 -52
 10824 05eb 1C       		.uleb128 0x1c
ARM GAS  C:\Users\arist\AppData\Local\Temp\ccSjK9zC.s 			page 220


 10825 05ec 7800     		.ascii	"x\000"
 10826 05ee 01       		.byte	0x1
 10827 05ef DB01     		.2byte	0x1db
 10828 05f1 A9000000 		.4byte	0xa9
 10829 05f5 D6010000 		.4byte	.LLST12
 10830 05f9 21       		.uleb128 0x21
 10831 05fa 7900     		.ascii	"y\000"
 10832 05fc 01       		.byte	0x1
 10833 05fd DB01     		.2byte	0x1db
 10834 05ff A9000000 		.4byte	0xa9
 10835 0603 02       		.uleb128 0x2
 10836 0604 91       		.byte	0x91
 10837 0605 00       		.sleb128 0
 10838 0606 21       		.uleb128 0x21
 10839 0607 62756600 		.ascii	"buf\000"
 10840 060b 01       		.byte	0x1
 10841 060c DB01     		.2byte	0x1db
 10842 060e CD030000 		.4byte	0x3cd
 10843 0612 02       		.uleb128 0x2
 10844 0613 91       		.byte	0x91
 10845 0614 04       		.sleb128 4
 10846 0615 22       		.uleb128 0x22
 10847 0616 7E000000 		.4byte	.LASF66
 10848 061a 01       		.byte	0x1
 10849 061b DC01     		.2byte	0x1dc
 10850 061d A9000000 		.4byte	0xa9
 10851 0621 00       		.byte	0
 10852 0622 23       		.uleb128 0x23
 10853 0623 59060000 		.4byte	.LASF77
 10854 0627 01       		.byte	0x1
 10855 0628 DD01     		.2byte	0x1dd
 10856 062a BF000000 		.4byte	0xbf
 10857 062e 10020000 		.4byte	.LLST13
 10858 0632 24       		.uleb128 0x24
 10859 0633 18000000 		.4byte	.Ldebug_ranges0+0x18
 10860 0637 C5060000 		.4byte	0x6c5
 10861 063b 23       		.uleb128 0x23
 10862 063c CF030000 		.4byte	.LASF78
 10863 0640 01       		.byte	0x1
 10864 0641 EC01     		.2byte	0x1ec
 10865 0643 A9000000 		.4byte	0xa9
 10866 0647 79020000 		.4byte	.LLST14
 10867 064b 23       		.uleb128 0x23
 10868 064c 7C040000 		.4byte	.LASF79
 10869 0650 01       		.byte	0x1
 10870 0651 ED01     		.2byte	0x1ed
 10871 0653 BF000000 		.4byte	0xbf
 10872 0657 8C020000 		.4byte	.LLST15
 10873 065b 23       		.uleb128 0x23
 10874 065c 62000000 		.4byte	.LASF80
 10875 0660 01       		.byte	0x1
 10876 0661 EE01     		.2byte	0x1ee
 10877 0663 BF000000 		.4byte	0xbf
 10878 0667 9F020000 		.4byte	.LLST16
 10879 066b 24       		.uleb128 0x24
 10880 066c 30000000 		.4byte	.Ldebug_ranges0+0x30
 10881 0670 A2060000 		.4byte	0x6a2
ARM GAS  C:\Users\arist\AppData\Local\Temp\ccSjK9zC.s 			page 221


 10882 0674 25       		.uleb128 0x25
 10883 0675 726F7700 		.ascii	"row\000"
 10884 0679 01       		.byte	0x1
 10885 067a F001     		.2byte	0x1f0
 10886 067c A9000000 		.4byte	0xa9
 10887 0680 BD020000 		.4byte	.LLST17
 10888 0684 17       		.uleb128 0x17
 10889 0685 B8000000 		.4byte	.LVL42
 10890 0689 A81A0000 		.4byte	0x1aa8
 10891 068d 18       		.uleb128 0x18
 10892 068e 01       		.uleb128 0x1
 10893 068f 51       		.byte	0x51
 10894 0690 09       		.uleb128 0x9
 10895 0691 79       		.byte	0x79
 10896 0692 00       		.sleb128 0
 10897 0693 77       		.byte	0x77
 10898 0694 00       		.sleb128 0
 10899 0695 1E       		.byte	0x1e
 10900 0696 91       		.byte	0x91
 10901 0697 54       		.sleb128 -44
 10902 0698 06       		.byte	0x6
 10903 0699 22       		.byte	0x22
 10904 069a 18       		.uleb128 0x18
 10905 069b 01       		.uleb128 0x1
 10906 069c 52       		.byte	0x52
 10907 069d 02       		.uleb128 0x2
 10908 069e 79       		.byte	0x79
 10909 069f 00       		.sleb128 0
 10910 06a0 00       		.byte	0
 10911 06a1 00       		.byte	0
 10912 06a2 17       		.uleb128 0x17
 10913 06a3 98000000 		.4byte	.LVL38
 10914 06a7 79050000 		.4byte	0x579
 10915 06ab 18       		.uleb128 0x18
 10916 06ac 01       		.uleb128 0x1
 10917 06ad 50       		.byte	0x50
 10918 06ae 04       		.uleb128 0x4
 10919 06af 7D       		.byte	0x7d
 10920 06b0 00       		.sleb128 0
 10921 06b1 94       		.byte	0x94
 10922 06b2 01       		.byte	0x1
 10923 06b3 18       		.uleb128 0x18
 10924 06b4 01       		.uleb128 0x1
 10925 06b5 51       		.byte	0x51
 10926 06b6 06       		.uleb128 0x6
 10927 06b7 76       		.byte	0x76
 10928 06b8 00       		.sleb128 0
 10929 06b9 20       		.byte	0x20
 10930 06ba 77       		.byte	0x77
 10931 06bb 00       		.sleb128 0
 10932 06bc 22       		.byte	0x22
 10933 06bd 18       		.uleb128 0x18
 10934 06be 01       		.uleb128 0x1
 10935 06bf 52       		.byte	0x52
 10936 06c0 02       		.uleb128 0x2
 10937 06c1 7A       		.byte	0x7a
 10938 06c2 00       		.sleb128 0
ARM GAS  C:\Users\arist\AppData\Local\Temp\ccSjK9zC.s 			page 222


 10939 06c3 00       		.byte	0
 10940 06c4 00       		.byte	0
 10941 06c5 17       		.uleb128 0x17
 10942 06c6 62000000 		.4byte	.LVL36
 10943 06ca 79050000 		.4byte	0x579
 10944 06ce 18       		.uleb128 0x18
 10945 06cf 01       		.uleb128 0x1
 10946 06d0 50       		.byte	0x50
 10947 06d1 04       		.uleb128 0x4
 10948 06d2 7D       		.byte	0x7d
 10949 06d3 00       		.sleb128 0
 10950 06d4 94       		.byte	0x94
 10951 06d5 01       		.byte	0x1
 10952 06d6 18       		.uleb128 0x18
 10953 06d7 01       		.uleb128 0x1
 10954 06d8 51       		.byte	0x51
 10955 06d9 02       		.uleb128 0x2
 10956 06da 76       		.byte	0x76
 10957 06db 00       		.sleb128 0
 10958 06dc 18       		.uleb128 0x18
 10959 06dd 01       		.uleb128 0x1
 10960 06de 52       		.byte	0x52
 10961 06df 02       		.uleb128 0x2
 10962 06e0 7A       		.byte	0x7a
 10963 06e1 00       		.sleb128 0
 10964 06e2 00       		.byte	0
 10965 06e3 00       		.byte	0
 10966 06e4 19       		.uleb128 0x19
 10967 06e5 1E040000 		.4byte	.LASF81
 10968 06e9 01       		.byte	0x1
 10969 06ea 6B02     		.2byte	0x26b
 10970 06ec BB010000 		.4byte	0x1bb
 10971 06f0 00000000 		.4byte	.LFB17
 10972 06f4 3C000000 		.4byte	.LFE17-.LFB17
 10973 06f8 01       		.uleb128 0x1
 10974 06f9 9C       		.byte	0x9c
 10975 06fa 4C070000 		.4byte	0x74c
 10976 06fe 1A       		.uleb128 0x1a
 10977 06ff BC050000 		.4byte	.LASF72
 10978 0703 01       		.byte	0x1
 10979 0704 6B02     		.2byte	0x26b
 10980 0706 A9000000 		.4byte	0xa9
 10981 070a E7020000 		.4byte	.LLST18
 10982 070e 1A       		.uleb128 0x1a
 10983 070f C2050000 		.4byte	.LASF73
 10984 0713 01       		.byte	0x1
 10985 0714 6B02     		.2byte	0x26b
 10986 0716 A9000000 		.4byte	0xa9
 10987 071a 08030000 		.4byte	.LLST19
 10988 071e 1C       		.uleb128 0x1c
 10989 071f 62756600 		.ascii	"buf\000"
 10990 0723 01       		.byte	0x1
 10991 0724 6B02     		.2byte	0x26b
 10992 0726 CD030000 		.4byte	0x3cd
 10993 072a 29030000 		.4byte	.LLST20
 10994 072e 26       		.uleb128 0x26
 10995 072f 706F7300 		.ascii	"pos\000"
ARM GAS  C:\Users\arist\AppData\Local\Temp\ccSjK9zC.s 			page 223


 10996 0733 01       		.byte	0x1
 10997 0734 6D02     		.2byte	0x26d
 10998 0736 BB010000 		.4byte	0x1bb
 10999 073a 01       		.uleb128 0x1
 11000 073b 50       		.byte	0x50
 11001 073c 17       		.uleb128 0x17
 11002 073d 0E000000 		.4byte	.LVL50
 11003 0741 9D1A0000 		.4byte	0x1a9d
 11004 0745 18       		.uleb128 0x18
 11005 0746 01       		.uleb128 0x1
 11006 0747 50       		.byte	0x50
 11007 0748 01       		.uleb128 0x1
 11008 0749 32       		.byte	0x32
 11009 074a 00       		.byte	0
 11010 074b 00       		.byte	0
 11011 074c 14       		.uleb128 0x14
 11012 074d D6040000 		.4byte	.LASF82
 11013 0751 01       		.byte	0x1
 11014 0752 86       		.byte	0x86
 11015 0753 A9000000 		.4byte	0xa9
 11016 0757 00000000 		.4byte	.LFB4
 11017 075b 90000000 		.4byte	.LFE4-.LFB4
 11018 075f 01       		.uleb128 0x1
 11019 0760 9C       		.byte	0x9c
 11020 0761 0C080000 		.4byte	0x80c
 11021 0765 10       		.uleb128 0x10
 11022 0766 BC050000 		.4byte	.LASF72
 11023 076a 01       		.byte	0x1
 11024 076b 86       		.byte	0x86
 11025 076c A9000000 		.4byte	0xa9
 11026 0770 47030000 		.4byte	.LLST21
 11027 0774 10       		.uleb128 0x10
 11028 0775 C2050000 		.4byte	.LASF73
 11029 0779 01       		.byte	0x1
 11030 077a 86       		.byte	0x86
 11031 077b A9000000 		.4byte	0xa9
 11032 077f 68030000 		.4byte	.LLST22
 11033 0783 10       		.uleb128 0x10
 11034 0784 8B040000 		.4byte	.LASF22
 11035 0788 01       		.byte	0x1
 11036 0789 86       		.byte	0x86
 11037 078a DF000000 		.4byte	0xdf
 11038 078e 89030000 		.4byte	.LLST23
 11039 0792 15       		.uleb128 0x15
 11040 0793 62756600 		.ascii	"buf\000"
 11041 0797 01       		.byte	0x1
 11042 0798 86       		.byte	0x86
 11043 0799 CD030000 		.4byte	0x3cd
 11044 079d CE030000 		.4byte	.LLST24
 11045 07a1 16       		.uleb128 0x16
 11046 07a2 7E000000 		.4byte	.LASF66
 11047 07a6 01       		.byte	0x1
 11048 07a7 88       		.byte	0x88
 11049 07a8 A9000000 		.4byte	0xa9
 11050 07ac 45040000 		.4byte	.LLST25
 11051 07b0 16       		.uleb128 0x16
 11052 07b1 2C010000 		.4byte	.LASF83
ARM GAS  C:\Users\arist\AppData\Local\Temp\ccSjK9zC.s 			page 224


 11053 07b5 01       		.byte	0x1
 11054 07b6 89       		.byte	0x89
 11055 07b7 BB010000 		.4byte	0x1bb
 11056 07bb 64040000 		.4byte	.LLST26
 11057 07bf 1F       		.uleb128 0x1f
 11058 07c0 0C000000 		.4byte	.LVL54
 11059 07c4 E4060000 		.4byte	0x6e4
 11060 07c8 D3070000 		.4byte	0x7d3
 11061 07cc 18       		.uleb128 0x18
 11062 07cd 01       		.uleb128 0x1
 11063 07ce 52       		.byte	0x52
 11064 07cf 02       		.uleb128 0x2
 11065 07d0 74       		.byte	0x74
 11066 07d1 00       		.sleb128 0
 11067 07d2 00       		.byte	0
 11068 07d3 1F       		.uleb128 0x1f
 11069 07d4 46000000 		.4byte	.LVL59
 11070 07d8 79050000 		.4byte	0x579
 11071 07dc E7070000 		.4byte	0x7e7
 11072 07e0 18       		.uleb128 0x18
 11073 07e1 01       		.uleb128 0x1
 11074 07e2 50       		.byte	0x50
 11075 07e3 02       		.uleb128 0x2
 11076 07e4 76       		.byte	0x76
 11077 07e5 00       		.sleb128 0
 11078 07e6 00       		.byte	0
 11079 07e7 1F       		.uleb128 0x1f
 11080 07e8 6A000000 		.4byte	.LVL64
 11081 07ec 79050000 		.4byte	0x579
 11082 07f0 FB070000 		.4byte	0x7fb
 11083 07f4 18       		.uleb128 0x18
 11084 07f5 01       		.uleb128 0x1
 11085 07f6 50       		.byte	0x50
 11086 07f7 02       		.uleb128 0x2
 11087 07f8 76       		.byte	0x76
 11088 07f9 00       		.sleb128 0
 11089 07fa 00       		.byte	0
 11090 07fb 17       		.uleb128 0x17
 11091 07fc 8C000000 		.4byte	.LVL70
 11092 0800 B31A0000 		.4byte	0x1ab3
 11093 0804 18       		.uleb128 0x18
 11094 0805 01       		.uleb128 0x1
 11095 0806 50       		.byte	0x50
 11096 0807 02       		.uleb128 0x2
 11097 0808 75       		.byte	0x75
 11098 0809 00       		.sleb128 0
 11099 080a 00       		.byte	0
 11100 080b 00       		.byte	0
 11101 080c 19       		.uleb128 0x19
 11102 080d 1E000000 		.4byte	.LASF84
 11103 0811 01       		.byte	0x1
 11104 0812 0002     		.2byte	0x200
 11105 0814 A9000000 		.4byte	0xa9
 11106 0818 00000000 		.4byte	.LFB10
 11107 081c 6A000000 		.4byte	.LFE10-.LFB10
 11108 0820 01       		.uleb128 0x1
 11109 0821 9C       		.byte	0x9c
ARM GAS  C:\Users\arist\AppData\Local\Temp\ccSjK9zC.s 			page 225


 11110 0822 D8080000 		.4byte	0x8d8
 11111 0826 1C       		.uleb128 0x1c
 11112 0827 6F5F7800 		.ascii	"o_x\000"
 11113 082b 01       		.byte	0x1
 11114 082c 0002     		.2byte	0x200
 11115 082e A9000000 		.4byte	0xa9
 11116 0832 AE040000 		.4byte	.LLST27
 11117 0836 1C       		.uleb128 0x1c
 11118 0837 6F5F7900 		.ascii	"o_y\000"
 11119 083b 01       		.byte	0x1
 11120 083c 0002     		.2byte	0x200
 11121 083e A9000000 		.4byte	0xa9
 11122 0842 CF040000 		.4byte	.LLST28
 11123 0846 1C       		.uleb128 0x1c
 11124 0847 7200     		.ascii	"r\000"
 11125 0849 01       		.byte	0x1
 11126 084a 0002     		.2byte	0x200
 11127 084c A9000000 		.4byte	0xa9
 11128 0850 F0040000 		.4byte	.LLST29
 11129 0854 1C       		.uleb128 0x1c
 11130 0855 62756600 		.ascii	"buf\000"
 11131 0859 01       		.byte	0x1
 11132 085a 0002     		.2byte	0x200
 11133 085c CD030000 		.4byte	0x3cd
 11134 0860 11050000 		.4byte	.LLST30
 11135 0864 23       		.uleb128 0x23
 11136 0865 7E000000 		.4byte	.LASF66
 11137 0869 01       		.byte	0x1
 11138 086a 0202     		.2byte	0x202
 11139 086c A9000000 		.4byte	0xa9
 11140 0870 30050000 		.4byte	.LLST31
 11141 0874 25       		.uleb128 0x25
 11142 0875 7300     		.ascii	"s\000"
 11143 0877 01       		.byte	0x1
 11144 0878 0302     		.2byte	0x203
 11145 087a BF000000 		.4byte	0xbf
 11146 087e 5A050000 		.4byte	.LLST32
 11147 0882 1B       		.uleb128 0x1b
 11148 0883 53020000 		.4byte	.LASF85
 11149 0887 01       		.byte	0x1
 11150 0888 0402     		.2byte	0x204
 11151 088a BF000000 		.4byte	0xbf
 11152 088e 01       		.uleb128 0x1
 11153 088f 57       		.byte	0x57
 11154 0890 12       		.uleb128 0x12
 11155 0891 48000000 		.4byte	.Ldebug_ranges0+0x48
 11156 0895 25       		.uleb128 0x25
 11157 0896 7900     		.ascii	"y\000"
 11158 0898 01       		.byte	0x1
 11159 0899 0602     		.2byte	0x206
 11160 089b B4000000 		.4byte	0xb4
 11161 089f 6E050000 		.4byte	.LLST33
 11162 08a3 12       		.uleb128 0x12
 11163 08a4 60000000 		.4byte	.Ldebug_ranges0+0x60
 11164 08a8 25       		.uleb128 0x25
 11165 08a9 7800     		.ascii	"x\000"
 11166 08ab 01       		.byte	0x1
ARM GAS  C:\Users\arist\AppData\Local\Temp\ccSjK9zC.s 			page 226


 11167 08ac 0702     		.2byte	0x207
 11168 08ae B4000000 		.4byte	0xb4
 11169 08b2 97050000 		.4byte	.LLST34
 11170 08b6 17       		.uleb128 0x17
 11171 08b7 4E000000 		.4byte	.LVL80
 11172 08bb 4C070000 		.4byte	0x74c
 11173 08bf 18       		.uleb128 0x18
 11174 08c0 01       		.uleb128 0x1
 11175 08c1 51       		.byte	0x51
 11176 08c2 05       		.uleb128 0x5
 11177 08c3 7A       		.byte	0x7a
 11178 08c4 00       		.sleb128 0
 11179 08c5 76       		.byte	0x76
 11180 08c6 00       		.sleb128 0
 11181 08c7 22       		.byte	0x22
 11182 08c8 18       		.uleb128 0x18
 11183 08c9 01       		.uleb128 0x1
 11184 08ca 52       		.byte	0x52
 11185 08cb 01       		.uleb128 0x1
 11186 08cc 31       		.byte	0x31
 11187 08cd 18       		.uleb128 0x18
 11188 08ce 01       		.uleb128 0x1
 11189 08cf 53       		.byte	0x53
 11190 08d0 03       		.uleb128 0x3
 11191 08d1 91       		.byte	0x91
 11192 08d2 54       		.sleb128 -44
 11193 08d3 06       		.byte	0x6
 11194 08d4 00       		.byte	0
 11195 08d5 00       		.byte	0
 11196 08d6 00       		.byte	0
 11197 08d7 00       		.byte	0
 11198 08d8 19       		.uleb128 0x19
 11199 08d9 68020000 		.4byte	.LASF86
 11200 08dd 01       		.byte	0x1
 11201 08de AB02     		.2byte	0x2ab
 11202 08e0 BF000000 		.4byte	0xbf
 11203 08e4 00000000 		.4byte	.LFB19
 11204 08e8 48000000 		.4byte	.LFE19-.LFB19
 11205 08ec 01       		.uleb128 0x1
 11206 08ed 9C       		.byte	0x9c
 11207 08ee 01090000 		.4byte	0x901
 11208 08f2 1C       		.uleb128 0x1c
 11209 08f3 6200     		.ascii	"b\000"
 11210 08f5 01       		.byte	0x1
 11211 08f6 AB02     		.2byte	0x2ab
 11212 08f8 BF000000 		.4byte	0xbf
 11213 08fc D8050000 		.4byte	.LLST35
 11214 0900 00       		.byte	0
 11215 0901 19       		.uleb128 0x19
 11216 0902 20030000 		.4byte	.LASF87
 11217 0906 01       		.byte	0x1
 11218 0907 7702     		.2byte	0x277
 11219 0909 0A0A0000 		.4byte	0xa0a
 11220 090d 00000000 		.4byte	.LFB18
 11221 0911 F8000000 		.4byte	.LFE18-.LFB18
 11222 0915 01       		.uleb128 0x1
 11223 0916 9C       		.byte	0x9c
ARM GAS  C:\Users\arist\AppData\Local\Temp\ccSjK9zC.s 			page 227


 11224 0917 0A0A0000 		.4byte	0xa0a
 11225 091b 1C       		.uleb128 0x1c
 11226 091c 63687200 		.ascii	"chr\000"
 11227 0920 01       		.byte	0x1
 11228 0921 7702     		.2byte	0x277
 11229 0923 0A0A0000 		.4byte	0xa0a
 11230 0927 25060000 		.4byte	.LLST36
 11231 092b 1C       		.uleb128 0x1c
 11232 092c 62756600 		.ascii	"buf\000"
 11233 0930 01       		.byte	0x1
 11234 0931 7702     		.2byte	0x277
 11235 0933 CD030000 		.4byte	0x3cd
 11236 0937 51060000 		.4byte	.LLST37
 11237 093b 23       		.uleb128 0x23
 11238 093c C8020000 		.4byte	.LASF88
 11239 0940 01       		.byte	0x1
 11240 0941 7902     		.2byte	0x279
 11241 0943 0A0A0000 		.4byte	0xa0a
 11242 0947 C8060000 		.4byte	.LLST38
 11243 094b 23       		.uleb128 0x23
 11244 094c C8030000 		.4byte	.LASF89
 11245 0950 01       		.byte	0x1
 11246 0951 7E02     		.2byte	0x27e
 11247 0953 0A0A0000 		.4byte	0xa0a
 11248 0957 33070000 		.4byte	.LLST39
 11249 095b 25       		.uleb128 0x25
 11250 095c 62697400 		.ascii	"bit\000"
 11251 0960 01       		.byte	0x1
 11252 0961 7F02     		.2byte	0x27f
 11253 0963 BF000000 		.4byte	0xbf
 11254 0967 B4070000 		.4byte	.LLST40
 11255 096b 27       		.uleb128 0x27
 11256 096c 10000000 		.4byte	.LBB12
 11257 0970 16000000 		.4byte	.LBE12-.LBB12
 11258 0974 87090000 		.4byte	0x987
 11259 0978 25       		.uleb128 0x25
 11260 0979 6900     		.ascii	"i\000"
 11261 097b 01       		.byte	0x1
 11262 097c 7B02     		.2byte	0x27b
 11263 097e A9000000 		.4byte	0xa9
 11264 0982 60080000 		.4byte	.LLST41
 11265 0986 00       		.byte	0
 11266 0987 24       		.uleb128 0x24
 11267 0988 78000000 		.4byte	.Ldebug_ranges0+0x78
 11268 098c A8090000 		.4byte	0x9a8
 11269 0990 25       		.uleb128 0x25
 11270 0991 6900     		.ascii	"i\000"
 11271 0993 01       		.byte	0x1
 11272 0994 8902     		.2byte	0x289
 11273 0996 A9000000 		.4byte	0xa9
 11274 099a 8A080000 		.4byte	.LLST42
 11275 099e 1E       		.uleb128 0x1e
 11276 099f 50000000 		.4byte	.LVL104
 11277 09a3 D8080000 		.4byte	0x8d8
 11278 09a7 00       		.byte	0
 11279 09a8 24       		.uleb128 0x24
 11280 09a9 90000000 		.4byte	.Ldebug_ranges0+0x90
ARM GAS  C:\Users\arist\AppData\Local\Temp\ccSjK9zC.s 			page 228


 11281 09ad D4090000 		.4byte	0x9d4
 11282 09b1 25       		.uleb128 0x25
 11283 09b2 6900     		.ascii	"i\000"
 11284 09b4 01       		.byte	0x1
 11285 09b5 9002     		.2byte	0x290
 11286 09b7 A9000000 		.4byte	0xa9
 11287 09bb B3080000 		.4byte	.LLST43
 11288 09bf 12       		.uleb128 0x12
 11289 09c0 A8000000 		.4byte	.Ldebug_ranges0+0xa8
 11290 09c4 25       		.uleb128 0x25
 11291 09c5 6A00     		.ascii	"j\000"
 11292 09c7 01       		.byte	0x1
 11293 09c8 9102     		.2byte	0x291
 11294 09ca A9000000 		.4byte	0xa9
 11295 09ce DC080000 		.4byte	.LLST44
 11296 09d2 00       		.byte	0
 11297 09d3 00       		.byte	0
 11298 09d4 24       		.uleb128 0x24
 11299 09d5 C0000000 		.4byte	.Ldebug_ranges0+0xc0
 11300 09d9 000A0000 		.4byte	0xa00
 11301 09dd 25       		.uleb128 0x25
 11302 09de 6900     		.ascii	"i\000"
 11303 09e0 01       		.byte	0x1
 11304 09e1 9B02     		.2byte	0x29b
 11305 09e3 A9000000 		.4byte	0xa9
 11306 09e7 05090000 		.4byte	.LLST45
 11307 09eb 12       		.uleb128 0x12
 11308 09ec D8000000 		.4byte	.Ldebug_ranges0+0xd8
 11309 09f0 25       		.uleb128 0x25
 11310 09f1 6A00     		.ascii	"j\000"
 11311 09f3 01       		.byte	0x1
 11312 09f4 9C02     		.2byte	0x29c
 11313 09f6 A9000000 		.4byte	0xa9
 11314 09fa 2E090000 		.4byte	.LLST46
 11315 09fe 00       		.byte	0
 11316 09ff 00       		.byte	0
 11317 0a00 1E       		.uleb128 0x1e
 11318 0a01 0E000000 		.4byte	.LVL96
 11319 0a05 9D1A0000 		.4byte	0x1a9d
 11320 0a09 00       		.byte	0
 11321 0a0a 0A       		.uleb128 0xa
 11322 0a0b 04       		.byte	0x4
 11323 0a0c BF000000 		.4byte	0xbf
 11324 0a10 19       		.uleb128 0x19
 11325 0a11 5F020000 		.4byte	.LASF90
 11326 0a15 01       		.byte	0x1
 11327 0a16 5F01     		.2byte	0x15f
 11328 0a18 A9000000 		.4byte	0xa9
 11329 0a1c 00000000 		.4byte	.LFB7
 11330 0a20 9C010000 		.4byte	.LFE7-.LFB7
 11331 0a24 01       		.uleb128 0x1
 11332 0a25 9C       		.byte	0x9c
 11333 0a26 A80B0000 		.4byte	0xba8
 11334 0a2a 1A       		.uleb128 0x1a
 11335 0a2b BC050000 		.4byte	.LASF72
 11336 0a2f 01       		.byte	0x1
 11337 0a30 5F01     		.2byte	0x15f
ARM GAS  C:\Users\arist\AppData\Local\Temp\ccSjK9zC.s 			page 229


 11338 0a32 A9000000 		.4byte	0xa9
 11339 0a36 57090000 		.4byte	.LLST47
 11340 0a3a 1A       		.uleb128 0x1a
 11341 0a3b C2050000 		.4byte	.LASF73
 11342 0a3f 01       		.byte	0x1
 11343 0a40 5F01     		.2byte	0x15f
 11344 0a42 A9000000 		.4byte	0xa9
 11345 0a46 DC090000 		.4byte	.LLST48
 11346 0a4a 1C       		.uleb128 0x1c
 11347 0a4b 63687200 		.ascii	"chr\000"
 11348 0a4f 01       		.byte	0x1
 11349 0a50 5F01     		.2byte	0x15f
 11350 0a52 A9000000 		.4byte	0xa9
 11351 0a56 610A0000 		.4byte	.LLST49
 11352 0a5a 1C       		.uleb128 0x1c
 11353 0a5b 666600   		.ascii	"ff\000"
 11354 0a5e 01       		.byte	0x1
 11355 0a5f 5F01     		.2byte	0x15f
 11356 0a61 60020000 		.4byte	0x260
 11357 0a65 B40A0000 		.4byte	.LLST50
 11358 0a69 1C       		.uleb128 0x1c
 11359 0a6a 62756600 		.ascii	"buf\000"
 11360 0a6e 01       		.byte	0x1
 11361 0a6f 5F01     		.2byte	0x15f
 11362 0a71 CD030000 		.4byte	0x3cd
 11363 0a75 070B0000 		.4byte	.LLST51
 11364 0a79 23       		.uleb128 0x23
 11365 0a7a 7E000000 		.4byte	.LASF66
 11366 0a7e 01       		.byte	0x1
 11367 0a7f 6101     		.2byte	0x161
 11368 0a81 A9000000 		.4byte	0xa9
 11369 0a85 270B0000 		.4byte	.LLST52
 11370 0a89 23       		.uleb128 0x23
 11371 0a8a 2C010000 		.4byte	.LASF83
 11372 0a8e 01       		.byte	0x1
 11373 0a8f 6201     		.2byte	0x162
 11374 0a91 BB010000 		.4byte	0x1bb
 11375 0a95 460B0000 		.4byte	.LLST53
 11376 0a99 25       		.uleb128 0x25
 11377 0a9a 6300     		.ascii	"c\000"
 11378 0a9c 01       		.byte	0x1
 11379 0a9d 6301     		.2byte	0x163
 11380 0a9f 0A0A0000 		.4byte	0xa0a
 11381 0aa3 A60B0000 		.4byte	.LLST54
 11382 0aa7 24       		.uleb128 0x24
 11383 0aa8 F0000000 		.4byte	.Ldebug_ranges0+0xf0
 11384 0aac 330B0000 		.4byte	0xb33
 11385 0ab0 23       		.uleb128 0x23
 11386 0ab1 7C040000 		.4byte	.LASF79
 11387 0ab5 01       		.byte	0x1
 11388 0ab6 9801     		.2byte	0x198
 11389 0ab8 BF000000 		.4byte	0xbf
 11390 0abc E50B0000 		.4byte	.LLST55
 11391 0ac0 23       		.uleb128 0x23
 11392 0ac1 62000000 		.4byte	.LASF80
 11393 0ac5 01       		.byte	0x1
 11394 0ac6 9901     		.2byte	0x199
ARM GAS  C:\Users\arist\AppData\Local\Temp\ccSjK9zC.s 			page 230


 11395 0ac8 BF000000 		.4byte	0xbf
 11396 0acc F80B0000 		.4byte	.LLST56
 11397 0ad0 23       		.uleb128 0x23
 11398 0ad1 70040000 		.4byte	.LASF91
 11399 0ad5 01       		.byte	0x1
 11400 0ad6 9A01     		.2byte	0x19a
 11401 0ad8 BF000000 		.4byte	0xbf
 11402 0adc 230C0000 		.4byte	.LLST57
 11403 0ae0 23       		.uleb128 0x23
 11404 0ae1 2C030000 		.4byte	.LASF92
 11405 0ae5 01       		.byte	0x1
 11406 0ae6 9B01     		.2byte	0x19b
 11407 0ae8 A9000000 		.4byte	0xa9
 11408 0aec 750C0000 		.4byte	.LLST58
 11409 0af0 24       		.uleb128 0x24
 11410 0af1 08010000 		.4byte	.Ldebug_ranges0+0x108
 11411 0af5 080B0000 		.4byte	0xb08
 11412 0af9 25       		.uleb128 0x25
 11413 0afa 6900     		.ascii	"i\000"
 11414 0afc 01       		.byte	0x1
 11415 0afd 9D01     		.2byte	0x19d
 11416 0aff A9000000 		.4byte	0xa9
 11417 0b03 880C0000 		.4byte	.LLST59
 11418 0b07 00       		.byte	0
 11419 0b08 1F       		.uleb128 0x1f
 11420 0b09 E0000000 		.4byte	.LVL169
 11421 0b0d 01090000 		.4byte	0x901
 11422 0b11 220B0000 		.4byte	0xb22
 11423 0b15 18       		.uleb128 0x18
 11424 0b16 01       		.uleb128 0x1
 11425 0b17 50       		.byte	0x50
 11426 0b18 02       		.uleb128 0x2
 11427 0b19 76       		.byte	0x76
 11428 0b1a 00       		.sleb128 0
 11429 0b1b 18       		.uleb128 0x18
 11430 0b1c 01       		.uleb128 0x1
 11431 0b1d 51       		.byte	0x51
 11432 0b1e 02       		.uleb128 0x2
 11433 0b1f 74       		.byte	0x74
 11434 0b20 00       		.sleb128 0
 11435 0b21 00       		.byte	0
 11436 0b22 17       		.uleb128 0x17
 11437 0b23 F6000000 		.4byte	.LVL172
 11438 0b27 79050000 		.4byte	0x579
 11439 0b2b 18       		.uleb128 0x18
 11440 0b2c 01       		.uleb128 0x1
 11441 0b2d 50       		.byte	0x50
 11442 0b2e 02       		.uleb128 0x2
 11443 0b2f 77       		.byte	0x77
 11444 0b30 00       		.sleb128 0
 11445 0b31 00       		.byte	0
 11446 0b32 00       		.byte	0
 11447 0b33 1F       		.uleb128 0x1f
 11448 0b34 66000000 		.4byte	.LVL150
 11449 0b38 E4060000 		.4byte	0x6e4
 11450 0b3c 470B0000 		.4byte	0xb47
 11451 0b40 18       		.uleb128 0x18
ARM GAS  C:\Users\arist\AppData\Local\Temp\ccSjK9zC.s 			page 231


 11452 0b41 01       		.uleb128 0x1
 11453 0b42 52       		.byte	0x52
 11454 0b43 02       		.uleb128 0x2
 11455 0b44 74       		.byte	0x74
 11456 0b45 00       		.sleb128 0
 11457 0b46 00       		.byte	0
 11458 0b47 1F       		.uleb128 0x1f
 11459 0b48 82000000 		.4byte	.LVL155
 11460 0b4c E4060000 		.4byte	0x6e4
 11461 0b50 5B0B0000 		.4byte	0xb5b
 11462 0b54 18       		.uleb128 0x18
 11463 0b55 01       		.uleb128 0x1
 11464 0b56 52       		.byte	0x52
 11465 0b57 02       		.uleb128 0x2
 11466 0b58 74       		.byte	0x74
 11467 0b59 00       		.sleb128 0
 11468 0b5a 00       		.byte	0
 11469 0b5b 1F       		.uleb128 0x1f
 11470 0b5c 94000000 		.4byte	.LVL159
 11471 0b60 E4060000 		.4byte	0x6e4
 11472 0b64 6F0B0000 		.4byte	0xb6f
 11473 0b68 18       		.uleb128 0x18
 11474 0b69 01       		.uleb128 0x1
 11475 0b6a 52       		.byte	0x52
 11476 0b6b 02       		.uleb128 0x2
 11477 0b6c 74       		.byte	0x74
 11478 0b6d 00       		.sleb128 0
 11479 0b6e 00       		.byte	0
 11480 0b6f 1F       		.uleb128 0x1f
 11481 0b70 A8000000 		.4byte	.LVL163
 11482 0b74 E4060000 		.4byte	0x6e4
 11483 0b78 830B0000 		.4byte	0xb83
 11484 0b7c 18       		.uleb128 0x18
 11485 0b7d 01       		.uleb128 0x1
 11486 0b7e 52       		.byte	0x52
 11487 0b7f 02       		.uleb128 0x2
 11488 0b80 74       		.byte	0x74
 11489 0b81 00       		.sleb128 0
 11490 0b82 00       		.byte	0
 11491 0b83 1F       		.uleb128 0x1f
 11492 0b84 B2000000 		.4byte	.LVL166
 11493 0b88 E4060000 		.4byte	0x6e4
 11494 0b8c 970B0000 		.4byte	0xb97
 11495 0b90 18       		.uleb128 0x18
 11496 0b91 01       		.uleb128 0x1
 11497 0b92 52       		.byte	0x52
 11498 0b93 02       		.uleb128 0x2
 11499 0b94 74       		.byte	0x74
 11500 0b95 00       		.sleb128 0
 11501 0b96 00       		.byte	0
 11502 0b97 17       		.uleb128 0x17
 11503 0b98 8A010000 		.4byte	.LVL187
 11504 0b9c B31A0000 		.4byte	0x1ab3
 11505 0ba0 18       		.uleb128 0x18
 11506 0ba1 01       		.uleb128 0x1
 11507 0ba2 50       		.byte	0x50
 11508 0ba3 02       		.uleb128 0x2
ARM GAS  C:\Users\arist\AppData\Local\Temp\ccSjK9zC.s 			page 232


 11509 0ba4 75       		.byte	0x75
 11510 0ba5 00       		.sleb128 0
 11511 0ba6 00       		.byte	0
 11512 0ba7 00       		.byte	0
 11513 0ba8 19       		.uleb128 0x19
 11514 0ba9 9A020000 		.4byte	.LASF93
 11515 0bad 01       		.byte	0x1
 11516 0bae B601     		.2byte	0x1b6
 11517 0bb0 A9000000 		.4byte	0xa9
 11518 0bb4 00000000 		.4byte	.LFB8
 11519 0bb8 78000000 		.4byte	.LFE8-.LFB8
 11520 0bbc 01       		.uleb128 0x1
 11521 0bbd 9C       		.byte	0x9c
 11522 0bbe 870C0000 		.4byte	0xc87
 11523 0bc2 1A       		.uleb128 0x1a
 11524 0bc3 BC050000 		.4byte	.LASF72
 11525 0bc7 01       		.byte	0x1
 11526 0bc8 B601     		.2byte	0x1b6
 11527 0bca A9000000 		.4byte	0xa9
 11528 0bce B20C0000 		.4byte	.LLST60
 11529 0bd2 1A       		.uleb128 0x1a
 11530 0bd3 C2050000 		.4byte	.LASF73
 11531 0bd7 01       		.byte	0x1
 11532 0bd8 B601     		.2byte	0x1b6
 11533 0bda A9000000 		.4byte	0xa9
 11534 0bde EC0C0000 		.4byte	.LLST61
 11535 0be2 1C       		.uleb128 0x1c
 11536 0be3 63687200 		.ascii	"chr\000"
 11537 0be7 01       		.byte	0x1
 11538 0be8 B601     		.2byte	0x1b6
 11539 0bea BB010000 		.4byte	0x1bb
 11540 0bee 260D0000 		.4byte	.LLST62
 11541 0bf2 1C       		.uleb128 0x1c
 11542 0bf3 666600   		.ascii	"ff\000"
 11543 0bf6 01       		.byte	0x1
 11544 0bf7 B601     		.2byte	0x1b6
 11545 0bf9 60020000 		.4byte	0x260
 11546 0bfd 680D0000 		.4byte	.LLST63
 11547 0c01 1C       		.uleb128 0x1c
 11548 0c02 62756600 		.ascii	"buf\000"
 11549 0c06 01       		.byte	0x1
 11550 0c07 B601     		.2byte	0x1b6
 11551 0c09 CD030000 		.4byte	0x3cd
 11552 0c0d A20D0000 		.4byte	.LLST64
 11553 0c11 23       		.uleb128 0x23
 11554 0c12 7E000000 		.4byte	.LASF66
 11555 0c16 01       		.byte	0x1
 11556 0c17 B801     		.2byte	0x1b8
 11557 0c19 A9000000 		.4byte	0xa9
 11558 0c1d C20D0000 		.4byte	.LLST65
 11559 0c21 25       		.uleb128 0x25
 11560 0c22 6900     		.ascii	"i\000"
 11561 0c24 01       		.byte	0x1
 11562 0c25 B901     		.2byte	0x1b9
 11563 0c27 A9000000 		.4byte	0xa9
 11564 0c2b 0E0E0000 		.4byte	.LLST66
 11565 0c2f 23       		.uleb128 0x23
ARM GAS  C:\Users\arist\AppData\Local\Temp\ccSjK9zC.s 			page 233


 11566 0c30 C8000000 		.4byte	.LASF94
 11567 0c34 01       		.byte	0x1
 11568 0c35 BA01     		.2byte	0x1ba
 11569 0c37 A9000000 		.4byte	0xa9
 11570 0c3b 4F0E0000 		.4byte	.LLST67
 11571 0c3f 23       		.uleb128 0x23
 11572 0c40 1A050000 		.4byte	.LASF95
 11573 0c44 01       		.byte	0x1
 11574 0c45 BB01     		.2byte	0x1bb
 11575 0c47 A9000000 		.4byte	0xa9
 11576 0c4b 8E0E0000 		.4byte	.LLST68
 11577 0c4f 1F       		.uleb128 0x1f
 11578 0c50 38000000 		.4byte	.LVL194
 11579 0c54 100A0000 		.4byte	0xa10
 11580 0c58 760C0000 		.4byte	0xc76
 11581 0c5c 18       		.uleb128 0x18
 11582 0c5d 01       		.uleb128 0x1
 11583 0c5e 50       		.byte	0x50
 11584 0c5f 02       		.uleb128 0x2
 11585 0c60 76       		.byte	0x76
 11586 0c61 00       		.sleb128 0
 11587 0c62 18       		.uleb128 0x18
 11588 0c63 01       		.uleb128 0x1
 11589 0c64 51       		.byte	0x51
 11590 0c65 02       		.uleb128 0x2
 11591 0c66 77       		.byte	0x77
 11592 0c67 00       		.sleb128 0
 11593 0c68 18       		.uleb128 0x18
 11594 0c69 01       		.uleb128 0x1
 11595 0c6a 53       		.byte	0x53
 11596 0c6b 02       		.uleb128 0x2
 11597 0c6c 79       		.byte	0x79
 11598 0c6d 00       		.sleb128 0
 11599 0c6e 18       		.uleb128 0x18
 11600 0c6f 02       		.uleb128 0x2
 11601 0c70 7D       		.byte	0x7d
 11602 0c71 00       		.sleb128 0
 11603 0c72 02       		.uleb128 0x2
 11604 0c73 7A       		.byte	0x7a
 11605 0c74 00       		.sleb128 0
 11606 0c75 00       		.byte	0
 11607 0c76 17       		.uleb128 0x17
 11608 0c77 68000000 		.4byte	.LVL203
 11609 0c7b BE1A0000 		.4byte	0x1abe
 11610 0c7f 18       		.uleb128 0x18
 11611 0c80 01       		.uleb128 0x1
 11612 0c81 50       		.byte	0x50
 11613 0c82 02       		.uleb128 0x2
 11614 0c83 75       		.byte	0x75
 11615 0c84 00       		.sleb128 0
 11616 0c85 00       		.byte	0
 11617 0c86 00       		.byte	0
 11618 0c87 19       		.uleb128 0x19
 11619 0c88 52000000 		.4byte	.LASF96
 11620 0c8c 01       		.byte	0x1
 11621 0c8d B602     		.2byte	0x2b6
 11622 0c8f A9000000 		.4byte	0xa9
ARM GAS  C:\Users\arist\AppData\Local\Temp\ccSjK9zC.s 			page 234


 11623 0c93 00000000 		.4byte	.LFB20
 11624 0c97 0A000000 		.4byte	.LFE20-.LFB20
 11625 0c9b 01       		.uleb128 0x1
 11626 0c9c 9C       		.byte	0x9c
 11627 0c9d B00C0000 		.4byte	0xcb0
 11628 0ca1 1C       		.uleb128 0x1c
 11629 0ca2 6E00     		.ascii	"n\000"
 11630 0ca4 01       		.byte	0x1
 11631 0ca5 B602     		.2byte	0x2b6
 11632 0ca7 9E000000 		.4byte	0x9e
 11633 0cab CD0E0000 		.4byte	.LLST69
 11634 0caf 00       		.byte	0
 11635 0cb0 14       		.uleb128 0x14
 11636 0cb1 07020000 		.4byte	.LASF97
 11637 0cb5 01       		.byte	0x1
 11638 0cb6 F0       		.byte	0xf0
 11639 0cb7 A9000000 		.4byte	0xa9
 11640 0cbb 00000000 		.4byte	.LFB6
 11641 0cbf 10020000 		.4byte	.LFE6-.LFB6
 11642 0cc3 01       		.uleb128 0x1
 11643 0cc4 9C       		.byte	0x9c
 11644 0cc5 4E0E0000 		.4byte	0xe4e
 11645 0cc9 10       		.uleb128 0x10
 11646 0cca BC050000 		.4byte	.LASF72
 11647 0cce 01       		.byte	0x1
 11648 0ccf F0       		.byte	0xf0
 11649 0cd0 A9000000 		.4byte	0xa9
 11650 0cd4 EE0E0000 		.4byte	.LLST70
 11651 0cd8 10       		.uleb128 0x10
 11652 0cd9 C2050000 		.4byte	.LASF73
 11653 0cdd 01       		.byte	0x1
 11654 0cde F0       		.byte	0xf0
 11655 0cdf A9000000 		.4byte	0xa9
 11656 0ce3 0F0F0000 		.4byte	.LLST71
 11657 0ce7 10       		.uleb128 0x10
 11658 0ce8 01020000 		.4byte	.LASF40
 11659 0cec 01       		.byte	0x1
 11660 0ced F0       		.byte	0xf0
 11661 0cee A9000000 		.4byte	0xa9
 11662 0cf2 300F0000 		.4byte	.LLST72
 11663 0cf6 10       		.uleb128 0x10
 11664 0cf7 B6030000 		.4byte	.LASF41
 11665 0cfb 01       		.byte	0x1
 11666 0cfc F0       		.byte	0xf0
 11667 0cfd A9000000 		.4byte	0xa9
 11668 0d01 510F0000 		.4byte	.LLST73
 11669 0d05 11       		.uleb128 0x11
 11670 0d06 62756600 		.ascii	"buf\000"
 11671 0d0a 01       		.byte	0x1
 11672 0d0b F0       		.byte	0xf0
 11673 0d0c CD030000 		.4byte	0x3cd
 11674 0d10 02       		.uleb128 0x2
 11675 0d11 91       		.byte	0x91
 11676 0d12 00       		.sleb128 0
 11677 0d13 16       		.uleb128 0x16
 11678 0d14 7E000000 		.4byte	.LASF66
 11679 0d18 01       		.byte	0x1
ARM GAS  C:\Users\arist\AppData\Local\Temp\ccSjK9zC.s 			page 235


 11680 0d19 F2       		.byte	0xf2
 11681 0d1a A9000000 		.4byte	0xa9
 11682 0d1e 720F0000 		.4byte	.LLST74
 11683 0d22 16       		.uleb128 0x16
 11684 0d23 BD040000 		.4byte	.LASF98
 11685 0d27 01       		.byte	0x1
 11686 0d28 F3       		.byte	0xf3
 11687 0d29 A9000000 		.4byte	0xa9
 11688 0d2d 9D0F0000 		.4byte	.LLST75
 11689 0d31 16       		.uleb128 0x16
 11690 0d32 13040000 		.4byte	.LASF99
 11691 0d36 01       		.byte	0x1
 11692 0d37 F4       		.byte	0xf4
 11693 0d38 A9000000 		.4byte	0xa9
 11694 0d3c 18100000 		.4byte	.LLST76
 11695 0d40 16       		.uleb128 0x16
 11696 0d41 59000000 		.4byte	.LASF100
 11697 0d45 01       		.byte	0x1
 11698 0d46 F5       		.byte	0xf5
 11699 0d47 A9000000 		.4byte	0xa9
 11700 0d4b 93100000 		.4byte	.LLST77
 11701 0d4f 16       		.uleb128 0x16
 11702 0d50 E6040000 		.4byte	.LASF101
 11703 0d54 01       		.byte	0x1
 11704 0d55 F6       		.byte	0xf6
 11705 0d56 A9000000 		.4byte	0xa9
 11706 0d5a 13110000 		.4byte	.LLST78
 11707 0d5e 16       		.uleb128 0x16
 11708 0d5f EF040000 		.4byte	.LASF102
 11709 0d63 01       		.byte	0x1
 11710 0d64 F7       		.byte	0xf7
 11711 0d65 A9000000 		.4byte	0xa9
 11712 0d69 8E110000 		.4byte	.LLST79
 11713 0d6d 16       		.uleb128 0x16
 11714 0d6e AC030000 		.4byte	.LASF103
 11715 0d72 01       		.byte	0x1
 11716 0d73 F8       		.byte	0xf8
 11717 0d74 BB010000 		.4byte	0x1bb
 11718 0d78 D0110000 		.4byte	.LLST80
 11719 0d7c 24       		.uleb128 0x24
 11720 0d7d 20010000 		.4byte	.Ldebug_ranges0+0x120
 11721 0d81 1B0E0000 		.4byte	0xe1b
 11722 0d85 23       		.uleb128 0x23
 11723 0d86 7C040000 		.4byte	.LASF79
 11724 0d8a 01       		.byte	0x1
 11725 0d8b 2701     		.2byte	0x127
 11726 0d8d BF000000 		.4byte	0xbf
 11727 0d91 26120000 		.4byte	.LLST81
 11728 0d95 23       		.uleb128 0x23
 11729 0d96 62000000 		.4byte	.LASF80
 11730 0d9a 01       		.byte	0x1
 11731 0d9b 2801     		.2byte	0x128
 11732 0d9d BF000000 		.4byte	0xbf
 11733 0da1 39120000 		.4byte	.LLST82
 11734 0da5 23       		.uleb128 0x23
 11735 0da6 79030000 		.4byte	.LASF104
 11736 0daa 01       		.byte	0x1
ARM GAS  C:\Users\arist\AppData\Local\Temp\ccSjK9zC.s 			page 236


 11737 0dab 2901     		.2byte	0x129
 11738 0dad B4000000 		.4byte	0xb4
 11739 0db1 7A120000 		.4byte	.LLST83
 11740 0db5 23       		.uleb128 0x23
 11741 0db6 2F020000 		.4byte	.LASF105
 11742 0dba 01       		.byte	0x1
 11743 0dbb 2A01     		.2byte	0x12a
 11744 0dbd B4000000 		.4byte	0xb4
 11745 0dc1 92120000 		.4byte	.LLST84
 11746 0dc5 24       		.uleb128 0x24
 11747 0dc6 38010000 		.4byte	.Ldebug_ranges0+0x138
 11748 0dca F20D0000 		.4byte	0xdf2
 11749 0dce 23       		.uleb128 0x23
 11750 0dcf 08030000 		.4byte	.LASF106
 11751 0dd3 01       		.byte	0x1
 11752 0dd4 2C01     		.2byte	0x12c
 11753 0dd6 A9000000 		.4byte	0xa9
 11754 0dda CB120000 		.4byte	.LLST85
 11755 0dde 17       		.uleb128 0x17
 11756 0ddf EA010000 		.4byte	.LVL254
 11757 0de3 870C0000 		.4byte	0xc87
 11758 0de7 18       		.uleb128 0x18
 11759 0de8 01       		.uleb128 0x1
 11760 0de9 50       		.byte	0x50
 11761 0dea 05       		.uleb128 0x5
 11762 0deb 7B       		.byte	0x7b
 11763 0dec 00       		.sleb128 0
 11764 0ded 76       		.byte	0x76
 11765 0dee 00       		.sleb128 0
 11766 0def 1C       		.byte	0x1c
 11767 0df0 00       		.byte	0
 11768 0df1 00       		.byte	0
 11769 0df2 1F       		.uleb128 0x1f
 11770 0df3 E2000000 		.4byte	.LVL236
 11771 0df7 79050000 		.4byte	0x579
 11772 0dfb 060E0000 		.4byte	0xe06
 11773 0dff 18       		.uleb128 0x18
 11774 0e00 01       		.uleb128 0x1
 11775 0e01 50       		.byte	0x50
 11776 0e02 02       		.uleb128 0x2
 11777 0e03 75       		.byte	0x75
 11778 0e04 00       		.sleb128 0
 11779 0e05 00       		.byte	0
 11780 0e06 17       		.uleb128 0x17
 11781 0e07 EE000000 		.4byte	.LVL238
 11782 0e0b 870C0000 		.4byte	0xc87
 11783 0e0f 18       		.uleb128 0x18
 11784 0e10 01       		.uleb128 0x1
 11785 0e11 50       		.byte	0x50
 11786 0e12 06       		.uleb128 0x6
 11787 0e13 91       		.byte	0x91
 11788 0e14 4C       		.sleb128 -52
 11789 0e15 06       		.byte	0x6
 11790 0e16 75       		.byte	0x75
 11791 0e17 00       		.sleb128 0
 11792 0e18 1C       		.byte	0x1c
 11793 0e19 00       		.byte	0
ARM GAS  C:\Users\arist\AppData\Local\Temp\ccSjK9zC.s 			page 237


 11794 0e1a 00       		.byte	0
 11795 0e1b 1F       		.uleb128 0x1f
 11796 0e1c 16000000 		.4byte	.LVL211
 11797 0e20 E4060000 		.4byte	0x6e4
 11798 0e24 3D0E0000 		.4byte	0xe3d
 11799 0e28 18       		.uleb128 0x18
 11800 0e29 01       		.uleb128 0x1
 11801 0e2a 50       		.byte	0x50
 11802 0e2b 02       		.uleb128 0x2
 11803 0e2c 7A       		.byte	0x7a
 11804 0e2d 00       		.sleb128 0
 11805 0e2e 18       		.uleb128 0x18
 11806 0e2f 01       		.uleb128 0x1
 11807 0e30 51       		.byte	0x51
 11808 0e31 04       		.uleb128 0x4
 11809 0e32 7D       		.byte	0x7d
 11810 0e33 00       		.sleb128 0
 11811 0e34 94       		.byte	0x94
 11812 0e35 01       		.byte	0x1
 11813 0e36 18       		.uleb128 0x18
 11814 0e37 01       		.uleb128 0x1
 11815 0e38 52       		.byte	0x52
 11816 0e39 02       		.uleb128 0x2
 11817 0e3a 74       		.byte	0x74
 11818 0e3b 00       		.sleb128 0
 11819 0e3c 00       		.byte	0
 11820 0e3d 17       		.uleb128 0x17
 11821 0e3e 00020000 		.4byte	.LVL257
 11822 0e42 B31A0000 		.4byte	0x1ab3
 11823 0e46 18       		.uleb128 0x18
 11824 0e47 01       		.uleb128 0x1
 11825 0e48 50       		.byte	0x50
 11826 0e49 02       		.uleb128 0x2
 11827 0e4a 77       		.byte	0x77
 11828 0e4b 00       		.sleb128 0
 11829 0e4c 00       		.byte	0
 11830 0e4d 00       		.byte	0
 11831 0e4e 19       		.uleb128 0x19
 11832 0e4f 5A050000 		.4byte	.LASF107
 11833 0e53 01       		.byte	0x1
 11834 0e54 BA02     		.2byte	0x2ba
 11835 0e56 A9000000 		.4byte	0xa9
 11836 0e5a 00000000 		.4byte	.LFB21
 11837 0e5e 1C000000 		.4byte	.LFE21-.LFB21
 11838 0e62 01       		.uleb128 0x1
 11839 0e63 9C       		.byte	0x9c
 11840 0e64 AF0E0000 		.4byte	0xeaf
 11841 0e68 1C       		.uleb128 0x1c
 11842 0e69 7800     		.ascii	"x\000"
 11843 0e6b 01       		.byte	0x1
 11844 0e6c BA02     		.2byte	0x2ba
 11845 0e6e A9000000 		.4byte	0xa9
 11846 0e72 F5120000 		.4byte	.LLST86
 11847 0e76 21       		.uleb128 0x21
 11848 0e77 783000   		.ascii	"x0\000"
 11849 0e7a 01       		.byte	0x1
 11850 0e7b BA02     		.2byte	0x2ba
ARM GAS  C:\Users\arist\AppData\Local\Temp\ccSjK9zC.s 			page 238


 11851 0e7d A9000000 		.4byte	0xa9
 11852 0e81 01       		.uleb128 0x1
 11853 0e82 51       		.byte	0x51
 11854 0e83 1C       		.uleb128 0x1c
 11855 0e84 783100   		.ascii	"x1\000"
 11856 0e87 01       		.byte	0x1
 11857 0e88 BA02     		.2byte	0x2ba
 11858 0e8a A9000000 		.4byte	0xa9
 11859 0e8e 16130000 		.4byte	.LLST87
 11860 0e92 21       		.uleb128 0x21
 11861 0e93 793000   		.ascii	"y0\000"
 11862 0e96 01       		.byte	0x1
 11863 0e97 BA02     		.2byte	0x2ba
 11864 0e99 A9000000 		.4byte	0xa9
 11865 0e9d 01       		.uleb128 0x1
 11866 0e9e 53       		.byte	0x53
 11867 0e9f 1C       		.uleb128 0x1c
 11868 0ea0 793100   		.ascii	"y1\000"
 11869 0ea3 01       		.byte	0x1
 11870 0ea4 BA02     		.2byte	0x2ba
 11871 0ea6 A9000000 		.4byte	0xa9
 11872 0eaa 37130000 		.4byte	.LLST88
 11873 0eae 00       		.byte	0
 11874 0eaf 14       		.uleb128 0x14
 11875 0eb0 23050000 		.4byte	.LASF108
 11876 0eb4 01       		.byte	0x1
 11877 0eb5 A2       		.byte	0xa2
 11878 0eb6 A9000000 		.4byte	0xa9
 11879 0eba 00000000 		.4byte	.LFB5
 11880 0ebe FA000000 		.4byte	.LFE5-.LFB5
 11881 0ec2 01       		.uleb128 0x1
 11882 0ec3 9C       		.byte	0x9c
 11883 0ec4 A9100000 		.4byte	0x10a9
 11884 0ec8 10       		.uleb128 0x10
 11885 0ec9 87030000 		.4byte	.LASF109
 11886 0ecd 01       		.byte	0x1
 11887 0ece A2       		.byte	0xa2
 11888 0ecf A9000000 		.4byte	0xa9
 11889 0ed3 57130000 		.4byte	.LLST89
 11890 0ed7 10       		.uleb128 0x10
 11891 0ed8 2C040000 		.4byte	.LASF110
 11892 0edc 01       		.byte	0x1
 11893 0edd A2       		.byte	0xa2
 11894 0ede A9000000 		.4byte	0xa9
 11895 0ee2 91130000 		.4byte	.LLST90
 11896 0ee6 10       		.uleb128 0x10
 11897 0ee7 8E030000 		.4byte	.LASF111
 11898 0eeb 01       		.byte	0x1
 11899 0eec A2       		.byte	0xa2
 11900 0eed A9000000 		.4byte	0xa9
 11901 0ef1 CB130000 		.4byte	.LLST91
 11902 0ef5 10       		.uleb128 0x10
 11903 0ef6 33040000 		.4byte	.LASF112
 11904 0efa 01       		.byte	0x1
 11905 0efb A2       		.byte	0xa2
 11906 0efc A9000000 		.4byte	0xa9
 11907 0f00 05140000 		.4byte	.LLST92
ARM GAS  C:\Users\arist\AppData\Local\Temp\ccSjK9zC.s 			page 239


 11908 0f04 11       		.uleb128 0x11
 11909 0f05 62756600 		.ascii	"buf\000"
 11910 0f09 01       		.byte	0x1
 11911 0f0a A2       		.byte	0xa2
 11912 0f0b CD030000 		.4byte	0x3cd
 11913 0f0f 02       		.uleb128 0x2
 11914 0f10 91       		.byte	0x91
 11915 0f11 00       		.sleb128 0
 11916 0f12 16       		.uleb128 0x16
 11917 0f13 7E000000 		.4byte	.LASF66
 11918 0f17 01       		.byte	0x1
 11919 0f18 A4       		.byte	0xa4
 11920 0f19 A9000000 		.4byte	0xa9
 11921 0f1d 3F140000 		.4byte	.LLST93
 11922 0f21 16       		.uleb128 0x16
 11923 0f22 C8040000 		.4byte	.LASF113
 11924 0f26 01       		.byte	0x1
 11925 0f27 A5       		.byte	0xa5
 11926 0f28 A9000000 		.4byte	0xa9
 11927 0f2c 81140000 		.4byte	.LLST94
 11928 0f30 16       		.uleb128 0x16
 11929 0f31 E3030000 		.4byte	.LASF114
 11930 0f35 01       		.byte	0x1
 11931 0f36 A6       		.byte	0xa6
 11932 0f37 A9000000 		.4byte	0xa9
 11933 0f3b A1140000 		.4byte	.LLST95
 11934 0f3f 16       		.uleb128 0x16
 11935 0f40 CF040000 		.4byte	.LASF115
 11936 0f44 01       		.byte	0x1
 11937 0f45 A7       		.byte	0xa7
 11938 0f46 A9000000 		.4byte	0xa9
 11939 0f4a C1140000 		.4byte	.LLST96
 11940 0f4e 16       		.uleb128 0x16
 11941 0f4f E9030000 		.4byte	.LASF116
 11942 0f53 01       		.byte	0x1
 11943 0f54 A8       		.byte	0xa8
 11944 0f55 A9000000 		.4byte	0xa9
 11945 0f59 1A150000 		.4byte	.LLST97
 11946 0f5d 24       		.uleb128 0x24
 11947 0f5e 50010000 		.4byte	.Ldebug_ranges0+0x150
 11948 0f62 AD0F0000 		.4byte	0xfad
 11949 0f66 16       		.uleb128 0x16
 11950 0f67 23020000 		.4byte	.LASF117
 11951 0f6b 01       		.byte	0x1
 11952 0f6c AC       		.byte	0xac
 11953 0f6d A9000000 		.4byte	0xa9
 11954 0f71 3A150000 		.4byte	.LLST98
 11955 0f75 12       		.uleb128 0x12
 11956 0f76 68010000 		.4byte	.Ldebug_ranges0+0x168
 11957 0f7a 13       		.uleb128 0x13
 11958 0f7b 6900     		.ascii	"i\000"
 11959 0f7d 01       		.byte	0x1
 11960 0f7e B6       		.byte	0xb6
 11961 0f7f A9000000 		.4byte	0xa9
 11962 0f83 70150000 		.4byte	.LLST99
 11963 0f87 17       		.uleb128 0x17
 11964 0f88 40000000 		.4byte	.LVL276
ARM GAS  C:\Users\arist\AppData\Local\Temp\ccSjK9zC.s 			page 240


 11965 0f8c 4C070000 		.4byte	0x74c
 11966 0f90 18       		.uleb128 0x18
 11967 0f91 01       		.uleb128 0x1
 11968 0f92 50       		.byte	0x50
 11969 0f93 02       		.uleb128 0x2
 11970 0f94 76       		.byte	0x76
 11971 0f95 00       		.sleb128 0
 11972 0f96 18       		.uleb128 0x18
 11973 0f97 01       		.uleb128 0x1
 11974 0f98 51       		.byte	0x51
 11975 0f99 05       		.uleb128 0x5
 11976 0f9a 77       		.byte	0x77
 11977 0f9b 00       		.sleb128 0
 11978 0f9c 74       		.byte	0x74
 11979 0f9d 00       		.sleb128 0
 11980 0f9e 22       		.byte	0x22
 11981 0f9f 18       		.uleb128 0x18
 11982 0fa0 01       		.uleb128 0x1
 11983 0fa1 52       		.byte	0x52
 11984 0fa2 01       		.uleb128 0x1
 11985 0fa3 31       		.byte	0x31
 11986 0fa4 18       		.uleb128 0x18
 11987 0fa5 01       		.uleb128 0x1
 11988 0fa6 53       		.byte	0x53
 11989 0fa7 02       		.uleb128 0x2
 11990 0fa8 78       		.byte	0x78
 11991 0fa9 00       		.sleb128 0
 11992 0faa 00       		.byte	0
 11993 0fab 00       		.byte	0
 11994 0fac 00       		.byte	0
 11995 0fad 12       		.uleb128 0x12
 11996 0fae 80010000 		.4byte	.Ldebug_ranges0+0x180
 11997 0fb2 16       		.uleb128 0x16
 11998 0fb3 04040000 		.4byte	.LASF118
 11999 0fb7 01       		.byte	0x1
 12000 0fb8 C8       		.byte	0xc8
 12001 0fb9 9E000000 		.4byte	0x9e
 12002 0fbd 9A150000 		.4byte	.LLST100
 12003 0fc1 13       		.uleb128 0x13
 12004 0fc2 7900     		.ascii	"y\000"
 12005 0fc4 01       		.byte	0x1
 12006 0fc5 CA       		.byte	0xca
 12007 0fc6 A9000000 		.4byte	0xa9
 12008 0fca AD150000 		.4byte	.LLST101
 12009 0fce 16       		.uleb128 0x16
 12010 0fcf E1000000 		.4byte	.LASF119
 12011 0fd3 01       		.byte	0x1
 12012 0fd4 CB       		.byte	0xcb
 12013 0fd5 A9000000 		.4byte	0xa9
 12014 0fd9 CC150000 		.4byte	.LLST102
 12015 0fdd 16       		.uleb128 0x16
 12016 0fde 3D020000 		.4byte	.LASF120
 12017 0fe2 01       		.byte	0x1
 12018 0fe3 CC       		.byte	0xcc
 12019 0fe4 9E000000 		.4byte	0x9e
 12020 0fe8 EB150000 		.4byte	.LLST103
 12021 0fec 16       		.uleb128 0x16
ARM GAS  C:\Users\arist\AppData\Local\Temp\ccSjK9zC.s 			page 241


 12022 0fed A6000000 		.4byte	.LASF121
 12023 0ff1 01       		.byte	0x1
 12024 0ff2 CD       		.byte	0xcd
 12025 0ff3 A9000000 		.4byte	0xa9
 12026 0ff7 0A160000 		.4byte	.LLST104
 12027 0ffb 12       		.uleb128 0x12
 12028 0ffc 98010000 		.4byte	.Ldebug_ranges0+0x198
 12029 1000 13       		.uleb128 0x13
 12030 1001 7800     		.ascii	"x\000"
 12031 1003 01       		.byte	0x1
 12032 1004 CF       		.byte	0xcf
 12033 1005 A9000000 		.4byte	0xa9
 12034 1009 40160000 		.4byte	.LLST105
 12035 100d 1F       		.uleb128 0x1f
 12036 100e 98000000 		.4byte	.LVL285
 12037 1012 4E0E0000 		.4byte	0xe4e
 12038 1016 3C100000 		.4byte	0x103c
 12039 101a 18       		.uleb128 0x18
 12040 101b 01       		.uleb128 0x1
 12041 101c 50       		.byte	0x50
 12042 101d 02       		.uleb128 0x2
 12043 101e 7B       		.byte	0x7b
 12044 101f 00       		.sleb128 0
 12045 1020 18       		.uleb128 0x18
 12046 1021 01       		.uleb128 0x1
 12047 1022 51       		.byte	0x51
 12048 1023 02       		.uleb128 0x2
 12049 1024 75       		.byte	0x75
 12050 1025 00       		.sleb128 0
 12051 1026 18       		.uleb128 0x18
 12052 1027 01       		.uleb128 0x1
 12053 1028 52       		.byte	0x52
 12054 1029 02       		.uleb128 0x2
 12055 102a 78       		.byte	0x78
 12056 102b 00       		.sleb128 0
 12057 102c 18       		.uleb128 0x18
 12058 102d 01       		.uleb128 0x1
 12059 102e 53       		.byte	0x53
 12060 102f 04       		.uleb128 0x4
 12061 1030 91       		.byte	0x91
 12062 1031 48       		.sleb128 -56
 12063 1032 94       		.byte	0x94
 12064 1033 01       		.byte	0x1
 12065 1034 18       		.uleb128 0x18
 12066 1035 02       		.uleb128 0x2
 12067 1036 7D       		.byte	0x7d
 12068 1037 00       		.sleb128 0
 12069 1038 02       		.uleb128 0x2
 12070 1039 74       		.byte	0x74
 12071 103a 00       		.sleb128 0
 12072 103b 00       		.byte	0
 12073 103c 1F       		.uleb128 0x1f
 12074 103d AE000000 		.4byte	.LVL287
 12075 1041 4E0E0000 		.4byte	0xe4e
 12076 1045 6D100000 		.4byte	0x106d
 12077 1049 18       		.uleb128 0x18
 12078 104a 01       		.uleb128 0x1
ARM GAS  C:\Users\arist\AppData\Local\Temp\ccSjK9zC.s 			page 242


 12079 104b 50       		.byte	0x50
 12080 104c 04       		.uleb128 0x4
 12081 104d 91       		.byte	0x91
 12082 104e 50       		.sleb128 -48
 12083 104f 94       		.byte	0x94
 12084 1050 01       		.byte	0x1
 12085 1051 18       		.uleb128 0x18
 12086 1052 01       		.uleb128 0x1
 12087 1053 51       		.byte	0x51
 12088 1054 02       		.uleb128 0x2
 12089 1055 75       		.byte	0x75
 12090 1056 00       		.sleb128 0
 12091 1057 18       		.uleb128 0x18
 12092 1058 01       		.uleb128 0x1
 12093 1059 52       		.byte	0x52
 12094 105a 02       		.uleb128 0x2
 12095 105b 78       		.byte	0x78
 12096 105c 00       		.sleb128 0
 12097 105d 18       		.uleb128 0x18
 12098 105e 01       		.uleb128 0x1
 12099 105f 53       		.byte	0x53
 12100 1060 04       		.uleb128 0x4
 12101 1061 91       		.byte	0x91
 12102 1062 48       		.sleb128 -56
 12103 1063 94       		.byte	0x94
 12104 1064 01       		.byte	0x1
 12105 1065 18       		.uleb128 0x18
 12106 1066 02       		.uleb128 0x2
 12107 1067 7D       		.byte	0x7d
 12108 1068 00       		.sleb128 0
 12109 1069 02       		.uleb128 0x2
 12110 106a 74       		.byte	0x74
 12111 106b 00       		.sleb128 0
 12112 106c 00       		.byte	0
 12113 106d 1F       		.uleb128 0x1f
 12114 106e CA000000 		.4byte	.LVL292
 12115 1072 4C070000 		.4byte	0x74c
 12116 1076 93100000 		.4byte	0x1093
 12117 107a 18       		.uleb128 0x18
 12118 107b 01       		.uleb128 0x1
 12119 107c 50       		.byte	0x50
 12120 107d 02       		.uleb128 0x2
 12121 107e 7B       		.byte	0x7b
 12122 107f 00       		.sleb128 0
 12123 1080 18       		.uleb128 0x18
 12124 1081 01       		.uleb128 0x1
 12125 1082 51       		.byte	0x51
 12126 1083 02       		.uleb128 0x2
 12127 1084 74       		.byte	0x74
 12128 1085 00       		.sleb128 0
 12129 1086 18       		.uleb128 0x18
 12130 1087 01       		.uleb128 0x1
 12131 1088 52       		.byte	0x52
 12132 1089 01       		.uleb128 0x1
 12133 108a 31       		.byte	0x31
 12134 108b 18       		.uleb128 0x18
 12135 108c 01       		.uleb128 0x1
ARM GAS  C:\Users\arist\AppData\Local\Temp\ccSjK9zC.s 			page 243


 12136 108d 53       		.byte	0x53
 12137 108e 03       		.uleb128 0x3
 12138 108f 91       		.byte	0x91
 12139 1090 00       		.sleb128 0
 12140 1091 06       		.byte	0x6
 12141 1092 00       		.byte	0
 12142 1093 17       		.uleb128 0x17
 12143 1094 E2000000 		.4byte	.LVL295
 12144 1098 870C0000 		.4byte	0xc87
 12145 109c 18       		.uleb128 0x18
 12146 109d 01       		.uleb128 0x1
 12147 109e 50       		.byte	0x50
 12148 109f 05       		.uleb128 0x5
 12149 10a0 76       		.byte	0x76
 12150 10a1 00       		.sleb128 0
 12151 10a2 78       		.byte	0x78
 12152 10a3 00       		.sleb128 0
 12153 10a4 1C       		.byte	0x1c
 12154 10a5 00       		.byte	0
 12155 10a6 00       		.byte	0
 12156 10a7 00       		.byte	0
 12157 10a8 00       		.byte	0
 12158 10a9 19       		.uleb128 0x19
 12159 10aa 4A060000 		.4byte	.LASF122
 12160 10ae 01       		.byte	0x1
 12161 10af 1902     		.2byte	0x219
 12162 10b1 A9000000 		.4byte	0xa9
 12163 10b5 00000000 		.4byte	.LFB11
 12164 10b9 5A000000 		.4byte	.LFE11-.LFB11
 12165 10bd 01       		.uleb128 0x1
 12166 10be 9C       		.byte	0x9c
 12167 10bf D3110000 		.4byte	0x11d3
 12168 10c3 1C       		.uleb128 0x1c
 12169 10c4 6F5F7800 		.ascii	"o_x\000"
 12170 10c8 01       		.byte	0x1
 12171 10c9 1902     		.2byte	0x219
 12172 10cb A9000000 		.4byte	0xa9
 12173 10cf 5F160000 		.4byte	.LLST106
 12174 10d3 1C       		.uleb128 0x1c
 12175 10d4 6F5F7900 		.ascii	"o_y\000"
 12176 10d8 01       		.byte	0x1
 12177 10d9 1902     		.2byte	0x219
 12178 10db A9000000 		.4byte	0xa9
 12179 10df 80160000 		.4byte	.LLST107
 12180 10e3 1A       		.uleb128 0x1a
 12181 10e4 01020000 		.4byte	.LASF40
 12182 10e8 01       		.byte	0x1
 12183 10e9 1902     		.2byte	0x219
 12184 10eb A9000000 		.4byte	0xa9
 12185 10ef A1160000 		.4byte	.LLST108
 12186 10f3 1A       		.uleb128 0x1a
 12187 10f4 B6030000 		.4byte	.LASF41
 12188 10f8 01       		.byte	0x1
 12189 10f9 1902     		.2byte	0x219
 12190 10fb A9000000 		.4byte	0xa9
 12191 10ff C2160000 		.4byte	.LLST109
 12192 1103 21       		.uleb128 0x21
ARM GAS  C:\Users\arist\AppData\Local\Temp\ccSjK9zC.s 			page 244


 12193 1104 62756600 		.ascii	"buf\000"
 12194 1108 01       		.byte	0x1
 12195 1109 1902     		.2byte	0x219
 12196 110b CD030000 		.4byte	0x3cd
 12197 110f 02       		.uleb128 0x2
 12198 1110 91       		.byte	0x91
 12199 1111 00       		.sleb128 0
 12200 1112 23       		.uleb128 0x23
 12201 1113 7E000000 		.4byte	.LASF66
 12202 1117 01       		.byte	0x1
 12203 1118 1A02     		.2byte	0x21a
 12204 111a A9000000 		.4byte	0xa9
 12205 111e E3160000 		.4byte	.LLST110
 12206 1122 1F       		.uleb128 0x1f
 12207 1123 20000000 		.4byte	.LVL302
 12208 1127 AF0E0000 		.4byte	0xeaf
 12209 112b 4F110000 		.4byte	0x114f
 12210 112f 18       		.uleb128 0x18
 12211 1130 01       		.uleb128 0x1
 12212 1131 50       		.byte	0x50
 12213 1132 02       		.uleb128 0x2
 12214 1133 76       		.byte	0x76
 12215 1134 00       		.sleb128 0
 12216 1135 18       		.uleb128 0x18
 12217 1136 01       		.uleb128 0x1
 12218 1137 51       		.byte	0x51
 12219 1138 02       		.uleb128 0x2
 12220 1139 77       		.byte	0x77
 12221 113a 00       		.sleb128 0
 12222 113b 18       		.uleb128 0x18
 12223 113c 01       		.uleb128 0x1
 12224 113d 52       		.byte	0x52
 12225 113e 02       		.uleb128 0x2
 12226 113f 75       		.byte	0x75
 12227 1140 00       		.sleb128 0
 12228 1141 18       		.uleb128 0x18
 12229 1142 01       		.uleb128 0x1
 12230 1143 53       		.byte	0x53
 12231 1144 02       		.uleb128 0x2
 12232 1145 77       		.byte	0x77
 12233 1146 00       		.sleb128 0
 12234 1147 18       		.uleb128 0x18
 12235 1148 02       		.uleb128 0x2
 12236 1149 7D       		.byte	0x7d
 12237 114a 00       		.sleb128 0
 12238 114b 02       		.uleb128 0x2
 12239 114c 78       		.byte	0x78
 12240 114d 00       		.sleb128 0
 12241 114e 00       		.byte	0
 12242 114f 1F       		.uleb128 0x1f
 12243 1150 34000000 		.4byte	.LVL303
 12244 1154 AF0E0000 		.4byte	0xeaf
 12245 1158 7C110000 		.4byte	0x117c
 12246 115c 18       		.uleb128 0x18
 12247 115d 01       		.uleb128 0x1
 12248 115e 50       		.byte	0x50
 12249 115f 02       		.uleb128 0x2
ARM GAS  C:\Users\arist\AppData\Local\Temp\ccSjK9zC.s 			page 245


 12250 1160 75       		.byte	0x75
 12251 1161 00       		.sleb128 0
 12252 1162 18       		.uleb128 0x18
 12253 1163 01       		.uleb128 0x1
 12254 1164 51       		.byte	0x51
 12255 1165 02       		.uleb128 0x2
 12256 1166 77       		.byte	0x77
 12257 1167 00       		.sleb128 0
 12258 1168 18       		.uleb128 0x18
 12259 1169 01       		.uleb128 0x1
 12260 116a 52       		.byte	0x52
 12261 116b 02       		.uleb128 0x2
 12262 116c 75       		.byte	0x75
 12263 116d 00       		.sleb128 0
 12264 116e 18       		.uleb128 0x18
 12265 116f 01       		.uleb128 0x1
 12266 1170 53       		.byte	0x53
 12267 1171 02       		.uleb128 0x2
 12268 1172 74       		.byte	0x74
 12269 1173 00       		.sleb128 0
 12270 1174 18       		.uleb128 0x18
 12271 1175 02       		.uleb128 0x2
 12272 1176 7D       		.byte	0x7d
 12273 1177 00       		.sleb128 0
 12274 1178 02       		.uleb128 0x2
 12275 1179 78       		.byte	0x78
 12276 117a 00       		.sleb128 0
 12277 117b 00       		.byte	0
 12278 117c 1F       		.uleb128 0x1f
 12279 117d 44000000 		.4byte	.LVL304
 12280 1181 AF0E0000 		.4byte	0xeaf
 12281 1185 A9110000 		.4byte	0x11a9
 12282 1189 18       		.uleb128 0x18
 12283 118a 01       		.uleb128 0x1
 12284 118b 50       		.byte	0x50
 12285 118c 02       		.uleb128 0x2
 12286 118d 76       		.byte	0x76
 12287 118e 00       		.sleb128 0
 12288 118f 18       		.uleb128 0x18
 12289 1190 01       		.uleb128 0x1
 12290 1191 51       		.byte	0x51
 12291 1192 02       		.uleb128 0x2
 12292 1193 74       		.byte	0x74
 12293 1194 00       		.sleb128 0
 12294 1195 18       		.uleb128 0x18
 12295 1196 01       		.uleb128 0x1
 12296 1197 52       		.byte	0x52
 12297 1198 02       		.uleb128 0x2
 12298 1199 75       		.byte	0x75
 12299 119a 00       		.sleb128 0
 12300 119b 18       		.uleb128 0x18
 12301 119c 01       		.uleb128 0x1
 12302 119d 53       		.byte	0x53
 12303 119e 02       		.uleb128 0x2
 12304 119f 74       		.byte	0x74
 12305 11a0 00       		.sleb128 0
 12306 11a1 18       		.uleb128 0x18
ARM GAS  C:\Users\arist\AppData\Local\Temp\ccSjK9zC.s 			page 246


 12307 11a2 02       		.uleb128 0x2
 12308 11a3 7D       		.byte	0x7d
 12309 11a4 00       		.sleb128 0
 12310 11a5 02       		.uleb128 0x2
 12311 11a6 78       		.byte	0x78
 12312 11a7 00       		.sleb128 0
 12313 11a8 00       		.byte	0
 12314 11a9 17       		.uleb128 0x17
 12315 11aa 54000000 		.4byte	.LVL305
 12316 11ae AF0E0000 		.4byte	0xeaf
 12317 11b2 18       		.uleb128 0x18
 12318 11b3 01       		.uleb128 0x1
 12319 11b4 50       		.byte	0x50
 12320 11b5 02       		.uleb128 0x2
 12321 11b6 76       		.byte	0x76
 12322 11b7 00       		.sleb128 0
 12323 11b8 18       		.uleb128 0x18
 12324 11b9 01       		.uleb128 0x1
 12325 11ba 51       		.byte	0x51
 12326 11bb 02       		.uleb128 0x2
 12327 11bc 77       		.byte	0x77
 12328 11bd 00       		.sleb128 0
 12329 11be 18       		.uleb128 0x18
 12330 11bf 01       		.uleb128 0x1
 12331 11c0 52       		.byte	0x52
 12332 11c1 02       		.uleb128 0x2
 12333 11c2 76       		.byte	0x76
 12334 11c3 00       		.sleb128 0
 12335 11c4 18       		.uleb128 0x18
 12336 11c5 01       		.uleb128 0x1
 12337 11c6 53       		.byte	0x53
 12338 11c7 02       		.uleb128 0x2
 12339 11c8 74       		.byte	0x74
 12340 11c9 00       		.sleb128 0
 12341 11ca 18       		.uleb128 0x18
 12342 11cb 02       		.uleb128 0x2
 12343 11cc 7D       		.byte	0x7d
 12344 11cd 00       		.sleb128 0
 12345 11ce 02       		.uleb128 0x2
 12346 11cf 78       		.byte	0x78
 12347 11d0 00       		.sleb128 0
 12348 11d1 00       		.byte	0
 12349 11d2 00       		.byte	0
 12350 11d3 19       		.uleb128 0x19
 12351 11d4 6F050000 		.4byte	.LASF123
 12352 11d8 01       		.byte	0x1
 12353 11d9 2702     		.2byte	0x227
 12354 11db A9000000 		.4byte	0xa9
 12355 11df 00000000 		.4byte	.LFB12
 12356 11e3 40000000 		.4byte	.LFE12-.LFB12
 12357 11e7 01       		.uleb128 0x1
 12358 11e8 9C       		.byte	0x9c
 12359 11e9 EE120000 		.4byte	0x12ee
 12360 11ed 1C       		.uleb128 0x1c
 12361 11ee 615F7800 		.ascii	"a_x\000"
 12362 11f2 01       		.byte	0x1
 12363 11f3 2702     		.2byte	0x227
ARM GAS  C:\Users\arist\AppData\Local\Temp\ccSjK9zC.s 			page 247


 12364 11f5 A9000000 		.4byte	0xa9
 12365 11f9 02170000 		.4byte	.LLST111
 12366 11fd 1C       		.uleb128 0x1c
 12367 11fe 615F7900 		.ascii	"a_y\000"
 12368 1202 01       		.byte	0x1
 12369 1203 2702     		.2byte	0x227
 12370 1205 A9000000 		.4byte	0xa9
 12371 1209 23170000 		.4byte	.LLST112
 12372 120d 1C       		.uleb128 0x1c
 12373 120e 625F7800 		.ascii	"b_x\000"
 12374 1212 01       		.byte	0x1
 12375 1213 2702     		.2byte	0x227
 12376 1215 A9000000 		.4byte	0xa9
 12377 1219 44170000 		.4byte	.LLST113
 12378 121d 1C       		.uleb128 0x1c
 12379 121e 625F7900 		.ascii	"b_y\000"
 12380 1222 01       		.byte	0x1
 12381 1223 2702     		.2byte	0x227
 12382 1225 A9000000 		.4byte	0xa9
 12383 1229 65170000 		.4byte	.LLST114
 12384 122d 21       		.uleb128 0x21
 12385 122e 635F7800 		.ascii	"c_x\000"
 12386 1232 01       		.byte	0x1
 12387 1233 2702     		.2byte	0x227
 12388 1235 A9000000 		.4byte	0xa9
 12389 1239 02       		.uleb128 0x2
 12390 123a 91       		.byte	0x91
 12391 123b 00       		.sleb128 0
 12392 123c 21       		.uleb128 0x21
 12393 123d 635F7900 		.ascii	"c_y\000"
 12394 1241 01       		.byte	0x1
 12395 1242 2702     		.2byte	0x227
 12396 1244 A9000000 		.4byte	0xa9
 12397 1248 02       		.uleb128 0x2
 12398 1249 91       		.byte	0x91
 12399 124a 04       		.sleb128 4
 12400 124b 21       		.uleb128 0x21
 12401 124c 62756600 		.ascii	"buf\000"
 12402 1250 01       		.byte	0x1
 12403 1251 2702     		.2byte	0x227
 12404 1253 CD030000 		.4byte	0x3cd
 12405 1257 02       		.uleb128 0x2
 12406 1258 91       		.byte	0x91
 12407 1259 08       		.sleb128 8
 12408 125a 23       		.uleb128 0x23
 12409 125b 7E000000 		.4byte	.LASF66
 12410 125f 01       		.byte	0x1
 12411 1260 2802     		.2byte	0x228
 12412 1262 A9000000 		.4byte	0xa9
 12413 1266 86170000 		.4byte	.LLST115
 12414 126a 1F       		.uleb128 0x1f
 12415 126b 1E000000 		.4byte	.LVL308
 12416 126f AF0E0000 		.4byte	0xeaf
 12417 1273 97120000 		.4byte	0x1297
 12418 1277 18       		.uleb128 0x18
 12419 1278 01       		.uleb128 0x1
 12420 1279 50       		.byte	0x50
ARM GAS  C:\Users\arist\AppData\Local\Temp\ccSjK9zC.s 			page 248


 12421 127a 02       		.uleb128 0x2
 12422 127b 79       		.byte	0x79
 12423 127c 00       		.sleb128 0
 12424 127d 18       		.uleb128 0x18
 12425 127e 01       		.uleb128 0x1
 12426 127f 51       		.byte	0x51
 12427 1280 02       		.uleb128 0x2
 12428 1281 7A       		.byte	0x7a
 12429 1282 00       		.sleb128 0
 12430 1283 18       		.uleb128 0x18
 12431 1284 01       		.uleb128 0x1
 12432 1285 52       		.byte	0x52
 12433 1286 02       		.uleb128 0x2
 12434 1287 77       		.byte	0x77
 12435 1288 00       		.sleb128 0
 12436 1289 18       		.uleb128 0x18
 12437 128a 01       		.uleb128 0x1
 12438 128b 53       		.byte	0x53
 12439 128c 02       		.uleb128 0x2
 12440 128d 78       		.byte	0x78
 12441 128e 00       		.sleb128 0
 12442 128f 18       		.uleb128 0x18
 12443 1290 02       		.uleb128 0x2
 12444 1291 7D       		.byte	0x7d
 12445 1292 00       		.sleb128 0
 12446 1293 02       		.uleb128 0x2
 12447 1294 74       		.byte	0x74
 12448 1295 00       		.sleb128 0
 12449 1296 00       		.byte	0
 12450 1297 1F       		.uleb128 0x1f
 12451 1298 2C000000 		.4byte	.LVL309
 12452 129c AF0E0000 		.4byte	0xeaf
 12453 12a0 C4120000 		.4byte	0x12c4
 12454 12a4 18       		.uleb128 0x18
 12455 12a5 01       		.uleb128 0x1
 12456 12a6 50       		.byte	0x50
 12457 12a7 02       		.uleb128 0x2
 12458 12a8 79       		.byte	0x79
 12459 12a9 00       		.sleb128 0
 12460 12aa 18       		.uleb128 0x18
 12461 12ab 01       		.uleb128 0x1
 12462 12ac 51       		.byte	0x51
 12463 12ad 02       		.uleb128 0x2
 12464 12ae 7A       		.byte	0x7a
 12465 12af 00       		.sleb128 0
 12466 12b0 18       		.uleb128 0x18
 12467 12b1 01       		.uleb128 0x1
 12468 12b2 52       		.byte	0x52
 12469 12b3 02       		.uleb128 0x2
 12470 12b4 75       		.byte	0x75
 12471 12b5 00       		.sleb128 0
 12472 12b6 18       		.uleb128 0x18
 12473 12b7 01       		.uleb128 0x1
 12474 12b8 53       		.byte	0x53
 12475 12b9 02       		.uleb128 0x2
 12476 12ba 76       		.byte	0x76
 12477 12bb 00       		.sleb128 0
ARM GAS  C:\Users\arist\AppData\Local\Temp\ccSjK9zC.s 			page 249


 12478 12bc 18       		.uleb128 0x18
 12479 12bd 02       		.uleb128 0x2
 12480 12be 7D       		.byte	0x7d
 12481 12bf 00       		.sleb128 0
 12482 12c0 02       		.uleb128 0x2
 12483 12c1 74       		.byte	0x74
 12484 12c2 00       		.sleb128 0
 12485 12c3 00       		.byte	0
 12486 12c4 17       		.uleb128 0x17
 12487 12c5 3A000000 		.4byte	.LVL310
 12488 12c9 AF0E0000 		.4byte	0xeaf
 12489 12cd 18       		.uleb128 0x18
 12490 12ce 01       		.uleb128 0x1
 12491 12cf 50       		.byte	0x50
 12492 12d0 02       		.uleb128 0x2
 12493 12d1 77       		.byte	0x77
 12494 12d2 00       		.sleb128 0
 12495 12d3 18       		.uleb128 0x18
 12496 12d4 01       		.uleb128 0x1
 12497 12d5 51       		.byte	0x51
 12498 12d6 02       		.uleb128 0x2
 12499 12d7 78       		.byte	0x78
 12500 12d8 00       		.sleb128 0
 12501 12d9 18       		.uleb128 0x18
 12502 12da 01       		.uleb128 0x1
 12503 12db 52       		.byte	0x52
 12504 12dc 02       		.uleb128 0x2
 12505 12dd 75       		.byte	0x75
 12506 12de 00       		.sleb128 0
 12507 12df 18       		.uleb128 0x18
 12508 12e0 01       		.uleb128 0x1
 12509 12e1 53       		.byte	0x53
 12510 12e2 02       		.uleb128 0x2
 12511 12e3 76       		.byte	0x76
 12512 12e4 00       		.sleb128 0
 12513 12e5 18       		.uleb128 0x18
 12514 12e6 02       		.uleb128 0x2
 12515 12e7 7D       		.byte	0x7d
 12516 12e8 00       		.sleb128 0
 12517 12e9 02       		.uleb128 0x2
 12518 12ea 74       		.byte	0x74
 12519 12eb 00       		.sleb128 0
 12520 12ec 00       		.byte	0
 12521 12ed 00       		.byte	0
 12522 12ee 28       		.uleb128 0x28
 12523 12ef 9A000000 		.4byte	.LASF124
 12524 12f3 01       		.byte	0x1
 12525 12f4 C602     		.2byte	0x2c6
 12526 12f6 A9000000 		.4byte	0xa9
 12527 12fa 00000000 		.4byte	.LFB22
 12528 12fe D2000000 		.4byte	.LFE22-.LFB22
 12529 1302 01       		.uleb128 0x1
 12530 1303 9C       		.byte	0x9c
 12531 1304 9A130000 		.4byte	0x139a
 12532 1308 1C       		.uleb128 0x1c
 12533 1309 6300     		.ascii	"c\000"
 12534 130b 01       		.byte	0x1
ARM GAS  C:\Users\arist\AppData\Local\Temp\ccSjK9zC.s 			page 250


 12535 130c C602     		.2byte	0x2c6
 12536 130e 9A130000 		.4byte	0x139a
 12537 1312 A5170000 		.4byte	.LLST116
 12538 1316 1C       		.uleb128 0x1c
 12539 1317 62756600 		.ascii	"buf\000"
 12540 131b 01       		.byte	0x1
 12541 131c C602     		.2byte	0x2c6
 12542 131e CD030000 		.4byte	0x3cd
 12543 1322 C3170000 		.4byte	.LLST117
 12544 1326 23       		.uleb128 0x23
 12545 1327 7E000000 		.4byte	.LASF66
 12546 132b 01       		.byte	0x1
 12547 132c C802     		.2byte	0x2c8
 12548 132e A9000000 		.4byte	0xa9
 12549 1332 E1170000 		.4byte	.LLST118
 12550 1336 27       		.uleb128 0x27
 12551 1337 74000000 		.4byte	.LBB39
 12552 133b 44000000 		.4byte	.LBE39-.LBB39
 12553 133f 7C130000 		.4byte	0x137c
 12554 1343 25       		.uleb128 0x25
 12555 1344 647900   		.ascii	"dy\000"
 12556 1347 01       		.byte	0x1
 12557 1348 D202     		.2byte	0x2d2
 12558 134a A9000000 		.4byte	0xa9
 12559 134e 17180000 		.4byte	.LLST119
 12560 1352 29       		.uleb128 0x29
 12561 1353 8E000000 		.4byte	.LBB40
 12562 1357 2A000000 		.4byte	.LBE40-.LBB40
 12563 135b 25       		.uleb128 0x25
 12564 135c 6900     		.ascii	"i\000"
 12565 135e 01       		.byte	0x1
 12566 135f D402     		.2byte	0x2d4
 12567 1361 A9000000 		.4byte	0xa9
 12568 1365 2A180000 		.4byte	.LLST120
 12569 1369 17       		.uleb128 0x17
 12570 136a AA000000 		.4byte	.LVL330
 12571 136e AF0E0000 		.4byte	0xeaf
 12572 1372 18       		.uleb128 0x18
 12573 1373 02       		.uleb128 0x2
 12574 1374 7D       		.byte	0x7d
 12575 1375 00       		.sleb128 0
 12576 1376 02       		.uleb128 0x2
 12577 1377 76       		.byte	0x76
 12578 1378 00       		.sleb128 0
 12579 1379 00       		.byte	0
 12580 137a 00       		.byte	0
 12581 137b 00       		.byte	0
 12582 137c 17       		.uleb128 0x17
 12583 137d 42000000 		.4byte	.LVL317
 12584 1381 B00C0000 		.4byte	0xcb0
 12585 1385 18       		.uleb128 0x18
 12586 1386 01       		.uleb128 0x1
 12587 1387 52       		.byte	0x52
 12588 1388 02       		.uleb128 0x2
 12589 1389 77       		.byte	0x77
 12590 138a 00       		.sleb128 0
 12591 138b 18       		.uleb128 0x18
ARM GAS  C:\Users\arist\AppData\Local\Temp\ccSjK9zC.s 			page 251


 12592 138c 01       		.uleb128 0x1
 12593 138d 53       		.byte	0x53
 12594 138e 02       		.uleb128 0x2
 12595 138f 78       		.byte	0x78
 12596 1390 00       		.sleb128 0
 12597 1391 18       		.uleb128 0x18
 12598 1392 02       		.uleb128 0x2
 12599 1393 7D       		.byte	0x7d
 12600 1394 00       		.sleb128 0
 12601 1395 02       		.uleb128 0x2
 12602 1396 76       		.byte	0x76
 12603 1397 00       		.sleb128 0
 12604 1398 00       		.byte	0
 12605 1399 00       		.byte	0
 12606 139a 0A       		.uleb128 0xa
 12607 139b 04       		.byte	0x4
 12608 139c 7D030000 		.4byte	0x37d
 12609 13a0 28       		.uleb128 0x28
 12610 13a1 72000000 		.4byte	.LASF125
 12611 13a5 01       		.byte	0x1
 12612 13a6 E702     		.2byte	0x2e7
 12613 13a8 A9000000 		.4byte	0xa9
 12614 13ac 00000000 		.4byte	.LFB23
 12615 13b0 B4000000 		.4byte	.LFE23-.LFB23
 12616 13b4 01       		.uleb128 0x1
 12617 13b5 9C       		.byte	0x9c
 12618 13b6 46140000 		.4byte	0x1446
 12619 13ba 1C       		.uleb128 0x1c
 12620 13bb 6300     		.ascii	"c\000"
 12621 13bd 01       		.byte	0x1
 12622 13be E702     		.2byte	0x2e7
 12623 13c0 9A130000 		.4byte	0x139a
 12624 13c4 54180000 		.4byte	.LLST121
 12625 13c8 1C       		.uleb128 0x1c
 12626 13c9 62756600 		.ascii	"buf\000"
 12627 13cd 01       		.byte	0x1
 12628 13ce E702     		.2byte	0x2e7
 12629 13d0 CD030000 		.4byte	0x3cd
 12630 13d4 96180000 		.4byte	.LLST122
 12631 13d8 23       		.uleb128 0x23
 12632 13d9 7E000000 		.4byte	.LASF66
 12633 13dd 01       		.byte	0x1
 12634 13de E902     		.2byte	0x2e9
 12635 13e0 A9000000 		.4byte	0xa9
 12636 13e4 D8180000 		.4byte	.LLST123
 12637 13e8 27       		.uleb128 0x27
 12638 13e9 5E000000 		.4byte	.LBB41
 12639 13ed 44000000 		.4byte	.LBE41-.LBB41
 12640 13f1 2E140000 		.4byte	0x142e
 12641 13f5 25       		.uleb128 0x25
 12642 13f6 647900   		.ascii	"dy\000"
 12643 13f9 01       		.byte	0x1
 12644 13fa F402     		.2byte	0x2f4
 12645 13fc A9000000 		.4byte	0xa9
 12646 1400 0E190000 		.4byte	.LLST124
 12647 1404 29       		.uleb128 0x29
 12648 1405 78000000 		.4byte	.LBB42
ARM GAS  C:\Users\arist\AppData\Local\Temp\ccSjK9zC.s 			page 252


 12649 1409 2A000000 		.4byte	.LBE42-.LBB42
 12650 140d 25       		.uleb128 0x25
 12651 140e 6900     		.ascii	"i\000"
 12652 1410 01       		.byte	0x1
 12653 1411 F602     		.2byte	0x2f6
 12654 1413 A9000000 		.4byte	0xa9
 12655 1417 21190000 		.4byte	.LLST125
 12656 141b 17       		.uleb128 0x17
 12657 141c 94000000 		.4byte	.LVL355
 12658 1420 AF0E0000 		.4byte	0xeaf
 12659 1424 18       		.uleb128 0x18
 12660 1425 02       		.uleb128 0x2
 12661 1426 7D       		.byte	0x7d
 12662 1427 00       		.sleb128 0
 12663 1428 02       		.uleb128 0x2
 12664 1429 76       		.byte	0x76
 12665 142a 00       		.sleb128 0
 12666 142b 00       		.byte	0
 12667 142c 00       		.byte	0
 12668 142d 00       		.byte	0
 12669 142e 17       		.uleb128 0x17
 12670 142f 2E000000 		.4byte	.LVL342
 12671 1433 B00C0000 		.4byte	0xcb0
 12672 1437 18       		.uleb128 0x18
 12673 1438 01       		.uleb128 0x1
 12674 1439 52       		.byte	0x52
 12675 143a 02       		.uleb128 0x2
 12676 143b 75       		.byte	0x75
 12677 143c 00       		.sleb128 0
 12678 143d 18       		.uleb128 0x18
 12679 143e 02       		.uleb128 0x2
 12680 143f 7D       		.byte	0x7d
 12681 1440 00       		.sleb128 0
 12682 1441 02       		.uleb128 0x2
 12683 1442 76       		.byte	0x76
 12684 1443 00       		.sleb128 0
 12685 1444 00       		.byte	0
 12686 1445 00       		.byte	0
 12687 1446 19       		.uleb128 0x19
 12688 1447 BD030000 		.4byte	.LASF126
 12689 144b 01       		.byte	0x1
 12690 144c 0003     		.2byte	0x300
 12691 144e A9000000 		.4byte	0xa9
 12692 1452 00000000 		.4byte	.LFB24
 12693 1456 14000000 		.4byte	.LFE24-.LFB24
 12694 145a 01       		.uleb128 0x1
 12695 145b 9C       		.byte	0x9c
 12696 145c BF140000 		.4byte	0x14bf
 12697 1460 1C       		.uleb128 0x1c
 12698 1461 6300     		.ascii	"c\000"
 12699 1463 01       		.byte	0x1
 12700 1464 0003     		.2byte	0x300
 12701 1466 9A130000 		.4byte	0x139a
 12702 146a 4B190000 		.4byte	.LLST126
 12703 146e 1C       		.uleb128 0x1c
 12704 146f 62756600 		.ascii	"buf\000"
 12705 1473 01       		.byte	0x1
ARM GAS  C:\Users\arist\AppData\Local\Temp\ccSjK9zC.s 			page 253


 12706 1474 0003     		.2byte	0x300
 12707 1476 CD030000 		.4byte	0x3cd
 12708 147a 69190000 		.4byte	.LLST127
 12709 147e 23       		.uleb128 0x23
 12710 147f 7E000000 		.4byte	.LASF66
 12711 1483 01       		.byte	0x1
 12712 1484 0103     		.2byte	0x301
 12713 1486 A9000000 		.4byte	0xa9
 12714 148a 87190000 		.4byte	.LLST128
 12715 148e 1F       		.uleb128 0x1f
 12716 148f 0A000000 		.4byte	.LVL365
 12717 1493 EE120000 		.4byte	0x12ee
 12718 1497 A8140000 		.4byte	0x14a8
 12719 149b 18       		.uleb128 0x18
 12720 149c 01       		.uleb128 0x1
 12721 149d 50       		.byte	0x50
 12722 149e 02       		.uleb128 0x2
 12723 149f 74       		.byte	0x74
 12724 14a0 00       		.sleb128 0
 12725 14a1 18       		.uleb128 0x18
 12726 14a2 01       		.uleb128 0x1
 12727 14a3 51       		.byte	0x51
 12728 14a4 02       		.uleb128 0x2
 12729 14a5 75       		.byte	0x75
 12730 14a6 00       		.sleb128 0
 12731 14a7 00       		.byte	0
 12732 14a8 17       		.uleb128 0x17
 12733 14a9 12000000 		.4byte	.LVL366
 12734 14ad A0130000 		.4byte	0x13a0
 12735 14b1 18       		.uleb128 0x18
 12736 14b2 01       		.uleb128 0x1
 12737 14b3 50       		.byte	0x50
 12738 14b4 02       		.uleb128 0x2
 12739 14b5 74       		.byte	0x74
 12740 14b6 00       		.sleb128 0
 12741 14b7 18       		.uleb128 0x18
 12742 14b8 01       		.uleb128 0x1
 12743 14b9 51       		.byte	0x51
 12744 14ba 02       		.uleb128 0x2
 12745 14bb 75       		.byte	0x75
 12746 14bc 00       		.sleb128 0
 12747 14bd 00       		.byte	0
 12748 14be 00       		.byte	0
 12749 14bf 28       		.uleb128 0x28
 12750 14c0 3C050000 		.4byte	.LASF127
 12751 14c4 01       		.byte	0x1
 12752 14c5 0F03     		.2byte	0x30f
 12753 14c7 A9000000 		.4byte	0xa9
 12754 14cb 00000000 		.4byte	.LFB25
 12755 14cf D2000000 		.4byte	.LFE25-.LFB25
 12756 14d3 01       		.uleb128 0x1
 12757 14d4 9C       		.byte	0x9c
 12758 14d5 6B150000 		.4byte	0x156b
 12759 14d9 1C       		.uleb128 0x1c
 12760 14da 6300     		.ascii	"c\000"
 12761 14dc 01       		.byte	0x1
 12762 14dd 0F03     		.2byte	0x30f
ARM GAS  C:\Users\arist\AppData\Local\Temp\ccSjK9zC.s 			page 254


 12763 14df 9A130000 		.4byte	0x139a
 12764 14e3 A6190000 		.4byte	.LLST129
 12765 14e7 1C       		.uleb128 0x1c
 12766 14e8 62756600 		.ascii	"buf\000"
 12767 14ec 01       		.byte	0x1
 12768 14ed 0F03     		.2byte	0x30f
 12769 14ef CD030000 		.4byte	0x3cd
 12770 14f3 C4190000 		.4byte	.LLST130
 12771 14f7 23       		.uleb128 0x23
 12772 14f8 7E000000 		.4byte	.LASF66
 12773 14fc 01       		.byte	0x1
 12774 14fd 1103     		.2byte	0x311
 12775 14ff A9000000 		.4byte	0xa9
 12776 1503 E2190000 		.4byte	.LLST131
 12777 1507 27       		.uleb128 0x27
 12778 1508 74000000 		.4byte	.LBB43
 12779 150c 44000000 		.4byte	.LBE43-.LBB43
 12780 1510 4D150000 		.4byte	0x154d
 12781 1514 25       		.uleb128 0x25
 12782 1515 647800   		.ascii	"dx\000"
 12783 1518 01       		.byte	0x1
 12784 1519 1B03     		.2byte	0x31b
 12785 151b A9000000 		.4byte	0xa9
 12786 151f 181A0000 		.4byte	.LLST132
 12787 1523 29       		.uleb128 0x29
 12788 1524 8E000000 		.4byte	.LBB44
 12789 1528 2A000000 		.4byte	.LBE44-.LBB44
 12790 152c 25       		.uleb128 0x25
 12791 152d 6900     		.ascii	"i\000"
 12792 152f 01       		.byte	0x1
 12793 1530 1D03     		.2byte	0x31d
 12794 1532 A9000000 		.4byte	0xa9
 12795 1536 2B1A0000 		.4byte	.LLST133
 12796 153a 17       		.uleb128 0x17
 12797 153b AA000000 		.4byte	.LVL386
 12798 153f AF0E0000 		.4byte	0xeaf
 12799 1543 18       		.uleb128 0x18
 12800 1544 02       		.uleb128 0x2
 12801 1545 7D       		.byte	0x7d
 12802 1546 00       		.sleb128 0
 12803 1547 02       		.uleb128 0x2
 12804 1548 76       		.byte	0x76
 12805 1549 00       		.sleb128 0
 12806 154a 00       		.byte	0
 12807 154b 00       		.byte	0
 12808 154c 00       		.byte	0
 12809 154d 17       		.uleb128 0x17
 12810 154e 42000000 		.4byte	.LVL373
 12811 1552 B00C0000 		.4byte	0xcb0
 12812 1556 18       		.uleb128 0x18
 12813 1557 01       		.uleb128 0x1
 12814 1558 52       		.byte	0x52
 12815 1559 02       		.uleb128 0x2
 12816 155a 77       		.byte	0x77
 12817 155b 00       		.sleb128 0
 12818 155c 18       		.uleb128 0x18
 12819 155d 01       		.uleb128 0x1
ARM GAS  C:\Users\arist\AppData\Local\Temp\ccSjK9zC.s 			page 255


 12820 155e 53       		.byte	0x53
 12821 155f 02       		.uleb128 0x2
 12822 1560 78       		.byte	0x78
 12823 1561 00       		.sleb128 0
 12824 1562 18       		.uleb128 0x18
 12825 1563 02       		.uleb128 0x2
 12826 1564 7D       		.byte	0x7d
 12827 1565 00       		.sleb128 0
 12828 1566 02       		.uleb128 0x2
 12829 1567 76       		.byte	0x76
 12830 1568 00       		.sleb128 0
 12831 1569 00       		.byte	0
 12832 156a 00       		.byte	0
 12833 156b 28       		.uleb128 0x28
 12834 156c B1040000 		.4byte	.LASF128
 12835 1570 01       		.byte	0x1
 12836 1571 3203     		.2byte	0x332
 12837 1573 A9000000 		.4byte	0xa9
 12838 1577 00000000 		.4byte	.LFB26
 12839 157b 58010000 		.4byte	.LFE26-.LFB26
 12840 157f 01       		.uleb128 0x1
 12841 1580 9C       		.byte	0x9c
 12842 1581 C9160000 		.4byte	0x16c9
 12843 1585 1C       		.uleb128 0x1c
 12844 1586 6300     		.ascii	"c\000"
 12845 1588 01       		.byte	0x1
 12846 1589 3203     		.2byte	0x332
 12847 158b 9A130000 		.4byte	0x139a
 12848 158f 551A0000 		.4byte	.LLST134
 12849 1593 1C       		.uleb128 0x1c
 12850 1594 62756600 		.ascii	"buf\000"
 12851 1598 01       		.byte	0x1
 12852 1599 3203     		.2byte	0x332
 12853 159b CD030000 		.4byte	0x3cd
 12854 159f 811A0000 		.4byte	.LLST135
 12855 15a3 23       		.uleb128 0x23
 12856 15a4 7E000000 		.4byte	.LASF66
 12857 15a8 01       		.byte	0x1
 12858 15a9 3403     		.2byte	0x334
 12859 15ab A9000000 		.4byte	0xa9
 12860 15af AD1A0000 		.4byte	.LLST136
 12861 15b3 23       		.uleb128 0x23
 12862 15b4 53060000 		.4byte	.LASF129
 12863 15b8 01       		.byte	0x1
 12864 15b9 3503     		.2byte	0x335
 12865 15bb B4000000 		.4byte	0xb4
 12866 15bf FA1A0000 		.4byte	.LLST137
 12867 15c3 1B       		.uleb128 0x1b
 12868 15c4 66050000 		.4byte	.LASF130
 12869 15c8 01       		.byte	0x1
 12870 15c9 3603     		.2byte	0x336
 12871 15cb A9000000 		.4byte	0xa9
 12872 15cf 05       		.uleb128 0x5
 12873 15d0 03       		.byte	0x3
 12874 15d1 04000000 		.4byte	old_data.5131
 12875 15d5 26       		.uleb128 0x26
 12876 15d6 647800   		.ascii	"dx\000"
ARM GAS  C:\Users\arist\AppData\Local\Temp\ccSjK9zC.s 			page 256


 12877 15d9 01       		.byte	0x1
 12878 15da 3703     		.2byte	0x337
 12879 15dc A9000000 		.4byte	0xa9
 12880 15e0 05       		.uleb128 0x5
 12881 15e1 03       		.byte	0x3
 12882 15e2 02000000 		.4byte	dx.5132
 12883 15e6 26       		.uleb128 0x26
 12884 15e7 7800     		.ascii	"x\000"
 12885 15e9 01       		.byte	0x1
 12886 15ea 3903     		.2byte	0x339
 12887 15ec A9000000 		.4byte	0xa9
 12888 15f0 05       		.uleb128 0x5
 12889 15f1 03       		.byte	0x3
 12890 15f2 05000000 		.4byte	x.5133
 12891 15f6 1B       		.uleb128 0x1b
 12892 15f7 E0020000 		.4byte	.LASF131
 12893 15fb 01       		.byte	0x1
 12894 15fc 3B03     		.2byte	0x33b
 12895 15fe A9000000 		.4byte	0xa9
 12896 1602 05       		.uleb128 0x5
 12897 1603 03       		.byte	0x3
 12898 1604 03000000 		.4byte	x_cnt.5134
 12899 1608 27       		.uleb128 0x27
 12900 1609 94000000 		.4byte	.LBB45
 12901 160d 28000000 		.4byte	.LBE45-.LBB45
 12902 1611 39160000 		.4byte	0x1639
 12903 1615 25       		.uleb128 0x25
 12904 1616 6900     		.ascii	"i\000"
 12905 1618 01       		.byte	0x1
 12906 1619 4B03     		.2byte	0x34b
 12907 161b A9000000 		.4byte	0xa9
 12908 161f 391B0000 		.4byte	.LLST138
 12909 1623 17       		.uleb128 0x17
 12910 1624 B2000000 		.4byte	.LVL406
 12911 1628 4C070000 		.4byte	0x74c
 12912 162c 18       		.uleb128 0x18
 12913 162d 01       		.uleb128 0x1
 12914 162e 52       		.byte	0x52
 12915 162f 01       		.uleb128 0x1
 12916 1630 31       		.byte	0x31
 12917 1631 18       		.uleb128 0x18
 12918 1632 01       		.uleb128 0x1
 12919 1633 53       		.byte	0x53
 12920 1634 02       		.uleb128 0x2
 12921 1635 77       		.byte	0x77
 12922 1636 00       		.sleb128 0
 12923 1637 00       		.byte	0
 12924 1638 00       		.byte	0
 12925 1639 1F       		.uleb128 0x1f
 12926 163a 70000000 		.4byte	.LVL402
 12927 163e AF0E0000 		.4byte	0xeaf
 12928 1642 4E160000 		.4byte	0x164e
 12929 1646 18       		.uleb128 0x18
 12930 1647 02       		.uleb128 0x2
 12931 1648 7D       		.byte	0x7d
 12932 1649 00       		.sleb128 0
 12933 164a 02       		.uleb128 0x2
ARM GAS  C:\Users\arist\AppData\Local\Temp\ccSjK9zC.s 			page 257


 12934 164b 77       		.byte	0x77
 12935 164c 00       		.sleb128 0
 12936 164d 00       		.byte	0
 12937 164e 1F       		.uleb128 0x1f
 12938 164f 82000000 		.4byte	.LVL403
 12939 1653 AF0E0000 		.4byte	0xeaf
 12940 1657 63160000 		.4byte	0x1663
 12941 165b 18       		.uleb128 0x18
 12942 165c 02       		.uleb128 0x2
 12943 165d 7D       		.byte	0x7d
 12944 165e 00       		.sleb128 0
 12945 165f 02       		.uleb128 0x2
 12946 1660 77       		.byte	0x77
 12947 1661 00       		.sleb128 0
 12948 1662 00       		.byte	0
 12949 1663 1F       		.uleb128 0x1f
 12950 1664 94000000 		.4byte	.LVL404
 12951 1668 AF0E0000 		.4byte	0xeaf
 12952 166c 78160000 		.4byte	0x1678
 12953 1670 18       		.uleb128 0x18
 12954 1671 02       		.uleb128 0x2
 12955 1672 7D       		.byte	0x7d
 12956 1673 00       		.sleb128 0
 12957 1674 02       		.uleb128 0x2
 12958 1675 77       		.byte	0x77
 12959 1676 00       		.sleb128 0
 12960 1677 00       		.byte	0
 12961 1678 1F       		.uleb128 0x1f
 12962 1679 D6000000 		.4byte	.LVL410
 12963 167d B00C0000 		.4byte	0xcb0
 12964 1681 8D160000 		.4byte	0x168d
 12965 1685 18       		.uleb128 0x18
 12966 1686 02       		.uleb128 0x2
 12967 1687 7D       		.byte	0x7d
 12968 1688 00       		.sleb128 0
 12969 1689 02       		.uleb128 0x2
 12970 168a 77       		.byte	0x77
 12971 168b 00       		.sleb128 0
 12972 168c 00       		.byte	0
 12973 168d 1F       		.uleb128 0x1f
 12974 168e EC000000 		.4byte	.LVL411
 12975 1692 B00C0000 		.4byte	0xcb0
 12976 1696 A2160000 		.4byte	0x16a2
 12977 169a 18       		.uleb128 0x18
 12978 169b 02       		.uleb128 0x2
 12979 169c 7D       		.byte	0x7d
 12980 169d 00       		.sleb128 0
 12981 169e 02       		.uleb128 0x2
 12982 169f 77       		.byte	0x77
 12983 16a0 00       		.sleb128 0
 12984 16a1 00       		.byte	0
 12985 16a2 1F       		.uleb128 0x1f
 12986 16a3 02010000 		.4byte	.LVL413
 12987 16a7 AF0E0000 		.4byte	0xeaf
 12988 16ab B7160000 		.4byte	0x16b7
 12989 16af 18       		.uleb128 0x18
 12990 16b0 02       		.uleb128 0x2
ARM GAS  C:\Users\arist\AppData\Local\Temp\ccSjK9zC.s 			page 258


 12991 16b1 7D       		.byte	0x7d
 12992 16b2 00       		.sleb128 0
 12993 16b3 02       		.uleb128 0x2
 12994 16b4 77       		.byte	0x77
 12995 16b5 00       		.sleb128 0
 12996 16b6 00       		.byte	0
 12997 16b7 17       		.uleb128 0x17
 12998 16b8 2C010000 		.4byte	.LVL416
 12999 16bc AF0E0000 		.4byte	0xeaf
 13000 16c0 18       		.uleb128 0x18
 13001 16c1 02       		.uleb128 0x2
 13002 16c2 7D       		.byte	0x7d
 13003 16c3 00       		.sleb128 0
 13004 16c4 02       		.uleb128 0x2
 13005 16c5 77       		.byte	0x77
 13006 16c6 00       		.sleb128 0
 13007 16c7 00       		.byte	0
 13008 16c8 00       		.byte	0
 13009 16c9 28       		.uleb128 0x28
 13010 16ca 11030000 		.4byte	.LASF132
 13011 16ce 01       		.byte	0x1
 13012 16cf 6A03     		.2byte	0x36a
 13013 16d1 A9000000 		.4byte	0xa9
 13014 16d5 00000000 		.4byte	.LFB27
 13015 16d9 40010000 		.4byte	.LFE27-.LFB27
 13016 16dd 01       		.uleb128 0x1
 13017 16de 9C       		.byte	0x9c
 13018 16df 2B180000 		.4byte	0x182b
 13019 16e3 1C       		.uleb128 0x1c
 13020 16e4 6300     		.ascii	"c\000"
 13021 16e6 01       		.byte	0x1
 13022 16e7 6A03     		.2byte	0x36a
 13023 16e9 9A130000 		.4byte	0x139a
 13024 16ed 631B0000 		.4byte	.LLST139
 13025 16f1 1C       		.uleb128 0x1c
 13026 16f2 62756600 		.ascii	"buf\000"
 13027 16f6 01       		.byte	0x1
 13028 16f7 6A03     		.2byte	0x36a
 13029 16f9 CD030000 		.4byte	0x3cd
 13030 16fd 8F1B0000 		.4byte	.LLST140
 13031 1701 23       		.uleb128 0x23
 13032 1702 7E000000 		.4byte	.LASF66
 13033 1706 01       		.byte	0x1
 13034 1707 6C03     		.2byte	0x36c
 13035 1709 A9000000 		.4byte	0xa9
 13036 170d BB1B0000 		.4byte	.LLST141
 13037 1711 23       		.uleb128 0x23
 13038 1712 53060000 		.4byte	.LASF129
 13039 1716 01       		.byte	0x1
 13040 1717 6D03     		.2byte	0x36d
 13041 1719 B4000000 		.4byte	0xb4
 13042 171d 081C0000 		.4byte	.LLST142
 13043 1721 1B       		.uleb128 0x1b
 13044 1722 66050000 		.4byte	.LASF130
 13045 1726 01       		.byte	0x1
 13046 1727 6E03     		.2byte	0x36e
 13047 1729 A9000000 		.4byte	0xa9
ARM GAS  C:\Users\arist\AppData\Local\Temp\ccSjK9zC.s 			page 259


 13048 172d 05       		.uleb128 0x5
 13049 172e 03       		.byte	0x3
 13050 172f 08000000 		.4byte	old_data.5145
 13051 1733 26       		.uleb128 0x26
 13052 1734 647800   		.ascii	"dx\000"
 13053 1737 01       		.byte	0x1
 13054 1738 6F03     		.2byte	0x36f
 13055 173a A9000000 		.4byte	0xa9
 13056 173e 05       		.uleb128 0x5
 13057 173f 03       		.byte	0x3
 13058 1740 06000000 		.4byte	dx.5146
 13059 1744 26       		.uleb128 0x26
 13060 1745 7800     		.ascii	"x\000"
 13061 1747 01       		.byte	0x1
 13062 1748 7103     		.2byte	0x371
 13063 174a A9000000 		.4byte	0xa9
 13064 174e 05       		.uleb128 0x5
 13065 174f 03       		.byte	0x3
 13066 1750 09000000 		.4byte	x.5147
 13067 1754 1B       		.uleb128 0x1b
 13068 1755 E0020000 		.4byte	.LASF131
 13069 1759 01       		.byte	0x1
 13070 175a 7303     		.2byte	0x373
 13071 175c A9000000 		.4byte	0xa9
 13072 1760 05       		.uleb128 0x5
 13073 1761 03       		.byte	0x3
 13074 1762 07000000 		.4byte	x_cnt.5148
 13075 1766 27       		.uleb128 0x27
 13076 1767 90000000 		.4byte	.LBB46
 13077 176b 28000000 		.4byte	.LBE46-.LBB46
 13078 176f 97170000 		.4byte	0x1797
 13079 1773 25       		.uleb128 0x25
 13080 1774 6900     		.ascii	"i\000"
 13081 1776 01       		.byte	0x1
 13082 1777 8403     		.2byte	0x384
 13083 1779 A9000000 		.4byte	0xa9
 13084 177d 471C0000 		.4byte	.LLST143
 13085 1781 17       		.uleb128 0x17
 13086 1782 AE000000 		.4byte	.LVL435
 13087 1786 4C070000 		.4byte	0x74c
 13088 178a 18       		.uleb128 0x18
 13089 178b 01       		.uleb128 0x1
 13090 178c 52       		.byte	0x52
 13091 178d 01       		.uleb128 0x1
 13092 178e 31       		.byte	0x31
 13093 178f 18       		.uleb128 0x18
 13094 1790 01       		.uleb128 0x1
 13095 1791 53       		.byte	0x53
 13096 1792 02       		.uleb128 0x2
 13097 1793 77       		.byte	0x77
 13098 1794 00       		.sleb128 0
 13099 1795 00       		.byte	0
 13100 1796 00       		.byte	0
 13101 1797 1F       		.uleb128 0x1f
 13102 1798 6C000000 		.4byte	.LVL431
 13103 179c AF0E0000 		.4byte	0xeaf
 13104 17a0 AC170000 		.4byte	0x17ac
ARM GAS  C:\Users\arist\AppData\Local\Temp\ccSjK9zC.s 			page 260


 13105 17a4 18       		.uleb128 0x18
 13106 17a5 02       		.uleb128 0x2
 13107 17a6 7D       		.byte	0x7d
 13108 17a7 00       		.sleb128 0
 13109 17a8 02       		.uleb128 0x2
 13110 17a9 77       		.byte	0x77
 13111 17aa 00       		.sleb128 0
 13112 17ab 00       		.byte	0
 13113 17ac 1F       		.uleb128 0x1f
 13114 17ad 7E000000 		.4byte	.LVL432
 13115 17b1 AF0E0000 		.4byte	0xeaf
 13116 17b5 C1170000 		.4byte	0x17c1
 13117 17b9 18       		.uleb128 0x18
 13118 17ba 02       		.uleb128 0x2
 13119 17bb 7D       		.byte	0x7d
 13120 17bc 00       		.sleb128 0
 13121 17bd 02       		.uleb128 0x2
 13122 17be 77       		.byte	0x77
 13123 17bf 00       		.sleb128 0
 13124 17c0 00       		.byte	0
 13125 17c1 1F       		.uleb128 0x1f
 13126 17c2 90000000 		.4byte	.LVL433
 13127 17c6 AF0E0000 		.4byte	0xeaf
 13128 17ca D6170000 		.4byte	0x17d6
 13129 17ce 18       		.uleb128 0x18
 13130 17cf 02       		.uleb128 0x2
 13131 17d0 7D       		.byte	0x7d
 13132 17d1 00       		.sleb128 0
 13133 17d2 02       		.uleb128 0x2
 13134 17d3 77       		.byte	0x77
 13135 17d4 00       		.sleb128 0
 13136 17d5 00       		.byte	0
 13137 17d6 1F       		.uleb128 0x1f
 13138 17d7 D2000000 		.4byte	.LVL439
 13139 17db B00C0000 		.4byte	0xcb0
 13140 17df EB170000 		.4byte	0x17eb
 13141 17e3 18       		.uleb128 0x18
 13142 17e4 02       		.uleb128 0x2
 13143 17e5 7D       		.byte	0x7d
 13144 17e6 00       		.sleb128 0
 13145 17e7 02       		.uleb128 0x2
 13146 17e8 77       		.byte	0x77
 13147 17e9 00       		.sleb128 0
 13148 17ea 00       		.byte	0
 13149 17eb 1F       		.uleb128 0x1f
 13150 17ec E8000000 		.4byte	.LVL440
 13151 17f0 B00C0000 		.4byte	0xcb0
 13152 17f4 00180000 		.4byte	0x1800
 13153 17f8 18       		.uleb128 0x18
 13154 17f9 02       		.uleb128 0x2
 13155 17fa 7D       		.byte	0x7d
 13156 17fb 00       		.sleb128 0
 13157 17fc 02       		.uleb128 0x2
 13158 17fd 77       		.byte	0x77
 13159 17fe 00       		.sleb128 0
 13160 17ff 00       		.byte	0
 13161 1800 1F       		.uleb128 0x1f
ARM GAS  C:\Users\arist\AppData\Local\Temp\ccSjK9zC.s 			page 261


 13162 1801 FE000000 		.4byte	.LVL442
 13163 1805 AF0E0000 		.4byte	0xeaf
 13164 1809 15180000 		.4byte	0x1815
 13165 180d 18       		.uleb128 0x18
 13166 180e 02       		.uleb128 0x2
 13167 180f 7D       		.byte	0x7d
 13168 1810 00       		.sleb128 0
 13169 1811 02       		.uleb128 0x2
 13170 1812 77       		.byte	0x77
 13171 1813 00       		.sleb128 0
 13172 1814 00       		.byte	0
 13173 1815 17       		.uleb128 0x17
 13174 1816 1E010000 		.4byte	.LVL444
 13175 181a 4C070000 		.4byte	0x74c
 13176 181e 18       		.uleb128 0x18
 13177 181f 01       		.uleb128 0x1
 13178 1820 52       		.byte	0x52
 13179 1821 01       		.uleb128 0x1
 13180 1822 31       		.byte	0x31
 13181 1823 18       		.uleb128 0x18
 13182 1824 01       		.uleb128 0x1
 13183 1825 53       		.byte	0x53
 13184 1826 02       		.uleb128 0x2
 13185 1827 77       		.byte	0x77
 13186 1828 00       		.sleb128 0
 13187 1829 00       		.byte	0
 13188 182a 00       		.byte	0
 13189 182b 28       		.uleb128 0x28
 13190 182c 36000000 		.4byte	.LASF133
 13191 1830 01       		.byte	0x1
 13192 1831 A503     		.2byte	0x3a5
 13193 1833 A9000000 		.4byte	0xa9
 13194 1837 00000000 		.4byte	.LFB28
 13195 183b E6000000 		.4byte	.LFE28-.LFB28
 13196 183f 01       		.uleb128 0x1
 13197 1840 9C       		.byte	0x9c
 13198 1841 2E190000 		.4byte	0x192e
 13199 1845 1C       		.uleb128 0x1c
 13200 1846 6300     		.ascii	"c\000"
 13201 1848 01       		.byte	0x1
 13202 1849 A503     		.2byte	0x3a5
 13203 184b 9A130000 		.4byte	0x139a
 13204 184f 711C0000 		.4byte	.LLST144
 13205 1853 1C       		.uleb128 0x1c
 13206 1854 62756600 		.ascii	"buf\000"
 13207 1858 01       		.byte	0x1
 13208 1859 A503     		.2byte	0x3a5
 13209 185b CD030000 		.4byte	0x3cd
 13210 185f B31C0000 		.4byte	.LLST145
 13211 1863 23       		.uleb128 0x23
 13212 1864 7E000000 		.4byte	.LASF66
 13213 1868 01       		.byte	0x1
 13214 1869 A703     		.2byte	0x3a7
 13215 186b A9000000 		.4byte	0xa9
 13216 186f F51C0000 		.4byte	.LLST146
 13217 1873 25       		.uleb128 0x25
 13218 1874 647800   		.ascii	"dx\000"
ARM GAS  C:\Users\arist\AppData\Local\Temp\ccSjK9zC.s 			page 262


 13219 1877 01       		.byte	0x1
 13220 1878 A803     		.2byte	0x3a8
 13221 187a A9000000 		.4byte	0xa9
 13222 187e 2B1D0000 		.4byte	.LLST147
 13223 1882 25       		.uleb128 0x25
 13224 1883 647900   		.ascii	"dy\000"
 13225 1886 01       		.byte	0x1
 13226 1887 A903     		.2byte	0x3a9
 13227 1889 B4000000 		.4byte	0xb4
 13228 188d 561D0000 		.4byte	.LLST148
 13229 1891 27       		.uleb128 0x27
 13230 1892 74000000 		.4byte	.LBB47
 13231 1896 64000000 		.4byte	.LBE47-.LBB47
 13232 189a C2180000 		.4byte	0x18c2
 13233 189e 25       		.uleb128 0x25
 13234 189f 6900     		.ascii	"i\000"
 13235 18a1 01       		.byte	0x1
 13236 18a2 B703     		.2byte	0x3b7
 13237 18a4 A9000000 		.4byte	0xa9
 13238 18a8 811D0000 		.4byte	.LLST149
 13239 18ac 17       		.uleb128 0x17
 13240 18ad CC000000 		.4byte	.LVL474
 13241 18b1 4C070000 		.4byte	0x74c
 13242 18b5 18       		.uleb128 0x18
 13243 18b6 01       		.uleb128 0x1
 13244 18b7 52       		.byte	0x52
 13245 18b8 01       		.uleb128 0x1
 13246 18b9 31       		.byte	0x31
 13247 18ba 18       		.uleb128 0x18
 13248 18bb 01       		.uleb128 0x1
 13249 18bc 53       		.byte	0x53
 13250 18bd 02       		.uleb128 0x2
 13251 18be 76       		.byte	0x76
 13252 18bf 00       		.sleb128 0
 13253 18c0 00       		.byte	0
 13254 18c1 00       		.byte	0
 13255 18c2 1F       		.uleb128 0x1f
 13256 18c3 2E000000 		.4byte	.LVL456
 13257 18c7 B00C0000 		.4byte	0xcb0
 13258 18cb DD180000 		.4byte	0x18dd
 13259 18cf 18       		.uleb128 0x18
 13260 18d0 01       		.uleb128 0x1
 13261 18d1 52       		.byte	0x52
 13262 18d2 02       		.uleb128 0x2
 13263 18d3 75       		.byte	0x75
 13264 18d4 00       		.sleb128 0
 13265 18d5 18       		.uleb128 0x18
 13266 18d6 02       		.uleb128 0x2
 13267 18d7 7D       		.byte	0x7d
 13268 18d8 00       		.sleb128 0
 13269 18d9 02       		.uleb128 0x2
 13270 18da 76       		.byte	0x76
 13271 18db 00       		.sleb128 0
 13272 18dc 00       		.byte	0
 13273 18dd 1F       		.uleb128 0x1f
 13274 18de 3C000000 		.4byte	.LVL457
 13275 18e2 B00C0000 		.4byte	0xcb0
ARM GAS  C:\Users\arist\AppData\Local\Temp\ccSjK9zC.s 			page 263


 13276 18e6 F2180000 		.4byte	0x18f2
 13277 18ea 18       		.uleb128 0x18
 13278 18eb 02       		.uleb128 0x2
 13279 18ec 7D       		.byte	0x7d
 13280 18ed 00       		.sleb128 0
 13281 18ee 02       		.uleb128 0x2
 13282 18ef 76       		.byte	0x76
 13283 18f0 00       		.sleb128 0
 13284 18f1 00       		.byte	0
 13285 18f2 1F       		.uleb128 0x1f
 13286 18f3 50000000 		.4byte	.LVL459
 13287 18f7 AF0E0000 		.4byte	0xeaf
 13288 18fb 07190000 		.4byte	0x1907
 13289 18ff 18       		.uleb128 0x18
 13290 1900 02       		.uleb128 0x2
 13291 1901 7D       		.byte	0x7d
 13292 1902 00       		.sleb128 0
 13293 1903 02       		.uleb128 0x2
 13294 1904 76       		.byte	0x76
 13295 1905 00       		.sleb128 0
 13296 1906 00       		.byte	0
 13297 1907 1F       		.uleb128 0x1f
 13298 1908 62000000 		.4byte	.LVL460
 13299 190c AF0E0000 		.4byte	0xeaf
 13300 1910 1C190000 		.4byte	0x191c
 13301 1914 18       		.uleb128 0x18
 13302 1915 02       		.uleb128 0x2
 13303 1916 7D       		.byte	0x7d
 13304 1917 00       		.sleb128 0
 13305 1918 02       		.uleb128 0x2
 13306 1919 76       		.byte	0x76
 13307 191a 00       		.sleb128 0
 13308 191b 00       		.byte	0
 13309 191c 17       		.uleb128 0x17
 13310 191d 74000000 		.4byte	.LVL461
 13311 1921 AF0E0000 		.4byte	0xeaf
 13312 1925 18       		.uleb128 0x18
 13313 1926 02       		.uleb128 0x2
 13314 1927 7D       		.byte	0x7d
 13315 1928 00       		.sleb128 0
 13316 1929 02       		.uleb128 0x2
 13317 192a 76       		.byte	0x76
 13318 192b 00       		.sleb128 0
 13319 192c 00       		.byte	0
 13320 192d 00       		.byte	0
 13321 192e 19       		.uleb128 0x19
 13322 192f DF050000 		.4byte	.LASF134
 13323 1933 01       		.byte	0x1
 13324 1934 3102     		.2byte	0x231
 13325 1936 A9000000 		.4byte	0xa9
 13326 193a 00000000 		.4byte	.LFB13
 13327 193e 4C000000 		.4byte	.LFE13-.LFB13
 13328 1942 01       		.uleb128 0x1
 13329 1943 9C       		.byte	0x9c
 13330 1944 0F1A0000 		.4byte	0x1a0f
 13331 1948 1A       		.uleb128 0x1a
 13332 1949 47030000 		.4byte	.LASF135
ARM GAS  C:\Users\arist\AppData\Local\Temp\ccSjK9zC.s 			page 264


 13333 194d 01       		.byte	0x1
 13334 194e 3102     		.2byte	0x231
 13335 1950 25000000 		.4byte	0x25
 13336 1954 AB1D0000 		.4byte	.LLST150
 13337 1958 1C       		.uleb128 0x1c
 13338 1959 6300     		.ascii	"c\000"
 13339 195b 01       		.byte	0x1
 13340 195c 3102     		.2byte	0x231
 13341 195e 9A130000 		.4byte	0x139a
 13342 1962 621E0000 		.4byte	.LLST151
 13343 1966 1C       		.uleb128 0x1c
 13344 1967 62756600 		.ascii	"buf\000"
 13345 196b 01       		.byte	0x1
 13346 196c 3102     		.2byte	0x231
 13347 196e CD030000 		.4byte	0x3cd
 13348 1972 FD1E0000 		.4byte	.LLST152
 13349 1976 23       		.uleb128 0x23
 13350 1977 7E000000 		.4byte	.LASF66
 13351 197b 01       		.byte	0x1
 13352 197c 3202     		.2byte	0x232
 13353 197e A9000000 		.4byte	0xa9
 13354 1982 8D1F0000 		.4byte	.LLST153
 13355 1986 1F       		.uleb128 0x1f
 13356 1987 1E000000 		.4byte	.LVL484
 13357 198b 46140000 		.4byte	0x1446
 13358 198f A2190000 		.4byte	0x19a2
 13359 1993 18       		.uleb128 0x18
 13360 1994 01       		.uleb128 0x1
 13361 1995 50       		.byte	0x50
 13362 1996 03       		.uleb128 0x3
 13363 1997 F3       		.byte	0xf3
 13364 1998 01       		.uleb128 0x1
 13365 1999 51       		.byte	0x51
 13366 199a 18       		.uleb128 0x18
 13367 199b 01       		.uleb128 0x1
 13368 199c 51       		.byte	0x51
 13369 199d 03       		.uleb128 0x3
 13370 199e F3       		.byte	0xf3
 13371 199f 01       		.uleb128 0x1
 13372 19a0 52       		.byte	0x52
 13373 19a1 00       		.byte	0
 13374 19a2 1F       		.uleb128 0x1f
 13375 19a3 28000000 		.4byte	.LVL486
 13376 19a7 2B180000 		.4byte	0x182b
 13377 19ab BE190000 		.4byte	0x19be
 13378 19af 18       		.uleb128 0x18
 13379 19b0 01       		.uleb128 0x1
 13380 19b1 50       		.byte	0x50
 13381 19b2 03       		.uleb128 0x3
 13382 19b3 F3       		.byte	0xf3
 13383 19b4 01       		.uleb128 0x1
 13384 19b5 51       		.byte	0x51
 13385 19b6 18       		.uleb128 0x18
 13386 19b7 01       		.uleb128 0x1
 13387 19b8 51       		.byte	0x51
 13388 19b9 03       		.uleb128 0x3
 13389 19ba F3       		.byte	0xf3
ARM GAS  C:\Users\arist\AppData\Local\Temp\ccSjK9zC.s 			page 265


 13390 19bb 01       		.uleb128 0x1
 13391 19bc 52       		.byte	0x52
 13392 19bd 00       		.byte	0
 13393 19be 1F       		.uleb128 0x1f
 13394 19bf 32000000 		.4byte	.LVL488
 13395 19c3 BF140000 		.4byte	0x14bf
 13396 19c7 DA190000 		.4byte	0x19da
 13397 19cb 18       		.uleb128 0x18
 13398 19cc 01       		.uleb128 0x1
 13399 19cd 50       		.byte	0x50
 13400 19ce 03       		.uleb128 0x3
 13401 19cf F3       		.byte	0xf3
 13402 19d0 01       		.uleb128 0x1
 13403 19d1 51       		.byte	0x51
 13404 19d2 18       		.uleb128 0x18
 13405 19d3 01       		.uleb128 0x1
 13406 19d4 51       		.byte	0x51
 13407 19d5 03       		.uleb128 0x3
 13408 19d6 F3       		.byte	0xf3
 13409 19d7 01       		.uleb128 0x1
 13410 19d8 52       		.byte	0x52
 13411 19d9 00       		.byte	0
 13412 19da 1F       		.uleb128 0x1f
 13413 19db 3C000000 		.4byte	.LVL490
 13414 19df 6B150000 		.4byte	0x156b
 13415 19e3 F6190000 		.4byte	0x19f6
 13416 19e7 18       		.uleb128 0x18
 13417 19e8 01       		.uleb128 0x1
 13418 19e9 50       		.byte	0x50
 13419 19ea 03       		.uleb128 0x3
 13420 19eb F3       		.byte	0xf3
 13421 19ec 01       		.uleb128 0x1
 13422 19ed 51       		.byte	0x51
 13423 19ee 18       		.uleb128 0x18
 13424 19ef 01       		.uleb128 0x1
 13425 19f0 51       		.byte	0x51
 13426 19f1 03       		.uleb128 0x3
 13427 19f2 F3       		.byte	0xf3
 13428 19f3 01       		.uleb128 0x1
 13429 19f4 52       		.byte	0x52
 13430 19f5 00       		.byte	0
 13431 19f6 17       		.uleb128 0x17
 13432 19f7 46000000 		.4byte	.LVL492
 13433 19fb C9160000 		.4byte	0x16c9
 13434 19ff 18       		.uleb128 0x18
 13435 1a00 01       		.uleb128 0x1
 13436 1a01 50       		.byte	0x50
 13437 1a02 03       		.uleb128 0x3
 13438 1a03 F3       		.byte	0xf3
 13439 1a04 01       		.uleb128 0x1
 13440 1a05 51       		.byte	0x51
 13441 1a06 18       		.uleb128 0x18
 13442 1a07 01       		.uleb128 0x1
 13443 1a08 51       		.byte	0x51
 13444 1a09 03       		.uleb128 0x3
 13445 1a0a F3       		.byte	0xf3
 13446 1a0b 01       		.uleb128 0x1
ARM GAS  C:\Users\arist\AppData\Local\Temp\ccSjK9zC.s 			page 266


 13447 1a0c 52       		.byte	0x52
 13448 1a0d 00       		.byte	0
 13449 1a0e 00       		.byte	0
 13450 1a0f 2A       		.uleb128 0x2a
 13451 1a10 FA000000 		.4byte	.LASF136
 13452 1a14 05       		.byte	0x5
 13453 1a15 0F       		.byte	0xf
 13454 1a16 A9000000 		.4byte	0xa9
 13455 1a1a 05       		.uleb128 0x5
 13456 1a1b 03       		.byte	0x3
 13457 1a1c 00000000 		.4byte	font_height
 13458 1a20 2A       		.uleb128 0x2a
 13459 1a21 7C050000 		.4byte	.LASF137
 13460 1a25 05       		.byte	0x5
 13461 1a26 10       		.byte	0x10
 13462 1a27 A9000000 		.4byte	0xa9
 13463 1a2b 05       		.uleb128 0x5
 13464 1a2c 03       		.byte	0x3
 13465 1a2d 00000000 		.4byte	font_width
 13466 1a31 0B       		.uleb128 0xb
 13467 1a32 BF000000 		.4byte	0xbf
 13468 1a36 471A0000 		.4byte	0x1a47
 13469 1a3a 0C       		.uleb128 0xc
 13470 1a3b D1000000 		.4byte	0xd1
 13471 1a3f FF       		.byte	0xff
 13472 1a40 0C       		.uleb128 0xc
 13473 1a41 D1000000 		.4byte	0xd1
 13474 1a45 06       		.byte	0x6
 13475 1a46 00       		.byte	0
 13476 1a47 2A       		.uleb128 0x2a
 13477 1a48 58020000 		.4byte	.LASF138
 13478 1a4c 05       		.byte	0x5
 13479 1a4d 12       		.byte	0x12
 13480 1a4e 311A0000 		.4byte	0x1a31
 13481 1a52 05       		.uleb128 0x5
 13482 1a53 03       		.byte	0x3
 13483 1a54 00000000 		.4byte	font_s
 13484 1a58 0B       		.uleb128 0xb
 13485 1a59 BF000000 		.4byte	0xbf
 13486 1a5d 6E1A0000 		.4byte	0x1a6e
 13487 1a61 0C       		.uleb128 0xc
 13488 1a62 D1000000 		.4byte	0xd1
 13489 1a66 FF       		.byte	0xff
 13490 1a67 0C       		.uleb128 0xc
 13491 1a68 D1000000 		.4byte	0xd1
 13492 1a6c 0D       		.byte	0xd
 13493 1a6d 00       		.byte	0
 13494 1a6e 2B       		.uleb128 0x2b
 13495 1a6f 75040000 		.4byte	.LASF139
 13496 1a73 05       		.byte	0x5
 13497 1a74 1801     		.2byte	0x118
 13498 1a76 581A0000 		.4byte	0x1a58
 13499 1a7a 05       		.uleb128 0x5
 13500 1a7b 03       		.byte	0x3
 13501 1a7c 00000000 		.4byte	font_m
 13502 1a80 2B       		.uleb128 0x2b
 13503 1a81 45020000 		.4byte	.LASF140
ARM GAS  C:\Users\arist\AppData\Local\Temp\ccSjK9zC.s 			page 267


 13504 1a85 05       		.byte	0x5
 13505 1a86 1E02     		.2byte	0x21e
 13506 1a88 311A0000 		.4byte	0x1a31
 13507 1a8c 05       		.uleb128 0x5
 13508 1a8d 03       		.byte	0x3
 13509 1a8e 00000000 		.4byte	font_l
 13510 1a92 2C       		.uleb128 0x2c
 13511 1a93 40030000 		.4byte	.LASF141
 13512 1a97 40030000 		.4byte	.LASF141
 13513 1a9b 06       		.byte	0x6
 13514 1a9c 19       		.byte	0x19
 13515 1a9d 2C       		.uleb128 0x2c
 13516 1a9e 1D010000 		.4byte	.LASF142
 13517 1aa2 1D010000 		.4byte	.LASF142
 13518 1aa6 07       		.byte	0x7
 13519 1aa7 25       		.byte	0x25
 13520 1aa8 2C       		.uleb128 0x2c
 13521 1aa9 F7040000 		.4byte	.LASF143
 13522 1aad F7040000 		.4byte	.LASF143
 13523 1ab1 06       		.byte	0x6
 13524 1ab2 18       		.byte	0x18
 13525 1ab3 2C       		.uleb128 0x2c
 13526 1ab4 38020000 		.4byte	.LASF144
 13527 1ab8 38020000 		.4byte	.LASF144
 13528 1abc 07       		.byte	0x7
 13529 1abd 2D       		.byte	0x2d
 13530 1abe 2C       		.uleb128 0x2c
 13531 1abf 17000000 		.4byte	.LASF145
 13532 1ac3 17000000 		.4byte	.LASF145
 13533 1ac7 06       		.byte	0x6
 13534 1ac8 21       		.byte	0x21
 13535 1ac9 00       		.byte	0
 13536              		.section	.debug_abbrev,"",%progbits
 13537              	.Ldebug_abbrev0:
 13538 0000 01       		.uleb128 0x1
 13539 0001 11       		.uleb128 0x11
 13540 0002 01       		.byte	0x1
 13541 0003 25       		.uleb128 0x25
 13542 0004 0E       		.uleb128 0xe
 13543 0005 13       		.uleb128 0x13
 13544 0006 0B       		.uleb128 0xb
 13545 0007 03       		.uleb128 0x3
 13546 0008 0E       		.uleb128 0xe
 13547 0009 1B       		.uleb128 0x1b
 13548 000a 0E       		.uleb128 0xe
 13549 000b 55       		.uleb128 0x55
 13550 000c 17       		.uleb128 0x17
 13551 000d 11       		.uleb128 0x11
 13552 000e 01       		.uleb128 0x1
 13553 000f 10       		.uleb128 0x10
 13554 0010 17       		.uleb128 0x17
 13555 0011 00       		.byte	0
 13556 0012 00       		.byte	0
 13557 0013 02       		.uleb128 0x2
 13558 0014 24       		.uleb128 0x24
 13559 0015 00       		.byte	0
 13560 0016 0B       		.uleb128 0xb
ARM GAS  C:\Users\arist\AppData\Local\Temp\ccSjK9zC.s 			page 268


 13561 0017 0B       		.uleb128 0xb
 13562 0018 3E       		.uleb128 0x3e
 13563 0019 0B       		.uleb128 0xb
 13564 001a 03       		.uleb128 0x3
 13565 001b 0E       		.uleb128 0xe
 13566 001c 00       		.byte	0
 13567 001d 00       		.byte	0
 13568 001e 03       		.uleb128 0x3
 13569 001f 16       		.uleb128 0x16
 13570 0020 00       		.byte	0
 13571 0021 03       		.uleb128 0x3
 13572 0022 0E       		.uleb128 0xe
 13573 0023 3A       		.uleb128 0x3a
 13574 0024 0B       		.uleb128 0xb
 13575 0025 3B       		.uleb128 0x3b
 13576 0026 0B       		.uleb128 0xb
 13577 0027 49       		.uleb128 0x49
 13578 0028 13       		.uleb128 0x13
 13579 0029 00       		.byte	0
 13580 002a 00       		.byte	0
 13581 002b 04       		.uleb128 0x4
 13582 002c 24       		.uleb128 0x24
 13583 002d 00       		.byte	0
 13584 002e 0B       		.uleb128 0xb
 13585 002f 0B       		.uleb128 0xb
 13586 0030 3E       		.uleb128 0x3e
 13587 0031 0B       		.uleb128 0xb
 13588 0032 03       		.uleb128 0x3
 13589 0033 08       		.uleb128 0x8
 13590 0034 00       		.byte	0
 13591 0035 00       		.byte	0
 13592 0036 05       		.uleb128 0x5
 13593 0037 04       		.uleb128 0x4
 13594 0038 01       		.byte	0x1
 13595 0039 03       		.uleb128 0x3
 13596 003a 0E       		.uleb128 0xe
 13597 003b 0B       		.uleb128 0xb
 13598 003c 0B       		.uleb128 0xb
 13599 003d 49       		.uleb128 0x49
 13600 003e 13       		.uleb128 0x13
 13601 003f 3A       		.uleb128 0x3a
 13602 0040 0B       		.uleb128 0xb
 13603 0041 3B       		.uleb128 0x3b
 13604 0042 0B       		.uleb128 0xb
 13605 0043 01       		.uleb128 0x1
 13606 0044 13       		.uleb128 0x13
 13607 0045 00       		.byte	0
 13608 0046 00       		.byte	0
 13609 0047 06       		.uleb128 0x6
 13610 0048 28       		.uleb128 0x28
 13611 0049 00       		.byte	0
 13612 004a 03       		.uleb128 0x3
 13613 004b 0E       		.uleb128 0xe
 13614 004c 1C       		.uleb128 0x1c
 13615 004d 0B       		.uleb128 0xb
 13616 004e 00       		.byte	0
 13617 004f 00       		.byte	0
ARM GAS  C:\Users\arist\AppData\Local\Temp\ccSjK9zC.s 			page 269


 13618 0050 07       		.uleb128 0x7
 13619 0051 28       		.uleb128 0x28
 13620 0052 00       		.byte	0
 13621 0053 03       		.uleb128 0x3
 13622 0054 08       		.uleb128 0x8
 13623 0055 1C       		.uleb128 0x1c
 13624 0056 0B       		.uleb128 0xb
 13625 0057 00       		.byte	0
 13626 0058 00       		.byte	0
 13627 0059 08       		.uleb128 0x8
 13628 005a 13       		.uleb128 0x13
 13629 005b 01       		.byte	0x1
 13630 005c 03       		.uleb128 0x3
 13631 005d 0E       		.uleb128 0xe
 13632 005e 0B       		.uleb128 0xb
 13633 005f 0B       		.uleb128 0xb
 13634 0060 3A       		.uleb128 0x3a
 13635 0061 0B       		.uleb128 0xb
 13636 0062 3B       		.uleb128 0x3b
 13637 0063 0B       		.uleb128 0xb
 13638 0064 01       		.uleb128 0x1
 13639 0065 13       		.uleb128 0x13
 13640 0066 00       		.byte	0
 13641 0067 00       		.byte	0
 13642 0068 09       		.uleb128 0x9
 13643 0069 0D       		.uleb128 0xd
 13644 006a 00       		.byte	0
 13645 006b 03       		.uleb128 0x3
 13646 006c 0E       		.uleb128 0xe
 13647 006d 3A       		.uleb128 0x3a
 13648 006e 0B       		.uleb128 0xb
 13649 006f 3B       		.uleb128 0x3b
 13650 0070 0B       		.uleb128 0xb
 13651 0071 49       		.uleb128 0x49
 13652 0072 13       		.uleb128 0x13
 13653 0073 38       		.uleb128 0x38
 13654 0074 0B       		.uleb128 0xb
 13655 0075 00       		.byte	0
 13656 0076 00       		.byte	0
 13657 0077 0A       		.uleb128 0xa
 13658 0078 0F       		.uleb128 0xf
 13659 0079 00       		.byte	0
 13660 007a 0B       		.uleb128 0xb
 13661 007b 0B       		.uleb128 0xb
 13662 007c 49       		.uleb128 0x49
 13663 007d 13       		.uleb128 0x13
 13664 007e 00       		.byte	0
 13665 007f 00       		.byte	0
 13666 0080 0B       		.uleb128 0xb
 13667 0081 01       		.uleb128 0x1
 13668 0082 01       		.byte	0x1
 13669 0083 49       		.uleb128 0x49
 13670 0084 13       		.uleb128 0x13
 13671 0085 01       		.uleb128 0x1
 13672 0086 13       		.uleb128 0x13
 13673 0087 00       		.byte	0
 13674 0088 00       		.byte	0
ARM GAS  C:\Users\arist\AppData\Local\Temp\ccSjK9zC.s 			page 270


 13675 0089 0C       		.uleb128 0xc
 13676 008a 21       		.uleb128 0x21
 13677 008b 00       		.byte	0
 13678 008c 49       		.uleb128 0x49
 13679 008d 13       		.uleb128 0x13
 13680 008e 2F       		.uleb128 0x2f
 13681 008f 0B       		.uleb128 0xb
 13682 0090 00       		.byte	0
 13683 0091 00       		.byte	0
 13684 0092 0D       		.uleb128 0xd
 13685 0093 13       		.uleb128 0x13
 13686 0094 01       		.byte	0x1
 13687 0095 0B       		.uleb128 0xb
 13688 0096 0B       		.uleb128 0xb
 13689 0097 3A       		.uleb128 0x3a
 13690 0098 0B       		.uleb128 0xb
 13691 0099 3B       		.uleb128 0x3b
 13692 009a 0B       		.uleb128 0xb
 13693 009b 01       		.uleb128 0x1
 13694 009c 13       		.uleb128 0x13
 13695 009d 00       		.byte	0
 13696 009e 00       		.byte	0
 13697 009f 0E       		.uleb128 0xe
 13698 00a0 0D       		.uleb128 0xd
 13699 00a1 00       		.byte	0
 13700 00a2 03       		.uleb128 0x3
 13701 00a3 08       		.uleb128 0x8
 13702 00a4 3A       		.uleb128 0x3a
 13703 00a5 0B       		.uleb128 0xb
 13704 00a6 3B       		.uleb128 0x3b
 13705 00a7 0B       		.uleb128 0xb
 13706 00a8 49       		.uleb128 0x49
 13707 00a9 13       		.uleb128 0x13
 13708 00aa 38       		.uleb128 0x38
 13709 00ab 0B       		.uleb128 0xb
 13710 00ac 00       		.byte	0
 13711 00ad 00       		.byte	0
 13712 00ae 0F       		.uleb128 0xf
 13713 00af 2E       		.uleb128 0x2e
 13714 00b0 01       		.byte	0x1
 13715 00b1 3F       		.uleb128 0x3f
 13716 00b2 19       		.uleb128 0x19
 13717 00b3 03       		.uleb128 0x3
 13718 00b4 0E       		.uleb128 0xe
 13719 00b5 3A       		.uleb128 0x3a
 13720 00b6 0B       		.uleb128 0xb
 13721 00b7 3B       		.uleb128 0x3b
 13722 00b8 0B       		.uleb128 0xb
 13723 00b9 27       		.uleb128 0x27
 13724 00ba 19       		.uleb128 0x19
 13725 00bb 11       		.uleb128 0x11
 13726 00bc 01       		.uleb128 0x1
 13727 00bd 12       		.uleb128 0x12
 13728 00be 06       		.uleb128 0x6
 13729 00bf 40       		.uleb128 0x40
 13730 00c0 18       		.uleb128 0x18
 13731 00c1 9742     		.uleb128 0x2117
ARM GAS  C:\Users\arist\AppData\Local\Temp\ccSjK9zC.s 			page 271


 13732 00c3 19       		.uleb128 0x19
 13733 00c4 01       		.uleb128 0x1
 13734 00c5 13       		.uleb128 0x13
 13735 00c6 00       		.byte	0
 13736 00c7 00       		.byte	0
 13737 00c8 10       		.uleb128 0x10
 13738 00c9 05       		.uleb128 0x5
 13739 00ca 00       		.byte	0
 13740 00cb 03       		.uleb128 0x3
 13741 00cc 0E       		.uleb128 0xe
 13742 00cd 3A       		.uleb128 0x3a
 13743 00ce 0B       		.uleb128 0xb
 13744 00cf 3B       		.uleb128 0x3b
 13745 00d0 0B       		.uleb128 0xb
 13746 00d1 49       		.uleb128 0x49
 13747 00d2 13       		.uleb128 0x13
 13748 00d3 02       		.uleb128 0x2
 13749 00d4 17       		.uleb128 0x17
 13750 00d5 00       		.byte	0
 13751 00d6 00       		.byte	0
 13752 00d7 11       		.uleb128 0x11
 13753 00d8 05       		.uleb128 0x5
 13754 00d9 00       		.byte	0
 13755 00da 03       		.uleb128 0x3
 13756 00db 08       		.uleb128 0x8
 13757 00dc 3A       		.uleb128 0x3a
 13758 00dd 0B       		.uleb128 0xb
 13759 00de 3B       		.uleb128 0x3b
 13760 00df 0B       		.uleb128 0xb
 13761 00e0 49       		.uleb128 0x49
 13762 00e1 13       		.uleb128 0x13
 13763 00e2 02       		.uleb128 0x2
 13764 00e3 18       		.uleb128 0x18
 13765 00e4 00       		.byte	0
 13766 00e5 00       		.byte	0
 13767 00e6 12       		.uleb128 0x12
 13768 00e7 0B       		.uleb128 0xb
 13769 00e8 01       		.byte	0x1
 13770 00e9 55       		.uleb128 0x55
 13771 00ea 17       		.uleb128 0x17
 13772 00eb 00       		.byte	0
 13773 00ec 00       		.byte	0
 13774 00ed 13       		.uleb128 0x13
 13775 00ee 34       		.uleb128 0x34
 13776 00ef 00       		.byte	0
 13777 00f0 03       		.uleb128 0x3
 13778 00f1 08       		.uleb128 0x8
 13779 00f2 3A       		.uleb128 0x3a
 13780 00f3 0B       		.uleb128 0xb
 13781 00f4 3B       		.uleb128 0x3b
 13782 00f5 0B       		.uleb128 0xb
 13783 00f6 49       		.uleb128 0x49
 13784 00f7 13       		.uleb128 0x13
 13785 00f8 02       		.uleb128 0x2
 13786 00f9 17       		.uleb128 0x17
 13787 00fa 00       		.byte	0
 13788 00fb 00       		.byte	0
ARM GAS  C:\Users\arist\AppData\Local\Temp\ccSjK9zC.s 			page 272


 13789 00fc 14       		.uleb128 0x14
 13790 00fd 2E       		.uleb128 0x2e
 13791 00fe 01       		.byte	0x1
 13792 00ff 3F       		.uleb128 0x3f
 13793 0100 19       		.uleb128 0x19
 13794 0101 03       		.uleb128 0x3
 13795 0102 0E       		.uleb128 0xe
 13796 0103 3A       		.uleb128 0x3a
 13797 0104 0B       		.uleb128 0xb
 13798 0105 3B       		.uleb128 0x3b
 13799 0106 0B       		.uleb128 0xb
 13800 0107 27       		.uleb128 0x27
 13801 0108 19       		.uleb128 0x19
 13802 0109 49       		.uleb128 0x49
 13803 010a 13       		.uleb128 0x13
 13804 010b 11       		.uleb128 0x11
 13805 010c 01       		.uleb128 0x1
 13806 010d 12       		.uleb128 0x12
 13807 010e 06       		.uleb128 0x6
 13808 010f 40       		.uleb128 0x40
 13809 0110 18       		.uleb128 0x18
 13810 0111 9742     		.uleb128 0x2117
 13811 0113 19       		.uleb128 0x19
 13812 0114 01       		.uleb128 0x1
 13813 0115 13       		.uleb128 0x13
 13814 0116 00       		.byte	0
 13815 0117 00       		.byte	0
 13816 0118 15       		.uleb128 0x15
 13817 0119 05       		.uleb128 0x5
 13818 011a 00       		.byte	0
 13819 011b 03       		.uleb128 0x3
 13820 011c 08       		.uleb128 0x8
 13821 011d 3A       		.uleb128 0x3a
 13822 011e 0B       		.uleb128 0xb
 13823 011f 3B       		.uleb128 0x3b
 13824 0120 0B       		.uleb128 0xb
 13825 0121 49       		.uleb128 0x49
 13826 0122 13       		.uleb128 0x13
 13827 0123 02       		.uleb128 0x2
 13828 0124 17       		.uleb128 0x17
 13829 0125 00       		.byte	0
 13830 0126 00       		.byte	0
 13831 0127 16       		.uleb128 0x16
 13832 0128 34       		.uleb128 0x34
 13833 0129 00       		.byte	0
 13834 012a 03       		.uleb128 0x3
 13835 012b 0E       		.uleb128 0xe
 13836 012c 3A       		.uleb128 0x3a
 13837 012d 0B       		.uleb128 0xb
 13838 012e 3B       		.uleb128 0x3b
 13839 012f 0B       		.uleb128 0xb
 13840 0130 49       		.uleb128 0x49
 13841 0131 13       		.uleb128 0x13
 13842 0132 02       		.uleb128 0x2
 13843 0133 17       		.uleb128 0x17
 13844 0134 00       		.byte	0
 13845 0135 00       		.byte	0
ARM GAS  C:\Users\arist\AppData\Local\Temp\ccSjK9zC.s 			page 273


 13846 0136 17       		.uleb128 0x17
 13847 0137 898201   		.uleb128 0x4109
 13848 013a 01       		.byte	0x1
 13849 013b 11       		.uleb128 0x11
 13850 013c 01       		.uleb128 0x1
 13851 013d 31       		.uleb128 0x31
 13852 013e 13       		.uleb128 0x13
 13853 013f 00       		.byte	0
 13854 0140 00       		.byte	0
 13855 0141 18       		.uleb128 0x18
 13856 0142 8A8201   		.uleb128 0x410a
 13857 0145 00       		.byte	0
 13858 0146 02       		.uleb128 0x2
 13859 0147 18       		.uleb128 0x18
 13860 0148 9142     		.uleb128 0x2111
 13861 014a 18       		.uleb128 0x18
 13862 014b 00       		.byte	0
 13863 014c 00       		.byte	0
 13864 014d 19       		.uleb128 0x19
 13865 014e 2E       		.uleb128 0x2e
 13866 014f 01       		.byte	0x1
 13867 0150 3F       		.uleb128 0x3f
 13868 0151 19       		.uleb128 0x19
 13869 0152 03       		.uleb128 0x3
 13870 0153 0E       		.uleb128 0xe
 13871 0154 3A       		.uleb128 0x3a
 13872 0155 0B       		.uleb128 0xb
 13873 0156 3B       		.uleb128 0x3b
 13874 0157 05       		.uleb128 0x5
 13875 0158 27       		.uleb128 0x27
 13876 0159 19       		.uleb128 0x19
 13877 015a 49       		.uleb128 0x49
 13878 015b 13       		.uleb128 0x13
 13879 015c 11       		.uleb128 0x11
 13880 015d 01       		.uleb128 0x1
 13881 015e 12       		.uleb128 0x12
 13882 015f 06       		.uleb128 0x6
 13883 0160 40       		.uleb128 0x40
 13884 0161 18       		.uleb128 0x18
 13885 0162 9742     		.uleb128 0x2117
 13886 0164 19       		.uleb128 0x19
 13887 0165 01       		.uleb128 0x1
 13888 0166 13       		.uleb128 0x13
 13889 0167 00       		.byte	0
 13890 0168 00       		.byte	0
 13891 0169 1A       		.uleb128 0x1a
 13892 016a 05       		.uleb128 0x5
 13893 016b 00       		.byte	0
 13894 016c 03       		.uleb128 0x3
 13895 016d 0E       		.uleb128 0xe
 13896 016e 3A       		.uleb128 0x3a
 13897 016f 0B       		.uleb128 0xb
 13898 0170 3B       		.uleb128 0x3b
 13899 0171 05       		.uleb128 0x5
 13900 0172 49       		.uleb128 0x49
 13901 0173 13       		.uleb128 0x13
 13902 0174 02       		.uleb128 0x2
ARM GAS  C:\Users\arist\AppData\Local\Temp\ccSjK9zC.s 			page 274


 13903 0175 17       		.uleb128 0x17
 13904 0176 00       		.byte	0
 13905 0177 00       		.byte	0
 13906 0178 1B       		.uleb128 0x1b
 13907 0179 34       		.uleb128 0x34
 13908 017a 00       		.byte	0
 13909 017b 03       		.uleb128 0x3
 13910 017c 0E       		.uleb128 0xe
 13911 017d 3A       		.uleb128 0x3a
 13912 017e 0B       		.uleb128 0xb
 13913 017f 3B       		.uleb128 0x3b
 13914 0180 05       		.uleb128 0x5
 13915 0181 49       		.uleb128 0x49
 13916 0182 13       		.uleb128 0x13
 13917 0183 02       		.uleb128 0x2
 13918 0184 18       		.uleb128 0x18
 13919 0185 00       		.byte	0
 13920 0186 00       		.byte	0
 13921 0187 1C       		.uleb128 0x1c
 13922 0188 05       		.uleb128 0x5
 13923 0189 00       		.byte	0
 13924 018a 03       		.uleb128 0x3
 13925 018b 08       		.uleb128 0x8
 13926 018c 3A       		.uleb128 0x3a
 13927 018d 0B       		.uleb128 0xb
 13928 018e 3B       		.uleb128 0x3b
 13929 018f 05       		.uleb128 0x5
 13930 0190 49       		.uleb128 0x49
 13931 0191 13       		.uleb128 0x13
 13932 0192 02       		.uleb128 0x2
 13933 0193 17       		.uleb128 0x17
 13934 0194 00       		.byte	0
 13935 0195 00       		.byte	0
 13936 0196 1D       		.uleb128 0x1d
 13937 0197 34       		.uleb128 0x34
 13938 0198 00       		.byte	0
 13939 0199 03       		.uleb128 0x3
 13940 019a 0E       		.uleb128 0xe
 13941 019b 3A       		.uleb128 0x3a
 13942 019c 0B       		.uleb128 0xb
 13943 019d 3B       		.uleb128 0x3b
 13944 019e 0B       		.uleb128 0xb
 13945 019f 49       		.uleb128 0x49
 13946 01a0 13       		.uleb128 0x13
 13947 01a1 1C       		.uleb128 0x1c
 13948 01a2 0B       		.uleb128 0xb
 13949 01a3 00       		.byte	0
 13950 01a4 00       		.byte	0
 13951 01a5 1E       		.uleb128 0x1e
 13952 01a6 898201   		.uleb128 0x4109
 13953 01a9 00       		.byte	0
 13954 01aa 11       		.uleb128 0x11
 13955 01ab 01       		.uleb128 0x1
 13956 01ac 31       		.uleb128 0x31
 13957 01ad 13       		.uleb128 0x13
 13958 01ae 00       		.byte	0
 13959 01af 00       		.byte	0
ARM GAS  C:\Users\arist\AppData\Local\Temp\ccSjK9zC.s 			page 275


 13960 01b0 1F       		.uleb128 0x1f
 13961 01b1 898201   		.uleb128 0x4109
 13962 01b4 01       		.byte	0x1
 13963 01b5 11       		.uleb128 0x11
 13964 01b6 01       		.uleb128 0x1
 13965 01b7 31       		.uleb128 0x31
 13966 01b8 13       		.uleb128 0x13
 13967 01b9 01       		.uleb128 0x1
 13968 01ba 13       		.uleb128 0x13
 13969 01bb 00       		.byte	0
 13970 01bc 00       		.byte	0
 13971 01bd 20       		.uleb128 0x20
 13972 01be 05       		.uleb128 0x5
 13973 01bf 00       		.byte	0
 13974 01c0 03       		.uleb128 0x3
 13975 01c1 0E       		.uleb128 0xe
 13976 01c2 3A       		.uleb128 0x3a
 13977 01c3 0B       		.uleb128 0xb
 13978 01c4 3B       		.uleb128 0x3b
 13979 01c5 05       		.uleb128 0x5
 13980 01c6 49       		.uleb128 0x49
 13981 01c7 13       		.uleb128 0x13
 13982 01c8 02       		.uleb128 0x2
 13983 01c9 18       		.uleb128 0x18
 13984 01ca 00       		.byte	0
 13985 01cb 00       		.byte	0
 13986 01cc 21       		.uleb128 0x21
 13987 01cd 05       		.uleb128 0x5
 13988 01ce 00       		.byte	0
 13989 01cf 03       		.uleb128 0x3
 13990 01d0 08       		.uleb128 0x8
 13991 01d1 3A       		.uleb128 0x3a
 13992 01d2 0B       		.uleb128 0xb
 13993 01d3 3B       		.uleb128 0x3b
 13994 01d4 05       		.uleb128 0x5
 13995 01d5 49       		.uleb128 0x49
 13996 01d6 13       		.uleb128 0x13
 13997 01d7 02       		.uleb128 0x2
 13998 01d8 18       		.uleb128 0x18
 13999 01d9 00       		.byte	0
 14000 01da 00       		.byte	0
 14001 01db 22       		.uleb128 0x22
 14002 01dc 34       		.uleb128 0x34
 14003 01dd 00       		.byte	0
 14004 01de 03       		.uleb128 0x3
 14005 01df 0E       		.uleb128 0xe
 14006 01e0 3A       		.uleb128 0x3a
 14007 01e1 0B       		.uleb128 0xb
 14008 01e2 3B       		.uleb128 0x3b
 14009 01e3 05       		.uleb128 0x5
 14010 01e4 49       		.uleb128 0x49
 14011 01e5 13       		.uleb128 0x13
 14012 01e6 1C       		.uleb128 0x1c
 14013 01e7 0B       		.uleb128 0xb
 14014 01e8 00       		.byte	0
 14015 01e9 00       		.byte	0
 14016 01ea 23       		.uleb128 0x23
ARM GAS  C:\Users\arist\AppData\Local\Temp\ccSjK9zC.s 			page 276


 14017 01eb 34       		.uleb128 0x34
 14018 01ec 00       		.byte	0
 14019 01ed 03       		.uleb128 0x3
 14020 01ee 0E       		.uleb128 0xe
 14021 01ef 3A       		.uleb128 0x3a
 14022 01f0 0B       		.uleb128 0xb
 14023 01f1 3B       		.uleb128 0x3b
 14024 01f2 05       		.uleb128 0x5
 14025 01f3 49       		.uleb128 0x49
 14026 01f4 13       		.uleb128 0x13
 14027 01f5 02       		.uleb128 0x2
 14028 01f6 17       		.uleb128 0x17
 14029 01f7 00       		.byte	0
 14030 01f8 00       		.byte	0
 14031 01f9 24       		.uleb128 0x24
 14032 01fa 0B       		.uleb128 0xb
 14033 01fb 01       		.byte	0x1
 14034 01fc 55       		.uleb128 0x55
 14035 01fd 17       		.uleb128 0x17
 14036 01fe 01       		.uleb128 0x1
 14037 01ff 13       		.uleb128 0x13
 14038 0200 00       		.byte	0
 14039 0201 00       		.byte	0
 14040 0202 25       		.uleb128 0x25
 14041 0203 34       		.uleb128 0x34
 14042 0204 00       		.byte	0
 14043 0205 03       		.uleb128 0x3
 14044 0206 08       		.uleb128 0x8
 14045 0207 3A       		.uleb128 0x3a
 14046 0208 0B       		.uleb128 0xb
 14047 0209 3B       		.uleb128 0x3b
 14048 020a 05       		.uleb128 0x5
 14049 020b 49       		.uleb128 0x49
 14050 020c 13       		.uleb128 0x13
 14051 020d 02       		.uleb128 0x2
 14052 020e 17       		.uleb128 0x17
 14053 020f 00       		.byte	0
 14054 0210 00       		.byte	0
 14055 0211 26       		.uleb128 0x26
 14056 0212 34       		.uleb128 0x34
 14057 0213 00       		.byte	0
 14058 0214 03       		.uleb128 0x3
 14059 0215 08       		.uleb128 0x8
 14060 0216 3A       		.uleb128 0x3a
 14061 0217 0B       		.uleb128 0xb
 14062 0218 3B       		.uleb128 0x3b
 14063 0219 05       		.uleb128 0x5
 14064 021a 49       		.uleb128 0x49
 14065 021b 13       		.uleb128 0x13
 14066 021c 02       		.uleb128 0x2
 14067 021d 18       		.uleb128 0x18
 14068 021e 00       		.byte	0
 14069 021f 00       		.byte	0
 14070 0220 27       		.uleb128 0x27
 14071 0221 0B       		.uleb128 0xb
 14072 0222 01       		.byte	0x1
 14073 0223 11       		.uleb128 0x11
ARM GAS  C:\Users\arist\AppData\Local\Temp\ccSjK9zC.s 			page 277


 14074 0224 01       		.uleb128 0x1
 14075 0225 12       		.uleb128 0x12
 14076 0226 06       		.uleb128 0x6
 14077 0227 01       		.uleb128 0x1
 14078 0228 13       		.uleb128 0x13
 14079 0229 00       		.byte	0
 14080 022a 00       		.byte	0
 14081 022b 28       		.uleb128 0x28
 14082 022c 2E       		.uleb128 0x2e
 14083 022d 01       		.byte	0x1
 14084 022e 3F       		.uleb128 0x3f
 14085 022f 19       		.uleb128 0x19
 14086 0230 03       		.uleb128 0x3
 14087 0231 0E       		.uleb128 0xe
 14088 0232 3A       		.uleb128 0x3a
 14089 0233 0B       		.uleb128 0xb
 14090 0234 3B       		.uleb128 0x3b
 14091 0235 05       		.uleb128 0x5
 14092 0236 27       		.uleb128 0x27
 14093 0237 19       		.uleb128 0x19
 14094 0238 49       		.uleb128 0x49
 14095 0239 13       		.uleb128 0x13
 14096 023a 11       		.uleb128 0x11
 14097 023b 01       		.uleb128 0x1
 14098 023c 12       		.uleb128 0x12
 14099 023d 06       		.uleb128 0x6
 14100 023e 40       		.uleb128 0x40
 14101 023f 18       		.uleb128 0x18
 14102 0240 9642     		.uleb128 0x2116
 14103 0242 19       		.uleb128 0x19
 14104 0243 01       		.uleb128 0x1
 14105 0244 13       		.uleb128 0x13
 14106 0245 00       		.byte	0
 14107 0246 00       		.byte	0
 14108 0247 29       		.uleb128 0x29
 14109 0248 0B       		.uleb128 0xb
 14110 0249 01       		.byte	0x1
 14111 024a 11       		.uleb128 0x11
 14112 024b 01       		.uleb128 0x1
 14113 024c 12       		.uleb128 0x12
 14114 024d 06       		.uleb128 0x6
 14115 024e 00       		.byte	0
 14116 024f 00       		.byte	0
 14117 0250 2A       		.uleb128 0x2a
 14118 0251 34       		.uleb128 0x34
 14119 0252 00       		.byte	0
 14120 0253 03       		.uleb128 0x3
 14121 0254 0E       		.uleb128 0xe
 14122 0255 3A       		.uleb128 0x3a
 14123 0256 0B       		.uleb128 0xb
 14124 0257 3B       		.uleb128 0x3b
 14125 0258 0B       		.uleb128 0xb
 14126 0259 49       		.uleb128 0x49
 14127 025a 13       		.uleb128 0x13
 14128 025b 3F       		.uleb128 0x3f
 14129 025c 19       		.uleb128 0x19
 14130 025d 02       		.uleb128 0x2
ARM GAS  C:\Users\arist\AppData\Local\Temp\ccSjK9zC.s 			page 278


 14131 025e 18       		.uleb128 0x18
 14132 025f 00       		.byte	0
 14133 0260 00       		.byte	0
 14134 0261 2B       		.uleb128 0x2b
 14135 0262 34       		.uleb128 0x34
 14136 0263 00       		.byte	0
 14137 0264 03       		.uleb128 0x3
 14138 0265 0E       		.uleb128 0xe
 14139 0266 3A       		.uleb128 0x3a
 14140 0267 0B       		.uleb128 0xb
 14141 0268 3B       		.uleb128 0x3b
 14142 0269 05       		.uleb128 0x5
 14143 026a 49       		.uleb128 0x49
 14144 026b 13       		.uleb128 0x13
 14145 026c 3F       		.uleb128 0x3f
 14146 026d 19       		.uleb128 0x19
 14147 026e 02       		.uleb128 0x2
 14148 026f 18       		.uleb128 0x18
 14149 0270 00       		.byte	0
 14150 0271 00       		.byte	0
 14151 0272 2C       		.uleb128 0x2c
 14152 0273 2E       		.uleb128 0x2e
 14153 0274 00       		.byte	0
 14154 0275 3F       		.uleb128 0x3f
 14155 0276 19       		.uleb128 0x19
 14156 0277 3C       		.uleb128 0x3c
 14157 0278 19       		.uleb128 0x19
 14158 0279 6E       		.uleb128 0x6e
 14159 027a 0E       		.uleb128 0xe
 14160 027b 03       		.uleb128 0x3
 14161 027c 0E       		.uleb128 0xe
 14162 027d 3A       		.uleb128 0x3a
 14163 027e 0B       		.uleb128 0xb
 14164 027f 3B       		.uleb128 0x3b
 14165 0280 0B       		.uleb128 0xb
 14166 0281 00       		.byte	0
 14167 0282 00       		.byte	0
 14168 0283 00       		.byte	0
 14169              		.section	.debug_loc,"",%progbits
 14170              	.Ldebug_loc0:
 14171              	.LLST0:
 14172 0000 00000000 		.4byte	.LVL0
 14173 0004 06000000 		.4byte	.LVL1
 14174 0008 0100     		.2byte	0x1
 14175 000a 50       		.byte	0x50
 14176 000b 06000000 		.4byte	.LVL1
 14177 000f 14000000 		.4byte	.LVL4
 14178 0013 0400     		.2byte	0x4
 14179 0015 F3       		.byte	0xf3
 14180 0016 01       		.uleb128 0x1
 14181 0017 50       		.byte	0x50
 14182 0018 9F       		.byte	0x9f
 14183 0019 14000000 		.4byte	.LVL4
 14184 001d 16000000 		.4byte	.LVL5
 14185 0021 0100     		.2byte	0x1
 14186 0023 50       		.byte	0x50
 14187 0024 16000000 		.4byte	.LVL5
ARM GAS  C:\Users\arist\AppData\Local\Temp\ccSjK9zC.s 			page 279


 14188 0028 1E000000 		.4byte	.LFE1
 14189 002c 0400     		.2byte	0x4
 14190 002e F3       		.byte	0xf3
 14191 002f 01       		.uleb128 0x1
 14192 0030 50       		.byte	0x50
 14193 0031 9F       		.byte	0x9f
 14194 0032 00000000 		.4byte	0
 14195 0036 00000000 		.4byte	0
 14196              	.LLST1:
 14197 003a 06000000 		.4byte	.LVL1
 14198 003e 10000000 		.4byte	.LVL2
 14199 0042 0100     		.2byte	0x1
 14200 0044 53       		.byte	0x53
 14201 0045 12000000 		.4byte	.LVL3
 14202 0049 14000000 		.4byte	.LVL4
 14203 004d 0100     		.2byte	0x1
 14204 004f 53       		.byte	0x53
 14205 0050 16000000 		.4byte	.LVL5
 14206 0054 1E000000 		.4byte	.LFE1
 14207 0058 0100     		.2byte	0x1
 14208 005a 53       		.byte	0x53
 14209 005b 00000000 		.4byte	0
 14210 005f 00000000 		.4byte	0
 14211              	.LLST2:
 14212 0063 00000000 		.4byte	.LVL7
 14213 0067 14000000 		.4byte	.LVL9
 14214 006b 0100     		.2byte	0x1
 14215 006d 50       		.byte	0x50
 14216 006e 14000000 		.4byte	.LVL9
 14217 0072 1C000000 		.4byte	.LVL11
 14218 0076 0400     		.2byte	0x4
 14219 0078 F3       		.byte	0xf3
 14220 0079 01       		.uleb128 0x1
 14221 007a 50       		.byte	0x50
 14222 007b 9F       		.byte	0x9f
 14223 007c 1C000000 		.4byte	.LVL11
 14224 0080 1E000000 		.4byte	.LVL12
 14225 0084 0100     		.2byte	0x1
 14226 0086 50       		.byte	0x50
 14227 0087 1E000000 		.4byte	.LVL12
 14228 008b 20000000 		.4byte	.LFE3
 14229 008f 0400     		.2byte	0x4
 14230 0091 F3       		.byte	0xf3
 14231 0092 01       		.uleb128 0x1
 14232 0093 50       		.byte	0x50
 14233 0094 9F       		.byte	0x9f
 14234 0095 00000000 		.4byte	0
 14235 0099 00000000 		.4byte	0
 14236              	.LLST3:
 14237 009d 0C000000 		.4byte	.LVL8
 14238 00a1 17000000 		.4byte	.LVL10-1
 14239 00a5 0100     		.2byte	0x1
 14240 00a7 51       		.byte	0x51
 14241 00a8 1C000000 		.4byte	.LVL11
 14242 00ac 20000000 		.4byte	.LFE3
 14243 00b0 0100     		.2byte	0x1
 14244 00b2 51       		.byte	0x51
ARM GAS  C:\Users\arist\AppData\Local\Temp\ccSjK9zC.s 			page 280


 14245 00b3 00000000 		.4byte	0
 14246 00b7 00000000 		.4byte	0
 14247              	.LLST4:
 14248 00bb 0C000000 		.4byte	.LVL8
 14249 00bf 18000000 		.4byte	.LVL10
 14250 00c3 0200     		.2byte	0x2
 14251 00c5 31       		.byte	0x31
 14252 00c6 9F       		.byte	0x9f
 14253 00c7 18000000 		.4byte	.LVL10
 14254 00cb 1C000000 		.4byte	.LVL11
 14255 00cf 0200     		.2byte	0x2
 14256 00d1 30       		.byte	0x30
 14257 00d2 9F       		.byte	0x9f
 14258 00d3 1C000000 		.4byte	.LVL11
 14259 00d7 1E000000 		.4byte	.LVL12
 14260 00db 0200     		.2byte	0x2
 14261 00dd 31       		.byte	0x31
 14262 00de 9F       		.byte	0x9f
 14263 00df 1E000000 		.4byte	.LVL12
 14264 00e3 20000000 		.4byte	.LFE3
 14265 00e7 0100     		.2byte	0x1
 14266 00e9 50       		.byte	0x50
 14267 00ea 00000000 		.4byte	0
 14268 00ee 00000000 		.4byte	0
 14269              	.LLST5:
 14270 00f2 00000000 		.4byte	.LVL13
 14271 00f6 0C000000 		.4byte	.LVL16
 14272 00fa 0100     		.2byte	0x1
 14273 00fc 50       		.byte	0x50
 14274 00fd 0C000000 		.4byte	.LVL16
 14275 0101 0E000000 		.4byte	.LFE14
 14276 0105 0400     		.2byte	0x4
 14277 0107 F3       		.byte	0xf3
 14278 0108 01       		.uleb128 0x1
 14279 0109 50       		.byte	0x50
 14280 010a 9F       		.byte	0x9f
 14281 010b 00000000 		.4byte	0
 14282 010f 00000000 		.4byte	0
 14283              	.LLST6:
 14284 0113 00000000 		.4byte	.LVL17
 14285 0117 04000000 		.4byte	.LVL18
 14286 011b 0100     		.2byte	0x1
 14287 011d 50       		.byte	0x50
 14288 011e 04000000 		.4byte	.LVL18
 14289 0122 0A000000 		.4byte	.LFE15
 14290 0126 0400     		.2byte	0x4
 14291 0128 F3       		.byte	0xf3
 14292 0129 01       		.uleb128 0x1
 14293 012a 50       		.byte	0x50
 14294 012b 9F       		.byte	0x9f
 14295 012c 00000000 		.4byte	0
 14296 0130 00000000 		.4byte	0
 14297              	.LLST7:
 14298 0134 00000000 		.4byte	.LVL19
 14299 0138 0A000000 		.4byte	.LVL21
 14300 013c 0100     		.2byte	0x1
 14301 013e 50       		.byte	0x50
ARM GAS  C:\Users\arist\AppData\Local\Temp\ccSjK9zC.s 			page 281


 14302 013f 0A000000 		.4byte	.LVL21
 14303 0143 46000000 		.4byte	.LFE0
 14304 0147 0100     		.2byte	0x1
 14305 0149 54       		.byte	0x54
 14306 014a 00000000 		.4byte	0
 14307 014e 00000000 		.4byte	0
 14308              	.LLST8:
 14309 0152 00000000 		.4byte	.LVL19
 14310 0156 0D000000 		.4byte	.LVL22-1
 14311 015a 0100     		.2byte	0x1
 14312 015c 51       		.byte	0x51
 14313 015d 0D000000 		.4byte	.LVL22-1
 14314 0161 46000000 		.4byte	.LFE0
 14315 0165 0400     		.2byte	0x4
 14316 0167 F3       		.byte	0xf3
 14317 0168 01       		.uleb128 0x1
 14318 0169 51       		.byte	0x51
 14319 016a 9F       		.byte	0x9f
 14320 016b 00000000 		.4byte	0
 14321 016f 00000000 		.4byte	0
 14322              	.LLST9:
 14323 0173 00000000 		.4byte	.LVL19
 14324 0177 0D000000 		.4byte	.LVL22-1
 14325 017b 0100     		.2byte	0x1
 14326 017d 52       		.byte	0x52
 14327 017e 0D000000 		.4byte	.LVL22-1
 14328 0182 46000000 		.4byte	.LFE0
 14329 0186 0400     		.2byte	0x4
 14330 0188 F3       		.byte	0xf3
 14331 0189 01       		.uleb128 0x1
 14332 018a 52       		.byte	0x52
 14333 018b 9F       		.byte	0x9f
 14334 018c 00000000 		.4byte	0
 14335 0190 00000000 		.4byte	0
 14336              	.LLST10:
 14337 0194 00000000 		.4byte	.LVL28
 14338 0198 08000000 		.4byte	.LVL30
 14339 019c 0100     		.2byte	0x1
 14340 019e 50       		.byte	0x50
 14341 019f 08000000 		.4byte	.LVL30
 14342 01a3 0C000000 		.4byte	.LFE16
 14343 01a7 0400     		.2byte	0x4
 14344 01a9 F3       		.byte	0xf3
 14345 01aa 01       		.uleb128 0x1
 14346 01ab 50       		.byte	0x50
 14347 01ac 9F       		.byte	0x9f
 14348 01ad 00000000 		.4byte	0
 14349 01b1 00000000 		.4byte	0
 14350              	.LLST11:
 14351 01b5 00000000 		.4byte	.LVL28
 14352 01b9 04000000 		.4byte	.LVL29
 14353 01bd 0100     		.2byte	0x1
 14354 01bf 52       		.byte	0x52
 14355 01c0 04000000 		.4byte	.LVL29
 14356 01c4 0C000000 		.4byte	.LFE16
 14357 01c8 0400     		.2byte	0x4
 14358 01ca F3       		.byte	0xf3
ARM GAS  C:\Users\arist\AppData\Local\Temp\ccSjK9zC.s 			page 282


 14359 01cb 01       		.uleb128 0x1
 14360 01cc 52       		.byte	0x52
 14361 01cd 9F       		.byte	0x9f
 14362 01ce 00000000 		.4byte	0
 14363 01d2 00000000 		.4byte	0
 14364              	.LLST12:
 14365 01d6 00000000 		.4byte	.LVL31
 14366 01da 61000000 		.4byte	.LVL36-1
 14367 01de 0100     		.2byte	0x1
 14368 01e0 53       		.byte	0x53
 14369 01e1 61000000 		.4byte	.LVL36-1
 14370 01e5 C8000000 		.4byte	.LVL45
 14371 01e9 0400     		.2byte	0x4
 14372 01eb F3       		.byte	0xf3
 14373 01ec 01       		.uleb128 0x1
 14374 01ed 53       		.byte	0x53
 14375 01ee 9F       		.byte	0x9f
 14376 01ef C8000000 		.4byte	.LVL45
 14377 01f3 DC000000 		.4byte	.LVL47
 14378 01f7 0100     		.2byte	0x1
 14379 01f9 53       		.byte	0x53
 14380 01fa DC000000 		.4byte	.LVL47
 14381 01fe E4000000 		.4byte	.LFE9
 14382 0202 0400     		.2byte	0x4
 14383 0204 F3       		.byte	0xf3
 14384 0205 01       		.uleb128 0x1
 14385 0206 53       		.byte	0x53
 14386 0207 9F       		.byte	0x9f
 14387 0208 00000000 		.4byte	0
 14388 020c 00000000 		.4byte	0
 14389              	.LLST13:
 14390 0210 1E000000 		.4byte	.LVL33
 14391 0214 26000000 		.4byte	.LVL34
 14392 0218 0300     		.2byte	0x3
 14393 021a 74       		.byte	0x74
 14394 021b 7B       		.sleb128 -5
 14395 021c 9F       		.byte	0x9f
 14396 021d 26000000 		.4byte	.LVL34
 14397 0221 28000000 		.4byte	.LVL35
 14398 0225 0100     		.2byte	0x1
 14399 0227 54       		.byte	0x54
 14400 0228 28000000 		.4byte	.LVL35
 14401 022c C8000000 		.4byte	.LVL45
 14402 0230 1400     		.2byte	0x14
 14403 0232 91       		.byte	0x91
 14404 0233 4F       		.sleb128 -49
 14405 0234 94       		.byte	0x94
 14406 0235 01       		.byte	0x1
 14407 0236 08       		.byte	0x8
 14408 0237 FF       		.byte	0xff
 14409 0238 1A       		.byte	0x1a
 14410 0239 38       		.byte	0x38
 14411 023a 24       		.byte	0x24
 14412 023b 91       		.byte	0x91
 14413 023c 50       		.sleb128 -48
 14414 023d 94       		.byte	0x94
 14415 023e 01       		.byte	0x1
ARM GAS  C:\Users\arist\AppData\Local\Temp\ccSjK9zC.s 			page 283


 14416 023f 08       		.byte	0x8
 14417 0240 FF       		.byte	0xff
 14418 0241 1A       		.byte	0x1a
 14419 0242 21       		.byte	0x21
 14420 0243 35       		.byte	0x35
 14421 0244 1C       		.byte	0x1c
 14422 0245 9F       		.byte	0x9f
 14423 0246 C8000000 		.4byte	.LVL45
 14424 024a CC000000 		.4byte	.LVL46
 14425 024e 0300     		.2byte	0x3
 14426 0250 74       		.byte	0x74
 14427 0251 7B       		.sleb128 -5
 14428 0252 9F       		.byte	0x9f
 14429 0253 CC000000 		.4byte	.LVL46
 14430 0257 E4000000 		.4byte	.LFE9
 14431 025b 1400     		.2byte	0x14
 14432 025d 91       		.byte	0x91
 14433 025e 4F       		.sleb128 -49
 14434 025f 94       		.byte	0x94
 14435 0260 01       		.byte	0x1
 14436 0261 08       		.byte	0x8
 14437 0262 FF       		.byte	0xff
 14438 0263 1A       		.byte	0x1a
 14439 0264 38       		.byte	0x38
 14440 0265 24       		.byte	0x24
 14441 0266 91       		.byte	0x91
 14442 0267 50       		.sleb128 -48
 14443 0268 94       		.byte	0x94
 14444 0269 01       		.byte	0x1
 14445 026a 08       		.byte	0x8
 14446 026b FF       		.byte	0xff
 14447 026c 1A       		.byte	0x1a
 14448 026d 21       		.byte	0x21
 14449 026e 35       		.byte	0x35
 14450 026f 1C       		.byte	0x1c
 14451 0270 9F       		.byte	0x9f
 14452 0271 00000000 		.4byte	0
 14453 0275 00000000 		.4byte	0
 14454              	.LLST14:
 14455 0279 8A000000 		.4byte	.LVL37
 14456 027d C8000000 		.4byte	.LVL45
 14457 0281 0100     		.2byte	0x1
 14458 0283 59       		.byte	0x59
 14459 0284 00000000 		.4byte	0
 14460 0288 00000000 		.4byte	0
 14461              	.LLST15:
 14462 028c 9A000000 		.4byte	.LVL39
 14463 0290 C8000000 		.4byte	.LVL45
 14464 0294 0100     		.2byte	0x1
 14465 0296 56       		.byte	0x56
 14466 0297 00000000 		.4byte	0
 14467 029b 00000000 		.4byte	0
 14468              	.LLST16:
 14469 029f 9A000000 		.4byte	.LVL39
 14470 02a3 9E000000 		.4byte	.LVL40
 14471 02a7 0100     		.2byte	0x1
 14472 02a9 56       		.byte	0x56
ARM GAS  C:\Users\arist\AppData\Local\Temp\ccSjK9zC.s 			page 284


 14473 02aa A6000000 		.4byte	.LVL41
 14474 02ae B7000000 		.4byte	.LVL42-1
 14475 02b2 0100     		.2byte	0x1
 14476 02b4 53       		.byte	0x53
 14477 02b5 00000000 		.4byte	0
 14478 02b9 00000000 		.4byte	0
 14479              	.LLST17:
 14480 02bd 9A000000 		.4byte	.LVL39
 14481 02c1 9E000000 		.4byte	.LVL40
 14482 02c5 0200     		.2byte	0x2
 14483 02c7 30       		.byte	0x30
 14484 02c8 9F       		.byte	0x9f
 14485 02c9 9E000000 		.4byte	.LVL40
 14486 02cd BA000000 		.4byte	.LVL43
 14487 02d1 0100     		.2byte	0x1
 14488 02d3 54       		.byte	0x54
 14489 02d4 BC000000 		.4byte	.LVL44
 14490 02d8 C8000000 		.4byte	.LVL45
 14491 02dc 0100     		.2byte	0x1
 14492 02de 54       		.byte	0x54
 14493 02df 00000000 		.4byte	0
 14494 02e3 00000000 		.4byte	0
 14495              	.LLST18:
 14496 02e7 00000000 		.4byte	.LVL48
 14497 02eb 0A000000 		.4byte	.LVL49
 14498 02ef 0100     		.2byte	0x1
 14499 02f1 50       		.byte	0x50
 14500 02f2 0A000000 		.4byte	.LVL49
 14501 02f6 3C000000 		.4byte	.LFE17
 14502 02fa 0400     		.2byte	0x4
 14503 02fc F3       		.byte	0xf3
 14504 02fd 01       		.uleb128 0x1
 14505 02fe 50       		.byte	0x50
 14506 02ff 9F       		.byte	0x9f
 14507 0300 00000000 		.4byte	0
 14508 0304 00000000 		.4byte	0
 14509              	.LLST19:
 14510 0308 00000000 		.4byte	.LVL48
 14511 030c 0D000000 		.4byte	.LVL50-1
 14512 0310 0100     		.2byte	0x1
 14513 0312 51       		.byte	0x51
 14514 0313 0D000000 		.4byte	.LVL50-1
 14515 0317 3C000000 		.4byte	.LFE17
 14516 031b 0400     		.2byte	0x4
 14517 031d F3       		.byte	0xf3
 14518 031e 01       		.uleb128 0x1
 14519 031f 51       		.byte	0x51
 14520 0320 9F       		.byte	0x9f
 14521 0321 00000000 		.4byte	0
 14522 0325 00000000 		.4byte	0
 14523              	.LLST20:
 14524 0329 00000000 		.4byte	.LVL48
 14525 032d 0D000000 		.4byte	.LVL50-1
 14526 0331 0100     		.2byte	0x1
 14527 0333 52       		.byte	0x52
 14528 0334 0D000000 		.4byte	.LVL50-1
 14529 0338 3C000000 		.4byte	.LFE17
ARM GAS  C:\Users\arist\AppData\Local\Temp\ccSjK9zC.s 			page 285


 14530 033c 0100     		.2byte	0x1
 14531 033e 55       		.byte	0x55
 14532 033f 00000000 		.4byte	0
 14533 0343 00000000 		.4byte	0
 14534              	.LLST21:
 14535 0347 00000000 		.4byte	.LVL51
 14536 034b 0B000000 		.4byte	.LVL54-1
 14537 034f 0100     		.2byte	0x1
 14538 0351 50       		.byte	0x50
 14539 0352 0B000000 		.4byte	.LVL54-1
 14540 0356 90000000 		.4byte	.LFE4
 14541 035a 0400     		.2byte	0x4
 14542 035c F3       		.byte	0xf3
 14543 035d 01       		.uleb128 0x1
 14544 035e 50       		.byte	0x50
 14545 035f 9F       		.byte	0x9f
 14546 0360 00000000 		.4byte	0
 14547 0364 00000000 		.4byte	0
 14548              	.LLST22:
 14549 0368 00000000 		.4byte	.LVL51
 14550 036c 0B000000 		.4byte	.LVL54-1
 14551 0370 0100     		.2byte	0x1
 14552 0372 51       		.byte	0x51
 14553 0373 0B000000 		.4byte	.LVL54-1
 14554 0377 90000000 		.4byte	.LFE4
 14555 037b 0400     		.2byte	0x4
 14556 037d F3       		.byte	0xf3
 14557 037e 01       		.uleb128 0x1
 14558 037f 51       		.byte	0x51
 14559 0380 9F       		.byte	0x9f
 14560 0381 00000000 		.4byte	0
 14561 0385 00000000 		.4byte	0
 14562              	.LLST23:
 14563 0389 00000000 		.4byte	.LVL51
 14564 038d 08000000 		.4byte	.LVL53
 14565 0391 0100     		.2byte	0x1
 14566 0393 52       		.byte	0x52
 14567 0394 08000000 		.4byte	.LVL53
 14568 0398 34000000 		.4byte	.LVL56
 14569 039c 0400     		.2byte	0x4
 14570 039e F3       		.byte	0xf3
 14571 039f 01       		.uleb128 0x1
 14572 03a0 52       		.byte	0x52
 14573 03a1 9F       		.byte	0x9f
 14574 03a2 34000000 		.4byte	.LVL56
 14575 03a6 38000000 		.4byte	.LVL57
 14576 03aa 0100     		.2byte	0x1
 14577 03ac 57       		.byte	0x57
 14578 03ad 5A000000 		.4byte	.LVL61
 14579 03b1 5C000000 		.4byte	.LVL62
 14580 03b5 0100     		.2byte	0x1
 14581 03b7 57       		.byte	0x57
 14582 03b8 80000000 		.4byte	.LVL66
 14583 03bc 86000000 		.4byte	.LVL69
 14584 03c0 0400     		.2byte	0x4
 14585 03c2 F3       		.byte	0xf3
 14586 03c3 01       		.uleb128 0x1
ARM GAS  C:\Users\arist\AppData\Local\Temp\ccSjK9zC.s 			page 286


 14587 03c4 52       		.byte	0x52
 14588 03c5 9F       		.byte	0x9f
 14589 03c6 00000000 		.4byte	0
 14590 03ca 00000000 		.4byte	0
 14591              	.LLST24:
 14592 03ce 00000000 		.4byte	.LVL51
 14593 03d2 0B000000 		.4byte	.LVL54-1
 14594 03d6 0100     		.2byte	0x1
 14595 03d8 53       		.byte	0x53
 14596 03d9 0B000000 		.4byte	.LVL54-1
 14597 03dd 58000000 		.4byte	.LVL60
 14598 03e1 0100     		.2byte	0x1
 14599 03e3 54       		.byte	0x54
 14600 03e4 58000000 		.4byte	.LVL60
 14601 03e8 5A000000 		.4byte	.LVL61
 14602 03ec 0400     		.2byte	0x4
 14603 03ee F3       		.byte	0xf3
 14604 03ef 01       		.uleb128 0x1
 14605 03f0 53       		.byte	0x53
 14606 03f1 9F       		.byte	0x9f
 14607 03f2 5A000000 		.4byte	.LVL61
 14608 03f6 7E000000 		.4byte	.LVL65
 14609 03fa 0100     		.2byte	0x1
 14610 03fc 54       		.byte	0x54
 14611 03fd 7E000000 		.4byte	.LVL65
 14612 0401 80000000 		.4byte	.LVL66
 14613 0405 0400     		.2byte	0x4
 14614 0407 F3       		.byte	0xf3
 14615 0408 01       		.uleb128 0x1
 14616 0409 53       		.byte	0x53
 14617 040a 9F       		.byte	0x9f
 14618 040b 80000000 		.4byte	.LVL66
 14619 040f 82000000 		.4byte	.LVL67
 14620 0413 0100     		.2byte	0x1
 14621 0415 54       		.byte	0x54
 14622 0416 82000000 		.4byte	.LVL67
 14623 041a 84000000 		.4byte	.LVL68
 14624 041e 0400     		.2byte	0x4
 14625 0420 F3       		.byte	0xf3
 14626 0421 01       		.uleb128 0x1
 14627 0422 53       		.byte	0x53
 14628 0423 9F       		.byte	0x9f
 14629 0424 84000000 		.4byte	.LVL68
 14630 0428 86000000 		.4byte	.LVL69
 14631 042c 0100     		.2byte	0x1
 14632 042e 54       		.byte	0x54
 14633 042f 86000000 		.4byte	.LVL69
 14634 0433 90000000 		.4byte	.LFE4
 14635 0437 0400     		.2byte	0x4
 14636 0439 F3       		.byte	0xf3
 14637 043a 01       		.uleb128 0x1
 14638 043b 53       		.byte	0x53
 14639 043c 9F       		.byte	0x9f
 14640 043d 00000000 		.4byte	0
 14641 0441 00000000 		.4byte	0
 14642              	.LLST25:
 14643 0445 06000000 		.4byte	.LVL52
ARM GAS  C:\Users\arist\AppData\Local\Temp\ccSjK9zC.s 			page 287


 14644 0449 86000000 		.4byte	.LVL69
 14645 044d 0200     		.2byte	0x2
 14646 044f 30       		.byte	0x30
 14647 0450 9F       		.byte	0x9f
 14648 0451 86000000 		.4byte	.LVL69
 14649 0455 90000000 		.4byte	.LFE4
 14650 0459 0100     		.2byte	0x1
 14651 045b 54       		.byte	0x54
 14652 045c 00000000 		.4byte	0
 14653 0460 00000000 		.4byte	0
 14654              	.LLST26:
 14655 0464 0E000000 		.4byte	.LVL55
 14656 0468 42000000 		.4byte	.LVL58
 14657 046c 0100     		.2byte	0x1
 14658 046e 50       		.byte	0x50
 14659 046f 42000000 		.4byte	.LVL58
 14660 0473 5A000000 		.4byte	.LVL61
 14661 0477 0100     		.2byte	0x1
 14662 0479 55       		.byte	0x55
 14663 047a 5A000000 		.4byte	.LVL61
 14664 047e 66000000 		.4byte	.LVL63
 14665 0482 0100     		.2byte	0x1
 14666 0484 50       		.byte	0x50
 14667 0485 66000000 		.4byte	.LVL63
 14668 0489 80000000 		.4byte	.LVL66
 14669 048d 0100     		.2byte	0x1
 14670 048f 55       		.byte	0x55
 14671 0490 80000000 		.4byte	.LVL66
 14672 0494 86000000 		.4byte	.LVL69
 14673 0498 0100     		.2byte	0x1
 14674 049a 50       		.byte	0x50
 14675 049b 86000000 		.4byte	.LVL69
 14676 049f 90000000 		.4byte	.LFE4
 14677 04a3 0100     		.2byte	0x1
 14678 04a5 55       		.byte	0x55
 14679 04a6 00000000 		.4byte	0
 14680 04aa 00000000 		.4byte	0
 14681              	.LLST27:
 14682 04ae 00000000 		.4byte	.LVL71
 14683 04b2 1E000000 		.4byte	.LVL76
 14684 04b6 0100     		.2byte	0x1
 14685 04b8 50       		.byte	0x50
 14686 04b9 1E000000 		.4byte	.LVL76
 14687 04bd 6A000000 		.4byte	.LFE10
 14688 04c1 0400     		.2byte	0x4
 14689 04c3 F3       		.byte	0xf3
 14690 04c4 01       		.uleb128 0x1
 14691 04c5 50       		.byte	0x50
 14692 04c6 9F       		.byte	0x9f
 14693 04c7 00000000 		.4byte	0
 14694 04cb 00000000 		.4byte	0
 14695              	.LLST28:
 14696 04cf 00000000 		.4byte	.LVL71
 14697 04d3 20000000 		.4byte	.LVL77
 14698 04d7 0100     		.2byte	0x1
 14699 04d9 51       		.byte	0x51
 14700 04da 20000000 		.4byte	.LVL77
ARM GAS  C:\Users\arist\AppData\Local\Temp\ccSjK9zC.s 			page 288


 14701 04de 6A000000 		.4byte	.LFE10
 14702 04e2 0400     		.2byte	0x4
 14703 04e4 F3       		.byte	0xf3
 14704 04e5 01       		.uleb128 0x1
 14705 04e6 51       		.byte	0x51
 14706 04e7 9F       		.byte	0x9f
 14707 04e8 00000000 		.4byte	0
 14708 04ec 00000000 		.4byte	0
 14709              	.LLST29:
 14710 04f0 00000000 		.4byte	.LVL71
 14711 04f4 20000000 		.4byte	.LVL77
 14712 04f8 0100     		.2byte	0x1
 14713 04fa 52       		.byte	0x52
 14714 04fb 20000000 		.4byte	.LVL77
 14715 04ff 6A000000 		.4byte	.LFE10
 14716 0503 0400     		.2byte	0x4
 14717 0505 F3       		.byte	0xf3
 14718 0506 01       		.uleb128 0x1
 14719 0507 52       		.byte	0x52
 14720 0508 9F       		.byte	0x9f
 14721 0509 00000000 		.4byte	0
 14722 050d 00000000 		.4byte	0
 14723              	.LLST30:
 14724 0511 00000000 		.4byte	.LVL71
 14725 0515 10000000 		.4byte	.LVL73
 14726 0519 0100     		.2byte	0x1
 14727 051b 53       		.byte	0x53
 14728 051c 10000000 		.4byte	.LVL73
 14729 0520 6A000000 		.4byte	.LFE10
 14730 0524 0200     		.2byte	0x2
 14731 0526 91       		.byte	0x91
 14732 0527 54       		.sleb128 -44
 14733 0528 00000000 		.4byte	0
 14734 052c 00000000 		.4byte	0
 14735              	.LLST31:
 14736 0530 0E000000 		.4byte	.LVL72
 14737 0534 20000000 		.4byte	.LVL77
 14738 0538 0200     		.2byte	0x2
 14739 053a 30       		.byte	0x30
 14740 053b 9F       		.byte	0x9f
 14741 053c 20000000 		.4byte	.LVL77
 14742 0540 3E000000 		.4byte	.LVL78
 14743 0544 0100     		.2byte	0x1
 14744 0546 50       		.byte	0x50
 14745 0547 4E000000 		.4byte	.LVL80
 14746 054b 6A000000 		.4byte	.LFE10
 14747 054f 0100     		.2byte	0x1
 14748 0551 50       		.byte	0x50
 14749 0552 00000000 		.4byte	0
 14750 0556 00000000 		.4byte	0
 14751              	.LLST32:
 14752 055a 0E000000 		.4byte	.LVL72
 14753 055e 20000000 		.4byte	.LVL77
 14754 0562 0200     		.2byte	0x2
 14755 0564 30       		.byte	0x30
 14756 0565 9F       		.byte	0x9f
 14757 0566 00000000 		.4byte	0
ARM GAS  C:\Users\arist\AppData\Local\Temp\ccSjK9zC.s 			page 289


 14758 056a 00000000 		.4byte	0
 14759              	.LLST33:
 14760 056e 1A000000 		.4byte	.LVL75
 14761 0572 20000000 		.4byte	.LVL77
 14762 0576 0100     		.2byte	0x1
 14763 0578 59       		.byte	0x59
 14764 0579 20000000 		.4byte	.LVL77
 14765 057d 5C000000 		.4byte	.LVL85
 14766 0581 0100     		.2byte	0x1
 14767 0583 56       		.byte	0x56
 14768 0584 5E000000 		.4byte	.LVL86
 14769 0588 6A000000 		.4byte	.LFE10
 14770 058c 0100     		.2byte	0x1
 14771 058e 56       		.byte	0x56
 14772 058f 00000000 		.4byte	0
 14773 0593 00000000 		.4byte	0
 14774              	.LLST34:
 14775 0597 20000000 		.4byte	.LVL77
 14776 059b 44000000 		.4byte	.LVL79
 14777 059f 0100     		.2byte	0x1
 14778 05a1 53       		.byte	0x53
 14779 05a2 44000000 		.4byte	.LVL79
 14780 05a6 50000000 		.4byte	.LVL81
 14781 05aa 0100     		.2byte	0x1
 14782 05ac 54       		.byte	0x54
 14783 05ad 50000000 		.4byte	.LVL81
 14784 05b1 52000000 		.4byte	.LVL82
 14785 05b5 0300     		.2byte	0x3
 14786 05b7 74       		.byte	0x74
 14787 05b8 7F       		.sleb128 -1
 14788 05b9 9F       		.byte	0x9f
 14789 05ba 52000000 		.4byte	.LVL82
 14790 05be 54000000 		.4byte	.LVL83
 14791 05c2 0100     		.2byte	0x1
 14792 05c4 53       		.byte	0x53
 14793 05c5 56000000 		.4byte	.LVL84
 14794 05c9 5E000000 		.4byte	.LVL86
 14795 05cd 0100     		.2byte	0x1
 14796 05cf 53       		.byte	0x53
 14797 05d0 00000000 		.4byte	0
 14798 05d4 00000000 		.4byte	0
 14799              	.LLST35:
 14800 05d8 00000000 		.4byte	.LVL87
 14801 05dc 0A000000 		.4byte	.LVL88
 14802 05e0 0100     		.2byte	0x1
 14803 05e2 50       		.byte	0x50
 14804 05e3 0A000000 		.4byte	.LVL88
 14805 05e7 16000000 		.4byte	.LVL89
 14806 05eb 0400     		.2byte	0x4
 14807 05ed F3       		.byte	0xf3
 14808 05ee 01       		.uleb128 0x1
 14809 05ef 50       		.byte	0x50
 14810 05f0 9F       		.byte	0x9f
 14811 05f1 16000000 		.4byte	.LVL89
 14812 05f5 2C000000 		.4byte	.LVL90
 14813 05f9 0100     		.2byte	0x1
 14814 05fb 50       		.byte	0x50
ARM GAS  C:\Users\arist\AppData\Local\Temp\ccSjK9zC.s 			page 290


 14815 05fc 2C000000 		.4byte	.LVL90
 14816 0600 36000000 		.4byte	.LVL91
 14817 0604 0100     		.2byte	0x1
 14818 0606 53       		.byte	0x53
 14819 0607 3E000000 		.4byte	.LVL92
 14820 060b 44000000 		.4byte	.LVL93
 14821 060f 0100     		.2byte	0x1
 14822 0611 53       		.byte	0x53
 14823 0612 44000000 		.4byte	.LVL93
 14824 0616 48000000 		.4byte	.LFE19
 14825 061a 0100     		.2byte	0x1
 14826 061c 50       		.byte	0x50
 14827 061d 00000000 		.4byte	0
 14828 0621 00000000 		.4byte	0
 14829              	.LLST36:
 14830 0625 00000000 		.4byte	.LVL94
 14831 0629 0A000000 		.4byte	.LVL95
 14832 062d 0100     		.2byte	0x1
 14833 062f 50       		.byte	0x50
 14834 0630 0A000000 		.4byte	.LVL95
 14835 0634 F4000000 		.4byte	.LVL136
 14836 0638 0100     		.2byte	0x1
 14837 063a 55       		.byte	0x55
 14838 063b F4000000 		.4byte	.LVL136
 14839 063f F8000000 		.4byte	.LFE18
 14840 0643 0400     		.2byte	0x4
 14841 0645 F3       		.byte	0xf3
 14842 0646 01       		.uleb128 0x1
 14843 0647 50       		.byte	0x50
 14844 0648 9F       		.byte	0x9f
 14845 0649 00000000 		.4byte	0
 14846 064d 00000000 		.4byte	0
 14847              	.LLST37:
 14848 0651 00000000 		.4byte	.LVL94
 14849 0655 0D000000 		.4byte	.LVL96-1
 14850 0659 0100     		.2byte	0x1
 14851 065b 51       		.byte	0x51
 14852 065c 0D000000 		.4byte	.LVL96-1
 14853 0660 36000000 		.4byte	.LVL103
 14854 0664 0100     		.2byte	0x1
 14855 0666 56       		.byte	0x56
 14856 0667 36000000 		.4byte	.LVL103
 14857 066b 5A000000 		.4byte	.LVL107
 14858 066f 0400     		.2byte	0x4
 14859 0671 F3       		.byte	0xf3
 14860 0672 01       		.uleb128 0x1
 14861 0673 51       		.byte	0x51
 14862 0674 9F       		.byte	0x9f
 14863 0675 5A000000 		.4byte	.LVL107
 14864 0679 5C000000 		.4byte	.LVL108
 14865 067d 0100     		.2byte	0x1
 14866 067f 56       		.byte	0x56
 14867 0680 5C000000 		.4byte	.LVL108
 14868 0684 A0000000 		.4byte	.LVL119
 14869 0688 0400     		.2byte	0x4
 14870 068a F3       		.byte	0xf3
 14871 068b 01       		.uleb128 0x1
ARM GAS  C:\Users\arist\AppData\Local\Temp\ccSjK9zC.s 			page 291


 14872 068c 51       		.byte	0x51
 14873 068d 9F       		.byte	0x9f
 14874 068e A0000000 		.4byte	.LVL119
 14875 0692 A2000000 		.4byte	.LVL120
 14876 0696 0100     		.2byte	0x1
 14877 0698 56       		.byte	0x56
 14878 0699 A2000000 		.4byte	.LVL120
 14879 069d AC000000 		.4byte	.LVL121
 14880 06a1 0400     		.2byte	0x4
 14881 06a3 F3       		.byte	0xf3
 14882 06a4 01       		.uleb128 0x1
 14883 06a5 51       		.byte	0x51
 14884 06a6 9F       		.byte	0x9f
 14885 06a7 AC000000 		.4byte	.LVL121
 14886 06ab F0000000 		.4byte	.LVL135
 14887 06af 0100     		.2byte	0x1
 14888 06b1 56       		.byte	0x56
 14889 06b2 F0000000 		.4byte	.LVL135
 14890 06b6 F8000000 		.4byte	.LFE18
 14891 06ba 0400     		.2byte	0x4
 14892 06bc F3       		.byte	0xf3
 14893 06bd 01       		.uleb128 0x1
 14894 06be 51       		.byte	0x51
 14895 06bf 9F       		.byte	0x9f
 14896 06c0 00000000 		.4byte	0
 14897 06c4 00000000 		.4byte	0
 14898              	.LLST38:
 14899 06c8 10000000 		.4byte	.LVL97
 14900 06cc 36000000 		.4byte	.LVL103
 14901 06d0 0100     		.2byte	0x1
 14902 06d2 50       		.byte	0x50
 14903 06d3 36000000 		.4byte	.LVL103
 14904 06d7 5A000000 		.4byte	.LVL107
 14905 06db 0100     		.2byte	0x1
 14906 06dd 54       		.byte	0x54
 14907 06de 5A000000 		.4byte	.LVL107
 14908 06e2 5C000000 		.4byte	.LVL108
 14909 06e6 0100     		.2byte	0x1
 14910 06e8 50       		.byte	0x50
 14911 06e9 5C000000 		.4byte	.LVL108
 14912 06ed A0000000 		.4byte	.LVL119
 14913 06f1 0100     		.2byte	0x1
 14914 06f3 54       		.byte	0x54
 14915 06f4 A0000000 		.4byte	.LVL119
 14916 06f8 A2000000 		.4byte	.LVL120
 14917 06fc 0100     		.2byte	0x1
 14918 06fe 50       		.byte	0x50
 14919 06ff A2000000 		.4byte	.LVL120
 14920 0703 E2000000 		.4byte	.LVL132
 14921 0707 0100     		.2byte	0x1
 14922 0709 54       		.byte	0x54
 14923 070a E2000000 		.4byte	.LVL132
 14924 070e E4000000 		.4byte	.LVL133
 14925 0712 0100     		.2byte	0x1
 14926 0714 50       		.byte	0x50
 14927 0715 E4000000 		.4byte	.LVL133
 14928 0719 EE000000 		.4byte	.LVL134
ARM GAS  C:\Users\arist\AppData\Local\Temp\ccSjK9zC.s 			page 292


 14929 071d 0100     		.2byte	0x1
 14930 071f 54       		.byte	0x54
 14931 0720 EE000000 		.4byte	.LVL134
 14932 0724 F0000000 		.4byte	.LVL135
 14933 0728 0100     		.2byte	0x1
 14934 072a 50       		.byte	0x50
 14935 072b 00000000 		.4byte	0
 14936 072f 00000000 		.4byte	0
 14937              	.LLST39:
 14938 0733 26000000 		.4byte	.LVL101
 14939 0737 36000000 		.4byte	.LVL103
 14940 073b 0100     		.2byte	0x1
 14941 073d 50       		.byte	0x50
 14942 073e 36000000 		.4byte	.LVL103
 14943 0742 5A000000 		.4byte	.LVL107
 14944 0746 0100     		.2byte	0x1
 14945 0748 54       		.byte	0x54
 14946 0749 5A000000 		.4byte	.LVL107
 14947 074d 5C000000 		.4byte	.LVL108
 14948 0751 0100     		.2byte	0x1
 14949 0753 50       		.byte	0x50
 14950 0754 5C000000 		.4byte	.LVL108
 14951 0758 A0000000 		.4byte	.LVL119
 14952 075c 0100     		.2byte	0x1
 14953 075e 54       		.byte	0x54
 14954 075f A0000000 		.4byte	.LVL119
 14955 0763 A2000000 		.4byte	.LVL120
 14956 0767 0100     		.2byte	0x1
 14957 0769 50       		.byte	0x50
 14958 076a A2000000 		.4byte	.LVL120
 14959 076e E2000000 		.4byte	.LVL132
 14960 0772 0100     		.2byte	0x1
 14961 0774 54       		.byte	0x54
 14962 0775 E2000000 		.4byte	.LVL132
 14963 0779 E4000000 		.4byte	.LVL133
 14964 077d 0100     		.2byte	0x1
 14965 077f 50       		.byte	0x50
 14966 0780 E4000000 		.4byte	.LVL133
 14967 0784 EE000000 		.4byte	.LVL134
 14968 0788 0100     		.2byte	0x1
 14969 078a 54       		.byte	0x54
 14970 078b EE000000 		.4byte	.LVL134
 14971 078f F0000000 		.4byte	.LVL135
 14972 0793 0100     		.2byte	0x1
 14973 0795 50       		.byte	0x50
 14974 0796 F0000000 		.4byte	.LVL135
 14975 079a F4000000 		.4byte	.LVL136
 14976 079e 0100     		.2byte	0x1
 14977 07a0 54       		.byte	0x54
 14978 07a1 F4000000 		.4byte	.LVL136
 14979 07a5 F8000000 		.4byte	.LFE18
 14980 07a9 0100     		.2byte	0x1
 14981 07ab 50       		.byte	0x50
 14982 07ac 00000000 		.4byte	0
 14983 07b0 00000000 		.4byte	0
 14984              	.LLST40:
 14985 07b4 26000000 		.4byte	.LVL101
ARM GAS  C:\Users\arist\AppData\Local\Temp\ccSjK9zC.s 			page 293


 14986 07b8 78000000 		.4byte	.LVL110
 14987 07bc 0200     		.2byte	0x2
 14988 07be 30       		.byte	0x30
 14989 07bf 9F       		.byte	0x9f
 14990 07c0 78000000 		.4byte	.LVL110
 14991 07c4 80000000 		.4byte	.LVL111
 14992 07c8 0100     		.2byte	0x1
 14993 07ca 53       		.byte	0x53
 14994 07cb 80000000 		.4byte	.LVL111
 14995 07cf 8A000000 		.4byte	.LVL112
 14996 07d3 1B00     		.2byte	0x1b
 14997 07d5 0A       		.byte	0xa
 14998 07d6 0080     		.2byte	0x8000
 14999 07d8 71       		.byte	0x71
 15000 07d9 00       		.sleb128 0
 15001 07da 26       		.byte	0x26
 15002 07db 76       		.byte	0x76
 15003 07dc 00       		.sleb128 0
 15004 07dd 77       		.byte	0x77
 15005 07de 00       		.sleb128 0
 15006 07df 1C       		.byte	0x1c
 15007 07e0 31       		.byte	0x31
 15008 07e1 24       		.byte	0x24
 15009 07e2 75       		.byte	0x75
 15010 07e3 00       		.sleb128 0
 15011 07e4 22       		.byte	0x22
 15012 07e5 94       		.byte	0x94
 15013 07e6 02       		.byte	0x2
 15014 07e7 0A       		.byte	0xa
 15015 07e8 FFFF     		.2byte	0xffff
 15016 07ea 1A       		.byte	0x1a
 15017 07eb 1A       		.byte	0x1a
 15018 07ec 71       		.byte	0x71
 15019 07ed 00       		.sleb128 0
 15020 07ee 24       		.byte	0x24
 15021 07ef 9F       		.byte	0x9f
 15022 07f0 8A000000 		.4byte	.LVL112
 15023 07f4 BE000000 		.4byte	.LVL122
 15024 07f8 0200     		.2byte	0x2
 15025 07fa 30       		.byte	0x30
 15026 07fb 9F       		.byte	0x9f
 15027 07fc BE000000 		.4byte	.LVL122
 15028 0800 C2000000 		.4byte	.LVL123
 15029 0804 0100     		.2byte	0x1
 15030 0806 53       		.byte	0x53
 15031 0807 C2000000 		.4byte	.LVL123
 15032 080b C6000000 		.4byte	.LVL124
 15033 080f 0D00     		.2byte	0xd
 15034 0811 0A       		.byte	0xa
 15035 0812 0080     		.2byte	0x8000
 15036 0814 72       		.byte	0x72
 15037 0815 00       		.sleb128 0
 15038 0816 26       		.byte	0x26
 15039 0817 70       		.byte	0x70
 15040 0818 00       		.sleb128 0
 15041 0819 1A       		.byte	0x1a
 15042 081a 72       		.byte	0x72
ARM GAS  C:\Users\arist\AppData\Local\Temp\ccSjK9zC.s 			page 294


 15043 081b 00       		.sleb128 0
 15044 081c 24       		.byte	0x24
 15045 081d 9F       		.byte	0x9f
 15046 081e C6000000 		.4byte	.LVL124
 15047 0822 CC000000 		.4byte	.LVL125
 15048 0826 2400     		.2byte	0x24
 15049 0828 0A       		.byte	0xa
 15050 0829 0080     		.2byte	0x8000
 15051 082b 72       		.byte	0x72
 15052 082c 00       		.sleb128 0
 15053 082d 26       		.byte	0x26
 15054 082e 71       		.byte	0x71
 15055 082f 00       		.sleb128 0
 15056 0830 20       		.byte	0x20
 15057 0831 03       		.byte	0x3
 15058 0832 00000000 		.4byte	font_height
 15059 0836 94       		.byte	0x94
 15060 0837 01       		.byte	0x1
 15061 0838 08       		.byte	0x8
 15062 0839 FF       		.byte	0xff
 15063 083a 1A       		.byte	0x1a
 15064 083b 22       		.byte	0x22
 15065 083c 31       		.byte	0x31
 15066 083d 24       		.byte	0x24
 15067 083e 75       		.byte	0x75
 15068 083f 00       		.sleb128 0
 15069 0840 22       		.byte	0x22
 15070 0841 94       		.byte	0x94
 15071 0842 02       		.byte	0x2
 15072 0843 0A       		.byte	0xa
 15073 0844 FFFF     		.2byte	0xffff
 15074 0846 1A       		.byte	0x1a
 15075 0847 1A       		.byte	0x1a
 15076 0848 72       		.byte	0x72
 15077 0849 00       		.sleb128 0
 15078 084a 24       		.byte	0x24
 15079 084b 9F       		.byte	0x9f
 15080 084c CC000000 		.4byte	.LVL125
 15081 0850 F8000000 		.4byte	.LFE18
 15082 0854 0200     		.2byte	0x2
 15083 0856 30       		.byte	0x30
 15084 0857 9F       		.byte	0x9f
 15085 0858 00000000 		.4byte	0
 15086 085c 00000000 		.4byte	0
 15087              	.LLST41:
 15088 0860 10000000 		.4byte	.LVL97
 15089 0864 14000000 		.4byte	.LVL98
 15090 0868 0200     		.2byte	0x2
 15091 086a 30       		.byte	0x30
 15092 086b 9F       		.byte	0x9f
 15093 086c 14000000 		.4byte	.LVL98
 15094 0870 1C000000 		.4byte	.LVL99
 15095 0874 0100     		.2byte	0x1
 15096 0876 53       		.byte	0x53
 15097 0877 1E000000 		.4byte	.LVL100
 15098 087b 28000000 		.4byte	.LVL102
 15099 087f 0100     		.2byte	0x1
ARM GAS  C:\Users\arist\AppData\Local\Temp\ccSjK9zC.s 			page 295


 15100 0881 53       		.byte	0x53
 15101 0882 00000000 		.4byte	0
 15102 0886 00000000 		.4byte	0
 15103              	.LLST42:
 15104 088a 36000000 		.4byte	.LVL103
 15105 088e 56000000 		.4byte	.LVL105
 15106 0892 0100     		.2byte	0x1
 15107 0894 56       		.byte	0x56
 15108 0895 58000000 		.4byte	.LVL106
 15109 0899 5A000000 		.4byte	.LVL107
 15110 089d 0100     		.2byte	0x1
 15111 089f 56       		.byte	0x56
 15112 08a0 5C000000 		.4byte	.LVL108
 15113 08a4 66000000 		.4byte	.LVL109
 15114 08a8 0100     		.2byte	0x1
 15115 08aa 56       		.byte	0x56
 15116 08ab 00000000 		.4byte	0
 15117 08af 00000000 		.4byte	0
 15118              	.LLST43:
 15119 08b3 66000000 		.4byte	.LVL109
 15120 08b7 9C000000 		.4byte	.LVL117
 15121 08bb 0100     		.2byte	0x1
 15122 08bd 57       		.byte	0x57
 15123 08be 9E000000 		.4byte	.LVL118
 15124 08c2 A0000000 		.4byte	.LVL119
 15125 08c6 0100     		.2byte	0x1
 15126 08c8 57       		.byte	0x57
 15127 08c9 A2000000 		.4byte	.LVL120
 15128 08cd AC000000 		.4byte	.LVL121
 15129 08d1 0100     		.2byte	0x1
 15130 08d3 57       		.byte	0x57
 15131 08d4 00000000 		.4byte	0
 15132 08d8 00000000 		.4byte	0
 15133              	.LLST44:
 15134 08dc 66000000 		.4byte	.LVL109
 15135 08e0 8C000000 		.4byte	.LVL113
 15136 08e4 0100     		.2byte	0x1
 15137 08e6 51       		.byte	0x51
 15138 08e7 8E000000 		.4byte	.LVL114
 15139 08eb 90000000 		.4byte	.LVL115
 15140 08ef 0100     		.2byte	0x1
 15141 08f1 51       		.byte	0x51
 15142 08f2 92000000 		.4byte	.LVL116
 15143 08f6 A0000000 		.4byte	.LVL119
 15144 08fa 0100     		.2byte	0x1
 15145 08fc 51       		.byte	0x51
 15146 08fd 00000000 		.4byte	0
 15147 0901 00000000 		.4byte	0
 15148              	.LLST45:
 15149 0905 AC000000 		.4byte	.LVL121
 15150 0909 DE000000 		.4byte	.LVL130
 15151 090d 0100     		.2byte	0x1
 15152 090f 51       		.byte	0x51
 15153 0910 E0000000 		.4byte	.LVL131
 15154 0914 E2000000 		.4byte	.LVL132
 15155 0918 0100     		.2byte	0x1
 15156 091a 51       		.byte	0x51
ARM GAS  C:\Users\arist\AppData\Local\Temp\ccSjK9zC.s 			page 296


 15157 091b E4000000 		.4byte	.LVL133
 15158 091f EE000000 		.4byte	.LVL134
 15159 0923 0100     		.2byte	0x1
 15160 0925 51       		.byte	0x51
 15161 0926 00000000 		.4byte	0
 15162 092a 00000000 		.4byte	0
 15163              	.LLST46:
 15164 092e AC000000 		.4byte	.LVL121
 15165 0932 CE000000 		.4byte	.LVL126
 15166 0936 0100     		.2byte	0x1
 15167 0938 52       		.byte	0x52
 15168 0939 D0000000 		.4byte	.LVL127
 15169 093d D2000000 		.4byte	.LVL128
 15170 0941 0100     		.2byte	0x1
 15171 0943 52       		.byte	0x52
 15172 0944 D4000000 		.4byte	.LVL129
 15173 0948 E2000000 		.4byte	.LVL132
 15174 094c 0100     		.2byte	0x1
 15175 094e 52       		.byte	0x52
 15176 094f 00000000 		.4byte	0
 15177 0953 00000000 		.4byte	0
 15178              	.LLST47:
 15179 0957 00000000 		.4byte	.LVL137
 15180 095b 65000000 		.4byte	.LVL150-1
 15181 095f 0100     		.2byte	0x1
 15182 0961 50       		.byte	0x50
 15183 0962 65000000 		.4byte	.LVL150-1
 15184 0966 6A000000 		.4byte	.LVL152
 15185 096a 0400     		.2byte	0x4
 15186 096c F3       		.byte	0xf3
 15187 096d 01       		.uleb128 0x1
 15188 096e 50       		.byte	0x50
 15189 096f 9F       		.byte	0x9f
 15190 0970 6A000000 		.4byte	.LVL152
 15191 0974 70000000 		.4byte	.LVL153
 15192 0978 0100     		.2byte	0x1
 15193 097a 50       		.byte	0x50
 15194 097b 70000000 		.4byte	.LVL153
 15195 097f 86000000 		.4byte	.LVL157
 15196 0983 0400     		.2byte	0x4
 15197 0985 F3       		.byte	0xf3
 15198 0986 01       		.uleb128 0x1
 15199 0987 50       		.byte	0x50
 15200 0988 9F       		.byte	0x9f
 15201 0989 86000000 		.4byte	.LVL157
 15202 098d 93000000 		.4byte	.LVL159-1
 15203 0991 0100     		.2byte	0x1
 15204 0993 50       		.byte	0x50
 15205 0994 93000000 		.4byte	.LVL159-1
 15206 0998 98000000 		.4byte	.LVL161
 15207 099c 0400     		.2byte	0x4
 15208 099e F3       		.byte	0xf3
 15209 099f 01       		.uleb128 0x1
 15210 09a0 50       		.byte	0x50
 15211 09a1 9F       		.byte	0x9f
 15212 09a2 98000000 		.4byte	.LVL161
 15213 09a6 9E000000 		.4byte	.LVL162
ARM GAS  C:\Users\arist\AppData\Local\Temp\ccSjK9zC.s 			page 297


 15214 09aa 0100     		.2byte	0x1
 15215 09ac 50       		.byte	0x50
 15216 09ad 9E000000 		.4byte	.LVL162
 15217 09b1 AC000000 		.4byte	.LVL165
 15218 09b5 0400     		.2byte	0x4
 15219 09b7 F3       		.byte	0xf3
 15220 09b8 01       		.uleb128 0x1
 15221 09b9 50       		.byte	0x50
 15222 09ba 9F       		.byte	0x9f
 15223 09bb AC000000 		.4byte	.LVL165
 15224 09bf B1000000 		.4byte	.LVL166-1
 15225 09c3 0100     		.2byte	0x1
 15226 09c5 50       		.byte	0x50
 15227 09c6 B1000000 		.4byte	.LVL166-1
 15228 09ca 9C010000 		.4byte	.LFE7
 15229 09ce 0400     		.2byte	0x4
 15230 09d0 F3       		.byte	0xf3
 15231 09d1 01       		.uleb128 0x1
 15232 09d2 50       		.byte	0x50
 15233 09d3 9F       		.byte	0x9f
 15234 09d4 00000000 		.4byte	0
 15235 09d8 00000000 		.4byte	0
 15236              	.LLST48:
 15237 09dc 00000000 		.4byte	.LVL137
 15238 09e0 65000000 		.4byte	.LVL150-1
 15239 09e4 0100     		.2byte	0x1
 15240 09e6 51       		.byte	0x51
 15241 09e7 65000000 		.4byte	.LVL150-1
 15242 09eb 6A000000 		.4byte	.LVL152
 15243 09ef 0400     		.2byte	0x4
 15244 09f1 F3       		.byte	0xf3
 15245 09f2 01       		.uleb128 0x1
 15246 09f3 51       		.byte	0x51
 15247 09f4 9F       		.byte	0x9f
 15248 09f5 6A000000 		.4byte	.LVL152
 15249 09f9 76000000 		.4byte	.LVL154
 15250 09fd 0100     		.2byte	0x1
 15251 09ff 51       		.byte	0x51
 15252 0a00 76000000 		.4byte	.LVL154
 15253 0a04 86000000 		.4byte	.LVL157
 15254 0a08 0400     		.2byte	0x4
 15255 0a0a F3       		.byte	0xf3
 15256 0a0b 01       		.uleb128 0x1
 15257 0a0c 51       		.byte	0x51
 15258 0a0d 9F       		.byte	0x9f
 15259 0a0e 86000000 		.4byte	.LVL157
 15260 0a12 8C000000 		.4byte	.LVL158
 15261 0a16 0100     		.2byte	0x1
 15262 0a18 51       		.byte	0x51
 15263 0a19 8C000000 		.4byte	.LVL158
 15264 0a1d 98000000 		.4byte	.LVL161
 15265 0a21 0400     		.2byte	0x4
 15266 0a23 F3       		.byte	0xf3
 15267 0a24 01       		.uleb128 0x1
 15268 0a25 51       		.byte	0x51
 15269 0a26 9F       		.byte	0x9f
 15270 0a27 98000000 		.4byte	.LVL161
ARM GAS  C:\Users\arist\AppData\Local\Temp\ccSjK9zC.s 			page 298


 15271 0a2b A7000000 		.4byte	.LVL163-1
 15272 0a2f 0100     		.2byte	0x1
 15273 0a31 51       		.byte	0x51
 15274 0a32 A7000000 		.4byte	.LVL163-1
 15275 0a36 AC000000 		.4byte	.LVL165
 15276 0a3a 0400     		.2byte	0x4
 15277 0a3c F3       		.byte	0xf3
 15278 0a3d 01       		.uleb128 0x1
 15279 0a3e 51       		.byte	0x51
 15280 0a3f 9F       		.byte	0x9f
 15281 0a40 AC000000 		.4byte	.LVL165
 15282 0a44 B1000000 		.4byte	.LVL166-1
 15283 0a48 0100     		.2byte	0x1
 15284 0a4a 51       		.byte	0x51
 15285 0a4b B1000000 		.4byte	.LVL166-1
 15286 0a4f 9C010000 		.4byte	.LFE7
 15287 0a53 0400     		.2byte	0x4
 15288 0a55 F3       		.byte	0xf3
 15289 0a56 01       		.uleb128 0x1
 15290 0a57 51       		.byte	0x51
 15291 0a58 9F       		.byte	0x9f
 15292 0a59 00000000 		.4byte	0
 15293 0a5d 00000000 		.4byte	0
 15294              	.LLST49:
 15295 0a61 00000000 		.4byte	.LVL137
 15296 0a65 20000000 		.4byte	.LVL140
 15297 0a69 0100     		.2byte	0x1
 15298 0a6b 52       		.byte	0x52
 15299 0a6c 20000000 		.4byte	.LVL140
 15300 0a70 28000000 		.4byte	.LVL142
 15301 0a74 0400     		.2byte	0x4
 15302 0a76 F3       		.byte	0xf3
 15303 0a77 01       		.uleb128 0x1
 15304 0a78 52       		.byte	0x52
 15305 0a79 9F       		.byte	0x9f
 15306 0a7a 28000000 		.4byte	.LVL142
 15307 0a7e 36000000 		.4byte	.LVL144
 15308 0a82 0100     		.2byte	0x1
 15309 0a84 52       		.byte	0x52
 15310 0a85 36000000 		.4byte	.LVL144
 15311 0a89 3E000000 		.4byte	.LVL146
 15312 0a8d 0400     		.2byte	0x4
 15313 0a8f F3       		.byte	0xf3
 15314 0a90 01       		.uleb128 0x1
 15315 0a91 52       		.byte	0x52
 15316 0a92 9F       		.byte	0x9f
 15317 0a93 3E000000 		.4byte	.LVL146
 15318 0a97 4C000000 		.4byte	.LVL148
 15319 0a9b 0100     		.2byte	0x1
 15320 0a9d 52       		.byte	0x52
 15321 0a9e 4C000000 		.4byte	.LVL148
 15322 0aa2 9C010000 		.4byte	.LFE7
 15323 0aa6 0400     		.2byte	0x4
 15324 0aa8 F3       		.byte	0xf3
 15325 0aa9 01       		.uleb128 0x1
 15326 0aaa 52       		.byte	0x52
 15327 0aab 9F       		.byte	0x9f
ARM GAS  C:\Users\arist\AppData\Local\Temp\ccSjK9zC.s 			page 299


 15328 0aac 00000000 		.4byte	0
 15329 0ab0 00000000 		.4byte	0
 15330              	.LLST50:
 15331 0ab4 00000000 		.4byte	.LVL137
 15332 0ab8 14000000 		.4byte	.LVL139
 15333 0abc 0100     		.2byte	0x1
 15334 0abe 53       		.byte	0x53
 15335 0abf 14000000 		.4byte	.LVL139
 15336 0ac3 28000000 		.4byte	.LVL142
 15337 0ac7 0400     		.2byte	0x4
 15338 0ac9 F3       		.byte	0xf3
 15339 0aca 01       		.uleb128 0x1
 15340 0acb 53       		.byte	0x53
 15341 0acc 9F       		.byte	0x9f
 15342 0acd 28000000 		.4byte	.LVL142
 15343 0ad1 2A000000 		.4byte	.LVL143
 15344 0ad5 0100     		.2byte	0x1
 15345 0ad7 53       		.byte	0x53
 15346 0ad8 2A000000 		.4byte	.LVL143
 15347 0adc 3E000000 		.4byte	.LVL146
 15348 0ae0 0400     		.2byte	0x4
 15349 0ae2 F3       		.byte	0xf3
 15350 0ae3 01       		.uleb128 0x1
 15351 0ae4 53       		.byte	0x53
 15352 0ae5 9F       		.byte	0x9f
 15353 0ae6 3E000000 		.4byte	.LVL146
 15354 0aea 40000000 		.4byte	.LVL147
 15355 0aee 0100     		.2byte	0x1
 15356 0af0 53       		.byte	0x53
 15357 0af1 40000000 		.4byte	.LVL147
 15358 0af5 9C010000 		.4byte	.LFE7
 15359 0af9 0400     		.2byte	0x4
 15360 0afb F3       		.byte	0xf3
 15361 0afc 01       		.uleb128 0x1
 15362 0afd 53       		.byte	0x53
 15363 0afe 9F       		.byte	0x9f
 15364 0aff 00000000 		.4byte	0
 15365 0b03 00000000 		.4byte	0
 15366              	.LLST51:
 15367 0b07 00000000 		.4byte	.LVL137
 15368 0b0b 90010000 		.4byte	.LVL188
 15369 0b0f 0200     		.2byte	0x2
 15370 0b11 91       		.byte	0x91
 15371 0b12 00       		.sleb128 0
 15372 0b13 90010000 		.4byte	.LVL188
 15373 0b17 9C010000 		.4byte	.LFE7
 15374 0b1b 0200     		.2byte	0x2
 15375 0b1d 7D       		.byte	0x7d
 15376 0b1e 00       		.sleb128 0
 15377 0b1f 00000000 		.4byte	0
 15378 0b23 00000000 		.4byte	0
 15379              	.LLST52:
 15380 0b27 06000000 		.4byte	.LVL138
 15381 0b2b 84010000 		.4byte	.LVL186
 15382 0b2f 0200     		.2byte	0x2
 15383 0b31 30       		.byte	0x30
 15384 0b32 9F       		.byte	0x9f
ARM GAS  C:\Users\arist\AppData\Local\Temp\ccSjK9zC.s 			page 300


 15385 0b33 84010000 		.4byte	.LVL186
 15386 0b37 90010000 		.4byte	.LVL188
 15387 0b3b 0100     		.2byte	0x1
 15388 0b3d 54       		.byte	0x54
 15389 0b3e 00000000 		.4byte	0
 15390 0b42 00000000 		.4byte	0
 15391              	.LLST53:
 15392 0b46 68000000 		.4byte	.LVL151
 15393 0b4a 6A000000 		.4byte	.LVL152
 15394 0b4e 0100     		.2byte	0x1
 15395 0b50 50       		.byte	0x50
 15396 0b51 84000000 		.4byte	.LVL156
 15397 0b55 86000000 		.4byte	.LVL157
 15398 0b59 0100     		.2byte	0x1
 15399 0b5b 50       		.byte	0x50
 15400 0b5c 96000000 		.4byte	.LVL160
 15401 0b60 98000000 		.4byte	.LVL161
 15402 0b64 0100     		.2byte	0x1
 15403 0b66 50       		.byte	0x50
 15404 0b67 AA000000 		.4byte	.LVL164
 15405 0b6b AC000000 		.4byte	.LVL165
 15406 0b6f 0100     		.2byte	0x1
 15407 0b71 50       		.byte	0x50
 15408 0b72 B4000000 		.4byte	.LVL167
 15409 0b76 C0000000 		.4byte	.LVL168
 15410 0b7a 0100     		.2byte	0x1
 15411 0b7c 50       		.byte	0x50
 15412 0b7d C0000000 		.4byte	.LVL168
 15413 0b81 76010000 		.4byte	.LVL184
 15414 0b85 0100     		.2byte	0x1
 15415 0b87 55       		.byte	0x55
 15416 0b88 76010000 		.4byte	.LVL184
 15417 0b8c 7A010000 		.4byte	.LVL185
 15418 0b90 0100     		.2byte	0x1
 15419 0b92 50       		.byte	0x50
 15420 0b93 7A010000 		.4byte	.LVL185
 15421 0b97 90010000 		.4byte	.LVL188
 15422 0b9b 0100     		.2byte	0x1
 15423 0b9d 55       		.byte	0x55
 15424 0b9e 00000000 		.4byte	0
 15425 0ba2 00000000 		.4byte	0
 15426              	.LLST54:
 15427 0ba6 26000000 		.4byte	.LVL141
 15428 0baa 28000000 		.4byte	.LVL142
 15429 0bae 0100     		.2byte	0x1
 15430 0bb0 56       		.byte	0x56
 15431 0bb1 3C000000 		.4byte	.LVL145
 15432 0bb5 3E000000 		.4byte	.LVL146
 15433 0bb9 0100     		.2byte	0x1
 15434 0bbb 56       		.byte	0x56
 15435 0bbc 52000000 		.4byte	.LVL149
 15436 0bc0 E2000000 		.4byte	.LVL170
 15437 0bc4 0100     		.2byte	0x1
 15438 0bc6 56       		.byte	0x56
 15439 0bc7 E2000000 		.4byte	.LVL170
 15440 0bcb F2000000 		.4byte	.LVL171
 15441 0bcf 0100     		.2byte	0x1
ARM GAS  C:\Users\arist\AppData\Local\Temp\ccSjK9zC.s 			page 301


 15442 0bd1 50       		.byte	0x50
 15443 0bd2 F2000000 		.4byte	.LVL171
 15444 0bd6 90010000 		.4byte	.LVL188
 15445 0bda 0100     		.2byte	0x1
 15446 0bdc 56       		.byte	0x56
 15447 0bdd 00000000 		.4byte	0
 15448 0be1 00000000 		.4byte	0
 15449              	.LLST55:
 15450 0be5 F6000000 		.4byte	.LVL172
 15451 0be9 76010000 		.4byte	.LVL184
 15452 0bed 0100     		.2byte	0x1
 15453 0bef 50       		.byte	0x50
 15454 0bf0 00000000 		.4byte	0
 15455 0bf4 00000000 		.4byte	0
 15456              	.LLST56:
 15457 0bf8 F6000000 		.4byte	.LVL172
 15458 0bfc FE000000 		.4byte	.LVL174
 15459 0c00 0100     		.2byte	0x1
 15460 0c02 50       		.byte	0x50
 15461 0c03 06010000 		.4byte	.LVL175
 15462 0c07 4E010000 		.4byte	.LVL179
 15463 0c0b 0100     		.2byte	0x1
 15464 0c0d 53       		.byte	0x53
 15465 0c0e 4E010000 		.4byte	.LVL179
 15466 0c12 66010000 		.4byte	.LVL181
 15467 0c16 0300     		.2byte	0x3
 15468 0c18 73       		.byte	0x73
 15469 0c19 7E       		.sleb128 -2
 15470 0c1a 9F       		.byte	0x9f
 15471 0c1b 00000000 		.4byte	0
 15472 0c1f 00000000 		.4byte	0
 15473              	.LLST57:
 15474 0c23 F6000000 		.4byte	.LVL172
 15475 0c27 FE000000 		.4byte	.LVL174
 15476 0c2b 0200     		.2byte	0x2
 15477 0c2d 30       		.byte	0x30
 15478 0c2e 9F       		.byte	0x9f
 15479 0c2f 10010000 		.4byte	.LVL176
 15480 0c33 2E010000 		.4byte	.LVL177
 15481 0c37 0100     		.2byte	0x1
 15482 0c39 52       		.byte	0x52
 15483 0c3a 48010000 		.4byte	.LVL178
 15484 0c3e 52010000 		.4byte	.LVL180
 15485 0c42 0700     		.2byte	0x7
 15486 0c44 72       		.byte	0x72
 15487 0c45 00       		.sleb128 0
 15488 0c46 31       		.byte	0x31
 15489 0c47 24       		.byte	0x24
 15490 0c48 76       		.byte	0x76
 15491 0c49 00       		.sleb128 0
 15492 0c4a 22       		.byte	0x22
 15493 0c4b 52010000 		.4byte	.LVL180
 15494 0c4f 66010000 		.4byte	.LVL181
 15495 0c53 1800     		.2byte	0x18
 15496 0c55 03       		.byte	0x3
 15497 0c56 00000000 		.4byte	font_height
 15498 0c5a 94       		.byte	0x94
ARM GAS  C:\Users\arist\AppData\Local\Temp\ccSjK9zC.s 			page 302


 15499 0c5b 01       		.byte	0x1
 15500 0c5c 08       		.byte	0x8
 15501 0c5d FF       		.byte	0xff
 15502 0c5e 1A       		.byte	0x1a
 15503 0c5f 71       		.byte	0x71
 15504 0c60 00       		.sleb128 0
 15505 0c61 1C       		.byte	0x1c
 15506 0c62 23       		.byte	0x23
 15507 0c63 FFFFFFFF 		.uleb128 0x7fffffff
 15507      07
 15508 0c68 31       		.byte	0x31
 15509 0c69 24       		.byte	0x24
 15510 0c6a 76       		.byte	0x76
 15511 0c6b 00       		.sleb128 0
 15512 0c6c 22       		.byte	0x22
 15513 0c6d 00000000 		.4byte	0
 15514 0c71 00000000 		.4byte	0
 15515              	.LLST58:
 15516 0c75 FA000000 		.4byte	.LVL173
 15517 0c79 76010000 		.4byte	.LVL184
 15518 0c7d 0100     		.2byte	0x1
 15519 0c7f 57       		.byte	0x57
 15520 0c80 00000000 		.4byte	0
 15521 0c84 00000000 		.4byte	0
 15522              	.LLST59:
 15523 0c88 FA000000 		.4byte	.LVL173
 15524 0c8c FE000000 		.4byte	.LVL174
 15525 0c90 0200     		.2byte	0x2
 15526 0c92 30       		.byte	0x30
 15527 0c93 9F       		.byte	0x9f
 15528 0c94 FE000000 		.4byte	.LVL174
 15529 0c98 68010000 		.4byte	.LVL182
 15530 0c9c 0100     		.2byte	0x1
 15531 0c9e 51       		.byte	0x51
 15532 0c9f 6A010000 		.4byte	.LVL183
 15533 0ca3 76010000 		.4byte	.LVL184
 15534 0ca7 0100     		.2byte	0x1
 15535 0ca9 51       		.byte	0x51
 15536 0caa 00000000 		.4byte	0
 15537 0cae 00000000 		.4byte	0
 15538              	.LLST60:
 15539 0cb2 00000000 		.4byte	.LVL189
 15540 0cb6 12000000 		.4byte	.LVL191
 15541 0cba 0100     		.2byte	0x1
 15542 0cbc 50       		.byte	0x50
 15543 0cbd 12000000 		.4byte	.LVL191
 15544 0cc1 52000000 		.4byte	.LVL201
 15545 0cc5 0400     		.2byte	0x4
 15546 0cc7 F3       		.byte	0xf3
 15547 0cc8 01       		.uleb128 0x1
 15548 0cc9 50       		.byte	0x50
 15549 0cca 9F       		.byte	0x9f
 15550 0ccb 52000000 		.4byte	.LVL201
 15551 0ccf 62000000 		.4byte	.LVL202
 15552 0cd3 0100     		.2byte	0x1
 15553 0cd5 50       		.byte	0x50
 15554 0cd6 62000000 		.4byte	.LVL202
ARM GAS  C:\Users\arist\AppData\Local\Temp\ccSjK9zC.s 			page 303


 15555 0cda 78000000 		.4byte	.LFE8
 15556 0cde 0400     		.2byte	0x4
 15557 0ce0 F3       		.byte	0xf3
 15558 0ce1 01       		.uleb128 0x1
 15559 0ce2 50       		.byte	0x50
 15560 0ce3 9F       		.byte	0x9f
 15561 0ce4 00000000 		.4byte	0
 15562 0ce8 00000000 		.4byte	0
 15563              	.LLST61:
 15564 0cec 00000000 		.4byte	.LVL189
 15565 0cf0 12000000 		.4byte	.LVL191
 15566 0cf4 0100     		.2byte	0x1
 15567 0cf6 51       		.byte	0x51
 15568 0cf7 12000000 		.4byte	.LVL191
 15569 0cfb 52000000 		.4byte	.LVL201
 15570 0cff 0400     		.2byte	0x4
 15571 0d01 F3       		.byte	0xf3
 15572 0d02 01       		.uleb128 0x1
 15573 0d03 51       		.byte	0x51
 15574 0d04 9F       		.byte	0x9f
 15575 0d05 52000000 		.4byte	.LVL201
 15576 0d09 62000000 		.4byte	.LVL202
 15577 0d0d 0100     		.2byte	0x1
 15578 0d0f 51       		.byte	0x51
 15579 0d10 62000000 		.4byte	.LVL202
 15580 0d14 78000000 		.4byte	.LFE8
 15581 0d18 0400     		.2byte	0x4
 15582 0d1a F3       		.byte	0xf3
 15583 0d1b 01       		.uleb128 0x1
 15584 0d1c 51       		.byte	0x51
 15585 0d1d 9F       		.byte	0x9f
 15586 0d1e 00000000 		.4byte	0
 15587 0d22 00000000 		.4byte	0
 15588              	.LLST62:
 15589 0d26 00000000 		.4byte	.LVL189
 15590 0d2a 12000000 		.4byte	.LVL191
 15591 0d2e 0100     		.2byte	0x1
 15592 0d30 52       		.byte	0x52
 15593 0d31 12000000 		.4byte	.LVL191
 15594 0d35 52000000 		.4byte	.LVL201
 15595 0d39 0100     		.2byte	0x1
 15596 0d3b 55       		.byte	0x55
 15597 0d3c 52000000 		.4byte	.LVL201
 15598 0d40 62000000 		.4byte	.LVL202
 15599 0d44 0100     		.2byte	0x1
 15600 0d46 52       		.byte	0x52
 15601 0d47 62000000 		.4byte	.LVL202
 15602 0d4b 6C000000 		.4byte	.LVL204
 15603 0d4f 0100     		.2byte	0x1
 15604 0d51 55       		.byte	0x55
 15605 0d52 6C000000 		.4byte	.LVL204
 15606 0d56 78000000 		.4byte	.LFE8
 15607 0d5a 0400     		.2byte	0x4
 15608 0d5c F3       		.byte	0xf3
 15609 0d5d 01       		.uleb128 0x1
 15610 0d5e 52       		.byte	0x52
 15611 0d5f 9F       		.byte	0x9f
ARM GAS  C:\Users\arist\AppData\Local\Temp\ccSjK9zC.s 			page 304


 15612 0d60 00000000 		.4byte	0
 15613 0d64 00000000 		.4byte	0
 15614              	.LLST63:
 15615 0d68 00000000 		.4byte	.LVL189
 15616 0d6c 12000000 		.4byte	.LVL191
 15617 0d70 0100     		.2byte	0x1
 15618 0d72 53       		.byte	0x53
 15619 0d73 12000000 		.4byte	.LVL191
 15620 0d77 52000000 		.4byte	.LVL201
 15621 0d7b 0400     		.2byte	0x4
 15622 0d7d F3       		.byte	0xf3
 15623 0d7e 01       		.uleb128 0x1
 15624 0d7f 53       		.byte	0x53
 15625 0d80 9F       		.byte	0x9f
 15626 0d81 52000000 		.4byte	.LVL201
 15627 0d85 62000000 		.4byte	.LVL202
 15628 0d89 0100     		.2byte	0x1
 15629 0d8b 53       		.byte	0x53
 15630 0d8c 62000000 		.4byte	.LVL202
 15631 0d90 78000000 		.4byte	.LFE8
 15632 0d94 0400     		.2byte	0x4
 15633 0d96 F3       		.byte	0xf3
 15634 0d97 01       		.uleb128 0x1
 15635 0d98 53       		.byte	0x53
 15636 0d99 9F       		.byte	0x9f
 15637 0d9a 00000000 		.4byte	0
 15638 0d9e 00000000 		.4byte	0
 15639              	.LLST64:
 15640 0da2 00000000 		.4byte	.LVL189
 15641 0da6 74000000 		.4byte	.LVL205
 15642 0daa 0200     		.2byte	0x2
 15643 0dac 91       		.byte	0x91
 15644 0dad 00       		.sleb128 0
 15645 0dae 74000000 		.4byte	.LVL205
 15646 0db2 78000000 		.4byte	.LFE8
 15647 0db6 0200     		.2byte	0x2
 15648 0db8 7D       		.byte	0x7d
 15649 0db9 00       		.sleb128 0
 15650 0dba 00000000 		.4byte	0
 15651 0dbe 00000000 		.4byte	0
 15652              	.LLST65:
 15653 0dc2 0A000000 		.4byte	.LVL190
 15654 0dc6 12000000 		.4byte	.LVL191
 15655 0dca 0200     		.2byte	0x2
 15656 0dcc 31       		.byte	0x31
 15657 0dcd 9F       		.byte	0x9f
 15658 0dce 12000000 		.4byte	.LVL191
 15659 0dd2 38000000 		.4byte	.LVL194
 15660 0dd6 0100     		.2byte	0x1
 15661 0dd8 58       		.byte	0x58
 15662 0dd9 38000000 		.4byte	.LVL194
 15663 0ddd 4A000000 		.4byte	.LVL197
 15664 0de1 0100     		.2byte	0x1
 15665 0de3 50       		.byte	0x50
 15666 0de4 4A000000 		.4byte	.LVL197
 15667 0de8 52000000 		.4byte	.LVL201
 15668 0dec 0100     		.2byte	0x1
ARM GAS  C:\Users\arist\AppData\Local\Temp\ccSjK9zC.s 			page 305


 15669 0dee 58       		.byte	0x58
 15670 0def 52000000 		.4byte	.LVL201
 15671 0df3 62000000 		.4byte	.LVL202
 15672 0df7 0200     		.2byte	0x2
 15673 0df9 31       		.byte	0x31
 15674 0dfa 9F       		.byte	0x9f
 15675 0dfb 62000000 		.4byte	.LVL202
 15676 0dff 74000000 		.4byte	.LVL205
 15677 0e03 0100     		.2byte	0x1
 15678 0e05 58       		.byte	0x58
 15679 0e06 00000000 		.4byte	0
 15680 0e0a 00000000 		.4byte	0
 15681              	.LLST66:
 15682 0e0e 0A000000 		.4byte	.LVL190
 15683 0e12 12000000 		.4byte	.LVL191
 15684 0e16 0200     		.2byte	0x2
 15685 0e18 30       		.byte	0x30
 15686 0e19 9F       		.byte	0x9f
 15687 0e1a 12000000 		.4byte	.LVL191
 15688 0e1e 4E000000 		.4byte	.LVL199
 15689 0e22 0100     		.2byte	0x1
 15690 0e24 54       		.byte	0x54
 15691 0e25 50000000 		.4byte	.LVL200
 15692 0e29 52000000 		.4byte	.LVL201
 15693 0e2d 0100     		.2byte	0x1
 15694 0e2f 54       		.byte	0x54
 15695 0e30 52000000 		.4byte	.LVL201
 15696 0e34 62000000 		.4byte	.LVL202
 15697 0e38 0200     		.2byte	0x2
 15698 0e3a 30       		.byte	0x30
 15699 0e3b 9F       		.byte	0x9f
 15700 0e3c 62000000 		.4byte	.LVL202
 15701 0e40 6C000000 		.4byte	.LVL204
 15702 0e44 0100     		.2byte	0x1
 15703 0e46 54       		.byte	0x54
 15704 0e47 00000000 		.4byte	0
 15705 0e4b 00000000 		.4byte	0
 15706              	.LLST67:
 15707 0e4f 0A000000 		.4byte	.LVL190
 15708 0e53 12000000 		.4byte	.LVL191
 15709 0e57 0100     		.2byte	0x1
 15710 0e59 51       		.byte	0x51
 15711 0e5a 12000000 		.4byte	.LVL191
 15712 0e5e 22000000 		.4byte	.LVL192
 15713 0e62 0100     		.2byte	0x1
 15714 0e64 57       		.byte	0x57
 15715 0e65 28000000 		.4byte	.LVL193
 15716 0e69 52000000 		.4byte	.LVL201
 15717 0e6d 0100     		.2byte	0x1
 15718 0e6f 57       		.byte	0x57
 15719 0e70 52000000 		.4byte	.LVL201
 15720 0e74 62000000 		.4byte	.LVL202
 15721 0e78 0100     		.2byte	0x1
 15722 0e7a 51       		.byte	0x51
 15723 0e7b 62000000 		.4byte	.LVL202
 15724 0e7f 6C000000 		.4byte	.LVL204
 15725 0e83 0100     		.2byte	0x1
ARM GAS  C:\Users\arist\AppData\Local\Temp\ccSjK9zC.s 			page 306


 15726 0e85 57       		.byte	0x57
 15727 0e86 00000000 		.4byte	0
 15728 0e8a 00000000 		.4byte	0
 15729              	.LLST68:
 15730 0e8e 0A000000 		.4byte	.LVL190
 15731 0e92 12000000 		.4byte	.LVL191
 15732 0e96 0100     		.2byte	0x1
 15733 0e98 50       		.byte	0x50
 15734 0e99 12000000 		.4byte	.LVL191
 15735 0e9d 42000000 		.4byte	.LVL195
 15736 0ea1 0100     		.2byte	0x1
 15737 0ea3 56       		.byte	0x56
 15738 0ea4 48000000 		.4byte	.LVL196
 15739 0ea8 52000000 		.4byte	.LVL201
 15740 0eac 0100     		.2byte	0x1
 15741 0eae 56       		.byte	0x56
 15742 0eaf 52000000 		.4byte	.LVL201
 15743 0eb3 62000000 		.4byte	.LVL202
 15744 0eb7 0100     		.2byte	0x1
 15745 0eb9 50       		.byte	0x50
 15746 0eba 62000000 		.4byte	.LVL202
 15747 0ebe 6C000000 		.4byte	.LVL204
 15748 0ec2 0100     		.2byte	0x1
 15749 0ec4 56       		.byte	0x56
 15750 0ec5 00000000 		.4byte	0
 15751 0ec9 00000000 		.4byte	0
 15752              	.LLST69:
 15753 0ecd 00000000 		.4byte	.LVL206
 15754 0ed1 06000000 		.4byte	.LVL207
 15755 0ed5 0100     		.2byte	0x1
 15756 0ed7 50       		.byte	0x50
 15757 0ed8 06000000 		.4byte	.LVL207
 15758 0edc 0A000000 		.4byte	.LFE20
 15759 0ee0 0400     		.2byte	0x4
 15760 0ee2 F3       		.byte	0xf3
 15761 0ee3 01       		.uleb128 0x1
 15762 0ee4 50       		.byte	0x50
 15763 0ee5 9F       		.byte	0x9f
 15764 0ee6 00000000 		.4byte	0
 15765 0eea 00000000 		.4byte	0
 15766              	.LLST70:
 15767 0eee 00000000 		.4byte	.LVL208
 15768 0ef2 15000000 		.4byte	.LVL211-1
 15769 0ef6 0100     		.2byte	0x1
 15770 0ef8 50       		.byte	0x50
 15771 0ef9 15000000 		.4byte	.LVL211-1
 15772 0efd 10020000 		.4byte	.LFE6
 15773 0f01 0400     		.2byte	0x4
 15774 0f03 F3       		.byte	0xf3
 15775 0f04 01       		.uleb128 0x1
 15776 0f05 50       		.byte	0x50
 15777 0f06 9F       		.byte	0x9f
 15778 0f07 00000000 		.4byte	0
 15779 0f0b 00000000 		.4byte	0
 15780              	.LLST71:
 15781 0f0f 00000000 		.4byte	.LVL208
 15782 0f13 15000000 		.4byte	.LVL211-1
ARM GAS  C:\Users\arist\AppData\Local\Temp\ccSjK9zC.s 			page 307


 15783 0f17 0100     		.2byte	0x1
 15784 0f19 51       		.byte	0x51
 15785 0f1a 15000000 		.4byte	.LVL211-1
 15786 0f1e 10020000 		.4byte	.LFE6
 15787 0f22 0400     		.2byte	0x4
 15788 0f24 F3       		.byte	0xf3
 15789 0f25 01       		.uleb128 0x1
 15790 0f26 51       		.byte	0x51
 15791 0f27 9F       		.byte	0x9f
 15792 0f28 00000000 		.4byte	0
 15793 0f2c 00000000 		.4byte	0
 15794              	.LLST72:
 15795 0f30 00000000 		.4byte	.LVL208
 15796 0f34 12000000 		.4byte	.LVL210
 15797 0f38 0100     		.2byte	0x1
 15798 0f3a 52       		.byte	0x52
 15799 0f3b 12000000 		.4byte	.LVL210
 15800 0f3f 10020000 		.4byte	.LFE6
 15801 0f43 0400     		.2byte	0x4
 15802 0f45 F3       		.byte	0xf3
 15803 0f46 01       		.uleb128 0x1
 15804 0f47 52       		.byte	0x52
 15805 0f48 9F       		.byte	0x9f
 15806 0f49 00000000 		.4byte	0
 15807 0f4d 00000000 		.4byte	0
 15808              	.LLST73:
 15809 0f51 00000000 		.4byte	.LVL208
 15810 0f55 15000000 		.4byte	.LVL211-1
 15811 0f59 0100     		.2byte	0x1
 15812 0f5b 53       		.byte	0x53
 15813 0f5c 15000000 		.4byte	.LVL211-1
 15814 0f60 10020000 		.4byte	.LFE6
 15815 0f64 0400     		.2byte	0x4
 15816 0f66 F3       		.byte	0xf3
 15817 0f67 01       		.uleb128 0x1
 15818 0f68 53       		.byte	0x53
 15819 0f69 9F       		.byte	0x9f
 15820 0f6a 00000000 		.4byte	0
 15821 0f6e 00000000 		.4byte	0
 15822              	.LLST74:
 15823 0f72 10000000 		.4byte	.LVL209
 15824 0f76 FA010000 		.4byte	.LVL256
 15825 0f7a 0200     		.2byte	0x2
 15826 0f7c 30       		.byte	0x30
 15827 0f7d 9F       		.byte	0x9f
 15828 0f7e FA010000 		.4byte	.LVL256
 15829 0f82 04020000 		.4byte	.LVL258
 15830 0f86 0100     		.2byte	0x1
 15831 0f88 54       		.byte	0x54
 15832 0f89 04020000 		.4byte	.LVL258
 15833 0f8d 0A020000 		.4byte	.LVL261
 15834 0f91 0200     		.2byte	0x2
 15835 0f93 30       		.byte	0x30
 15836 0f94 9F       		.byte	0x9f
 15837 0f95 00000000 		.4byte	0
 15838 0f99 00000000 		.4byte	0
 15839              	.LLST75:
ARM GAS  C:\Users\arist\AppData\Local\Temp\ccSjK9zC.s 			page 308


 15840 0f9d 10000000 		.4byte	.LVL209
 15841 0fa1 28000000 		.4byte	.LVL214
 15842 0fa5 0200     		.2byte	0x2
 15843 0fa7 30       		.byte	0x30
 15844 0fa8 9F       		.byte	0x9f
 15845 0fa9 28000000 		.4byte	.LVL214
 15846 0fad 40000000 		.4byte	.LVL218
 15847 0fb1 0100     		.2byte	0x1
 15848 0fb3 55       		.byte	0x55
 15849 0fb4 40000000 		.4byte	.LVL218
 15850 0fb8 4A000000 		.4byte	.LVL219
 15851 0fbc 0200     		.2byte	0x2
 15852 0fbe 30       		.byte	0x30
 15853 0fbf 9F       		.byte	0x9f
 15854 0fc0 4A000000 		.4byte	.LVL219
 15855 0fc4 66000000 		.4byte	.LVL223
 15856 0fc8 0100     		.2byte	0x1
 15857 0fca 55       		.byte	0x55
 15858 0fcb 66000000 		.4byte	.LVL223
 15859 0fcf 70000000 		.4byte	.LVL224
 15860 0fd3 0200     		.2byte	0x2
 15861 0fd5 30       		.byte	0x30
 15862 0fd6 9F       		.byte	0x9f
 15863 0fd7 70000000 		.4byte	.LVL224
 15864 0fdb 86000000 		.4byte	.LVL228
 15865 0fdf 0100     		.2byte	0x1
 15866 0fe1 55       		.byte	0x55
 15867 0fe2 86000000 		.4byte	.LVL228
 15868 0fe6 88000000 		.4byte	.LVL229
 15869 0fea 0200     		.2byte	0x2
 15870 0fec 30       		.byte	0x30
 15871 0fed 9F       		.byte	0x9f
 15872 0fee 88000000 		.4byte	.LVL229
 15873 0ff2 A6000000 		.4byte	.LVL233
 15874 0ff6 0100     		.2byte	0x1
 15875 0ff8 55       		.byte	0x55
 15876 0ff9 A6000000 		.4byte	.LVL233
 15877 0ffd B2000000 		.4byte	.LVL234
 15878 1001 0200     		.2byte	0x2
 15879 1003 30       		.byte	0x30
 15880 1004 9F       		.byte	0x9f
 15881 1005 B2000000 		.4byte	.LVL234
 15882 1009 10020000 		.4byte	.LFE6
 15883 100d 0100     		.2byte	0x1
 15884 100f 55       		.byte	0x55
 15885 1010 00000000 		.4byte	0
 15886 1014 00000000 		.4byte	0
 15887              	.LLST76:
 15888 1018 10000000 		.4byte	.LVL209
 15889 101c 2A000000 		.4byte	.LVL215
 15890 1020 0200     		.2byte	0x2
 15891 1022 30       		.byte	0x30
 15892 1023 9F       		.byte	0x9f
 15893 1024 2A000000 		.4byte	.LVL215
 15894 1028 40000000 		.4byte	.LVL218
 15895 102c 0100     		.2byte	0x1
 15896 102e 56       		.byte	0x56
ARM GAS  C:\Users\arist\AppData\Local\Temp\ccSjK9zC.s 			page 309


 15897 102f 40000000 		.4byte	.LVL218
 15898 1033 54000000 		.4byte	.LVL220
 15899 1037 0200     		.2byte	0x2
 15900 1039 30       		.byte	0x30
 15901 103a 9F       		.byte	0x9f
 15902 103b 54000000 		.4byte	.LVL220
 15903 103f 66000000 		.4byte	.LVL223
 15904 1043 0100     		.2byte	0x1
 15905 1045 56       		.byte	0x56
 15906 1046 66000000 		.4byte	.LVL223
 15907 104a 72000000 		.4byte	.LVL225
 15908 104e 0200     		.2byte	0x2
 15909 1050 30       		.byte	0x30
 15910 1051 9F       		.byte	0x9f
 15911 1052 72000000 		.4byte	.LVL225
 15912 1056 86000000 		.4byte	.LVL228
 15913 105a 0100     		.2byte	0x1
 15914 105c 56       		.byte	0x56
 15915 105d 86000000 		.4byte	.LVL228
 15916 1061 92000000 		.4byte	.LVL230
 15917 1065 0200     		.2byte	0x2
 15918 1067 30       		.byte	0x30
 15919 1068 9F       		.byte	0x9f
 15920 1069 92000000 		.4byte	.LVL230
 15921 106d A6000000 		.4byte	.LVL233
 15922 1071 0100     		.2byte	0x1
 15923 1073 56       		.byte	0x56
 15924 1074 A6000000 		.4byte	.LVL233
 15925 1078 B2000000 		.4byte	.LVL234
 15926 107c 0200     		.2byte	0x2
 15927 107e 30       		.byte	0x30
 15928 107f 9F       		.byte	0x9f
 15929 1080 B2000000 		.4byte	.LVL234
 15930 1084 10020000 		.4byte	.LFE6
 15931 1088 0100     		.2byte	0x1
 15932 108a 56       		.byte	0x56
 15933 108b 00000000 		.4byte	0
 15934 108f 00000000 		.4byte	0
 15935              	.LLST77:
 15936 1093 10000000 		.4byte	.LVL209
 15937 1097 32000000 		.4byte	.LVL216
 15938 109b 0200     		.2byte	0x2
 15939 109d 30       		.byte	0x30
 15940 109e 9F       		.byte	0x9f
 15941 109f 32000000 		.4byte	.LVL216
 15942 10a3 40000000 		.4byte	.LVL218
 15943 10a7 0200     		.2byte	0x2
 15944 10a9 91       		.byte	0x91
 15945 10aa 4C       		.sleb128 -52
 15946 10ab 40000000 		.4byte	.LVL218
 15947 10af 5A000000 		.4byte	.LVL221
 15948 10b3 0200     		.2byte	0x2
 15949 10b5 30       		.byte	0x30
 15950 10b6 9F       		.byte	0x9f
 15951 10b7 5A000000 		.4byte	.LVL221
 15952 10bb 66000000 		.4byte	.LVL223
 15953 10bf 0200     		.2byte	0x2
ARM GAS  C:\Users\arist\AppData\Local\Temp\ccSjK9zC.s 			page 310


 15954 10c1 91       		.byte	0x91
 15955 10c2 4C       		.sleb128 -52
 15956 10c3 66000000 		.4byte	.LVL223
 15957 10c7 78000000 		.4byte	.LVL226
 15958 10cb 0200     		.2byte	0x2
 15959 10cd 30       		.byte	0x30
 15960 10ce 9F       		.byte	0x9f
 15961 10cf 78000000 		.4byte	.LVL226
 15962 10d3 86000000 		.4byte	.LVL228
 15963 10d7 0200     		.2byte	0x2
 15964 10d9 91       		.byte	0x91
 15965 10da 4C       		.sleb128 -52
 15966 10db 86000000 		.4byte	.LVL228
 15967 10df 9A000000 		.4byte	.LVL231
 15968 10e3 0200     		.2byte	0x2
 15969 10e5 30       		.byte	0x30
 15970 10e6 9F       		.byte	0x9f
 15971 10e7 9A000000 		.4byte	.LVL231
 15972 10eb A6000000 		.4byte	.LVL233
 15973 10ef 0200     		.2byte	0x2
 15974 10f1 91       		.byte	0x91
 15975 10f2 4C       		.sleb128 -52
 15976 10f3 A6000000 		.4byte	.LVL233
 15977 10f7 B2000000 		.4byte	.LVL234
 15978 10fb 0200     		.2byte	0x2
 15979 10fd 30       		.byte	0x30
 15980 10fe 9F       		.byte	0x9f
 15981 10ff B2000000 		.4byte	.LVL234
 15982 1103 10020000 		.4byte	.LFE6
 15983 1107 0200     		.2byte	0x2
 15984 1109 91       		.byte	0x91
 15985 110a 4C       		.sleb128 -52
 15986 110b 00000000 		.4byte	0
 15987 110f 00000000 		.4byte	0
 15988              	.LLST78:
 15989 1113 10000000 		.4byte	.LVL209
 15990 1117 3A000000 		.4byte	.LVL217
 15991 111b 0200     		.2byte	0x2
 15992 111d 30       		.byte	0x30
 15993 111e 9F       		.byte	0x9f
 15994 111f 3A000000 		.4byte	.LVL217
 15995 1123 40000000 		.4byte	.LVL218
 15996 1127 0100     		.2byte	0x1
 15997 1129 5B       		.byte	0x5b
 15998 112a 40000000 		.4byte	.LVL218
 15999 112e 60000000 		.4byte	.LVL222
 16000 1132 0200     		.2byte	0x2
 16001 1134 30       		.byte	0x30
 16002 1135 9F       		.byte	0x9f
 16003 1136 60000000 		.4byte	.LVL222
 16004 113a 66000000 		.4byte	.LVL223
 16005 113e 0100     		.2byte	0x1
 16006 1140 5B       		.byte	0x5b
 16007 1141 66000000 		.4byte	.LVL223
 16008 1145 80000000 		.4byte	.LVL227
 16009 1149 0200     		.2byte	0x2
 16010 114b 30       		.byte	0x30
ARM GAS  C:\Users\arist\AppData\Local\Temp\ccSjK9zC.s 			page 311


 16011 114c 9F       		.byte	0x9f
 16012 114d 80000000 		.4byte	.LVL227
 16013 1151 86000000 		.4byte	.LVL228
 16014 1155 0100     		.2byte	0x1
 16015 1157 5B       		.byte	0x5b
 16016 1158 86000000 		.4byte	.LVL228
 16017 115c A0000000 		.4byte	.LVL232
 16018 1160 0200     		.2byte	0x2
 16019 1162 30       		.byte	0x30
 16020 1163 9F       		.byte	0x9f
 16021 1164 A0000000 		.4byte	.LVL232
 16022 1168 A6000000 		.4byte	.LVL233
 16023 116c 0100     		.2byte	0x1
 16024 116e 5B       		.byte	0x5b
 16025 116f A6000000 		.4byte	.LVL233
 16026 1173 B2000000 		.4byte	.LVL234
 16027 1177 0200     		.2byte	0x2
 16028 1179 30       		.byte	0x30
 16029 117a 9F       		.byte	0x9f
 16030 117b B2000000 		.4byte	.LVL234
 16031 117f 10020000 		.4byte	.LFE6
 16032 1183 0100     		.2byte	0x1
 16033 1185 5B       		.byte	0x5b
 16034 1186 00000000 		.4byte	0
 16035 118a 00000000 		.4byte	0
 16036              	.LLST79:
 16037 118e 10000000 		.4byte	.LVL209
 16038 1192 26000000 		.4byte	.LVL213
 16039 1196 0200     		.2byte	0x2
 16040 1198 30       		.byte	0x30
 16041 1199 9F       		.byte	0x9f
 16042 119a 26000000 		.4byte	.LVL213
 16043 119e 66000000 		.4byte	.LVL223
 16044 11a2 0100     		.2byte	0x1
 16045 11a4 58       		.byte	0x58
 16046 11a5 66000000 		.4byte	.LVL223
 16047 11a9 86000000 		.4byte	.LVL228
 16048 11ad 0100     		.2byte	0x1
 16049 11af 59       		.byte	0x59
 16050 11b0 86000000 		.4byte	.LVL228
 16051 11b4 B2000000 		.4byte	.LVL234
 16052 11b8 0200     		.2byte	0x2
 16053 11ba 30       		.byte	0x30
 16054 11bb 9F       		.byte	0x9f
 16055 11bc B2000000 		.4byte	.LVL234
 16056 11c0 10020000 		.4byte	.LFE6
 16057 11c4 0200     		.2byte	0x2
 16058 11c6 91       		.byte	0x91
 16059 11c7 50       		.sleb128 -48
 16060 11c8 00000000 		.4byte	0
 16061 11cc 00000000 		.4byte	0
 16062              	.LLST80:
 16063 11d0 18000000 		.4byte	.LVL212
 16064 11d4 DE000000 		.4byte	.LVL235
 16065 11d8 0100     		.2byte	0x1
 16066 11da 50       		.byte	0x50
 16067 11db DE000000 		.4byte	.LVL235
ARM GAS  C:\Users\arist\AppData\Local\Temp\ccSjK9zC.s 			page 312


 16068 11df F6000000 		.4byte	.LVL239
 16069 11e3 0100     		.2byte	0x1
 16070 11e5 57       		.byte	0x57
 16071 11e6 F6000000 		.4byte	.LVL239
 16072 11ea F4010000 		.4byte	.LVL255
 16073 11ee 0200     		.2byte	0x2
 16074 11f0 91       		.byte	0x91
 16075 11f1 54       		.sleb128 -44
 16076 11f2 F4010000 		.4byte	.LVL255
 16077 11f6 FA010000 		.4byte	.LVL256
 16078 11fa 0100     		.2byte	0x1
 16079 11fc 50       		.byte	0x50
 16080 11fd 04020000 		.4byte	.LVL258
 16081 1201 06020000 		.4byte	.LVL259
 16082 1205 0100     		.2byte	0x1
 16083 1207 50       		.byte	0x50
 16084 1208 06020000 		.4byte	.LVL259
 16085 120c 08020000 		.4byte	.LVL260
 16086 1210 0100     		.2byte	0x1
 16087 1212 57       		.byte	0x57
 16088 1213 08020000 		.4byte	.LVL260
 16089 1217 0A020000 		.4byte	.LVL261
 16090 121b 0100     		.2byte	0x1
 16091 121d 50       		.byte	0x50
 16092 121e 00000000 		.4byte	0
 16093 1222 00000000 		.4byte	0
 16094              	.LLST81:
 16095 1226 E4000000 		.4byte	.LVL237
 16096 122a F4010000 		.4byte	.LVL255
 16097 122e 0100     		.2byte	0x1
 16098 1230 59       		.byte	0x59
 16099 1231 00000000 		.4byte	0
 16100 1235 00000000 		.4byte	0
 16101              	.LLST82:
 16102 1239 E4000000 		.4byte	.LVL237
 16103 123d FE000000 		.4byte	.LVL240
 16104 1241 0100     		.2byte	0x1
 16105 1243 59       		.byte	0x59
 16106 1244 06010000 		.4byte	.LVL241
 16107 1248 4C010000 		.4byte	.LVL243
 16108 124c 0100     		.2byte	0x1
 16109 124e 53       		.byte	0x53
 16110 124f 4C010000 		.4byte	.LVL243
 16111 1253 4E010000 		.4byte	.LVL244
 16112 1257 0300     		.2byte	0x3
 16113 1259 73       		.byte	0x73
 16114 125a 7F       		.sleb128 -1
 16115 125b 9F       		.byte	0x9f
 16116 125c 4E010000 		.4byte	.LVL244
 16117 1260 64010000 		.4byte	.LVL245
 16118 1264 0100     		.2byte	0x1
 16119 1266 53       		.byte	0x53
 16120 1267 66010000 		.4byte	.LVL246
 16121 126b E0010000 		.4byte	.LVL253
 16122 126f 0100     		.2byte	0x1
 16123 1271 53       		.byte	0x53
 16124 1272 00000000 		.4byte	0
ARM GAS  C:\Users\arist\AppData\Local\Temp\ccSjK9zC.s 			page 313


 16125 1276 00000000 		.4byte	0
 16126              	.LLST83:
 16127 127a EE000000 		.4byte	.LVL238
 16128 127e FE000000 		.4byte	.LVL240
 16129 1282 0600     		.2byte	0x6
 16130 1284 70       		.byte	0x70
 16131 1285 00       		.sleb128 0
 16132 1286 08       		.byte	0x8
 16133 1287 FF       		.byte	0xff
 16134 1288 1A       		.byte	0x1a
 16135 1289 9F       		.byte	0x9f
 16136 128a 00000000 		.4byte	0
 16137 128e 00000000 		.4byte	0
 16138              	.LLST84:
 16139 1292 EE000000 		.4byte	.LVL238
 16140 1296 FE000000 		.4byte	.LVL240
 16141 129a 0600     		.2byte	0x6
 16142 129c 70       		.byte	0x70
 16143 129d 00       		.sleb128 0
 16144 129e 08       		.byte	0x8
 16145 129f FF       		.byte	0xff
 16146 12a0 1A       		.byte	0x1a
 16147 12a1 9F       		.byte	0x9f
 16148 12a2 18010000 		.4byte	.LVL242
 16149 12a6 68010000 		.4byte	.LVL247
 16150 12aa 0100     		.2byte	0x1
 16151 12ac 52       		.byte	0x52
 16152 12ad 6A010000 		.4byte	.LVL248
 16153 12b1 7A010000 		.4byte	.LVL249
 16154 12b5 0100     		.2byte	0x1
 16155 12b7 52       		.byte	0x52
 16156 12b8 82010000 		.4byte	.LVL250
 16157 12bc 88010000 		.4byte	.LVL251
 16158 12c0 0100     		.2byte	0x1
 16159 12c2 52       		.byte	0x52
 16160 12c3 00000000 		.4byte	0
 16161 12c7 00000000 		.4byte	0
 16162              	.LLST85:
 16163 12cb EE000000 		.4byte	.LVL238
 16164 12cf FE000000 		.4byte	.LVL240
 16165 12d3 0200     		.2byte	0x2
 16166 12d5 30       		.byte	0x30
 16167 12d6 9F       		.byte	0x9f
 16168 12d7 FE000000 		.4byte	.LVL240
 16169 12db DC010000 		.4byte	.LVL252
 16170 12df 0100     		.2byte	0x1
 16171 12e1 58       		.byte	0x58
 16172 12e2 E0010000 		.4byte	.LVL253
 16173 12e6 F4010000 		.4byte	.LVL255
 16174 12ea 0100     		.2byte	0x1
 16175 12ec 58       		.byte	0x58
 16176 12ed 00000000 		.4byte	0
 16177 12f1 00000000 		.4byte	0
 16178              	.LLST86:
 16179 12f5 00000000 		.4byte	.LVL262
 16180 12f9 04000000 		.4byte	.LVL263
 16181 12fd 0100     		.2byte	0x1
ARM GAS  C:\Users\arist\AppData\Local\Temp\ccSjK9zC.s 			page 314


 16182 12ff 50       		.byte	0x50
 16183 1300 04000000 		.4byte	.LVL263
 16184 1304 1C000000 		.4byte	.LFE21
 16185 1308 0400     		.2byte	0x4
 16186 130a F3       		.byte	0xf3
 16187 130b 01       		.uleb128 0x1
 16188 130c 50       		.byte	0x50
 16189 130d 9F       		.byte	0x9f
 16190 130e 00000000 		.4byte	0
 16191 1312 00000000 		.4byte	0
 16192              	.LLST87:
 16193 1316 00000000 		.4byte	.LVL262
 16194 131a 10000000 		.4byte	.LVL264
 16195 131e 0100     		.2byte	0x1
 16196 1320 52       		.byte	0x52
 16197 1321 10000000 		.4byte	.LVL264
 16198 1325 1C000000 		.4byte	.LFE21
 16199 1329 0400     		.2byte	0x4
 16200 132b F3       		.byte	0xf3
 16201 132c 01       		.uleb128 0x1
 16202 132d 52       		.byte	0x52
 16203 132e 9F       		.byte	0x9f
 16204 132f 00000000 		.4byte	0
 16205 1333 00000000 		.4byte	0
 16206              	.LLST88:
 16207 1337 00000000 		.4byte	.LVL262
 16208 133b 1A000000 		.4byte	.LVL265
 16209 133f 0200     		.2byte	0x2
 16210 1341 91       		.byte	0x91
 16211 1342 00       		.sleb128 0
 16212 1343 1A000000 		.4byte	.LVL265
 16213 1347 1C000000 		.4byte	.LFE21
 16214 134b 0200     		.2byte	0x2
 16215 134d 7D       		.byte	0x7d
 16216 134e 00       		.sleb128 0
 16217 134f 00000000 		.4byte	0
 16218 1353 00000000 		.4byte	0
 16219              	.LLST89:
 16220 1357 00000000 		.4byte	.LVL266
 16221 135b 2A000000 		.4byte	.LVL273
 16222 135f 0100     		.2byte	0x1
 16223 1361 50       		.byte	0x50
 16224 1362 2A000000 		.4byte	.LVL273
 16225 1366 4C000000 		.4byte	.LVL279
 16226 136a 0400     		.2byte	0x4
 16227 136c F3       		.byte	0xf3
 16228 136d 01       		.uleb128 0x1
 16229 136e 50       		.byte	0x50
 16230 136f 9F       		.byte	0x9f
 16231 1370 4C000000 		.4byte	.LVL279
 16232 1374 82000000 		.4byte	.LVL284
 16233 1378 0100     		.2byte	0x1
 16234 137a 50       		.byte	0x50
 16235 137b 82000000 		.4byte	.LVL284
 16236 137f FA000000 		.4byte	.LFE5
 16237 1383 0400     		.2byte	0x4
 16238 1385 F3       		.byte	0xf3
ARM GAS  C:\Users\arist\AppData\Local\Temp\ccSjK9zC.s 			page 315


 16239 1386 01       		.uleb128 0x1
 16240 1387 50       		.byte	0x50
 16241 1388 9F       		.byte	0x9f
 16242 1389 00000000 		.4byte	0
 16243 138d 00000000 		.4byte	0
 16244              	.LLST90:
 16245 1391 00000000 		.4byte	.LVL266
 16246 1395 32000000 		.4byte	.LVL274
 16247 1399 0100     		.2byte	0x1
 16248 139b 51       		.byte	0x51
 16249 139c 32000000 		.4byte	.LVL274
 16250 13a0 4C000000 		.4byte	.LVL279
 16251 13a4 0400     		.2byte	0x4
 16252 13a6 F3       		.byte	0xf3
 16253 13a7 01       		.uleb128 0x1
 16254 13a8 51       		.byte	0x51
 16255 13a9 9F       		.byte	0x9f
 16256 13aa 4C000000 		.4byte	.LVL279
 16257 13ae 82000000 		.4byte	.LVL284
 16258 13b2 0100     		.2byte	0x1
 16259 13b4 51       		.byte	0x51
 16260 13b5 82000000 		.4byte	.LVL284
 16261 13b9 FA000000 		.4byte	.LFE5
 16262 13bd 0400     		.2byte	0x4
 16263 13bf F3       		.byte	0xf3
 16264 13c0 01       		.uleb128 0x1
 16265 13c1 51       		.byte	0x51
 16266 13c2 9F       		.byte	0x9f
 16267 13c3 00000000 		.4byte	0
 16268 13c7 00000000 		.4byte	0
 16269              	.LLST91:
 16270 13cb 00000000 		.4byte	.LVL266
 16271 13cf 32000000 		.4byte	.LVL274
 16272 13d3 0100     		.2byte	0x1
 16273 13d5 52       		.byte	0x52
 16274 13d6 32000000 		.4byte	.LVL274
 16275 13da 4C000000 		.4byte	.LVL279
 16276 13de 0400     		.2byte	0x4
 16277 13e0 F3       		.byte	0xf3
 16278 13e1 01       		.uleb128 0x1
 16279 13e2 52       		.byte	0x52
 16280 13e3 9F       		.byte	0x9f
 16281 13e4 4C000000 		.4byte	.LVL279
 16282 13e8 50000000 		.4byte	.LVL281
 16283 13ec 0100     		.2byte	0x1
 16284 13ee 52       		.byte	0x52
 16285 13ef 50000000 		.4byte	.LVL281
 16286 13f3 FA000000 		.4byte	.LFE5
 16287 13f7 0400     		.2byte	0x4
 16288 13f9 F3       		.byte	0xf3
 16289 13fa 01       		.uleb128 0x1
 16290 13fb 52       		.byte	0x52
 16291 13fc 9F       		.byte	0x9f
 16292 13fd 00000000 		.4byte	0
 16293 1401 00000000 		.4byte	0
 16294              	.LLST92:
 16295 1405 00000000 		.4byte	.LVL266
ARM GAS  C:\Users\arist\AppData\Local\Temp\ccSjK9zC.s 			page 316


 16296 1409 32000000 		.4byte	.LVL274
 16297 140d 0100     		.2byte	0x1
 16298 140f 53       		.byte	0x53
 16299 1410 32000000 		.4byte	.LVL274
 16300 1414 4C000000 		.4byte	.LVL279
 16301 1418 0400     		.2byte	0x4
 16302 141a F3       		.byte	0xf3
 16303 141b 01       		.uleb128 0x1
 16304 141c 53       		.byte	0x53
 16305 141d 9F       		.byte	0x9f
 16306 141e 4C000000 		.4byte	.LVL279
 16307 1422 4E000000 		.4byte	.LVL280
 16308 1426 0100     		.2byte	0x1
 16309 1428 53       		.byte	0x53
 16310 1429 4E000000 		.4byte	.LVL280
 16311 142d FA000000 		.4byte	.LFE5
 16312 1431 0400     		.2byte	0x4
 16313 1433 F3       		.byte	0xf3
 16314 1434 01       		.uleb128 0x1
 16315 1435 53       		.byte	0x53
 16316 1436 9F       		.byte	0x9f
 16317 1437 00000000 		.4byte	0
 16318 143b 00000000 		.4byte	0
 16319              	.LLST93:
 16320 143f 0E000000 		.4byte	.LVL267
 16321 1443 32000000 		.4byte	.LVL274
 16322 1447 0200     		.2byte	0x2
 16323 1449 30       		.byte	0x30
 16324 144a 9F       		.byte	0x9f
 16325 144b 32000000 		.4byte	.LVL274
 16326 144f 3C000000 		.4byte	.LVL275
 16327 1453 0100     		.2byte	0x1
 16328 1455 50       		.byte	0x50
 16329 1456 40000000 		.4byte	.LVL276
 16330 145a 4C000000 		.4byte	.LVL279
 16331 145e 0100     		.2byte	0x1
 16332 1460 50       		.byte	0x50
 16333 1461 4C000000 		.4byte	.LVL279
 16334 1465 82000000 		.4byte	.LVL284
 16335 1469 0200     		.2byte	0x2
 16336 146b 30       		.byte	0x30
 16337 146c 9F       		.byte	0x9f
 16338 146d 82000000 		.4byte	.LVL284
 16339 1471 F2000000 		.4byte	.LVL297
 16340 1475 0200     		.2byte	0x2
 16341 1477 91       		.byte	0x91
 16342 1478 40       		.sleb128 -64
 16343 1479 00000000 		.4byte	0
 16344 147d 00000000 		.4byte	0
 16345              	.LLST94:
 16346 1481 0E000000 		.4byte	.LVL267
 16347 1485 66000000 		.4byte	.LVL282
 16348 1489 0200     		.2byte	0x2
 16349 148b 30       		.byte	0x30
 16350 148c 9F       		.byte	0x9f
 16351 148d 66000000 		.4byte	.LVL282
 16352 1491 F2000000 		.4byte	.LVL297
ARM GAS  C:\Users\arist\AppData\Local\Temp\ccSjK9zC.s 			page 317


 16353 1495 0200     		.2byte	0x2
 16354 1497 91       		.byte	0x91
 16355 1498 4C       		.sleb128 -52
 16356 1499 00000000 		.4byte	0
 16357 149d 00000000 		.4byte	0
 16358              	.LLST95:
 16359 14a1 0E000000 		.4byte	.LVL267
 16360 14a5 66000000 		.4byte	.LVL282
 16361 14a9 0200     		.2byte	0x2
 16362 14ab 30       		.byte	0x30
 16363 14ac 9F       		.byte	0x9f
 16364 14ad 66000000 		.4byte	.LVL282
 16365 14b1 F2000000 		.4byte	.LVL297
 16366 14b5 0200     		.2byte	0x2
 16367 14b7 91       		.byte	0x91
 16368 14b8 44       		.sleb128 -60
 16369 14b9 00000000 		.4byte	0
 16370 14bd 00000000 		.4byte	0
 16371              	.LLST96:
 16372 14c1 0E000000 		.4byte	.LVL267
 16373 14c5 1C000000 		.4byte	.LVL269
 16374 14c9 0200     		.2byte	0x2
 16375 14cb 30       		.byte	0x30
 16376 14cc 9F       		.byte	0x9f
 16377 14cd 1C000000 		.4byte	.LVL269
 16378 14d1 1E000000 		.4byte	.LVL270
 16379 14d5 0100     		.2byte	0x1
 16380 14d7 57       		.byte	0x57
 16381 14d8 1E000000 		.4byte	.LVL270
 16382 14dc 24000000 		.4byte	.LVL271
 16383 14e0 0200     		.2byte	0x2
 16384 14e2 30       		.byte	0x30
 16385 14e3 9F       		.byte	0x9f
 16386 14e4 24000000 		.4byte	.LVL271
 16387 14e8 26000000 		.4byte	.LVL272
 16388 14ec 0100     		.2byte	0x1
 16389 14ee 51       		.byte	0x51
 16390 14ef 26000000 		.4byte	.LVL272
 16391 14f3 4C000000 		.4byte	.LVL279
 16392 14f7 0100     		.2byte	0x1
 16393 14f9 57       		.byte	0x57
 16394 14fa 4C000000 		.4byte	.LVL279
 16395 14fe 66000000 		.4byte	.LVL282
 16396 1502 0200     		.2byte	0x2
 16397 1504 30       		.byte	0x30
 16398 1505 9F       		.byte	0x9f
 16399 1506 66000000 		.4byte	.LVL282
 16400 150a F2000000 		.4byte	.LVL297
 16401 150e 0200     		.2byte	0x2
 16402 1510 91       		.byte	0x91
 16403 1511 48       		.sleb128 -56
 16404 1512 00000000 		.4byte	0
 16405 1516 00000000 		.4byte	0
 16406              	.LLST97:
 16407 151a 0E000000 		.4byte	.LVL267
 16408 151e 66000000 		.4byte	.LVL282
 16409 1522 0200     		.2byte	0x2
ARM GAS  C:\Users\arist\AppData\Local\Temp\ccSjK9zC.s 			page 318


 16410 1524 30       		.byte	0x30
 16411 1525 9F       		.byte	0x9f
 16412 1526 66000000 		.4byte	.LVL282
 16413 152a F2000000 		.4byte	.LVL297
 16414 152e 0200     		.2byte	0x2
 16415 1530 91       		.byte	0x91
 16416 1531 54       		.sleb128 -44
 16417 1532 00000000 		.4byte	0
 16418 1536 00000000 		.4byte	0
 16419              	.LLST98:
 16420 153a 12000000 		.4byte	.LVL268
 16421 153e 1C000000 		.4byte	.LVL269
 16422 1542 0200     		.2byte	0x2
 16423 1544 30       		.byte	0x30
 16424 1545 9F       		.byte	0x9f
 16425 1546 1C000000 		.4byte	.LVL269
 16426 154a 1E000000 		.4byte	.LVL270
 16427 154e 0100     		.2byte	0x1
 16428 1550 55       		.byte	0x55
 16429 1551 1E000000 		.4byte	.LVL270
 16430 1555 24000000 		.4byte	.LVL271
 16431 1559 0200     		.2byte	0x2
 16432 155b 30       		.byte	0x30
 16433 155c 9F       		.byte	0x9f
 16434 155d 24000000 		.4byte	.LVL271
 16435 1561 4C000000 		.4byte	.LVL279
 16436 1565 0100     		.2byte	0x1
 16437 1567 55       		.byte	0x55
 16438 1568 00000000 		.4byte	0
 16439 156c 00000000 		.4byte	0
 16440              	.LLST99:
 16441 1570 26000000 		.4byte	.LVL272
 16442 1574 32000000 		.4byte	.LVL274
 16443 1578 0200     		.2byte	0x2
 16444 157a 30       		.byte	0x30
 16445 157b 9F       		.byte	0x9f
 16446 157c 32000000 		.4byte	.LVL274
 16447 1580 42000000 		.4byte	.LVL277
 16448 1584 0100     		.2byte	0x1
 16449 1586 54       		.byte	0x54
 16450 1587 44000000 		.4byte	.LVL278
 16451 158b 4C000000 		.4byte	.LVL279
 16452 158f 0100     		.2byte	0x1
 16453 1591 54       		.byte	0x54
 16454 1592 00000000 		.4byte	0
 16455 1596 00000000 		.4byte	0
 16456              	.LLST100:
 16457 159a 78000000 		.4byte	.LVL283
 16458 159e F2000000 		.4byte	.LVL297
 16459 15a2 0100     		.2byte	0x1
 16460 15a4 59       		.byte	0x59
 16461 15a5 00000000 		.4byte	0
 16462 15a9 00000000 		.4byte	0
 16463              	.LLST101:
 16464 15ad 78000000 		.4byte	.LVL283
 16465 15b1 82000000 		.4byte	.LVL284
 16466 15b5 0200     		.2byte	0x2
ARM GAS  C:\Users\arist\AppData\Local\Temp\ccSjK9zC.s 			page 319


 16467 15b7 91       		.byte	0x91
 16468 15b8 48       		.sleb128 -56
 16469 15b9 9A000000 		.4byte	.LVL286
 16470 15bd EA000000 		.4byte	.LVL296
 16471 15c1 0100     		.2byte	0x1
 16472 15c3 56       		.byte	0x56
 16473 15c4 00000000 		.4byte	0
 16474 15c8 00000000 		.4byte	0
 16475              	.LLST102:
 16476 15cc 78000000 		.4byte	.LVL283
 16477 15d0 82000000 		.4byte	.LVL284
 16478 15d4 0200     		.2byte	0x2
 16479 15d6 30       		.byte	0x30
 16480 15d7 9F       		.byte	0x9f
 16481 15d8 B0000000 		.4byte	.LVL288
 16482 15dc EA000000 		.4byte	.LVL296
 16483 15e0 0100     		.2byte	0x1
 16484 15e2 58       		.byte	0x58
 16485 15e3 00000000 		.4byte	0
 16486 15e7 00000000 		.4byte	0
 16487              	.LLST103:
 16488 15eb 78000000 		.4byte	.LVL283
 16489 15ef 82000000 		.4byte	.LVL284
 16490 15f3 0200     		.2byte	0x2
 16491 15f5 30       		.byte	0x30
 16492 15f6 9F       		.byte	0x9f
 16493 15f7 B8000000 		.4byte	.LVL290
 16494 15fb EA000000 		.4byte	.LVL296
 16495 15ff 0100     		.2byte	0x1
 16496 1601 54       		.byte	0x54
 16497 1602 00000000 		.4byte	0
 16498 1606 00000000 		.4byte	0
 16499              	.LLST104:
 16500 160a 78000000 		.4byte	.LVL283
 16501 160e 82000000 		.4byte	.LVL284
 16502 1612 0200     		.2byte	0x2
 16503 1614 30       		.byte	0x30
 16504 1615 9F       		.byte	0x9f
 16505 1616 B0000000 		.4byte	.LVL288
 16506 161a B2000000 		.4byte	.LVL289
 16507 161e 0200     		.2byte	0x2
 16508 1620 30       		.byte	0x30
 16509 1621 9F       		.byte	0x9f
 16510 1622 B2000000 		.4byte	.LVL289
 16511 1626 CE000000 		.4byte	.LVL293
 16512 162a 0100     		.2byte	0x1
 16513 162c 55       		.byte	0x55
 16514 162d D0000000 		.4byte	.LVL294
 16515 1631 EA000000 		.4byte	.LVL296
 16516 1635 0100     		.2byte	0x1
 16517 1637 55       		.byte	0x55
 16518 1638 00000000 		.4byte	0
 16519 163c 00000000 		.4byte	0
 16520              	.LLST105:
 16521 1640 78000000 		.4byte	.LVL283
 16522 1644 82000000 		.4byte	.LVL284
 16523 1648 0200     		.2byte	0x2
ARM GAS  C:\Users\arist\AppData\Local\Temp\ccSjK9zC.s 			page 320


 16524 164a 91       		.byte	0x91
 16525 164b 4C       		.sleb128 -52
 16526 164c 82000000 		.4byte	.LVL284
 16527 1650 F2000000 		.4byte	.LVL297
 16528 1654 0100     		.2byte	0x1
 16529 1656 5B       		.byte	0x5b
 16530 1657 00000000 		.4byte	0
 16531 165b 00000000 		.4byte	0
 16532              	.LLST106:
 16533 165f 00000000 		.4byte	.LVL298
 16534 1663 1F000000 		.4byte	.LVL302-1
 16535 1667 0100     		.2byte	0x1
 16536 1669 50       		.byte	0x50
 16537 166a 1F000000 		.4byte	.LVL302-1
 16538 166e 5A000000 		.4byte	.LFE11
 16539 1672 0400     		.2byte	0x4
 16540 1674 F3       		.byte	0xf3
 16541 1675 01       		.uleb128 0x1
 16542 1676 50       		.byte	0x50
 16543 1677 9F       		.byte	0x9f
 16544 1678 00000000 		.4byte	0
 16545 167c 00000000 		.4byte	0
 16546              	.LLST107:
 16547 1680 00000000 		.4byte	.LVL298
 16548 1684 1F000000 		.4byte	.LVL302-1
 16549 1688 0100     		.2byte	0x1
 16550 168a 51       		.byte	0x51
 16551 168b 1F000000 		.4byte	.LVL302-1
 16552 168f 5A000000 		.4byte	.LFE11
 16553 1693 0400     		.2byte	0x4
 16554 1695 F3       		.byte	0xf3
 16555 1696 01       		.uleb128 0x1
 16556 1697 51       		.byte	0x51
 16557 1698 9F       		.byte	0x9f
 16558 1699 00000000 		.4byte	0
 16559 169d 00000000 		.4byte	0
 16560              	.LLST108:
 16561 16a1 00000000 		.4byte	.LVL298
 16562 16a5 12000000 		.4byte	.LVL300
 16563 16a9 0100     		.2byte	0x1
 16564 16ab 52       		.byte	0x52
 16565 16ac 12000000 		.4byte	.LVL300
 16566 16b0 5A000000 		.4byte	.LFE11
 16567 16b4 0400     		.2byte	0x4
 16568 16b6 F3       		.byte	0xf3
 16569 16b7 01       		.uleb128 0x1
 16570 16b8 52       		.byte	0x52
 16571 16b9 9F       		.byte	0x9f
 16572 16ba 00000000 		.4byte	0
 16573 16be 00000000 		.4byte	0
 16574              	.LLST109:
 16575 16c2 00000000 		.4byte	.LVL298
 16576 16c6 1A000000 		.4byte	.LVL301
 16577 16ca 0100     		.2byte	0x1
 16578 16cc 53       		.byte	0x53
 16579 16cd 1A000000 		.4byte	.LVL301
 16580 16d1 5A000000 		.4byte	.LFE11
ARM GAS  C:\Users\arist\AppData\Local\Temp\ccSjK9zC.s 			page 321


 16581 16d5 0400     		.2byte	0x4
 16582 16d7 F3       		.byte	0xf3
 16583 16d8 01       		.uleb128 0x1
 16584 16d9 53       		.byte	0x53
 16585 16da 9F       		.byte	0x9f
 16586 16db 00000000 		.4byte	0
 16587 16df 00000000 		.4byte	0
 16588              	.LLST110:
 16589 16e3 10000000 		.4byte	.LVL299
 16590 16e7 20000000 		.4byte	.LVL302
 16591 16eb 0200     		.2byte	0x2
 16592 16ed 30       		.byte	0x30
 16593 16ee 9F       		.byte	0x9f
 16594 16ef 54000000 		.4byte	.LVL305
 16595 16f3 5A000000 		.4byte	.LFE11
 16596 16f7 0100     		.2byte	0x1
 16597 16f9 50       		.byte	0x50
 16598 16fa 00000000 		.4byte	0
 16599 16fe 00000000 		.4byte	0
 16600              	.LLST111:
 16601 1702 00000000 		.4byte	.LVL306
 16602 1706 1D000000 		.4byte	.LVL308-1
 16603 170a 0100     		.2byte	0x1
 16604 170c 50       		.byte	0x50
 16605 170d 1D000000 		.4byte	.LVL308-1
 16606 1711 40000000 		.4byte	.LFE12
 16607 1715 0400     		.2byte	0x4
 16608 1717 F3       		.byte	0xf3
 16609 1718 01       		.uleb128 0x1
 16610 1719 50       		.byte	0x50
 16611 171a 9F       		.byte	0x9f
 16612 171b 00000000 		.4byte	0
 16613 171f 00000000 		.4byte	0
 16614              	.LLST112:
 16615 1723 00000000 		.4byte	.LVL306
 16616 1727 1D000000 		.4byte	.LVL308-1
 16617 172b 0100     		.2byte	0x1
 16618 172d 51       		.byte	0x51
 16619 172e 1D000000 		.4byte	.LVL308-1
 16620 1732 40000000 		.4byte	.LFE12
 16621 1736 0400     		.2byte	0x4
 16622 1738 F3       		.byte	0xf3
 16623 1739 01       		.uleb128 0x1
 16624 173a 51       		.byte	0x51
 16625 173b 9F       		.byte	0x9f
 16626 173c 00000000 		.4byte	0
 16627 1740 00000000 		.4byte	0
 16628              	.LLST113:
 16629 1744 00000000 		.4byte	.LVL306
 16630 1748 1D000000 		.4byte	.LVL308-1
 16631 174c 0100     		.2byte	0x1
 16632 174e 52       		.byte	0x52
 16633 174f 1D000000 		.4byte	.LVL308-1
 16634 1753 40000000 		.4byte	.LFE12
 16635 1757 0400     		.2byte	0x4
 16636 1759 F3       		.byte	0xf3
 16637 175a 01       		.uleb128 0x1
ARM GAS  C:\Users\arist\AppData\Local\Temp\ccSjK9zC.s 			page 322


 16638 175b 52       		.byte	0x52
 16639 175c 9F       		.byte	0x9f
 16640 175d 00000000 		.4byte	0
 16641 1761 00000000 		.4byte	0
 16642              	.LLST114:
 16643 1765 00000000 		.4byte	.LVL306
 16644 1769 1D000000 		.4byte	.LVL308-1
 16645 176d 0100     		.2byte	0x1
 16646 176f 53       		.byte	0x53
 16647 1770 1D000000 		.4byte	.LVL308-1
 16648 1774 40000000 		.4byte	.LFE12
 16649 1778 0400     		.2byte	0x4
 16650 177a F3       		.byte	0xf3
 16651 177b 01       		.uleb128 0x1
 16652 177c 53       		.byte	0x53
 16653 177d 9F       		.byte	0x9f
 16654 177e 00000000 		.4byte	0
 16655 1782 00000000 		.4byte	0
 16656              	.LLST115:
 16657 1786 18000000 		.4byte	.LVL307
 16658 178a 1E000000 		.4byte	.LVL308
 16659 178e 0200     		.2byte	0x2
 16660 1790 30       		.byte	0x30
 16661 1791 9F       		.byte	0x9f
 16662 1792 3A000000 		.4byte	.LVL310
 16663 1796 40000000 		.4byte	.LFE12
 16664 179a 0100     		.2byte	0x1
 16665 179c 50       		.byte	0x50
 16666 179d 00000000 		.4byte	0
 16667 17a1 00000000 		.4byte	0
 16668              	.LLST116:
 16669 17a5 00000000 		.4byte	.LVL311
 16670 17a9 10000000 		.4byte	.LVL314
 16671 17ad 0100     		.2byte	0x1
 16672 17af 50       		.byte	0x50
 16673 17b0 10000000 		.4byte	.LVL314
 16674 17b4 D2000000 		.4byte	.LFE22
 16675 17b8 0100     		.2byte	0x1
 16676 17ba 54       		.byte	0x54
 16677 17bb 00000000 		.4byte	0
 16678 17bf 00000000 		.4byte	0
 16679              	.LLST117:
 16680 17c3 00000000 		.4byte	.LVL311
 16681 17c7 0E000000 		.4byte	.LVL313
 16682 17cb 0100     		.2byte	0x1
 16683 17cd 51       		.byte	0x51
 16684 17ce 0E000000 		.4byte	.LVL313
 16685 17d2 D2000000 		.4byte	.LFE22
 16686 17d6 0100     		.2byte	0x1
 16687 17d8 56       		.byte	0x56
 16688 17d9 00000000 		.4byte	0
 16689 17dd 00000000 		.4byte	0
 16690              	.LLST118:
 16691 17e1 0A000000 		.4byte	.LVL312
 16692 17e5 44000000 		.4byte	.LVL318
 16693 17e9 0200     		.2byte	0x2
 16694 17eb 31       		.byte	0x31
ARM GAS  C:\Users\arist\AppData\Local\Temp\ccSjK9zC.s 			page 323


 16695 17ec 9F       		.byte	0x9f
 16696 17ed 44000000 		.4byte	.LVL318
 16697 17f1 B8000000 		.4byte	.LVL334
 16698 17f5 0100     		.2byte	0x1
 16699 17f7 55       		.byte	0x55
 16700 17f8 B8000000 		.4byte	.LVL334
 16701 17fc C8000000 		.4byte	.LVL335
 16702 1800 0200     		.2byte	0x2
 16703 1802 31       		.byte	0x31
 16704 1803 9F       		.byte	0x9f
 16705 1804 C8000000 		.4byte	.LVL335
 16706 1808 D2000000 		.4byte	.LFE22
 16707 180c 0100     		.2byte	0x1
 16708 180e 55       		.byte	0x55
 16709 180f 00000000 		.4byte	0
 16710 1813 00000000 		.4byte	0
 16711              	.LLST119:
 16712 1817 8E000000 		.4byte	.LVL328
 16713 181b B8000000 		.4byte	.LVL334
 16714 181f 0100     		.2byte	0x1
 16715 1821 58       		.byte	0x58
 16716 1822 00000000 		.4byte	0
 16717 1826 00000000 		.4byte	0
 16718              	.LLST120:
 16719 182a 8E000000 		.4byte	.LVL328
 16720 182e 92000000 		.4byte	.LVL329
 16721 1832 0200     		.2byte	0x2
 16722 1834 30       		.byte	0x30
 16723 1835 9F       		.byte	0x9f
 16724 1836 92000000 		.4byte	.LVL329
 16725 183a AE000000 		.4byte	.LVL332
 16726 183e 0100     		.2byte	0x1
 16727 1840 57       		.byte	0x57
 16728 1841 B0000000 		.4byte	.LVL333
 16729 1845 B8000000 		.4byte	.LVL334
 16730 1849 0100     		.2byte	0x1
 16731 184b 57       		.byte	0x57
 16732 184c 00000000 		.4byte	0
 16733 1850 00000000 		.4byte	0
 16734              	.LLST121:
 16735 1854 00000000 		.4byte	.LVL337
 16736 1858 14000000 		.4byte	.LVL340
 16737 185c 0100     		.2byte	0x1
 16738 185e 50       		.byte	0x50
 16739 185f 14000000 		.4byte	.LVL340
 16740 1863 A2000000 		.4byte	.LVL359
 16741 1867 0100     		.2byte	0x1
 16742 1869 54       		.byte	0x54
 16743 186a A2000000 		.4byte	.LVL359
 16744 186e A6000000 		.4byte	.LVL360
 16745 1872 0100     		.2byte	0x1
 16746 1874 50       		.byte	0x50
 16747 1875 A6000000 		.4byte	.LVL360
 16748 1879 AC000000 		.4byte	.LVL362
 16749 187d 0100     		.2byte	0x1
 16750 187f 54       		.byte	0x54
 16751 1880 AC000000 		.4byte	.LVL362
ARM GAS  C:\Users\arist\AppData\Local\Temp\ccSjK9zC.s 			page 324


 16752 1884 B4000000 		.4byte	.LFE23
 16753 1888 0400     		.2byte	0x4
 16754 188a F3       		.byte	0xf3
 16755 188b 01       		.uleb128 0x1
 16756 188c 50       		.byte	0x50
 16757 188d 9F       		.byte	0x9f
 16758 188e 00000000 		.4byte	0
 16759 1892 00000000 		.4byte	0
 16760              	.LLST122:
 16761 1896 00000000 		.4byte	.LVL337
 16762 189a 12000000 		.4byte	.LVL339
 16763 189e 0100     		.2byte	0x1
 16764 18a0 51       		.byte	0x51
 16765 18a1 12000000 		.4byte	.LVL339
 16766 18a5 A2000000 		.4byte	.LVL359
 16767 18a9 0100     		.2byte	0x1
 16768 18ab 56       		.byte	0x56
 16769 18ac A2000000 		.4byte	.LVL359
 16770 18b0 A6000000 		.4byte	.LVL360
 16771 18b4 0100     		.2byte	0x1
 16772 18b6 51       		.byte	0x51
 16773 18b7 A6000000 		.4byte	.LVL360
 16774 18bb AC000000 		.4byte	.LVL362
 16775 18bf 0100     		.2byte	0x1
 16776 18c1 56       		.byte	0x56
 16777 18c2 AC000000 		.4byte	.LVL362
 16778 18c6 B4000000 		.4byte	.LFE23
 16779 18ca 0400     		.2byte	0x4
 16780 18cc F3       		.byte	0xf3
 16781 18cd 01       		.uleb128 0x1
 16782 18ce 51       		.byte	0x51
 16783 18cf 9F       		.byte	0x9f
 16784 18d0 00000000 		.4byte	0
 16785 18d4 00000000 		.4byte	0
 16786              	.LLST123:
 16787 18d8 06000000 		.4byte	.LVL338
 16788 18dc 30000000 		.4byte	.LVL343
 16789 18e0 0200     		.2byte	0x2
 16790 18e2 31       		.byte	0x31
 16791 18e3 9F       		.byte	0x9f
 16792 18e4 30000000 		.4byte	.LVL343
 16793 18e8 A2000000 		.4byte	.LVL359
 16794 18ec 0100     		.2byte	0x1
 16795 18ee 55       		.byte	0x55
 16796 18ef A2000000 		.4byte	.LVL359
 16797 18f3 AA000000 		.4byte	.LVL361
 16798 18f7 0200     		.2byte	0x2
 16799 18f9 31       		.byte	0x31
 16800 18fa 9F       		.byte	0x9f
 16801 18fb AA000000 		.4byte	.LVL361
 16802 18ff B4000000 		.4byte	.LFE23
 16803 1903 0100     		.2byte	0x1
 16804 1905 55       		.byte	0x55
 16805 1906 00000000 		.4byte	0
 16806 190a 00000000 		.4byte	0
 16807              	.LLST124:
 16808 190e 78000000 		.4byte	.LVL353
ARM GAS  C:\Users\arist\AppData\Local\Temp\ccSjK9zC.s 			page 325


 16809 1912 A2000000 		.4byte	.LVL359
 16810 1916 0100     		.2byte	0x1
 16811 1918 58       		.byte	0x58
 16812 1919 00000000 		.4byte	0
 16813 191d 00000000 		.4byte	0
 16814              	.LLST125:
 16815 1921 78000000 		.4byte	.LVL353
 16816 1925 7C000000 		.4byte	.LVL354
 16817 1929 0200     		.2byte	0x2
 16818 192b 30       		.byte	0x30
 16819 192c 9F       		.byte	0x9f
 16820 192d 7C000000 		.4byte	.LVL354
 16821 1931 98000000 		.4byte	.LVL357
 16822 1935 0100     		.2byte	0x1
 16823 1937 57       		.byte	0x57
 16824 1938 9A000000 		.4byte	.LVL358
 16825 193c A2000000 		.4byte	.LVL359
 16826 1940 0100     		.2byte	0x1
 16827 1942 57       		.byte	0x57
 16828 1943 00000000 		.4byte	0
 16829 1947 00000000 		.4byte	0
 16830              	.LLST126:
 16831 194b 00000000 		.4byte	.LVL363
 16832 194f 09000000 		.4byte	.LVL365-1
 16833 1953 0100     		.2byte	0x1
 16834 1955 50       		.byte	0x50
 16835 1956 09000000 		.4byte	.LVL365-1
 16836 195a 14000000 		.4byte	.LFE24
 16837 195e 0100     		.2byte	0x1
 16838 1960 54       		.byte	0x54
 16839 1961 00000000 		.4byte	0
 16840 1965 00000000 		.4byte	0
 16841              	.LLST127:
 16842 1969 00000000 		.4byte	.LVL363
 16843 196d 09000000 		.4byte	.LVL365-1
 16844 1971 0100     		.2byte	0x1
 16845 1973 51       		.byte	0x51
 16846 1974 09000000 		.4byte	.LVL365-1
 16847 1978 14000000 		.4byte	.LFE24
 16848 197c 0100     		.2byte	0x1
 16849 197e 55       		.byte	0x55
 16850 197f 00000000 		.4byte	0
 16851 1983 00000000 		.4byte	0
 16852              	.LLST128:
 16853 1987 06000000 		.4byte	.LVL364
 16854 198b 0A000000 		.4byte	.LVL365
 16855 198f 0200     		.2byte	0x2
 16856 1991 30       		.byte	0x30
 16857 1992 9F       		.byte	0x9f
 16858 1993 12000000 		.4byte	.LVL366
 16859 1997 14000000 		.4byte	.LFE24
 16860 199b 0100     		.2byte	0x1
 16861 199d 50       		.byte	0x50
 16862 199e 00000000 		.4byte	0
 16863 19a2 00000000 		.4byte	0
 16864              	.LLST129:
 16865 19a6 00000000 		.4byte	.LVL367
ARM GAS  C:\Users\arist\AppData\Local\Temp\ccSjK9zC.s 			page 326


 16866 19aa 10000000 		.4byte	.LVL370
 16867 19ae 0100     		.2byte	0x1
 16868 19b0 50       		.byte	0x50
 16869 19b1 10000000 		.4byte	.LVL370
 16870 19b5 D2000000 		.4byte	.LFE25
 16871 19b9 0100     		.2byte	0x1
 16872 19bb 54       		.byte	0x54
 16873 19bc 00000000 		.4byte	0
 16874 19c0 00000000 		.4byte	0
 16875              	.LLST130:
 16876 19c4 00000000 		.4byte	.LVL367
 16877 19c8 0E000000 		.4byte	.LVL369
 16878 19cc 0100     		.2byte	0x1
 16879 19ce 51       		.byte	0x51
 16880 19cf 0E000000 		.4byte	.LVL369
 16881 19d3 D2000000 		.4byte	.LFE25
 16882 19d7 0100     		.2byte	0x1
 16883 19d9 56       		.byte	0x56
 16884 19da 00000000 		.4byte	0
 16885 19de 00000000 		.4byte	0
 16886              	.LLST131:
 16887 19e2 0A000000 		.4byte	.LVL368
 16888 19e6 44000000 		.4byte	.LVL374
 16889 19ea 0200     		.2byte	0x2
 16890 19ec 31       		.byte	0x31
 16891 19ed 9F       		.byte	0x9f
 16892 19ee 44000000 		.4byte	.LVL374
 16893 19f2 B8000000 		.4byte	.LVL390
 16894 19f6 0100     		.2byte	0x1
 16895 19f8 55       		.byte	0x55
 16896 19f9 B8000000 		.4byte	.LVL390
 16897 19fd C8000000 		.4byte	.LVL391
 16898 1a01 0200     		.2byte	0x2
 16899 1a03 31       		.byte	0x31
 16900 1a04 9F       		.byte	0x9f
 16901 1a05 C8000000 		.4byte	.LVL391
 16902 1a09 D2000000 		.4byte	.LFE25
 16903 1a0d 0100     		.2byte	0x1
 16904 1a0f 55       		.byte	0x55
 16905 1a10 00000000 		.4byte	0
 16906 1a14 00000000 		.4byte	0
 16907              	.LLST132:
 16908 1a18 8E000000 		.4byte	.LVL384
 16909 1a1c B8000000 		.4byte	.LVL390
 16910 1a20 0100     		.2byte	0x1
 16911 1a22 58       		.byte	0x58
 16912 1a23 00000000 		.4byte	0
 16913 1a27 00000000 		.4byte	0
 16914              	.LLST133:
 16915 1a2b 8E000000 		.4byte	.LVL384
 16916 1a2f 92000000 		.4byte	.LVL385
 16917 1a33 0200     		.2byte	0x2
 16918 1a35 30       		.byte	0x30
 16919 1a36 9F       		.byte	0x9f
 16920 1a37 92000000 		.4byte	.LVL385
 16921 1a3b AE000000 		.4byte	.LVL388
 16922 1a3f 0100     		.2byte	0x1
ARM GAS  C:\Users\arist\AppData\Local\Temp\ccSjK9zC.s 			page 327


 16923 1a41 57       		.byte	0x57
 16924 1a42 B0000000 		.4byte	.LVL389
 16925 1a46 B8000000 		.4byte	.LVL390
 16926 1a4a 0100     		.2byte	0x1
 16927 1a4c 57       		.byte	0x57
 16928 1a4d 00000000 		.4byte	0
 16929 1a51 00000000 		.4byte	0
 16930              	.LLST134:
 16931 1a55 00000000 		.4byte	.LVL393
 16932 1a59 0E000000 		.4byte	.LVL395
 16933 1a5d 0100     		.2byte	0x1
 16934 1a5f 50       		.byte	0x50
 16935 1a60 0E000000 		.4byte	.LVL395
 16936 1a64 52010000 		.4byte	.LVL421
 16937 1a68 0100     		.2byte	0x1
 16938 1a6a 54       		.byte	0x54
 16939 1a6b 52010000 		.4byte	.LVL421
 16940 1a6f 58010000 		.4byte	.LFE26
 16941 1a73 0400     		.2byte	0x4
 16942 1a75 F3       		.byte	0xf3
 16943 1a76 01       		.uleb128 0x1
 16944 1a77 50       		.byte	0x50
 16945 1a78 9F       		.byte	0x9f
 16946 1a79 00000000 		.4byte	0
 16947 1a7d 00000000 		.4byte	0
 16948              	.LLST135:
 16949 1a81 00000000 		.4byte	.LVL393
 16950 1a85 11000000 		.4byte	.LVL396-1
 16951 1a89 0100     		.2byte	0x1
 16952 1a8b 51       		.byte	0x51
 16953 1a8c 11000000 		.4byte	.LVL396-1
 16954 1a90 52010000 		.4byte	.LVL421
 16955 1a94 0100     		.2byte	0x1
 16956 1a96 57       		.byte	0x57
 16957 1a97 52010000 		.4byte	.LVL421
 16958 1a9b 58010000 		.4byte	.LFE26
 16959 1a9f 0400     		.2byte	0x4
 16960 1aa1 F3       		.byte	0xf3
 16961 1aa2 01       		.uleb128 0x1
 16962 1aa3 51       		.byte	0x51
 16963 1aa4 9F       		.byte	0x9f
 16964 1aa5 00000000 		.4byte	0
 16965 1aa9 00000000 		.4byte	0
 16966              	.LLST136:
 16967 1aad 0A000000 		.4byte	.LVL394
 16968 1ab1 D6000000 		.4byte	.LVL410
 16969 1ab5 0200     		.2byte	0x2
 16970 1ab7 31       		.byte	0x31
 16971 1ab8 9F       		.byte	0x9f
 16972 1ab9 02010000 		.4byte	.LVL413
 16973 1abd 10010000 		.4byte	.LVL414
 16974 1ac1 0100     		.2byte	0x1
 16975 1ac3 50       		.byte	0x50
 16976 1ac4 10010000 		.4byte	.LVL414
 16977 1ac8 2C010000 		.4byte	.LVL416
 16978 1acc 0200     		.2byte	0x2
 16979 1ace 31       		.byte	0x31
ARM GAS  C:\Users\arist\AppData\Local\Temp\ccSjK9zC.s 			page 328


 16980 1acf 9F       		.byte	0x9f
 16981 1ad0 2C010000 		.4byte	.LVL416
 16982 1ad4 46010000 		.4byte	.LVL417
 16983 1ad8 0100     		.2byte	0x1
 16984 1ada 50       		.byte	0x50
 16985 1adb 46010000 		.4byte	.LVL417
 16986 1adf 4C010000 		.4byte	.LVL420
 16987 1ae3 0200     		.2byte	0x2
 16988 1ae5 31       		.byte	0x31
 16989 1ae6 9F       		.byte	0x9f
 16990 1ae7 4C010000 		.4byte	.LVL420
 16991 1aeb 58010000 		.4byte	.LFE26
 16992 1aef 0100     		.2byte	0x1
 16993 1af1 50       		.byte	0x50
 16994 1af2 00000000 		.4byte	0
 16995 1af6 00000000 		.4byte	0
 16996              	.LLST137:
 16997 1afa 24000000 		.4byte	.LVL399
 16998 1afe 42000000 		.4byte	.LVL400
 16999 1b02 0100     		.2byte	0x1
 17000 1b04 50       		.byte	0x50
 17001 1b05 42000000 		.4byte	.LVL400
 17002 1b09 F6000000 		.4byte	.LVL412
 17003 1b0d 0100     		.2byte	0x1
 17004 1b0f 58       		.byte	0x58
 17005 1b10 10010000 		.4byte	.LVL414
 17006 1b14 20010000 		.4byte	.LVL415
 17007 1b18 0100     		.2byte	0x1
 17008 1b1a 58       		.byte	0x58
 17009 1b1b 46010000 		.4byte	.LVL417
 17010 1b1f 48010000 		.4byte	.LVL418
 17011 1b23 0100     		.2byte	0x1
 17012 1b25 50       		.byte	0x50
 17013 1b26 4A010000 		.4byte	.LVL419
 17014 1b2a 4C010000 		.4byte	.LVL420
 17015 1b2e 0100     		.2byte	0x1
 17016 1b30 58       		.byte	0x58
 17017 1b31 00000000 		.4byte	0
 17018 1b35 00000000 		.4byte	0
 17019              	.LLST138:
 17020 1b39 94000000 		.4byte	.LVL404
 17021 1b3d 98000000 		.4byte	.LVL405
 17022 1b41 0200     		.2byte	0x2
 17023 1b43 30       		.byte	0x30
 17024 1b44 9F       		.byte	0x9f
 17025 1b45 98000000 		.4byte	.LVL405
 17026 1b49 B4000000 		.4byte	.LVL407
 17027 1b4d 0100     		.2byte	0x1
 17028 1b4f 55       		.byte	0x55
 17029 1b50 B6000000 		.4byte	.LVL408
 17030 1b54 C0000000 		.4byte	.LVL409
 17031 1b58 0100     		.2byte	0x1
 17032 1b5a 55       		.byte	0x55
 17033 1b5b 00000000 		.4byte	0
 17034 1b5f 00000000 		.4byte	0
 17035              	.LLST139:
 17036 1b63 00000000 		.4byte	.LVL422
ARM GAS  C:\Users\arist\AppData\Local\Temp\ccSjK9zC.s 			page 329


 17037 1b67 0E000000 		.4byte	.LVL424
 17038 1b6b 0100     		.2byte	0x1
 17039 1b6d 50       		.byte	0x50
 17040 1b6e 0E000000 		.4byte	.LVL424
 17041 1b72 3C010000 		.4byte	.LVL450
 17042 1b76 0100     		.2byte	0x1
 17043 1b78 54       		.byte	0x54
 17044 1b79 3C010000 		.4byte	.LVL450
 17045 1b7d 40010000 		.4byte	.LFE27
 17046 1b81 0400     		.2byte	0x4
 17047 1b83 F3       		.byte	0xf3
 17048 1b84 01       		.uleb128 0x1
 17049 1b85 50       		.byte	0x50
 17050 1b86 9F       		.byte	0x9f
 17051 1b87 00000000 		.4byte	0
 17052 1b8b 00000000 		.4byte	0
 17053              	.LLST140:
 17054 1b8f 00000000 		.4byte	.LVL422
 17055 1b93 11000000 		.4byte	.LVL425-1
 17056 1b97 0100     		.2byte	0x1
 17057 1b99 51       		.byte	0x51
 17058 1b9a 11000000 		.4byte	.LVL425-1
 17059 1b9e 3C010000 		.4byte	.LVL450
 17060 1ba2 0100     		.2byte	0x1
 17061 1ba4 57       		.byte	0x57
 17062 1ba5 3C010000 		.4byte	.LVL450
 17063 1ba9 40010000 		.4byte	.LFE27
 17064 1bad 0400     		.2byte	0x4
 17065 1baf F3       		.byte	0xf3
 17066 1bb0 01       		.uleb128 0x1
 17067 1bb1 51       		.byte	0x51
 17068 1bb2 9F       		.byte	0x9f
 17069 1bb3 00000000 		.4byte	0
 17070 1bb7 00000000 		.4byte	0
 17071              	.LLST141:
 17072 1bbb 0A000000 		.4byte	.LVL423
 17073 1bbf D2000000 		.4byte	.LVL439
 17074 1bc3 0200     		.2byte	0x2
 17075 1bc5 31       		.byte	0x31
 17076 1bc6 9F       		.byte	0x9f
 17077 1bc7 FE000000 		.4byte	.LVL442
 17078 1bcb 0C010000 		.4byte	.LVL443
 17079 1bcf 0100     		.2byte	0x1
 17080 1bd1 50       		.byte	0x50
 17081 1bd2 0C010000 		.4byte	.LVL443
 17082 1bd6 1E010000 		.4byte	.LVL444
 17083 1bda 0200     		.2byte	0x2
 17084 1bdc 31       		.byte	0x31
 17085 1bdd 9F       		.byte	0x9f
 17086 1bde 1E010000 		.4byte	.LVL444
 17087 1be2 30010000 		.4byte	.LVL446
 17088 1be6 0100     		.2byte	0x1
 17089 1be8 50       		.byte	0x50
 17090 1be9 30010000 		.4byte	.LVL446
 17091 1bed 36010000 		.4byte	.LVL449
 17092 1bf1 0200     		.2byte	0x2
 17093 1bf3 31       		.byte	0x31
ARM GAS  C:\Users\arist\AppData\Local\Temp\ccSjK9zC.s 			page 330


 17094 1bf4 9F       		.byte	0x9f
 17095 1bf5 36010000 		.4byte	.LVL449
 17096 1bf9 40010000 		.4byte	.LFE27
 17097 1bfd 0100     		.2byte	0x1
 17098 1bff 50       		.byte	0x50
 17099 1c00 00000000 		.4byte	0
 17100 1c04 00000000 		.4byte	0
 17101              	.LLST142:
 17102 1c08 24000000 		.4byte	.LVL428
 17103 1c0c 3E000000 		.4byte	.LVL429
 17104 1c10 0100     		.2byte	0x1
 17105 1c12 50       		.byte	0x50
 17106 1c13 3E000000 		.4byte	.LVL429
 17107 1c17 F2000000 		.4byte	.LVL441
 17108 1c1b 0100     		.2byte	0x1
 17109 1c1d 58       		.byte	0x58
 17110 1c1e 0C010000 		.4byte	.LVL443
 17111 1c22 26010000 		.4byte	.LVL445
 17112 1c26 0100     		.2byte	0x1
 17113 1c28 58       		.byte	0x58
 17114 1c29 30010000 		.4byte	.LVL446
 17115 1c2d 32010000 		.4byte	.LVL447
 17116 1c31 0100     		.2byte	0x1
 17117 1c33 50       		.byte	0x50
 17118 1c34 34010000 		.4byte	.LVL448
 17119 1c38 36010000 		.4byte	.LVL449
 17120 1c3c 0100     		.2byte	0x1
 17121 1c3e 58       		.byte	0x58
 17122 1c3f 00000000 		.4byte	0
 17123 1c43 00000000 		.4byte	0
 17124              	.LLST143:
 17125 1c47 90000000 		.4byte	.LVL433
 17126 1c4b 94000000 		.4byte	.LVL434
 17127 1c4f 0200     		.2byte	0x2
 17128 1c51 30       		.byte	0x30
 17129 1c52 9F       		.byte	0x9f
 17130 1c53 94000000 		.4byte	.LVL434
 17131 1c57 B0000000 		.4byte	.LVL436
 17132 1c5b 0100     		.2byte	0x1
 17133 1c5d 55       		.byte	0x55
 17134 1c5e B2000000 		.4byte	.LVL437
 17135 1c62 BC000000 		.4byte	.LVL438
 17136 1c66 0100     		.2byte	0x1
 17137 1c68 55       		.byte	0x55
 17138 1c69 00000000 		.4byte	0
 17139 1c6d 00000000 		.4byte	0
 17140              	.LLST144:
 17141 1c71 00000000 		.4byte	.LVL451
 17142 1c75 14000000 		.4byte	.LVL454
 17143 1c79 0100     		.2byte	0x1
 17144 1c7b 50       		.byte	0x50
 17145 1c7c 14000000 		.4byte	.LVL454
 17146 1c80 D8000000 		.4byte	.LVL477
 17147 1c84 0100     		.2byte	0x1
 17148 1c86 54       		.byte	0x54
 17149 1c87 D8000000 		.4byte	.LVL477
 17150 1c8b DC000000 		.4byte	.LVL478
ARM GAS  C:\Users\arist\AppData\Local\Temp\ccSjK9zC.s 			page 331


 17151 1c8f 0100     		.2byte	0x1
 17152 1c91 50       		.byte	0x50
 17153 1c92 DC000000 		.4byte	.LVL478
 17154 1c96 DE000000 		.4byte	.LVL479
 17155 1c9a 0100     		.2byte	0x1
 17156 1c9c 54       		.byte	0x54
 17157 1c9d DE000000 		.4byte	.LVL479
 17158 1ca1 E6000000 		.4byte	.LFE28
 17159 1ca5 0400     		.2byte	0x4
 17160 1ca7 F3       		.byte	0xf3
 17161 1ca8 01       		.uleb128 0x1
 17162 1ca9 50       		.byte	0x50
 17163 1caa 9F       		.byte	0x9f
 17164 1cab 00000000 		.4byte	0
 17165 1caf 00000000 		.4byte	0
 17166              	.LLST145:
 17167 1cb3 00000000 		.4byte	.LVL451
 17168 1cb7 12000000 		.4byte	.LVL453
 17169 1cbb 0100     		.2byte	0x1
 17170 1cbd 51       		.byte	0x51
 17171 1cbe 12000000 		.4byte	.LVL453
 17172 1cc2 D8000000 		.4byte	.LVL477
 17173 1cc6 0100     		.2byte	0x1
 17174 1cc8 56       		.byte	0x56
 17175 1cc9 D8000000 		.4byte	.LVL477
 17176 1ccd DC000000 		.4byte	.LVL478
 17177 1cd1 0100     		.2byte	0x1
 17178 1cd3 51       		.byte	0x51
 17179 1cd4 DC000000 		.4byte	.LVL478
 17180 1cd8 DE000000 		.4byte	.LVL479
 17181 1cdc 0100     		.2byte	0x1
 17182 1cde 56       		.byte	0x56
 17183 1cdf DE000000 		.4byte	.LVL479
 17184 1ce3 E6000000 		.4byte	.LFE28
 17185 1ce7 0400     		.2byte	0x4
 17186 1ce9 F3       		.byte	0xf3
 17187 1cea 01       		.uleb128 0x1
 17188 1ceb 51       		.byte	0x51
 17189 1cec 9F       		.byte	0x9f
 17190 1ced 00000000 		.4byte	0
 17191 1cf1 00000000 		.4byte	0
 17192              	.LLST146:
 17193 1cf5 06000000 		.4byte	.LVL452
 17194 1cf9 2E000000 		.4byte	.LVL456
 17195 1cfd 0200     		.2byte	0x2
 17196 1cff 31       		.byte	0x31
 17197 1d00 9F       		.byte	0x9f
 17198 1d01 3E000000 		.4byte	.LVL458
 17199 1d05 D8000000 		.4byte	.LVL477
 17200 1d09 0100     		.2byte	0x1
 17201 1d0b 57       		.byte	0x57
 17202 1d0c D8000000 		.4byte	.LVL477
 17203 1d10 DE000000 		.4byte	.LVL479
 17204 1d14 0200     		.2byte	0x2
 17205 1d16 31       		.byte	0x31
 17206 1d17 9F       		.byte	0x9f
 17207 1d18 DE000000 		.4byte	.LVL479
ARM GAS  C:\Users\arist\AppData\Local\Temp\ccSjK9zC.s 			page 332


 17208 1d1c E6000000 		.4byte	.LFE28
 17209 1d20 0100     		.2byte	0x1
 17210 1d22 57       		.byte	0x57
 17211 1d23 00000000 		.4byte	0
 17212 1d27 00000000 		.4byte	0
 17213              	.LLST147:
 17214 1d2b 06000000 		.4byte	.LVL452
 17215 1d2f 78000000 		.4byte	.LVL462
 17216 1d33 0200     		.2byte	0x2
 17217 1d35 30       		.byte	0x30
 17218 1d36 9F       		.byte	0x9f
 17219 1d37 98000000 		.4byte	.LVL467
 17220 1d3b D0000000 		.4byte	.LVL476
 17221 1d3f 0100     		.2byte	0x1
 17222 1d41 58       		.byte	0x58
 17223 1d42 D8000000 		.4byte	.LVL477
 17224 1d46 DE000000 		.4byte	.LVL479
 17225 1d4a 0200     		.2byte	0x2
 17226 1d4c 30       		.byte	0x30
 17227 1d4d 9F       		.byte	0x9f
 17228 1d4e 00000000 		.4byte	0
 17229 1d52 00000000 		.4byte	0
 17230              	.LLST148:
 17231 1d56 06000000 		.4byte	.LVL452
 17232 1d5a 78000000 		.4byte	.LVL462
 17233 1d5e 0200     		.2byte	0x2
 17234 1d60 30       		.byte	0x30
 17235 1d61 9F       		.byte	0x9f
 17236 1d62 B6000000 		.4byte	.LVL472
 17237 1d66 C0000000 		.4byte	.LVL473
 17238 1d6a 0100     		.2byte	0x1
 17239 1d6c 50       		.byte	0x50
 17240 1d6d D8000000 		.4byte	.LVL477
 17241 1d71 DE000000 		.4byte	.LVL479
 17242 1d75 0200     		.2byte	0x2
 17243 1d77 30       		.byte	0x30
 17244 1d78 9F       		.byte	0x9f
 17245 1d79 00000000 		.4byte	0
 17246 1d7d 00000000 		.4byte	0
 17247              	.LLST149:
 17248 1d81 74000000 		.4byte	.LVL461
 17249 1d85 78000000 		.4byte	.LVL462
 17250 1d89 0200     		.2byte	0x2
 17251 1d8b 30       		.byte	0x30
 17252 1d8c 9F       		.byte	0x9f
 17253 1d8d 78000000 		.4byte	.LVL462
 17254 1d91 CE000000 		.4byte	.LVL475
 17255 1d95 0100     		.2byte	0x1
 17256 1d97 55       		.byte	0x55
 17257 1d98 D0000000 		.4byte	.LVL476
 17258 1d9c D8000000 		.4byte	.LVL477
 17259 1da0 0100     		.2byte	0x1
 17260 1da2 55       		.byte	0x55
 17261 1da3 00000000 		.4byte	0
 17262 1da7 00000000 		.4byte	0
 17263              	.LLST150:
 17264 1dab 00000000 		.4byte	.LVL480
ARM GAS  C:\Users\arist\AppData\Local\Temp\ccSjK9zC.s 			page 333


 17265 1daf 08000000 		.4byte	.LVL482
 17266 1db3 0100     		.2byte	0x1
 17267 1db5 50       		.byte	0x50
 17268 1db6 08000000 		.4byte	.LVL482
 17269 1dba 10000000 		.4byte	.LVL483
 17270 1dbe 0200     		.2byte	0x2
 17271 1dc0 71       		.byte	0x71
 17272 1dc1 14       		.sleb128 20
 17273 1dc2 10000000 		.4byte	.LVL483
 17274 1dc6 1D000000 		.4byte	.LVL484-1
 17275 1dca 0200     		.2byte	0x2
 17276 1dcc 73       		.byte	0x73
 17277 1dcd 14       		.sleb128 20
 17278 1dce 1D000000 		.4byte	.LVL484-1
 17279 1dd2 20000000 		.4byte	.LVL485
 17280 1dd6 0600     		.2byte	0x6
 17281 1dd8 F3       		.byte	0xf3
 17282 1dd9 03       		.uleb128 0x3
 17283 1dda F5       		.byte	0xf5
 17284 1ddb 00       		.uleb128 0
 17285 1ddc 25       		.uleb128 0x25
 17286 1ddd 9F       		.byte	0x9f
 17287 1dde 20000000 		.4byte	.LVL485
 17288 1de2 27000000 		.4byte	.LVL486-1
 17289 1de6 0200     		.2byte	0x2
 17290 1de8 73       		.byte	0x73
 17291 1de9 14       		.sleb128 20
 17292 1dea 27000000 		.4byte	.LVL486-1
 17293 1dee 2A000000 		.4byte	.LVL487
 17294 1df2 0600     		.2byte	0x6
 17295 1df4 F3       		.byte	0xf3
 17296 1df5 03       		.uleb128 0x3
 17297 1df6 F5       		.byte	0xf5
 17298 1df7 00       		.uleb128 0
 17299 1df8 25       		.uleb128 0x25
 17300 1df9 9F       		.byte	0x9f
 17301 1dfa 2A000000 		.4byte	.LVL487
 17302 1dfe 31000000 		.4byte	.LVL488-1
 17303 1e02 0200     		.2byte	0x2
 17304 1e04 73       		.byte	0x73
 17305 1e05 14       		.sleb128 20
 17306 1e06 31000000 		.4byte	.LVL488-1
 17307 1e0a 34000000 		.4byte	.LVL489
 17308 1e0e 0600     		.2byte	0x6
 17309 1e10 F3       		.byte	0xf3
 17310 1e11 03       		.uleb128 0x3
 17311 1e12 F5       		.byte	0xf5
 17312 1e13 00       		.uleb128 0
 17313 1e14 25       		.uleb128 0x25
 17314 1e15 9F       		.byte	0x9f
 17315 1e16 34000000 		.4byte	.LVL489
 17316 1e1a 3B000000 		.4byte	.LVL490-1
 17317 1e1e 0200     		.2byte	0x2
 17318 1e20 73       		.byte	0x73
 17319 1e21 14       		.sleb128 20
 17320 1e22 3B000000 		.4byte	.LVL490-1
 17321 1e26 3E000000 		.4byte	.LVL491
ARM GAS  C:\Users\arist\AppData\Local\Temp\ccSjK9zC.s 			page 334


 17322 1e2a 0600     		.2byte	0x6
 17323 1e2c F3       		.byte	0xf3
 17324 1e2d 03       		.uleb128 0x3
 17325 1e2e F5       		.byte	0xf5
 17326 1e2f 00       		.uleb128 0
 17327 1e30 25       		.uleb128 0x25
 17328 1e31 9F       		.byte	0x9f
 17329 1e32 3E000000 		.4byte	.LVL491
 17330 1e36 45000000 		.4byte	.LVL492-1
 17331 1e3a 0200     		.2byte	0x2
 17332 1e3c 73       		.byte	0x73
 17333 1e3d 14       		.sleb128 20
 17334 1e3e 45000000 		.4byte	.LVL492-1
 17335 1e42 48000000 		.4byte	.LVL493
 17336 1e46 0600     		.2byte	0x6
 17337 1e48 F3       		.byte	0xf3
 17338 1e49 03       		.uleb128 0x3
 17339 1e4a F5       		.byte	0xf5
 17340 1e4b 00       		.uleb128 0
 17341 1e4c 25       		.uleb128 0x25
 17342 1e4d 9F       		.byte	0x9f
 17343 1e4e 48000000 		.4byte	.LVL493
 17344 1e52 4C000000 		.4byte	.LFE13
 17345 1e56 0200     		.2byte	0x2
 17346 1e58 73       		.byte	0x73
 17347 1e59 14       		.sleb128 20
 17348 1e5a 00000000 		.4byte	0
 17349 1e5e 00000000 		.4byte	0
 17350              	.LLST151:
 17351 1e62 00000000 		.4byte	.LVL480
 17352 1e66 10000000 		.4byte	.LVL483
 17353 1e6a 0100     		.2byte	0x1
 17354 1e6c 51       		.byte	0x51
 17355 1e6d 10000000 		.4byte	.LVL483
 17356 1e71 1D000000 		.4byte	.LVL484-1
 17357 1e75 0100     		.2byte	0x1
 17358 1e77 53       		.byte	0x53
 17359 1e78 1D000000 		.4byte	.LVL484-1
 17360 1e7c 20000000 		.4byte	.LVL485
 17361 1e80 0400     		.2byte	0x4
 17362 1e82 F3       		.byte	0xf3
 17363 1e83 01       		.uleb128 0x1
 17364 1e84 51       		.byte	0x51
 17365 1e85 9F       		.byte	0x9f
 17366 1e86 20000000 		.4byte	.LVL485
 17367 1e8a 27000000 		.4byte	.LVL486-1
 17368 1e8e 0100     		.2byte	0x1
 17369 1e90 53       		.byte	0x53
 17370 1e91 27000000 		.4byte	.LVL486-1
 17371 1e95 2A000000 		.4byte	.LVL487
 17372 1e99 0400     		.2byte	0x4
 17373 1e9b F3       		.byte	0xf3
 17374 1e9c 01       		.uleb128 0x1
 17375 1e9d 51       		.byte	0x51
 17376 1e9e 9F       		.byte	0x9f
 17377 1e9f 2A000000 		.4byte	.LVL487
 17378 1ea3 31000000 		.4byte	.LVL488-1
ARM GAS  C:\Users\arist\AppData\Local\Temp\ccSjK9zC.s 			page 335


 17379 1ea7 0100     		.2byte	0x1
 17380 1ea9 53       		.byte	0x53
 17381 1eaa 31000000 		.4byte	.LVL488-1
 17382 1eae 34000000 		.4byte	.LVL489
 17383 1eb2 0400     		.2byte	0x4
 17384 1eb4 F3       		.byte	0xf3
 17385 1eb5 01       		.uleb128 0x1
 17386 1eb6 51       		.byte	0x51
 17387 1eb7 9F       		.byte	0x9f
 17388 1eb8 34000000 		.4byte	.LVL489
 17389 1ebc 3B000000 		.4byte	.LVL490-1
 17390 1ec0 0100     		.2byte	0x1
 17391 1ec2 53       		.byte	0x53
 17392 1ec3 3B000000 		.4byte	.LVL490-1
 17393 1ec7 3E000000 		.4byte	.LVL491
 17394 1ecb 0400     		.2byte	0x4
 17395 1ecd F3       		.byte	0xf3
 17396 1ece 01       		.uleb128 0x1
 17397 1ecf 51       		.byte	0x51
 17398 1ed0 9F       		.byte	0x9f
 17399 1ed1 3E000000 		.4byte	.LVL491
 17400 1ed5 45000000 		.4byte	.LVL492-1
 17401 1ed9 0100     		.2byte	0x1
 17402 1edb 53       		.byte	0x53
 17403 1edc 45000000 		.4byte	.LVL492-1
 17404 1ee0 48000000 		.4byte	.LVL493
 17405 1ee4 0400     		.2byte	0x4
 17406 1ee6 F3       		.byte	0xf3
 17407 1ee7 01       		.uleb128 0x1
 17408 1ee8 51       		.byte	0x51
 17409 1ee9 9F       		.byte	0x9f
 17410 1eea 48000000 		.4byte	.LVL493
 17411 1eee 4C000000 		.4byte	.LFE13
 17412 1ef2 0100     		.2byte	0x1
 17413 1ef4 53       		.byte	0x53
 17414 1ef5 00000000 		.4byte	0
 17415 1ef9 00000000 		.4byte	0
 17416              	.LLST152:
 17417 1efd 00000000 		.4byte	.LVL480
 17418 1f01 1D000000 		.4byte	.LVL484-1
 17419 1f05 0100     		.2byte	0x1
 17420 1f07 52       		.byte	0x52
 17421 1f08 1D000000 		.4byte	.LVL484-1
 17422 1f0c 20000000 		.4byte	.LVL485
 17423 1f10 0400     		.2byte	0x4
 17424 1f12 F3       		.byte	0xf3
 17425 1f13 01       		.uleb128 0x1
 17426 1f14 52       		.byte	0x52
 17427 1f15 9F       		.byte	0x9f
 17428 1f16 20000000 		.4byte	.LVL485
 17429 1f1a 27000000 		.4byte	.LVL486-1
 17430 1f1e 0100     		.2byte	0x1
 17431 1f20 52       		.byte	0x52
 17432 1f21 27000000 		.4byte	.LVL486-1
 17433 1f25 2A000000 		.4byte	.LVL487
 17434 1f29 0400     		.2byte	0x4
 17435 1f2b F3       		.byte	0xf3
ARM GAS  C:\Users\arist\AppData\Local\Temp\ccSjK9zC.s 			page 336


 17436 1f2c 01       		.uleb128 0x1
 17437 1f2d 52       		.byte	0x52
 17438 1f2e 9F       		.byte	0x9f
 17439 1f2f 2A000000 		.4byte	.LVL487
 17440 1f33 31000000 		.4byte	.LVL488-1
 17441 1f37 0100     		.2byte	0x1
 17442 1f39 52       		.byte	0x52
 17443 1f3a 31000000 		.4byte	.LVL488-1
 17444 1f3e 34000000 		.4byte	.LVL489
 17445 1f42 0400     		.2byte	0x4
 17446 1f44 F3       		.byte	0xf3
 17447 1f45 01       		.uleb128 0x1
 17448 1f46 52       		.byte	0x52
 17449 1f47 9F       		.byte	0x9f
 17450 1f48 34000000 		.4byte	.LVL489
 17451 1f4c 3B000000 		.4byte	.LVL490-1
 17452 1f50 0100     		.2byte	0x1
 17453 1f52 52       		.byte	0x52
 17454 1f53 3B000000 		.4byte	.LVL490-1
 17455 1f57 3E000000 		.4byte	.LVL491
 17456 1f5b 0400     		.2byte	0x4
 17457 1f5d F3       		.byte	0xf3
 17458 1f5e 01       		.uleb128 0x1
 17459 1f5f 52       		.byte	0x52
 17460 1f60 9F       		.byte	0x9f
 17461 1f61 3E000000 		.4byte	.LVL491
 17462 1f65 45000000 		.4byte	.LVL492-1
 17463 1f69 0100     		.2byte	0x1
 17464 1f6b 52       		.byte	0x52
 17465 1f6c 45000000 		.4byte	.LVL492-1
 17466 1f70 48000000 		.4byte	.LVL493
 17467 1f74 0400     		.2byte	0x4
 17468 1f76 F3       		.byte	0xf3
 17469 1f77 01       		.uleb128 0x1
 17470 1f78 52       		.byte	0x52
 17471 1f79 9F       		.byte	0x9f
 17472 1f7a 48000000 		.4byte	.LVL493
 17473 1f7e 4C000000 		.4byte	.LFE13
 17474 1f82 0100     		.2byte	0x1
 17475 1f84 52       		.byte	0x52
 17476 1f85 00000000 		.4byte	0
 17477 1f89 00000000 		.4byte	0
 17478              	.LLST153:
 17479 1f8d 04000000 		.4byte	.LVL481
 17480 1f91 1E000000 		.4byte	.LVL484
 17481 1f95 0200     		.2byte	0x2
 17482 1f97 30       		.byte	0x30
 17483 1f98 9F       		.byte	0x9f
 17484 1f99 1E000000 		.4byte	.LVL484
 17485 1f9d 20000000 		.4byte	.LVL485
 17486 1fa1 0100     		.2byte	0x1
 17487 1fa3 50       		.byte	0x50
 17488 1fa4 20000000 		.4byte	.LVL485
 17489 1fa8 28000000 		.4byte	.LVL486
 17490 1fac 0200     		.2byte	0x2
 17491 1fae 30       		.byte	0x30
 17492 1faf 9F       		.byte	0x9f
ARM GAS  C:\Users\arist\AppData\Local\Temp\ccSjK9zC.s 			page 337


 17493 1fb0 28000000 		.4byte	.LVL486
 17494 1fb4 2A000000 		.4byte	.LVL487
 17495 1fb8 0100     		.2byte	0x1
 17496 1fba 50       		.byte	0x50
 17497 1fbb 2A000000 		.4byte	.LVL487
 17498 1fbf 32000000 		.4byte	.LVL488
 17499 1fc3 0200     		.2byte	0x2
 17500 1fc5 30       		.byte	0x30
 17501 1fc6 9F       		.byte	0x9f
 17502 1fc7 32000000 		.4byte	.LVL488
 17503 1fcb 34000000 		.4byte	.LVL489
 17504 1fcf 0100     		.2byte	0x1
 17505 1fd1 50       		.byte	0x50
 17506 1fd2 34000000 		.4byte	.LVL489
 17507 1fd6 3C000000 		.4byte	.LVL490
 17508 1fda 0200     		.2byte	0x2
 17509 1fdc 30       		.byte	0x30
 17510 1fdd 9F       		.byte	0x9f
 17511 1fde 3C000000 		.4byte	.LVL490
 17512 1fe2 3E000000 		.4byte	.LVL491
 17513 1fe6 0100     		.2byte	0x1
 17514 1fe8 50       		.byte	0x50
 17515 1fe9 3E000000 		.4byte	.LVL491
 17516 1fed 46000000 		.4byte	.LVL492
 17517 1ff1 0200     		.2byte	0x2
 17518 1ff3 30       		.byte	0x30
 17519 1ff4 9F       		.byte	0x9f
 17520 1ff5 46000000 		.4byte	.LVL492
 17521 1ff9 48000000 		.4byte	.LVL493
 17522 1ffd 0100     		.2byte	0x1
 17523 1fff 50       		.byte	0x50
 17524 2000 48000000 		.4byte	.LVL493
 17525 2004 4A000000 		.4byte	.LVL494
 17526 2008 0200     		.2byte	0x2
 17527 200a 30       		.byte	0x30
 17528 200b 9F       		.byte	0x9f
 17529 200c 4A000000 		.4byte	.LVL494
 17530 2010 4C000000 		.4byte	.LFE13
 17531 2014 0100     		.2byte	0x1
 17532 2016 50       		.byte	0x50
 17533 2017 00000000 		.4byte	0
 17534 201b 00000000 		.4byte	0
 17535              		.section	.debug_aranges,"",%progbits
 17536 0000 FC000000 		.4byte	0xfc
 17537 0004 0200     		.2byte	0x2
 17538 0006 00000000 		.4byte	.Ldebug_info0
 17539 000a 04       		.byte	0x4
 17540 000b 00       		.byte	0
 17541 000c 0000     		.2byte	0
 17542 000e 0000     		.2byte	0
 17543 0010 00000000 		.4byte	.LFB1
 17544 0014 1E000000 		.4byte	.LFE1-.LFB1
 17545 0018 00000000 		.4byte	.LFB2
 17546 001c 7C000000 		.4byte	.LFE2-.LFB2
 17547 0020 00000000 		.4byte	.LFB3
 17548 0024 20000000 		.4byte	.LFE3-.LFB3
 17549 0028 00000000 		.4byte	.LFB14
ARM GAS  C:\Users\arist\AppData\Local\Temp\ccSjK9zC.s 			page 338


 17550 002c 0E000000 		.4byte	.LFE14-.LFB14
 17551 0030 00000000 		.4byte	.LFB15
 17552 0034 0A000000 		.4byte	.LFE15-.LFB15
 17553 0038 00000000 		.4byte	.LFB0
 17554 003c 46000000 		.4byte	.LFE0-.LFB0
 17555 0040 00000000 		.4byte	.LFB16
 17556 0044 0C000000 		.4byte	.LFE16-.LFB16
 17557 0048 00000000 		.4byte	.LFB9
 17558 004c E4000000 		.4byte	.LFE9-.LFB9
 17559 0050 00000000 		.4byte	.LFB17
 17560 0054 3C000000 		.4byte	.LFE17-.LFB17
 17561 0058 00000000 		.4byte	.LFB4
 17562 005c 90000000 		.4byte	.LFE4-.LFB4
 17563 0060 00000000 		.4byte	.LFB10
 17564 0064 6A000000 		.4byte	.LFE10-.LFB10
 17565 0068 00000000 		.4byte	.LFB19
 17566 006c 48000000 		.4byte	.LFE19-.LFB19
 17567 0070 00000000 		.4byte	.LFB18
 17568 0074 F8000000 		.4byte	.LFE18-.LFB18
 17569 0078 00000000 		.4byte	.LFB7
 17570 007c 9C010000 		.4byte	.LFE7-.LFB7
 17571 0080 00000000 		.4byte	.LFB8
 17572 0084 78000000 		.4byte	.LFE8-.LFB8
 17573 0088 00000000 		.4byte	.LFB20
 17574 008c 0A000000 		.4byte	.LFE20-.LFB20
 17575 0090 00000000 		.4byte	.LFB6
 17576 0094 10020000 		.4byte	.LFE6-.LFB6
 17577 0098 00000000 		.4byte	.LFB21
 17578 009c 1C000000 		.4byte	.LFE21-.LFB21
 17579 00a0 00000000 		.4byte	.LFB5
 17580 00a4 FA000000 		.4byte	.LFE5-.LFB5
 17581 00a8 00000000 		.4byte	.LFB11
 17582 00ac 5A000000 		.4byte	.LFE11-.LFB11
 17583 00b0 00000000 		.4byte	.LFB12
 17584 00b4 40000000 		.4byte	.LFE12-.LFB12
 17585 00b8 00000000 		.4byte	.LFB22
 17586 00bc D2000000 		.4byte	.LFE22-.LFB22
 17587 00c0 00000000 		.4byte	.LFB23
 17588 00c4 B4000000 		.4byte	.LFE23-.LFB23
 17589 00c8 00000000 		.4byte	.LFB24
 17590 00cc 14000000 		.4byte	.LFE24-.LFB24
 17591 00d0 00000000 		.4byte	.LFB25
 17592 00d4 D2000000 		.4byte	.LFE25-.LFB25
 17593 00d8 00000000 		.4byte	.LFB26
 17594 00dc 58010000 		.4byte	.LFE26-.LFB26
 17595 00e0 00000000 		.4byte	.LFB27
 17596 00e4 40010000 		.4byte	.LFE27-.LFB27
 17597 00e8 00000000 		.4byte	.LFB28
 17598 00ec E6000000 		.4byte	.LFE28-.LFB28
 17599 00f0 00000000 		.4byte	.LFB13
 17600 00f4 4C000000 		.4byte	.LFE13-.LFB13
 17601 00f8 00000000 		.4byte	0
 17602 00fc 00000000 		.4byte	0
 17603              		.section	.debug_ranges,"",%progbits
 17604              	.Ldebug_ranges0:
 17605 0000 04000000 		.4byte	.LBB2
 17606 0004 14000000 		.4byte	.LBE2
ARM GAS  C:\Users\arist\AppData\Local\Temp\ccSjK9zC.s 			page 339


 17607 0008 16000000 		.4byte	.LBB3
 17608 000c 1E000000 		.4byte	.LBE3
 17609 0010 00000000 		.4byte	0
 17610 0014 00000000 		.4byte	0
 17611 0018 76000000 		.4byte	.LBB4
 17612 001c C4000000 		.4byte	.LBE4
 17613 0020 C6000000 		.4byte	.LBB7
 17614 0024 C8000000 		.4byte	.LBE7
 17615 0028 00000000 		.4byte	0
 17616 002c 00000000 		.4byte	0
 17617 0030 9A000000 		.4byte	.LBB5
 17618 0034 C4000000 		.4byte	.LBE5
 17619 0038 C6000000 		.4byte	.LBB6
 17620 003c C8000000 		.4byte	.LBE6
 17621 0040 00000000 		.4byte	0
 17622 0044 00000000 		.4byte	0
 17623 0048 14000000 		.4byte	.LBB8
 17624 004c 1C000000 		.4byte	.LBE8
 17625 0050 1E000000 		.4byte	.LBB11
 17626 0054 64000000 		.4byte	.LBE11
 17627 0058 00000000 		.4byte	0
 17628 005c 00000000 		.4byte	0
 17629 0060 20000000 		.4byte	.LBB9
 17630 0064 54000000 		.4byte	.LBE9
 17631 0068 56000000 		.4byte	.LBB10
 17632 006c 5A000000 		.4byte	.LBE10
 17633 0070 00000000 		.4byte	0
 17634 0074 00000000 		.4byte	0
 17635 0078 36000000 		.4byte	.LBB13
 17636 007c 5A000000 		.4byte	.LBE13
 17637 0080 5C000000 		.4byte	.LBB14
 17638 0084 66000000 		.4byte	.LBE14
 17639 0088 00000000 		.4byte	0
 17640 008c 00000000 		.4byte	0
 17641 0090 66000000 		.4byte	.LBB15
 17642 0094 A0000000 		.4byte	.LBE15
 17643 0098 A2000000 		.4byte	.LBB18
 17644 009c AC000000 		.4byte	.LBE18
 17645 00a0 00000000 		.4byte	0
 17646 00a4 00000000 		.4byte	0
 17647 00a8 66000000 		.4byte	.LBB16
 17648 00ac 90000000 		.4byte	.LBE16
 17649 00b0 92000000 		.4byte	.LBB17
 17650 00b4 9A000000 		.4byte	.LBE17
 17651 00b8 00000000 		.4byte	0
 17652 00bc 00000000 		.4byte	0
 17653 00c0 AC000000 		.4byte	.LBB19
 17654 00c4 E2000000 		.4byte	.LBE19
 17655 00c8 E4000000 		.4byte	.LBB22
 17656 00cc EE000000 		.4byte	.LBE22
 17657 00d0 00000000 		.4byte	0
 17658 00d4 00000000 		.4byte	0
 17659 00d8 AC000000 		.4byte	.LBB20
 17660 00dc D2000000 		.4byte	.LBE20
 17661 00e0 D4000000 		.4byte	.LBB21
 17662 00e4 DC000000 		.4byte	.LBE21
 17663 00e8 00000000 		.4byte	0
ARM GAS  C:\Users\arist\AppData\Local\Temp\ccSjK9zC.s 			page 340


 17664 00ec 00000000 		.4byte	0
 17665 00f0 D8000000 		.4byte	.LBB23
 17666 00f4 72010000 		.4byte	.LBE23
 17667 00f8 74010000 		.4byte	.LBB26
 17668 00fc 76010000 		.4byte	.LBE26
 17669 0100 00000000 		.4byte	0
 17670 0104 00000000 		.4byte	0
 17671 0108 FA000000 		.4byte	.LBB24
 17672 010c 72010000 		.4byte	.LBE24
 17673 0110 74010000 		.4byte	.LBB25
 17674 0114 76010000 		.4byte	.LBE25
 17675 0118 00000000 		.4byte	0
 17676 011c 00000000 		.4byte	0
 17677 0120 D4000000 		.4byte	.LBB27
 17678 0124 F0010000 		.4byte	.LBE27
 17679 0128 F2010000 		.4byte	.LBB30
 17680 012c F4010000 		.4byte	.LBE30
 17681 0130 00000000 		.4byte	0
 17682 0134 00000000 		.4byte	0
 17683 0138 EE000000 		.4byte	.LBB28
 17684 013c F0010000 		.4byte	.LBE28
 17685 0140 F2010000 		.4byte	.LBB29
 17686 0144 F4010000 		.4byte	.LBE29
 17687 0148 00000000 		.4byte	0
 17688 014c 00000000 		.4byte	0
 17689 0150 12000000 		.4byte	.LBB31
 17690 0154 28000000 		.4byte	.LBE31
 17691 0158 30000000 		.4byte	.LBB34
 17692 015c 4C000000 		.4byte	.LBE34
 17693 0160 00000000 		.4byte	0
 17694 0164 00000000 		.4byte	0
 17695 0168 26000000 		.4byte	.LBB32
 17696 016c 28000000 		.4byte	.LBE32
 17697 0170 30000000 		.4byte	.LBB33
 17698 0174 4C000000 		.4byte	.LBE33
 17699 0178 00000000 		.4byte	0
 17700 017c 00000000 		.4byte	0
 17701 0180 4C000000 		.4byte	.LBB35
 17702 0184 7C000000 		.4byte	.LBE35
 17703 0188 80000000 		.4byte	.LBB38
 17704 018c F2000000 		.4byte	.LBE38
 17705 0190 00000000 		.4byte	0
 17706 0194 00000000 		.4byte	0
 17707 0198 78000000 		.4byte	.LBB36
 17708 019c 7C000000 		.4byte	.LBE36
 17709 01a0 80000000 		.4byte	.LBB37
 17710 01a4 F2000000 		.4byte	.LBE37
 17711 01a8 00000000 		.4byte	0
 17712 01ac 00000000 		.4byte	0
 17713 01b0 00000000 		.4byte	.LFB1
 17714 01b4 1E000000 		.4byte	.LFE1
 17715 01b8 00000000 		.4byte	.LFB2
 17716 01bc 7C000000 		.4byte	.LFE2
 17717 01c0 00000000 		.4byte	.LFB3
 17718 01c4 20000000 		.4byte	.LFE3
 17719 01c8 00000000 		.4byte	.LFB14
 17720 01cc 0E000000 		.4byte	.LFE14
ARM GAS  C:\Users\arist\AppData\Local\Temp\ccSjK9zC.s 			page 341


 17721 01d0 00000000 		.4byte	.LFB15
 17722 01d4 0A000000 		.4byte	.LFE15
 17723 01d8 00000000 		.4byte	.LFB0
 17724 01dc 46000000 		.4byte	.LFE0
 17725 01e0 00000000 		.4byte	.LFB16
 17726 01e4 0C000000 		.4byte	.LFE16
 17727 01e8 00000000 		.4byte	.LFB9
 17728 01ec E4000000 		.4byte	.LFE9
 17729 01f0 00000000 		.4byte	.LFB17
 17730 01f4 3C000000 		.4byte	.LFE17
 17731 01f8 00000000 		.4byte	.LFB4
 17732 01fc 90000000 		.4byte	.LFE4
 17733 0200 00000000 		.4byte	.LFB10
 17734 0204 6A000000 		.4byte	.LFE10
 17735 0208 00000000 		.4byte	.LFB19
 17736 020c 48000000 		.4byte	.LFE19
 17737 0210 00000000 		.4byte	.LFB18
 17738 0214 F8000000 		.4byte	.LFE18
 17739 0218 00000000 		.4byte	.LFB7
 17740 021c 9C010000 		.4byte	.LFE7
 17741 0220 00000000 		.4byte	.LFB8
 17742 0224 78000000 		.4byte	.LFE8
 17743 0228 00000000 		.4byte	.LFB20
 17744 022c 0A000000 		.4byte	.LFE20
 17745 0230 00000000 		.4byte	.LFB6
 17746 0234 10020000 		.4byte	.LFE6
 17747 0238 00000000 		.4byte	.LFB21
 17748 023c 1C000000 		.4byte	.LFE21
 17749 0240 00000000 		.4byte	.LFB5
 17750 0244 FA000000 		.4byte	.LFE5
 17751 0248 00000000 		.4byte	.LFB11
 17752 024c 5A000000 		.4byte	.LFE11
 17753 0250 00000000 		.4byte	.LFB12
 17754 0254 40000000 		.4byte	.LFE12
 17755 0258 00000000 		.4byte	.LFB22
 17756 025c D2000000 		.4byte	.LFE22
 17757 0260 00000000 		.4byte	.LFB23
 17758 0264 B4000000 		.4byte	.LFE23
 17759 0268 00000000 		.4byte	.LFB24
 17760 026c 14000000 		.4byte	.LFE24
 17761 0270 00000000 		.4byte	.LFB25
 17762 0274 D2000000 		.4byte	.LFE25
 17763 0278 00000000 		.4byte	.LFB26
 17764 027c 58010000 		.4byte	.LFE26
 17765 0280 00000000 		.4byte	.LFB27
 17766 0284 40010000 		.4byte	.LFE27
 17767 0288 00000000 		.4byte	.LFB28
 17768 028c E6000000 		.4byte	.LFE28
 17769 0290 00000000 		.4byte	.LFB13
 17770 0294 4C000000 		.4byte	.LFE13
 17771 0298 00000000 		.4byte	0
 17772 029c 00000000 		.4byte	0
 17773              		.section	.debug_line,"",%progbits
 17774              	.Ldebug_line0:
 17775 0000 75070000 		.section	.debug_str,"MS",%progbits,1
 17775      0200BB01 
 17775      00000201 
ARM GAS  C:\Users\arist\AppData\Local\Temp\ccSjK9zC.s 			page 342


 17775      FB0E0D00 
 17775      01010101 
 17776              	.LASF27:
 17777 0000 4C414E44 		.ascii	"LANDSCAPE\000"
 17777      53434150 
 17777      4500
 17778              	.LASF74:
 17779 000a 636F6C5F 		.ascii	"col_byte_cnt\000"
 17779      62797465 
 17779      5F636E74 
 17779      00
 17780              	.LASF145:
 17781 0017 7374726C 		.ascii	"strlen\000"
 17781      656E00
 17782              	.LASF84:
 17783 001e 7075745F 		.ascii	"put_circle\000"
 17783      63697263 
 17783      6C6500
 17784              	.LASF13:
 17785 0029 756E7369 		.ascii	"unsigned int\000"
 17785      676E6564 
 17785      20696E74 
 17785      00
 17786              	.LASF133:
 17787 0036 75706461 		.ascii	"update_XY\000"
 17787      74655F58 
 17787      5900
 17788              	.LASF53:
 17789 0040 53434154 		.ascii	"SCATTER\000"
 17789      54455200 
 17790              	.LASF59:
 17791 0048 64696D5F 		.ascii	"dim_y_neg\000"
 17791      795F6E65 
 17791      6700
 17792              	.LASF96:
 17793 0052 6D6F6475 		.ascii	"modulo\000"
 17793      6C6F00
 17794              	.LASF100:
 17795 0059 656E6478 		.ascii	"endx_ptr\000"
 17795      5F707472 
 17795      00
 17796              	.LASF80:
 17797 0062 62756666 		.ascii	"buffer_byte_ptr\000"
 17797      65725F62 
 17797      7974655F 
 17797      70747200 
 17798              	.LASF125:
 17799 0072 7075745F 		.ascii	"put_neg_COL\000"
 17799      6E65675F 
 17799      434F4C00 
 17800              	.LASF66:
 17801 007e 6572726F 		.ascii	"error\000"
 17801      7200
 17802              	.LASF71:
 17803 0084 6765745F 		.ascii	"get_buffer_index\000"
 17803      62756666 
 17803      65725F69 
ARM GAS  C:\Users\arist\AppData\Local\Temp\ccSjK9zC.s 			page 343


 17803      6E646578 
 17803      00
 17804              	.LASF23:
 17805 0095 6D6F6465 		.ascii	"mode\000"
 17805      00
 17806              	.LASF124:
 17807 009a 7075745F 		.ascii	"put_pos_COL\000"
 17807      706F735F 
 17807      434F4C00 
 17808              	.LASF121:
 17809 00a6 66696C6C 		.ascii	"fill_y\000"
 17809      5F7900
 17810              	.LASF26:
 17811 00ad 6F726965 		.ascii	"orientation\000"
 17811      6E746174 
 17811      696F6E00 
 17812              	.LASF21:
 17813 00b9 434C4541 		.ascii	"CLEAR\000"
 17813      5200
 17814              	.LASF38:
 17815 00bf 725F6D61 		.ascii	"r_matrix\000"
 17815      74726978 
 17815      00
 17816              	.LASF94:
 17817 00c8 795F6F66 		.ascii	"y_offset\000"
 17817      66736574 
 17817      00
 17818              	.LASF14:
 17819 00d1 696E7438 		.ascii	"int8_t\000"
 17819      5F7400
 17820              	.LASF64:
 17821 00d8 7365745F 		.ascii	"set_mode\000"
 17821      6D6F6465 
 17821      00
 17822              	.LASF119:
 17823 00e1 6E657874 		.ascii	"nexty\000"
 17823      7900
 17824              	.LASF28:
 17825 00e7 4C414E44 		.ascii	"LANDSCAPE_INVERTED\000"
 17825      53434150 
 17825      455F494E 
 17825      56455254 
 17825      454400
 17826              	.LASF136:
 17827 00fa 666F6E74 		.ascii	"font_height\000"
 17827      5F686569 
 17827      67687400 
 17828              	.LASF0:
 17829 0106 666C6F61 		.ascii	"float\000"
 17829      7400
 17830              	.LASF67:
 17831 010c 636C725F 		.ascii	"clr_buffer\000"
 17831      62756666 
 17831      657200
 17832              	.LASF50:
 17833 0117 4C415247 		.ascii	"LARGE\000"
 17833      4500
ARM GAS  C:\Users\arist\AppData\Local\Temp\ccSjK9zC.s 			page 344


 17834              	.LASF142:
 17835 011d 6D616C6C 		.ascii	"malloc\000"
 17835      6F6300
 17836              	.LASF16:
 17837 0124 696E7431 		.ascii	"int16_t\000"
 17837      365F7400 
 17838              	.LASF83:
 17839 012c 6E5F706F 		.ascii	"n_pos\000"
 17839      7300
 17840              	.LASF12:
 17841 0132 6C6F6E67 		.ascii	"long long unsigned int\000"
 17841      206C6F6E 
 17841      6720756E 
 17841      7369676E 
 17841      65642069 
 17842              	.LASF76:
 17843 0149 66696C65 		.ascii	"file\000"
 17843      00
 17844              	.LASF57:
 17845 014e 64696D5F 		.ascii	"dim_x\000"
 17845      7800
 17846              	.LASF7:
 17847 0154 5F5F7569 		.ascii	"__uint16_t\000"
 17847      6E743136 
 17847      5F7400
 17848              	.LASF48:
 17849 015f 534D414C 		.ascii	"SMALL\000"
 17849      4C00
 17850              	.LASF146:
 17851 0165 474E5520 		.ascii	"GNU C11 5.4.1 20160609 (release) [ARM/embedded-5-br"
 17851      43313120 
 17851      352E342E 
 17851      31203230 
 17851      31363036 
 17852 0198 616E6368 		.ascii	"anch revision 237715] -mcpu=cortex-m3 -mthumb -g -O"
 17852      20726576 
 17852      6973696F 
 17852      6E203233 
 17852      37373135 
 17853 01cb 67202D66 		.ascii	"g -ffunction-sections -ffat-lto-objects\000"
 17853      66756E63 
 17853      74696F6E 
 17853      2D736563 
 17853      74696F6E 
 17854              	.LASF31:
 17855 01f3 73697A65 		.ascii	"size_x\000"
 17855      5F7800
 17856              	.LASF32:
 17857 01fa 73697A65 		.ascii	"size_y\000"
 17857      5F7900
 17858              	.LASF40:
 17859 0201 77696474 		.ascii	"width\000"
 17859      6800
 17860              	.LASF97:
 17861 0207 636C6561 		.ascii	"clear_sector\000"
 17861      725F7365 
 17861      63746F72 
ARM GAS  C:\Users\arist\AppData\Local\Temp\ccSjK9zC.s 			page 345


 17861      00
 17862              	.LASF55:
 17863 0214 64617461 		.ascii	"data_container\000"
 17863      5F636F6E 
 17863      7461696E 
 17863      657200
 17864              	.LASF117:
 17865 0223 6C696E65 		.ascii	"line_lenght\000"
 17865      5F6C656E 
 17865      67687400 
 17866              	.LASF105:
 17867 022f 746F5F73 		.ascii	"to_shift\000"
 17867      68696674 
 17867      00
 17868              	.LASF144:
 17869 0238 66726565 		.ascii	"free\000"
 17869      00
 17870              	.LASF120:
 17871 023d 795F746F 		.ascii	"y_todrw\000"
 17871      64727700 
 17872              	.LASF140:
 17873 0245 666F6E74 		.ascii	"font_l\000"
 17873      5F6C00
 17874              	.LASF37:
 17875 024c 6F726967 		.ascii	"origin\000"
 17875      696E00
 17876              	.LASF85:
 17877 0253 72737172 		.ascii	"rsqr\000"
 17877      00
 17878              	.LASF138:
 17879 0258 666F6E74 		.ascii	"font_s\000"
 17879      5F7300
 17880              	.LASF90:
 17881 025f 7075745F 		.ascii	"put_char\000"
 17881      63686172 
 17881      00
 17882              	.LASF86:
 17883 0268 72657665 		.ascii	"reverse_byte\000"
 17883      7273655F 
 17883      62797465 
 17883      00
 17884              	.LASF65:
 17885 0275 7365745F 		.ascii	"set_orientation\000"
 17885      6F726965 
 17885      6E746174 
 17885      696F6E00 
 17886              	.LASF20:
 17887 0285 63686172 		.ascii	"char\000"
 17887      00
 17888              	.LASF44:
 17889 028a 7662635F 		.ascii	"vbc_file\000"
 17889      66696C65 
 17889      00
 17890              	.LASF24:
 17891 0293 4E4F524D 		.ascii	"NORMAL\000"
 17891      414C00
 17892              	.LASF93:
ARM GAS  C:\Users\arist\AppData\Local\Temp\ccSjK9zC.s 			page 346


 17893 029a 7075745F 		.ascii	"put_string\000"
 17893      73747269 
 17893      6E6700
 17894              	.LASF42:
 17895 02a5 62797465 		.ascii	"byte_cnt_h\000"
 17895      5F636E74 
 17895      5F6800
 17896              	.LASF43:
 17897 02b0 62797465 		.ascii	"byte_cnt_l\000"
 17897      5F636E74 
 17897      5F6C00
 17898              	.LASF75:
 17899 02bb 7075745F 		.ascii	"put_vbc\000"
 17899      76626300 
 17900              	.LASF61:
 17901 02c3 64617461 		.ascii	"data\000"
 17901      00
 17902              	.LASF88:
 17903 02c8 6E65775F 		.ascii	"new_chr\000"
 17903      63687200 
 17904              	.LASF15:
 17905 02d0 75696E74 		.ascii	"uint8_t\000"
 17905      385F7400 
 17906              	.LASF33:
 17907 02d8 7669645F 		.ascii	"vid_buf\000"
 17907      62756600 
 17908              	.LASF131:
 17909 02e0 785F636E 		.ascii	"x_cnt\000"
 17909      7400
 17910              	.LASF70:
 17911 02e6 696E6974 		.ascii	"init_buf\000"
 17911      5F627566 
 17911      00
 17912              	.LASF11:
 17913 02ef 6C6F6E67 		.ascii	"long long int\000"
 17913      206C6F6E 
 17913      6720696E 
 17913      7400
 17914              	.LASF47:
 17915 02fd 666F6E74 		.ascii	"fonts_size\000"
 17915      735F7369 
 17915      7A6500
 17916              	.LASF106:
 17917 0308 726F775F 		.ascii	"row_clrd\000"
 17917      636C7264 
 17917      00
 17918              	.LASF132:
 17919 0311 75706461 		.ascii	"update_SCATTER\000"
 17919      74655F53 
 17919      43415454 
 17919      455200
 17920              	.LASF87:
 17921 0320 726F7461 		.ascii	"rotate_char\000"
 17921      74655F63 
 17921      68617200 
 17922              	.LASF92:
 17923 032c 73686966 		.ascii	"shifter_a\000"
ARM GAS  C:\Users\arist\AppData\Local\Temp\ccSjK9zC.s 			page 347


 17923      7465725F 
 17923      6100
 17924              	.LASF5:
 17925 0336 5F5F696E 		.ascii	"__int16_t\000"
 17925      7431365F 
 17925      7400
 17926              	.LASF141:
 17927 0340 6D656D73 		.ascii	"memset\000"
 17927      657400
 17928              	.LASF135:
 17929 0347 6E65775F 		.ascii	"new_data\000"
 17929      64617461 
 17929      00
 17930              	.LASF63:
 17931 0350 78795F65 		.ascii	"xy_entries\000"
 17931      6E747269 
 17931      657300
 17932              	.LASF147:
 17933 035b 64697370 		.ascii	"display\\GEVA.c\000"
 17933      6C61795C 
 17933      47455641 
 17933      2E6300
 17934              	.LASF52:
 17935 036a 4C494E45 		.ascii	"LINE\000"
 17935      00
 17936              	.LASF58:
 17937 036f 64696D5F 		.ascii	"dim_y_pos\000"
 17937      795F706F 
 17937      7300
 17938              	.LASF104:
 17939 0379 696E6974 		.ascii	"initial_shift\000"
 17939      69616C5F 
 17939      73686966 
 17939      7400
 17940              	.LASF109:
 17941 0387 706F735F 		.ascii	"pos_x1\000"
 17941      783100
 17942              	.LASF111:
 17943 038e 706F735F 		.ascii	"pos_x2\000"
 17943      783200
 17944              	.LASF69:
 17945 0395 62756666 		.ascii	"buffer_byte_cnt\000"
 17945      65725F62 
 17945      7974655F 
 17945      636E7400 
 17946              	.LASF45:
 17947 03a5 68656164 		.ascii	"header\000"
 17947      657200
 17948              	.LASF103:
 17949 03ac 6E5F706F 		.ascii	"n_pos_ptr\000"
 17949      735F7074 
 17949      7200
 17950              	.LASF41:
 17951 03b6 68656967 		.ascii	"height\000"
 17951      687400
 17952              	.LASF126:
 17953 03bd 75706461 		.ascii	"update_COL\000"
ARM GAS  C:\Users\arist\AppData\Local\Temp\ccSjK9zC.s 			page 348


 17953      74655F43 
 17953      4F4C00
 17954              	.LASF89:
 17955 03c8 6E635F70 		.ascii	"nc_ptr\000"
 17955      747200
 17956              	.LASF78:
 17957 03cf 62797465 		.ascii	"byte_width\000"
 17957      5F776964 
 17957      746800
 17958              	.LASF2:
 17959 03da 5F5F696E 		.ascii	"__int8_t\000"
 17959      74385F74 
 17959      00
 17960              	.LASF114:
 17961 03e3 6C617374 		.ascii	"lastx\000"
 17961      7800
 17962              	.LASF116:
 17963 03e9 6C617374 		.ascii	"lasty\000"
 17963      7900
 17964              	.LASF18:
 17965 03ef 6C6F6E67 		.ascii	"long double\000"
 17965      20646F75 
 17965      626C6500 
 17966              	.LASF17:
 17967 03fb 75696E74 		.ascii	"uint16_t\000"
 17967      31365F74 
 17967      00
 17968              	.LASF118:
 17969 0404 736C6F70 		.ascii	"slope_addendum\000"
 17969      655F6164 
 17969      64656E64 
 17969      756D00
 17970              	.LASF99:
 17971 0413 73746172 		.ascii	"starty_ptr\000"
 17971      74795F70 
 17971      747200
 17972              	.LASF81:
 17973 041e 6E6F726D 		.ascii	"normalize_pos\000"
 17973      616C697A 
 17973      655F706F 
 17973      7300
 17974              	.LASF110:
 17975 042c 706F735F 		.ascii	"pos_y1\000"
 17975      793100
 17976              	.LASF112:
 17977 0433 706F735F 		.ascii	"pos_y2\000"
 17977      793200
 17978              	.LASF30:
 17979 043a 504F5254 		.ascii	"PORTRAIT_INVERTED\000"
 17979      52414954 
 17979      5F494E56 
 17979      45525445 
 17979      4400
 17980              	.LASF68:
 17981 044c 636F6C5F 		.ascii	"col_n\000"
 17981      6E00
 17982              	.LASF6:
ARM GAS  C:\Users\arist\AppData\Local\Temp\ccSjK9zC.s 			page 349


 17983 0452 73686F72 		.ascii	"short int\000"
 17983      7420696E 
 17983      7400
 17984              	.LASF62:
 17985 045c 785F6469 		.ascii	"x_division\000"
 17985      76697369 
 17985      6F6E00
 17986              	.LASF9:
 17987 0467 6C6F6E67 		.ascii	"long int\000"
 17987      20696E74 
 17987      00
 17988              	.LASF91:
 17989 0470 74656D70 		.ascii	"temp\000"
 17989      00
 17990              	.LASF139:
 17991 0475 666F6E74 		.ascii	"font_m\000"
 17991      5F6D00
 17992              	.LASF79:
 17993 047c 73746172 		.ascii	"start_byte_ptr\000"
 17993      745F6279 
 17993      74655F70 
 17993      747200
 17994              	.LASF22:
 17995 048b 636F6C6F 		.ascii	"color\000"
 17995      7200
 17996              	.LASF25:
 17997 0491 494E5645 		.ascii	"INVERTED\000"
 17997      52544544 
 17997      00
 17998              	.LASF3:
 17999 049a 5F5F7569 		.ascii	"__uint8_t\000"
 17999      6E74385F 
 17999      7400
 18000              	.LASF34:
 18001 04a4 62797465 		.ascii	"byte_col_cnt\000"
 18001      5F636F6C 
 18001      5F636E74 
 18001      00
 18002              	.LASF128:
 18003 04b1 75706461 		.ascii	"update_LINE\000"
 18003      74655F4C 
 18003      494E4500 
 18004              	.LASF98:
 18005 04bd 73746172 		.ascii	"startx_ptr\000"
 18005      74785F70 
 18005      747200
 18006              	.LASF113:
 18007 04c8 66697273 		.ascii	"firstx\000"
 18007      747800
 18008              	.LASF115:
 18009 04cf 66697273 		.ascii	"firsty\000"
 18009      747900
 18010              	.LASF82:
 18011 04d6 7075745F 		.ascii	"put_pixel\000"
 18011      70697865 
 18011      6C00
 18012              	.LASF54:
ARM GAS  C:\Users\arist\AppData\Local\Temp\ccSjK9zC.s 			page 350


 18013 04e0 6E5F656E 		.ascii	"n_ent\000"
 18013      7400
 18014              	.LASF101:
 18015 04e6 656E6479 		.ascii	"endy_ptr\000"
 18015      5F707472 
 18015      00
 18016              	.LASF102:
 18017 04ef 6E5F7769 		.ascii	"n_width\000"
 18017      64746800 
 18018              	.LASF143:
 18019 04f7 6D656D6D 		.ascii	"memmove\000"
 18019      6F766500 
 18020              	.LASF19:
 18021 04ff 73697A65 		.ascii	"sizetype\000"
 18021      74797065 
 18021      00
 18022              	.LASF10:
 18023 0508 6C6F6E67 		.ascii	"long unsigned int\000"
 18023      20756E73 
 18023      69676E65 
 18023      6420696E 
 18023      7400
 18024              	.LASF95:
 18025 051a 785F6F66 		.ascii	"x_offset\000"
 18025      66736574 
 18025      00
 18026              	.LASF108:
 18027 0523 7075745F 		.ascii	"put_line\000"
 18027      6C696E65 
 18027      00
 18028              	.LASF46:
 18029 052c 626F6479 		.ascii	"body\000"
 18029      00
 18030              	.LASF51:
 18031 0531 63686172 		.ascii	"chart_type\000"
 18031      745F7479 
 18031      706500
 18032              	.LASF127:
 18033 053c 75706461 		.ascii	"update_BAR\000"
 18033      74655F42 
 18033      415200
 18034              	.LASF56:
 18035 0547 74797065 		.ascii	"type\000"
 18035      00
 18036              	.LASF4:
 18037 054c 756E7369 		.ascii	"unsigned char\000"
 18037      676E6564 
 18037      20636861 
 18037      7200
 18038              	.LASF107:
 18039 055a 63616C63 		.ascii	"calculate_y\000"
 18039      756C6174 
 18039      655F7900 
 18040              	.LASF130:
 18041 0566 6F6C645F 		.ascii	"old_data\000"
 18041      64617461 
 18041      00
ARM GAS  C:\Users\arist\AppData\Local\Temp\ccSjK9zC.s 			page 351


 18042              	.LASF123:
 18043 056f 7075745F 		.ascii	"put_triangle\000"
 18043      74726961 
 18043      6E676C65 
 18043      00
 18044              	.LASF137:
 18045 057c 666F6E74 		.ascii	"font_width\000"
 18045      5F776964 
 18045      746800
 18046              	.LASF29:
 18047 0587 504F5254 		.ascii	"PORTRAIT\000"
 18047      52414954 
 18047      00
 18048              	.LASF60:
 18049 0590 6D61785F 		.ascii	"max_x\000"
 18049      7800
 18050              	.LASF1:
 18051 0596 7369676E 		.ascii	"signed char\000"
 18051      65642063 
 18051      68617200 
 18052              	.LASF36:
 18053 05a2 6F726965 		.ascii	"orient\000"
 18053      6E7400
 18054              	.LASF8:
 18055 05a9 73686F72 		.ascii	"short unsigned int\000"
 18055      7420756E 
 18055      7369676E 
 18055      65642069 
 18055      6E7400
 18056              	.LASF72:
 18057 05bc 706F735F 		.ascii	"pos_x\000"
 18057      7800
 18058              	.LASF73:
 18059 05c2 706F735F 		.ascii	"pos_y\000"
 18059      7900
 18060              	.LASF49:
 18061 05c8 4D454449 		.ascii	"MEDIUM\000"
 18061      554D00
 18062              	.LASF35:
 18063 05cf 62797465 		.ascii	"byte_buffer_cnt\000"
 18063      5F627566 
 18063      6665725F 
 18063      636E7400 
 18064              	.LASF134:
 18065 05df 75706461 		.ascii	"update_chart\000"
 18065      74655F63 
 18065      68617274 
 18065      00
 18066              	.LASF39:
 18067 05ec 76696465 		.ascii	"video_buffer\000"
 18067      6F5F6275 
 18067      66666572 
 18067      00
 18068              	.LASF148:
 18069 05f9 453A5C43 		.ascii	"E:\\Condivisa\\ATTECH\\UTILITY Dep\\PCB-OVEN\\PCB-O"
 18069      6F6E6469 
 18069      76697361 
ARM GAS  C:\Users\arist\AppData\Local\Temp\ccSjK9zC.s 			page 352


 18069      5C415454 
 18069      4543485C 
 18070 0627 56454E5C 		.ascii	"VEN\\PSOC\\PCB oven controller.cydsn\000"
 18070      50534F43 
 18070      5C504342 
 18070      206F7665 
 18070      6E20636F 
 18071              	.LASF122:
 18072 064a 7075745F 		.ascii	"put_rect\000"
 18072      72656374 
 18072      00
 18073              	.LASF129:
 18074 0653 76616C75 		.ascii	"value\000"
 18074      6500
 18075              	.LASF77:
 18076 0659 7662635F 		.ascii	"vbc_body_byte\000"
 18076      626F6479 
 18076      5F627974 
 18076      6500
 18077              		.ident	"GCC: (GNU Tools for ARM Embedded Processors) 5.4.1 20160609 (release) [ARM/embedded-5-bran
