ARM GAS  C:\Users\arist\AppData\Local\Temp\ccZJ6CET.s 			page 1


   1              		.syntax unified
   2              		.cpu cortex-m3
   3              		.fpu softvfp
   4              		.eabi_attribute 20, 1
   5              		.eabi_attribute 21, 1
   6              		.eabi_attribute 23, 3
   7              		.eabi_attribute 24, 1
   8              		.eabi_attribute 25, 1
   9              		.eabi_attribute 26, 1
  10              		.eabi_attribute 30, 1
  11              		.eabi_attribute 34, 1
  12              		.eabi_attribute 18, 4
  13              		.thumb
  14              		.syntax unified
  15              		.file	"psoc5_ssd1306_i2c.c"
  16              		.text
  17              	.Ltext0:
  18              		.cfi_sections	.debug_frame
  19              		.section	.text.write_buf,"ax",%progbits
  20              		.align	2
  21              		.thumb
  22              		.thumb_func
  23              		.type	write_buf, %function
  24              	write_buf:
  25              	.LFB2:
  26              		.file 1 "display\\driver\\psoc5_ssd1306_i2c.c"
   1:display\driver/psoc5_ssd1306_i2c.c **** /*
   2:display\driver/psoc5_ssd1306_i2c.c **** * Adjust write_buf() function according to your project names
   3:display\driver/psoc5_ssd1306_i2c.c **** * Kiriaus 15/7/22
   4:display\driver/psoc5_ssd1306_i2c.c **** */
   5:display\driver/psoc5_ssd1306_i2c.c **** 
   6:display\driver/psoc5_ssd1306_i2c.c **** #include "psoc5_ssd1306_i2c.h"
   7:display\driver/psoc5_ssd1306_i2c.c **** #include "project.h"
   8:display\driver/psoc5_ssd1306_i2c.c **** 
   9:display\driver/psoc5_ssd1306_i2c.c **** static uint8 _i2caddr; 
  10:display\driver/psoc5_ssd1306_i2c.c **** 
  11:display\driver/psoc5_ssd1306_i2c.c **** static uint32_t write_buf( uint8_t * buf, uint16_t size ); 
  12:display\driver/psoc5_ssd1306_i2c.c **** 
  13:display\driver/psoc5_ssd1306_i2c.c **** void init_display( uint8_t addr ){
  14:display\driver/psoc5_ssd1306_i2c.c ****    
  15:display\driver/psoc5_ssd1306_i2c.c ****     _i2caddr = addr;
  16:display\driver/psoc5_ssd1306_i2c.c ****     
  17:display\driver/psoc5_ssd1306_i2c.c ****     uint8_t cmdbuf[] = {
  18:display\driver/psoc5_ssd1306_i2c.c ****         0x00,
  19:display\driver/psoc5_ssd1306_i2c.c ****         SSD1306_DISPLAYOFF,
  20:display\driver/psoc5_ssd1306_i2c.c ****         SSD1306_SETDISPLAYCLOCKDIV,
  21:display\driver/psoc5_ssd1306_i2c.c ****         0x80,
  22:display\driver/psoc5_ssd1306_i2c.c ****         SSD1306_SETMULTIPLEX,
  23:display\driver/psoc5_ssd1306_i2c.c ****         0x3f,
  24:display\driver/psoc5_ssd1306_i2c.c ****         SSD1306_SETDISPLAYOFFSET,
  25:display\driver/psoc5_ssd1306_i2c.c ****         0x00,
  26:display\driver/psoc5_ssd1306_i2c.c ****         SSD1306_SETSTARTLINE | 0x0,
  27:display\driver/psoc5_ssd1306_i2c.c ****         SSD1306_CHARGEPUMP,
  28:display\driver/psoc5_ssd1306_i2c.c ****         0x14,
  29:display\driver/psoc5_ssd1306_i2c.c ****         SSD1306_MEMORYMODE,
  30:display\driver/psoc5_ssd1306_i2c.c ****         0x00,
  31:display\driver/psoc5_ssd1306_i2c.c ****         SSD1306_SEGREMAP | 0x01,
ARM GAS  C:\Users\arist\AppData\Local\Temp\ccZJ6CET.s 			page 2


  32:display\driver/psoc5_ssd1306_i2c.c ****         SSD1306_COMSCANDEC,
  33:display\driver/psoc5_ssd1306_i2c.c ****         SSD1306_SETCOMPINS,
  34:display\driver/psoc5_ssd1306_i2c.c ****         0x12,
  35:display\driver/psoc5_ssd1306_i2c.c ****         SSD1306_SETCONTRAST,
  36:display\driver/psoc5_ssd1306_i2c.c ****         0xcf,
  37:display\driver/psoc5_ssd1306_i2c.c ****         SSD1306_SETPRECHARGE,
  38:display\driver/psoc5_ssd1306_i2c.c ****         0xf1,
  39:display\driver/psoc5_ssd1306_i2c.c ****         SSD1306_SETVCOMDETECT,
  40:display\driver/psoc5_ssd1306_i2c.c ****         0x40,
  41:display\driver/psoc5_ssd1306_i2c.c ****         SSD1306_DISPLAYALLON_RESUME,
  42:display\driver/psoc5_ssd1306_i2c.c ****         SSD1306_NORMALDISPLAY,
  43:display\driver/psoc5_ssd1306_i2c.c ****         SSD1306_DISPLAYON
  44:display\driver/psoc5_ssd1306_i2c.c ****     };
  45:display\driver/psoc5_ssd1306_i2c.c ****     
  46:display\driver/psoc5_ssd1306_i2c.c ****     write_buf( cmdbuf, sizeof(cmdbuf) ); 
  47:display\driver/psoc5_ssd1306_i2c.c **** }
  48:display\driver/psoc5_ssd1306_i2c.c **** 
  49:display\driver/psoc5_ssd1306_i2c.c **** void update_display(video_buffer *buf){
  50:display\driver/psoc5_ssd1306_i2c.c ****     
  51:display\driver/psoc5_ssd1306_i2c.c ****     uint8_t bit = 0;  
  52:display\driver/psoc5_ssd1306_i2c.c ****     uint8_t new_col = 0;
  53:display\driver/psoc5_ssd1306_i2c.c **** 
  54:display\driver/psoc5_ssd1306_i2c.c ****     uint8_t SSD1306_buffer[buf->byte_buffer_cnt + 1];
  55:display\driver/psoc5_ssd1306_i2c.c ****     
  56:display\driver/psoc5_ssd1306_i2c.c ****     uint8 cmdbuf[] = {
  57:display\driver/psoc5_ssd1306_i2c.c ****         0x00,
  58:display\driver/psoc5_ssd1306_i2c.c ****         SSD1306_COLUMNADDR,
  59:display\driver/psoc5_ssd1306_i2c.c ****         0,                      // start
  60:display\driver/psoc5_ssd1306_i2c.c ****         buf->size_x - 1, // end
  61:display\driver/psoc5_ssd1306_i2c.c ****         SSD1306_PAGEADDR,
  62:display\driver/psoc5_ssd1306_i2c.c ****         0,                      // start
  63:display\driver/psoc5_ssd1306_i2c.c ****         buf->size_y/8 - 1                       // end
  64:display\driver/psoc5_ssd1306_i2c.c ****     };
  65:display\driver/psoc5_ssd1306_i2c.c **** 
  66:display\driver/psoc5_ssd1306_i2c.c ****     write_buf( cmdbuf, sizeof(cmdbuf) ); 
  67:display\driver/psoc5_ssd1306_i2c.c **** 
  68:display\driver/psoc5_ssd1306_i2c.c ****     SSD1306_buffer[0] = 0x40;
  69:display\driver/psoc5_ssd1306_i2c.c ****     
  70:display\driver/psoc5_ssd1306_i2c.c ****     int p = 1;
  71:display\driver/psoc5_ssd1306_i2c.c ****         
  72:display\driver/psoc5_ssd1306_i2c.c ****     //madness to adapt from vid_buffer structure to display structure;
  73:display\driver/psoc5_ssd1306_i2c.c ****     for(uint16_t page = 0; page<8; page++){
  74:display\driver/psoc5_ssd1306_i2c.c ****         
  75:display\driver/psoc5_ssd1306_i2c.c ****         for(uint8_t k = 0; k < 16; k++){    
  76:display\driver/psoc5_ssd1306_i2c.c ****             for(uint8_t i = 0; i < 8; i++){ 
  77:display\driver/psoc5_ssd1306_i2c.c ****                 for (uint8_t j = 0; j < 8; j++) {
  78:display\driver/psoc5_ssd1306_i2c.c ****                     bit = (buf->vid_buf[(128*page)+(k + (j*buf->byte_col_cnt))] & (0b10000000 >> i)
  79:display\driver/psoc5_ssd1306_i2c.c ****                     new_col |= bit >> (8-j-1) ;
  80:display\driver/psoc5_ssd1306_i2c.c ****                     bit = 0;
  81:display\driver/psoc5_ssd1306_i2c.c ****                 } 
  82:display\driver/psoc5_ssd1306_i2c.c ****             SSD1306_buffer[p++] = new_col;
  83:display\driver/psoc5_ssd1306_i2c.c ****             new_col = 0;
  84:display\driver/psoc5_ssd1306_i2c.c ****             } 
  85:display\driver/psoc5_ssd1306_i2c.c ****         }
  86:display\driver/psoc5_ssd1306_i2c.c ****     }    
  87:display\driver/psoc5_ssd1306_i2c.c ****     
  88:display\driver/psoc5_ssd1306_i2c.c ****     write_buf( SSD1306_buffer, sizeof(SSD1306_buffer) );
ARM GAS  C:\Users\arist\AppData\Local\Temp\ccZJ6CET.s 			page 3


  89:display\driver/psoc5_ssd1306_i2c.c **** 
  90:display\driver/psoc5_ssd1306_i2c.c **** }
  91:display\driver/psoc5_ssd1306_i2c.c **** 
  92:display\driver/psoc5_ssd1306_i2c.c **** // for submitting command sequences:
  93:display\driver/psoc5_ssd1306_i2c.c **** //  buf[0] must be 0x00
  94:display\driver/psoc5_ssd1306_i2c.c **** // for submitting bulk data (writing to display RAM):
  95:display\driver/psoc5_ssd1306_i2c.c **** //  buf[0] must be 0x40
  96:display\driver/psoc5_ssd1306_i2c.c **** static uint32_t write_buf( uint8_t * buf, uint16_t size ){
  27              		.loc 1 96 0
  28              		.cfi_startproc
  29              		@ args = 0, pretend = 0, frame = 0
  30              		@ frame_needed = 0, uses_anonymous_args = 0
  31              	.LVL0:
  32 0000 F8B5     		push	{r3, r4, r5, r6, r7, lr}
  33              		.cfi_def_cfa_offset 24
  34              		.cfi_offset 3, -24
  35              		.cfi_offset 4, -20
  36              		.cfi_offset 5, -16
  37              		.cfi_offset 6, -12
  38              		.cfi_offset 7, -8
  39              		.cfi_offset 14, -4
  40 0002 0746     		mov	r7, r0
  41 0004 0E46     		mov	r6, r1
  42              	.LVL1:
  97:display\driver/psoc5_ssd1306_i2c.c **** 
  98:display\driver/psoc5_ssd1306_i2c.c ****     uint32_t status = TRANSFER_ERROR;
  99:display\driver/psoc5_ssd1306_i2c.c ****     oled_MasterSendStart(_i2caddr,oled_WRITE_XFER_MODE);
  43              		.loc 1 99 0
  44 0006 0021     		movs	r1, #0
  45              	.LVL2:
  46 0008 084B     		ldr	r3, .L5
  47 000a 1878     		ldrb	r0, [r3]	@ zero_extendqisi2
  48              	.LVL3:
  49 000c FFF7FEFF 		bl	oled_MasterSendStart
  50              	.LVL4:
  51              	.LBB2:
 100:display\driver/psoc5_ssd1306_i2c.c ****     
 101:display\driver/psoc5_ssd1306_i2c.c ****     for(int i=0; i<size; i++){  
  52              		.loc 1 101 0
  53 0010 0024     		movs	r4, #0
  54              	.LBE2:
  98:display\driver/psoc5_ssd1306_i2c.c ****     oled_MasterSendStart(_i2caddr,oled_WRITE_XFER_MODE);
  55              		.loc 1 98 0
  56 0012 FF25     		movs	r5, #255
  57              	.LBB3:
  58              		.loc 1 101 0
  59 0014 04E0     		b	.L2
  60              	.LVL5:
  61              	.L3:
 102:display\driver/psoc5_ssd1306_i2c.c ****         status=oled_MasterWriteByte(buf[i]);
  62              		.loc 1 102 0 discriminator 3
  63 0016 385D     		ldrb	r0, [r7, r4]	@ zero_extendqisi2
  64 0018 FFF7FEFF 		bl	oled_MasterWriteByte
  65              	.LVL6:
  66 001c 0546     		mov	r5, r0
  67              	.LVL7:
 101:display\driver/psoc5_ssd1306_i2c.c ****         status=oled_MasterWriteByte(buf[i]);
ARM GAS  C:\Users\arist\AppData\Local\Temp\ccZJ6CET.s 			page 4


  68              		.loc 1 101 0 discriminator 3
  69 001e 0134     		adds	r4, r4, #1
  70              	.LVL8:
  71              	.L2:
 101:display\driver/psoc5_ssd1306_i2c.c ****         status=oled_MasterWriteByte(buf[i]);
  72              		.loc 1 101 0 is_stmt 0 discriminator 1
  73 0020 B442     		cmp	r4, r6
  74 0022 F8DB     		blt	.L3
  75              	.LBE3:
 103:display\driver/psoc5_ssd1306_i2c.c ****     }
 104:display\driver/psoc5_ssd1306_i2c.c ****     oled_MasterSendStop();
  76              		.loc 1 104 0 is_stmt 1
  77 0024 FFF7FEFF 		bl	oled_MasterSendStop
  78              	.LVL9:
 105:display\driver/psoc5_ssd1306_i2c.c ****     return status;
 106:display\driver/psoc5_ssd1306_i2c.c **** }...
  79              		.loc 1 106 0
  80 0028 2846     		mov	r0, r5
  81 002a F8BD     		pop	{r3, r4, r5, r6, r7, pc}
  82              	.LVL10:
  83              	.L6:
  84              		.align	2
  85              	.L5:
  86 002c 00000000 		.word	.LANCHOR0
  87              		.cfi_endproc
  88              	.LFE2:
  89              		.size	write_buf, .-write_buf
  90              		.section	.text.init_display,"ax",%progbits
  91              		.align	2
  92              		.global	init_display
  93              		.thumb
  94              		.thumb_func
  95              		.type	init_display, %function
  96              	init_display:
  97              	.LFB0:
  13:display\driver/psoc5_ssd1306_i2c.c **** void init_display( uint8_t addr ){
  98              		.loc 1 13 0
  99              		.cfi_startproc
 100              		@ args = 0, pretend = 0, frame = 32
 101              		@ frame_needed = 0, uses_anonymous_args = 0
 102              	.LVL11:
 103 0000 30B5     		push	{r4, r5, lr}
 104              		.cfi_def_cfa_offset 12
 105              		.cfi_offset 4, -12
 106              		.cfi_offset 5, -8
 107              		.cfi_offset 14, -4
 108 0002 89B0     		sub	sp, sp, #36
 109              		.cfi_def_cfa_offset 48
  15:display\driver/psoc5_ssd1306_i2c.c ****     _i2caddr = addr;
 110              		.loc 1 15 0
 111 0004 094B     		ldr	r3, .L9
 112 0006 1870     		strb	r0, [r3]
  17:display\driver/psoc5_ssd1306_i2c.c ****     uint8_t cmdbuf[] = {
 113              		.loc 1 17 0
 114 0008 094D     		ldr	r5, .L9+4
 115 000a 01AC     		add	r4, sp, #4
 116 000c 2868     		ldr	r0, [r5]	@ unaligned
ARM GAS  C:\Users\arist\AppData\Local\Temp\ccZJ6CET.s 			page 5


 117              	.LVL12:
 118 000e 6968     		ldr	r1, [r5, #4]	@ unaligned
 119 0010 AA68     		ldr	r2, [r5, #8]	@ unaligned
 120 0012 EB68     		ldr	r3, [r5, #12]	@ unaligned
 121 0014 0FC4     		stmia	r4!, {r0, r1, r2, r3}
 122 0016 2869     		ldr	r0, [r5, #16]	@ unaligned
 123 0018 6969     		ldr	r1, [r5, #20]	@ unaligned
 124 001a 03C4     		stmia	r4!, {r0, r1}
 125 001c 2B8B     		ldrh	r3, [r5, #24]	@ unaligned
 126 001e 2380     		strh	r3, [r4]	@ unaligned
  46:display\driver/psoc5_ssd1306_i2c.c ****     write_buf( cmdbuf, sizeof(cmdbuf) ); 
 127              		.loc 1 46 0
 128 0020 1A21     		movs	r1, #26
 129 0022 01A8     		add	r0, sp, #4
 130 0024 FFF7FEFF 		bl	write_buf
 131              	.LVL13:
  47:display\driver/psoc5_ssd1306_i2c.c **** }
 132              		.loc 1 47 0
 133 0028 09B0     		add	sp, sp, #36
 134              		.cfi_def_cfa_offset 12
 135              		@ sp needed
 136 002a 30BD     		pop	{r4, r5, pc}
 137              	.L10:
 138              		.align	2
 139              	.L9:
 140 002c 00000000 		.word	.LANCHOR0
 141 0030 00000000 		.word	.LANCHOR1
 142              		.cfi_endproc
 143              	.LFE0:
 144              		.size	init_display, .-init_display
 145              		.section	.text.update_display,"ax",%progbits
 146              		.align	2
 147              		.global	update_display
 148              		.thumb
 149              		.thumb_func
 150              		.type	update_display, %function
 151              	update_display:
 152              	.LFB1:
  49:display\driver/psoc5_ssd1306_i2c.c **** void update_display(video_buffer *buf){
 153              		.loc 1 49 0
 154              		.cfi_startproc
 155              		@ args = 0, pretend = 0, frame = 8
 156              		@ frame_needed = 1, uses_anonymous_args = 0
 157              	.LVL14:
 158 0000 2DE9F043 		push	{r4, r5, r6, r7, r8, r9, lr}
 159              		.cfi_def_cfa_offset 28
 160              		.cfi_offset 4, -28
 161              		.cfi_offset 5, -24
 162              		.cfi_offset 6, -20
 163              		.cfi_offset 7, -16
 164              		.cfi_offset 8, -12
 165              		.cfi_offset 9, -8
 166              		.cfi_offset 14, -4
 167 0004 83B0     		sub	sp, sp, #12
 168              		.cfi_def_cfa_offset 40
 169 0006 00AF     		add	r7, sp, #0
 170              		.cfi_def_cfa_register 7
ARM GAS  C:\Users\arist\AppData\Local\Temp\ccZJ6CET.s 			page 6


 171 0008 0446     		mov	r4, r0
 172              	.LVL15:
  54:display\driver/psoc5_ssd1306_i2c.c ****     uint8_t SSD1306_buffer[buf->byte_buffer_cnt + 1];
 173              		.loc 1 54 0
 174 000a 4389     		ldrh	r3, [r0, #10]
 175 000c 5E1C     		adds	r6, r3, #1
 176              	.LVL16:
 177 000e 0833     		adds	r3, r3, #8
 178              	.LVL17:
 179 0010 23F00703 		bic	r3, r3, #7
 180              	.LVL18:
 181 0014 ADEB030D 		sub	sp, sp, r3
 182 0018 6D46     		mov	r5, sp
 183              	.LVL19:
  56:display\driver/psoc5_ssd1306_i2c.c ****     uint8 cmdbuf[] = {
 184              		.loc 1 56 0
 185 001a 4FF00008 		mov	r8, #0
 186 001e 87F80080 		strb	r8, [r7]
 187 0022 2123     		movs	r3, #33
 188 0024 7B70     		strb	r3, [r7, #1]
 189 0026 87F80280 		strb	r8, [r7, #2]
  60:display\driver/psoc5_ssd1306_i2c.c ****         buf->size_x - 1, // end
 190              		.loc 1 60 0
 191 002a 0378     		ldrb	r3, [r0]	@ zero_extendqisi2
  56:display\driver/psoc5_ssd1306_i2c.c ****     uint8 cmdbuf[] = {
 192              		.loc 1 56 0
 193 002c 013B     		subs	r3, r3, #1
 194 002e FB70     		strb	r3, [r7, #3]
 195 0030 2223     		movs	r3, #34
 196 0032 3B71     		strb	r3, [r7, #4]
 197 0034 87F80580 		strb	r8, [r7, #5]
  63:display\driver/psoc5_ssd1306_i2c.c ****         buf->size_y/8 - 1                       // end
 198              		.loc 1 63 0
 199 0038 4378     		ldrb	r3, [r0, #1]	@ zero_extendqisi2
  56:display\driver/psoc5_ssd1306_i2c.c ****     uint8 cmdbuf[] = {
 200              		.loc 1 56 0
 201 003a DB08     		lsrs	r3, r3, #3
 202 003c 013B     		subs	r3, r3, #1
 203 003e BB71     		strb	r3, [r7, #6]
  66:display\driver/psoc5_ssd1306_i2c.c ****     write_buf( cmdbuf, sizeof(cmdbuf) ); 
 204              		.loc 1 66 0
 205 0040 0721     		movs	r1, #7
 206 0042 3846     		mov	r0, r7
 207              	.LVL20:
 208 0044 FFF7FEFF 		bl	write_buf
 209              	.LVL21:
  68:display\driver/psoc5_ssd1306_i2c.c ****     SSD1306_buffer[0] = 0x40;
 210              		.loc 1 68 0
 211 0048 4023     		movs	r3, #64
 212 004a 8DF80030 		strb	r3, [sp]
 213              	.LVL22:
 214              	.LBB4:
  73:display\driver/psoc5_ssd1306_i2c.c ****     for(uint16_t page = 0; page<8; page++){
 215              		.loc 1 73 0
 216 004e C446     		mov	ip, r8
 217              	.LBE4:
  70:display\driver/psoc5_ssd1306_i2c.c ****     int p = 1;
ARM GAS  C:\Users\arist\AppData\Local\Temp\ccZJ6CET.s 			page 7


 218              		.loc 1 70 0
 219 0050 4FF00108 		mov	r8, #1
 220              	.LBB11:
  73:display\driver/psoc5_ssd1306_i2c.c ****     for(uint16_t page = 0; page<8; page++){
 221              		.loc 1 73 0
 222 0054 33E0     		b	.L12
 223              	.LVL23:
 224              	.L13:
 225              	.LBB5:
 226              	.LBB6:
 227              	.LBB7:
  78:display\driver/psoc5_ssd1306_i2c.c ****                     bit = (buf->vid_buf[(128*page)+(k + (j*buf->byte_col_cnt))] & (0b10000000 >> i)
 228              		.loc 1 78 0 discriminator 3
 229 0056 6268     		ldr	r2, [r4, #4]
 230 0058 94F80890 		ldrb	r9, [r4, #8]	@ zero_extendqisi2
 231 005c 01FB09E9 		mla	r9, r1, r9, lr
 232 0060 09EBCC19 		add	r9, r9, ip, lsl #7
 233 0064 12F80990 		ldrb	r9, [r2, r9]	@ zero_extendqisi2
 234 0068 8022     		movs	r2, #128
 235 006a 0241     		asrs	r2, r2, r0
 236 006c 09EA0202 		and	r2, r9, r2
 237 0070 8240     		lsls	r2, r2, r0
 238              	.LVL24:
  79:display\driver/psoc5_ssd1306_i2c.c ****                     new_col |= bit >> (8-j-1) ;
 239              		.loc 1 79 0 discriminator 3
 240 0072 C1F10709 		rsb	r9, r1, #7
 241 0076 D2B2     		uxtb	r2, r2
 242 0078 42FA09F2 		asr	r2, r2, r9
 243              	.LVL25:
 244 007c 1343     		orrs	r3, r3, r2
 245              	.LVL26:
 246 007e DBB2     		uxtb	r3, r3
 247              	.LVL27:
  77:display\driver/psoc5_ssd1306_i2c.c ****                 for (uint8_t j = 0; j < 8; j++) {
 248              		.loc 1 77 0 discriminator 3
 249 0080 0131     		adds	r1, r1, #1
 250              	.LVL28:
 251 0082 C9B2     		uxtb	r1, r1
 252              	.LVL29:
 253 0084 01E0     		b	.L14
 254              	.LVL30:
 255              	.L17:
 256              	.LBE7:
 257 0086 0021     		movs	r1, #0
 258 0088 0B46     		mov	r3, r1
 259              	.LVL31:
 260              	.L14:
 261              	.LBB8:
  77:display\driver/psoc5_ssd1306_i2c.c ****                 for (uint8_t j = 0; j < 8; j++) {
 262              		.loc 1 77 0 is_stmt 0 discriminator 1
 263 008a 0729     		cmp	r1, #7
 264 008c E3D9     		bls	.L13
 265              	.LVL32:
 266              	.LBE8:
  82:display\driver/psoc5_ssd1306_i2c.c ****             SSD1306_buffer[p++] = new_col;
 267              		.loc 1 82 0 is_stmt 1 discriminator 2
 268 008e 05F80830 		strb	r3, [r5, r8]
ARM GAS  C:\Users\arist\AppData\Local\Temp\ccZJ6CET.s 			page 8


 269              	.LVL33:
  76:display\driver/psoc5_ssd1306_i2c.c ****             for(uint8_t i = 0; i < 8; i++){ 
 270              		.loc 1 76 0 discriminator 2
 271 0092 0130     		adds	r0, r0, #1
 272              	.LVL34:
 273 0094 C0B2     		uxtb	r0, r0
 274              	.LVL35:
  82:display\driver/psoc5_ssd1306_i2c.c ****             SSD1306_buffer[p++] = new_col;
 275              		.loc 1 82 0 discriminator 2
 276 0096 08F10108 		add	r8, r8, #1
 277              	.LVL36:
 278 009a 00E0     		b	.L15
 279              	.LVL37:
 280              	.L18:
 281              	.LBE6:
 282 009c 0020     		movs	r0, #0
 283              	.L15:
 284              	.LVL38:
 285              	.LBB9:
  76:display\driver/psoc5_ssd1306_i2c.c ****             for(uint8_t i = 0; i < 8; i++){ 
 286              		.loc 1 76 0 discriminator 1
 287 009e 0728     		cmp	r0, #7
 288 00a0 F1D9     		bls	.L17
 289              	.LBE9:
  75:display\driver/psoc5_ssd1306_i2c.c ****         for(uint8_t k = 0; k < 16; k++){    
 290              		.loc 1 75 0 discriminator 2
 291 00a2 0EF1010E 		add	lr, lr, #1
 292              	.LVL39:
 293 00a6 5FFA8EFE 		uxtb	lr, lr
 294              	.LVL40:
 295 00aa 01E0     		b	.L16
 296              	.LVL41:
 297              	.L19:
 298              	.LBE5:
 299 00ac 4FF0000E 		mov	lr, #0
 300              	.L16:
 301              	.LVL42:
 302              	.LBB10:
  75:display\driver/psoc5_ssd1306_i2c.c ****         for(uint8_t k = 0; k < 16; k++){    
 303              		.loc 1 75 0 is_stmt 0 discriminator 1
 304 00b0 BEF10F0F 		cmp	lr, #15
 305 00b4 F2D9     		bls	.L18
 306              	.LBE10:
  73:display\driver/psoc5_ssd1306_i2c.c ****     for(uint16_t page = 0; page<8; page++){
 307              		.loc 1 73 0 is_stmt 1 discriminator 2
 308 00b6 0CF1010C 		add	ip, ip, #1
 309              	.LVL43:
 310 00ba 1FFA8CFC 		uxth	ip, ip
 311              	.LVL44:
 312              	.L12:
  73:display\driver/psoc5_ssd1306_i2c.c ****     for(uint16_t page = 0; page<8; page++){
 313              		.loc 1 73 0 is_stmt 0 discriminator 1
 314 00be BCF1070F 		cmp	ip, #7
 315 00c2 F3D9     		bls	.L19
 316              	.LBE11:
  88:display\driver/psoc5_ssd1306_i2c.c ****     write_buf( SSD1306_buffer, sizeof(SSD1306_buffer) );
 317              		.loc 1 88 0 is_stmt 1
ARM GAS  C:\Users\arist\AppData\Local\Temp\ccZJ6CET.s 			page 9


 318 00c4 B1B2     		uxth	r1, r6
 319 00c6 2846     		mov	r0, r5
 320 00c8 FFF7FEFF 		bl	write_buf
 321              	.LVL45:
  90:display\driver/psoc5_ssd1306_i2c.c **** }
 322              		.loc 1 90 0
 323 00cc 0C37     		adds	r7, r7, #12
 324              		.cfi_def_cfa_offset 28
 325 00ce BD46     		mov	sp, r7
 326              		.cfi_def_cfa_register 13
 327              		@ sp needed
 328 00d0 BDE8F083 		pop	{r4, r5, r6, r7, r8, r9, pc}
 329              		.cfi_endproc
 330              	.LFE1:
 331              		.size	update_display, .-update_display
 332              		.section	.rodata
 333              		.align	2
 334              		.set	.LANCHOR1,. + 0
 335              	.LC0:
 336 0000 00       		.byte	0
 337 0001 AE       		.byte	-82
 338 0002 D5       		.byte	-43
 339 0003 80       		.byte	-128
 340 0004 A8       		.byte	-88
 341 0005 3F       		.byte	63
 342 0006 D3       		.byte	-45
 343 0007 00       		.byte	0
 344 0008 40       		.byte	64
 345 0009 8D       		.byte	-115
 346 000a 14       		.byte	20
 347 000b 20       		.byte	32
 348 000c 00       		.byte	0
 349 000d A1       		.byte	-95
 350 000e C8       		.byte	-56
 351 000f DA       		.byte	-38
 352 0010 12       		.byte	18
 353 0011 81       		.byte	-127
 354 0012 CF       		.byte	-49
 355 0013 D9       		.byte	-39
 356 0014 F1       		.byte	-15
 357 0015 DB       		.byte	-37
 358 0016 40       		.byte	64
 359 0017 A4       		.byte	-92
 360 0018 A6       		.byte	-90
 361 0019 AF       		.byte	-81
 362              		.bss
 363              		.set	.LANCHOR0,. + 0
 364              		.type	_i2caddr, %object
 365              		.size	_i2caddr, 1
 366              	_i2caddr:
 367 0000 00       		.space	1
 368              		.text
 369              	.Letext0:
 370              		.file 2 "c:\\program files (x86)\\cypress\\psoc creator\\4.4\\psoc creator\\import\\gnu\\arm\\5.4.
 371              		.file 3 "c:\\program files (x86)\\cypress\\psoc creator\\4.4\\psoc creator\\import\\gnu\\arm\\5.4.
 372              		.file 4 "c:\\users\\arist\\desktop\\geva\\geva.h"
 373              		.file 5 "Generated_Source\\PSoC5/cytypes.h"
ARM GAS  C:\Users\arist\AppData\Local\Temp\ccZJ6CET.s 			page 10


 374              		.file 6 "Generated_Source\\PSoC5/oled.h"