ARM GAS  C:\Users\arist\AppData\Local\Temp\ccSK2xlW.s 			page 1


   1              		.cpu cortex-m7
   2              		.arch armv7e-m
   3              		.fpu fpv5-sp-d16
   4              		.eabi_attribute 27, 1
   5              		.eabi_attribute 28, 1
   6              		.eabi_attribute 20, 1
   7              		.eabi_attribute 21, 1
   8              		.eabi_attribute 23, 3
   9              		.eabi_attribute 24, 1
  10              		.eabi_attribute 25, 1
  11              		.eabi_attribute 26, 1
  12              		.eabi_attribute 30, 1
  13              		.eabi_attribute 34, 1
  14              		.eabi_attribute 18, 4
  15              		.file	"GEVA.c"
  16              		.text
  17              	.Ltext0:
  18              		.cfi_sections	.debug_frame
  19              		.file 1 "Core/Src/GEVA.c"
  20              		.section	.text.set_mode,"ax",%progbits
  21              		.align	1
  22              		.global	set_mode
  23              		.syntax unified
  24              		.thumb
  25              		.thumb_func
  27              	set_mode:
  28              	.LVL0:
  29              	.LFB1:
   1:Core/Src/GEVA.c **** #include <string.h>
   2:Core/Src/GEVA.c **** #include "GEVA.h"
   3:Core/Src/GEVA.c **** #include "GEVA_font.h"
   4:Core/Src/GEVA.c **** 
   5:Core/Src/GEVA.c **** /*
   6:Core/Src/GEVA.c **** * TO-DO : better error handling
   7:Core/Src/GEVA.c **** */
   8:Core/Src/GEVA.c **** 
   9:Core/Src/GEVA.c **** //internal function
  10:Core/Src/GEVA.c **** uint8_t byte_col_cnt(uint8_t size_x);
  11:Core/Src/GEVA.c **** uint16_t buffer_byte_cnt(video_buffer* buf);
  12:Core/Src/GEVA.c **** uint16_t get_buffer_index(uint8_t pos_x, uint8_t pos_y, uint8_t row_byte_cnt);
  13:Core/Src/GEVA.c **** uint8_t* normalize_pos(uint8_t pos_x, uint8_t pos_y, video_buffer* buf);
  14:Core/Src/GEVA.c **** uint16_t* rotate_char(uint16_t *chr, video_buffer* buf);
  15:Core/Src/GEVA.c **** uint8_t calculate_y(uint8_t x, uint8_t x0, uint8_t x1, uint8_t y0, uint8_t y1);
  16:Core/Src/GEVA.c **** uint8_t modulo(int8_t n);
  17:Core/Src/GEVA.c **** uint16_t reverse_byte(uint16_t b);
  18:Core/Src/GEVA.c **** 
  19:Core/Src/GEVA.c **** uint8_t update_LINE(data_container* c, video_buffer* buf);
  20:Core/Src/GEVA.c **** uint8_t update_COL(data_container* c, video_buffer* buf);
  21:Core/Src/GEVA.c **** uint8_t update_BAR(data_container* c, video_buffer* buf);
  22:Core/Src/GEVA.c **** uint8_t update_SCATTER(data_container* c, video_buffer* buf);
  23:Core/Src/GEVA.c **** uint8_t update_XY(data_container* c, video_buffer* buf);
  24:Core/Src/GEVA.c **** 
  25:Core/Src/GEVA.c **** /*Initialize buffer memory
  26:Core/Src/GEVA.c **** * return error code
  27:Core/Src/GEVA.c **** * error code list:
  28:Core/Src/GEVA.c **** * 1 error allocating memory
  29:Core/Src/GEVA.c **** */
ARM GAS  C:\Users\arist\AppData\Local\Temp\ccSK2xlW.s 			page 2


  30:Core/Src/GEVA.c **** uint8_t init_buf(video_buffer *buf, uint8_t size_x, uint8_t size_y) {
  31:Core/Src/GEVA.c ****     uint8_t error = 0;
  32:Core/Src/GEVA.c ****     buf->size_x = size_x;
  33:Core/Src/GEVA.c ****     buf->size_y = size_y;
  34:Core/Src/GEVA.c ****     buf->byte_col_cnt = byte_col_cnt(size_x);
  35:Core/Src/GEVA.c ****     buf->byte_buffer_cnt = buffer_byte_cnt(buf);
  36:Core/Src/GEVA.c ****     buf->vid_buf = (uint8_t *)malloc(buf->byte_buffer_cnt);
  37:Core/Src/GEVA.c ****     
  38:Core/Src/GEVA.c ****     /*initialize default pointer values*/
  39:Core/Src/GEVA.c ****     buf->origin[0] = 0;
  40:Core/Src/GEVA.c ****     buf->origin[1] = 0;
  41:Core/Src/GEVA.c ****     buf->r_matrix[0] = 0;
  42:Core/Src/GEVA.c ****     buf->r_matrix[1] = 0;
  43:Core/Src/GEVA.c ****     buf->r_matrix[2] = 0;
  44:Core/Src/GEVA.c ****     buf->r_matrix[3] = 0;
  45:Core/Src/GEVA.c **** 
  46:Core/Src/GEVA.c ****     clr_buffer(buf);
  47:Core/Src/GEVA.c ****     set_mode(NORMAL, buf);
  48:Core/Src/GEVA.c ****     set_orientation(LANDSCAPE, buf);
  49:Core/Src/GEVA.c ****     return error;
  50:Core/Src/GEVA.c **** }
  51:Core/Src/GEVA.c **** 
  52:Core/Src/GEVA.c **** /* Set buffer mode between NORMAL and INVERTED and adjust buffer accordingly*/
  53:Core/Src/GEVA.c **** void set_mode(enum mode mode, video_buffer *buf) {
  30              		.loc 1 53 50 view -0
  31              		.cfi_startproc
  32              		@ args = 0, pretend = 0, frame = 0
  33              		@ frame_needed = 0, uses_anonymous_args = 0
  34              		@ link register save eliminated.
  54:Core/Src/GEVA.c ****     
  55:Core/Src/GEVA.c ****     buf->mode = mode;
  35              		.loc 1 55 5 view .LVU1
  36              		.loc 1 55 15 is_stmt 0 view .LVU2
  37 0000 0873     		strb	r0, [r1, #12]
  56:Core/Src/GEVA.c **** 
  57:Core/Src/GEVA.c ****     if (mode) {
  38              		.loc 1 57 5 is_stmt 1 view .LVU3
  39              		.loc 1 57 8 is_stmt 0 view .LVU4
  40 0002 50B9     		cbnz	r0, .L5
  41              	.LBB2:
  42 0004 7047     		bx	lr
  43              	.LVL1:
  44              	.L4:
  58:Core/Src/GEVA.c ****         for (uint16_t i = 0; i < buf->byte_buffer_cnt; i++) {
  59:Core/Src/GEVA.c ****             buf->vid_buf[i] = ~buf->vid_buf[i];
  45              		.loc 1 59 13 is_stmt 1 discriminator 3 view .LVU5
  46              		.loc 1 59 35 is_stmt 0 discriminator 3 view .LVU6
  47 0006 4868     		ldr	r0, [r1, #4]
  48              		.loc 1 59 44 discriminator 3 view .LVU7
  49 0008 C25C     		ldrb	r2, [r0, r3]	@ zero_extendqisi2
  50              		.loc 1 59 29 discriminator 3 view .LVU8
  51 000a D243     		mvns	r2, r2
  52 000c C254     		strb	r2, [r0, r3]
  58:Core/Src/GEVA.c ****         for (uint16_t i = 0; i < buf->byte_buffer_cnt; i++) {
  53              		.loc 1 58 57 is_stmt 1 discriminator 3 view .LVU9
  54 000e 0133     		adds	r3, r3, #1
  55              	.LVL2:
ARM GAS  C:\Users\arist\AppData\Local\Temp\ccSK2xlW.s 			page 3


  58:Core/Src/GEVA.c ****         for (uint16_t i = 0; i < buf->byte_buffer_cnt; i++) {
  56              		.loc 1 58 57 is_stmt 0 discriminator 3 view .LVU10
  57 0010 9BB2     		uxth	r3, r3
  58              	.LVL3:
  59              	.L2:
  58:Core/Src/GEVA.c ****         for (uint16_t i = 0; i < buf->byte_buffer_cnt; i++) {
  60              		.loc 1 58 32 is_stmt 1 discriminator 1 view .LVU11
  58:Core/Src/GEVA.c ****         for (uint16_t i = 0; i < buf->byte_buffer_cnt; i++) {
  61              		.loc 1 58 37 is_stmt 0 discriminator 1 view .LVU12
  62 0012 4A89     		ldrh	r2, [r1, #10]
  58:Core/Src/GEVA.c ****         for (uint16_t i = 0; i < buf->byte_buffer_cnt; i++) {
  63              		.loc 1 58 32 discriminator 1 view .LVU13
  64 0014 9A42     		cmp	r2, r3
  65 0016 F6D8     		bhi	.L4
  66              	.LBE2:
  60:Core/Src/GEVA.c ****         }
  61:Core/Src/GEVA.c ****     }
  62:Core/Src/GEVA.c **** }
  67              		.loc 1 62 1 view .LVU14
  68 0018 7047     		bx	lr
  69              	.LVL4:
  70              	.L5:
  71              	.LBB3:
  58:Core/Src/GEVA.c ****         for (uint16_t i = 0; i < buf->byte_buffer_cnt; i++) {
  72              		.loc 1 58 23 view .LVU15
  73 001a 0023     		movs	r3, #0
  74 001c F9E7     		b	.L2
  75              	.LBE3:
  76              		.cfi_endproc
  77              	.LFE1:
  79              		.section	.text.set_orientation,"ax",%progbits
  80              		.align	1
  81              		.global	set_orientation
  82              		.syntax unified
  83              		.thumb
  84              		.thumb_func
  86              	set_orientation:
  87              	.LVL5:
  88              	.LFB2:
  63:Core/Src/GEVA.c **** 
  64:Core/Src/GEVA.c **** /* Adjust rotation matrix according to orientation */
  65:Core/Src/GEVA.c **** void set_orientation(enum orientation o, video_buffer* buf) {
  89              		.loc 1 65 61 is_stmt 1 view -0
  90              		.cfi_startproc
  91              		@ args = 0, pretend = 0, frame = 0
  92              		@ frame_needed = 0, uses_anonymous_args = 0
  93              		@ link register save eliminated.
  66:Core/Src/GEVA.c ****     
  67:Core/Src/GEVA.c ****     buf->orient = o;
  94              		.loc 1 67 5 view .LVU17
  95              		.loc 1 67 17 is_stmt 0 view .LVU18
  96 0000 4873     		strb	r0, [r1, #13]
  68:Core/Src/GEVA.c ****     switch (o) {
  97              		.loc 1 68 5 is_stmt 1 view .LVU19
  98 0002 0328     		cmp	r0, #3
  99 0004 31D8     		bhi	.L7
 100 0006 DFE800F0 		tbb	[pc, r0]
ARM GAS  C:\Users\arist\AppData\Local\Temp\ccSK2xlW.s 			page 4


 101              	.L9:
 102 000a 02       		.byte	(.L12-.L9)/2
 103 000b 17       		.byte	(.L11-.L9)/2
 104 000c 0B       		.byte	(.L10-.L9)/2
 105 000d 24       		.byte	(.L8-.L9)/2
 106              		.p2align 1
 107              	.L12:
  69:Core/Src/GEVA.c **** 
  70:Core/Src/GEVA.c ****     case LANDSCAPE:
  71:Core/Src/GEVA.c ****         buf->origin[X] = 0;
 108              		.loc 1 71 9 view .LVU20
 109              		.loc 1 71 24 is_stmt 0 view .LVU21
 110 000e 0023     		movs	r3, #0
 111 0010 8B73     		strb	r3, [r1, #14]
  72:Core/Src/GEVA.c ****         buf->origin[Y] = 0;
 112              		.loc 1 72 9 is_stmt 1 view .LVU22
 113              		.loc 1 72 24 is_stmt 0 view .LVU23
 114 0012 CB73     		strb	r3, [r1, #15]
  73:Core/Src/GEVA.c ****         buf->r_matrix[_A] = 1;
 115              		.loc 1 73 9 is_stmt 1 view .LVU24
 116              		.loc 1 73 27 is_stmt 0 view .LVU25
 117 0014 0122     		movs	r2, #1
 118 0016 0A74     		strb	r2, [r1, #16]
  74:Core/Src/GEVA.c ****         buf->r_matrix[_B] = 0;
 119              		.loc 1 74 9 is_stmt 1 view .LVU26
 120              		.loc 1 74 27 is_stmt 0 view .LVU27
 121 0018 4B74     		strb	r3, [r1, #17]
  75:Core/Src/GEVA.c ****         buf->r_matrix[_C] = 0;
 122              		.loc 1 75 9 is_stmt 1 view .LVU28
 123              		.loc 1 75 27 is_stmt 0 view .LVU29
 124 001a 8B74     		strb	r3, [r1, #18]
  76:Core/Src/GEVA.c ****         buf->r_matrix[_D] = 1;
 125              		.loc 1 76 9 is_stmt 1 view .LVU30
 126              		.loc 1 76 27 is_stmt 0 view .LVU31
 127 001c CA74     		strb	r2, [r1, #19]
  77:Core/Src/GEVA.c **** 
  78:Core/Src/GEVA.c ****         break;
 128              		.loc 1 78 9 is_stmt 1 view .LVU32
 129 001e 7047     		bx	lr
 130              	.L10:
  79:Core/Src/GEVA.c ****     case PORTRAIT:
  80:Core/Src/GEVA.c ****         buf->origin[X] = buf->size_x-1;
 131              		.loc 1 80 9 view .LVU33
 132              		.loc 1 80 29 is_stmt 0 view .LVU34
 133 0020 0B78     		ldrb	r3, [r1]	@ zero_extendqisi2
 134              		.loc 1 80 37 view .LVU35
 135 0022 013B     		subs	r3, r3, #1
 136              		.loc 1 80 24 view .LVU36
 137 0024 8B73     		strb	r3, [r1, #14]
  81:Core/Src/GEVA.c ****         buf->origin[Y] = 0;
 138              		.loc 1 81 9 is_stmt 1 view .LVU37
 139              		.loc 1 81 24 is_stmt 0 view .LVU38
 140 0026 0023     		movs	r3, #0
 141 0028 CB73     		strb	r3, [r1, #15]
  82:Core/Src/GEVA.c ****         buf->r_matrix[_A] = 0;
 142              		.loc 1 82 9 is_stmt 1 view .LVU39
 143              		.loc 1 82 27 is_stmt 0 view .LVU40
ARM GAS  C:\Users\arist\AppData\Local\Temp\ccSK2xlW.s 			page 5


 144 002a 0B74     		strb	r3, [r1, #16]
  83:Core/Src/GEVA.c ****         buf->r_matrix[_B] = -1;
 145              		.loc 1 83 9 is_stmt 1 view .LVU41
 146              		.loc 1 83 27 is_stmt 0 view .LVU42
 147 002c FF22     		movs	r2, #255
 148 002e 4A74     		strb	r2, [r1, #17]
  84:Core/Src/GEVA.c ****         buf->r_matrix[_C] = 1;
 149              		.loc 1 84 9 is_stmt 1 view .LVU43
 150              		.loc 1 84 27 is_stmt 0 view .LVU44
 151 0030 0122     		movs	r2, #1
 152 0032 8A74     		strb	r2, [r1, #18]
  85:Core/Src/GEVA.c ****         buf->r_matrix[_D] = 0;
 153              		.loc 1 85 9 is_stmt 1 view .LVU45
 154              		.loc 1 85 27 is_stmt 0 view .LVU46
 155 0034 CB74     		strb	r3, [r1, #19]
  86:Core/Src/GEVA.c ****         break;
 156              		.loc 1 86 9 is_stmt 1 view .LVU47
 157 0036 7047     		bx	lr
 158              	.L11:
  87:Core/Src/GEVA.c ****     case LANDSCAPE_INVERTED:
  88:Core/Src/GEVA.c ****         buf->origin[X] = buf->size_x-1;
 159              		.loc 1 88 9 view .LVU48
 160              		.loc 1 88 29 is_stmt 0 view .LVU49
 161 0038 0B78     		ldrb	r3, [r1]	@ zero_extendqisi2
 162              		.loc 1 88 37 view .LVU50
 163 003a 013B     		subs	r3, r3, #1
 164              		.loc 1 88 24 view .LVU51
 165 003c 8B73     		strb	r3, [r1, #14]
  89:Core/Src/GEVA.c ****         buf->origin[Y] = buf->size_y-1;
 166              		.loc 1 89 9 is_stmt 1 view .LVU52
 167              		.loc 1 89 29 is_stmt 0 view .LVU53
 168 003e 4B78     		ldrb	r3, [r1, #1]	@ zero_extendqisi2
 169              		.loc 1 89 37 view .LVU54
 170 0040 013B     		subs	r3, r3, #1
 171              		.loc 1 89 24 view .LVU55
 172 0042 CB73     		strb	r3, [r1, #15]
  90:Core/Src/GEVA.c ****         buf->r_matrix[_A] = -1;
 173              		.loc 1 90 9 is_stmt 1 view .LVU56
 174              		.loc 1 90 27 is_stmt 0 view .LVU57
 175 0044 FF23     		movs	r3, #255
 176 0046 0B74     		strb	r3, [r1, #16]
  91:Core/Src/GEVA.c ****         buf->r_matrix[_B] = 0;
 177              		.loc 1 91 9 is_stmt 1 view .LVU58
 178              		.loc 1 91 27 is_stmt 0 view .LVU59
 179 0048 0022     		movs	r2, #0
 180 004a 4A74     		strb	r2, [r1, #17]
  92:Core/Src/GEVA.c ****         buf->r_matrix[_C] = 0;
 181              		.loc 1 92 9 is_stmt 1 view .LVU60
 182              		.loc 1 92 27 is_stmt 0 view .LVU61
 183 004c 8A74     		strb	r2, [r1, #18]
  93:Core/Src/GEVA.c ****         buf->r_matrix[_D] = -1;
 184              		.loc 1 93 9 is_stmt 1 view .LVU62
 185              		.loc 1 93 27 is_stmt 0 view .LVU63
 186 004e CB74     		strb	r3, [r1, #19]
  94:Core/Src/GEVA.c ****         break;
 187              		.loc 1 94 9 is_stmt 1 view .LVU64
 188 0050 7047     		bx	lr
ARM GAS  C:\Users\arist\AppData\Local\Temp\ccSK2xlW.s 			page 6


 189              	.L8:
  95:Core/Src/GEVA.c ****     case PORTRAIT_INVERTED:
  96:Core/Src/GEVA.c ****         buf->origin[X] = 0;
 190              		.loc 1 96 9 view .LVU65
 191              		.loc 1 96 24 is_stmt 0 view .LVU66
 192 0052 0023     		movs	r3, #0
 193 0054 8B73     		strb	r3, [r1, #14]
  97:Core/Src/GEVA.c ****         buf->origin[Y] = buf->size_y-1;
 194              		.loc 1 97 9 is_stmt 1 view .LVU67
 195              		.loc 1 97 29 is_stmt 0 view .LVU68
 196 0056 4A78     		ldrb	r2, [r1, #1]	@ zero_extendqisi2
 197              		.loc 1 97 37 view .LVU69
 198 0058 013A     		subs	r2, r2, #1
 199              		.loc 1 97 24 view .LVU70
 200 005a CA73     		strb	r2, [r1, #15]
  98:Core/Src/GEVA.c ****         buf->r_matrix[_A] = 0;
 201              		.loc 1 98 9 is_stmt 1 view .LVU71
 202              		.loc 1 98 27 is_stmt 0 view .LVU72
 203 005c 0B74     		strb	r3, [r1, #16]
  99:Core/Src/GEVA.c ****         buf->r_matrix[_B] = 1;
 204              		.loc 1 99 9 is_stmt 1 view .LVU73
 205              		.loc 1 99 27 is_stmt 0 view .LVU74
 206 005e 0122     		movs	r2, #1
 207 0060 4A74     		strb	r2, [r1, #17]
 100:Core/Src/GEVA.c ****         buf->r_matrix[_C] = -1;
 208              		.loc 1 100 9 is_stmt 1 view .LVU75
 209              		.loc 1 100 27 is_stmt 0 view .LVU76
 210 0062 FF22     		movs	r2, #255
 211 0064 8A74     		strb	r2, [r1, #18]
 101:Core/Src/GEVA.c ****         buf->r_matrix[_D] = 0;
 212              		.loc 1 101 9 is_stmt 1 view .LVU77
 213              		.loc 1 101 27 is_stmt 0 view .LVU78
 214 0066 CB74     		strb	r3, [r1, #19]
 102:Core/Src/GEVA.c ****         break;
 215              		.loc 1 102 9 is_stmt 1 view .LVU79
 216 0068 7047     		bx	lr
 217              	.L7:
 103:Core/Src/GEVA.c ****     default:
 104:Core/Src/GEVA.c ****         buf->origin[X] = 0;
 218              		.loc 1 104 9 view .LVU80
 219              		.loc 1 104 24 is_stmt 0 view .LVU81
 220 006a 0023     		movs	r3, #0
 221 006c 8B73     		strb	r3, [r1, #14]
 105:Core/Src/GEVA.c ****         buf->origin[Y] = 0;
 222              		.loc 1 105 9 is_stmt 1 view .LVU82
 223              		.loc 1 105 24 is_stmt 0 view .LVU83
 224 006e CB73     		strb	r3, [r1, #15]
 106:Core/Src/GEVA.c ****         buf->r_matrix[_A] = 1;
 225              		.loc 1 106 9 is_stmt 1 view .LVU84
 226              		.loc 1 106 27 is_stmt 0 view .LVU85
 227 0070 0122     		movs	r2, #1
 228 0072 0A74     		strb	r2, [r1, #16]
 107:Core/Src/GEVA.c ****         buf->r_matrix[_B] = 0;
 229              		.loc 1 107 9 is_stmt 1 view .LVU86
 230              		.loc 1 107 27 is_stmt 0 view .LVU87
 231 0074 4B74     		strb	r3, [r1, #17]
 108:Core/Src/GEVA.c ****         buf->r_matrix[_C] = 0;
ARM GAS  C:\Users\arist\AppData\Local\Temp\ccSK2xlW.s 			page 7


 232              		.loc 1 108 9 is_stmt 1 view .LVU88
 233              		.loc 1 108 27 is_stmt 0 view .LVU89
 234 0076 8B74     		strb	r3, [r1, #18]
 109:Core/Src/GEVA.c ****         buf->r_matrix[_D] = 1;
 235              		.loc 1 109 9 is_stmt 1 view .LVU90
 236              		.loc 1 109 27 is_stmt 0 view .LVU91
 237 0078 CA74     		strb	r2, [r1, #19]
 110:Core/Src/GEVA.c ****         break;
 238              		.loc 1 110 9 is_stmt 1 view .LVU92
 111:Core/Src/GEVA.c ****     }
 112:Core/Src/GEVA.c **** }
 239              		.loc 1 112 1 is_stmt 0 view .LVU93
 240 007a 7047     		bx	lr
 241              		.cfi_endproc
 242              	.LFE2:
 244              		.section	.text.clr_buffer,"ax",%progbits
 245              		.align	1
 246              		.global	clr_buffer
 247              		.syntax unified
 248              		.thumb
 249              		.thumb_func
 251              	clr_buffer:
 252              	.LVL6:
 253              	.LFB3:
 113:Core/Src/GEVA.c **** 
 114:Core/Src/GEVA.c **** /* ===========================================GRAPHIC FUNCTIONS====================================
 115:Core/Src/GEVA.c **** 
 116:Core/Src/GEVA.c **** /*Reset buffer to default value according to MODE*/
 117:Core/Src/GEVA.c **** 
 118:Core/Src/GEVA.c **** uint8_t clr_buffer(video_buffer* buf) {
 254              		.loc 1 118 39 is_stmt 1 view -0
 255              		.cfi_startproc
 256              		@ args = 0, pretend = 0, frame = 0
 257              		@ frame_needed = 0, uses_anonymous_args = 0
 258              		.loc 1 118 39 is_stmt 0 view .LVU95
 259 0000 08B5     		push	{r3, lr}
 260              		.cfi_def_cfa_offset 8
 261              		.cfi_offset 3, -8
 262              		.cfi_offset 14, -4
 263 0002 0346     		mov	r3, r0
 119:Core/Src/GEVA.c ****     
 120:Core/Src/GEVA.c ****     uint8_t def = (buf->mode == NORMAL) ? 0x00 : 0xff;
 264              		.loc 1 120 5 is_stmt 1 view .LVU96
 265              		.loc 1 120 23 is_stmt 0 view .LVU97
 266 0004 017B     		ldrb	r1, [r0, #12]	@ zero_extendqisi2
 267              		.loc 1 120 13 view .LVU98
 268 0006 01B1     		cbz	r1, .L15
 269 0008 FF21     		movs	r1, #255
 270              	.L15:
 271              	.LVL7:
 121:Core/Src/GEVA.c ****     uint8_t error = 1;
 272              		.loc 1 121 5 is_stmt 1 discriminator 4 view .LVU99
 122:Core/Src/GEVA.c ****     if (buf->vid_buf != NULL) {
 273              		.loc 1 122 5 discriminator 4 view .LVU100
 274              		.loc 1 122 12 is_stmt 0 discriminator 4 view .LVU101
 275 000a 5868     		ldr	r0, [r3, #4]
 276              	.LVL8:
ARM GAS  C:\Users\arist\AppData\Local\Temp\ccSK2xlW.s 			page 8


 277              		.loc 1 122 8 discriminator 4 view .LVU102
 278 000c 20B1     		cbz	r0, .L18
 123:Core/Src/GEVA.c ****         memset(buf->vid_buf, def, buf->byte_buffer_cnt);
 279              		.loc 1 123 9 is_stmt 1 view .LVU103
 280 000e 5A89     		ldrh	r2, [r3, #10]
 281 0010 FFF7FEFF 		bl	memset
 282              	.LVL9:
 124:Core/Src/GEVA.c ****         error = 0;
 283              		.loc 1 124 9 view .LVU104
 284              		.loc 1 124 15 is_stmt 0 view .LVU105
 285 0014 0020     		movs	r0, #0
 286              	.LVL10:
 287              	.L16:
 125:Core/Src/GEVA.c ****     }
 126:Core/Src/GEVA.c ****     return error;
 288              		.loc 1 126 5 is_stmt 1 view .LVU106
 127:Core/Src/GEVA.c **** }
 289              		.loc 1 127 1 is_stmt 0 view .LVU107
 290 0016 08BD     		pop	{r3, pc}
 291              	.LVL11:
 292              	.L18:
 121:Core/Src/GEVA.c ****     if (buf->vid_buf != NULL) {
 293              		.loc 1 121 13 view .LVU108
 294 0018 0120     		movs	r0, #1
 295 001a FCE7     		b	.L16
 296              		.cfi_endproc
 297              	.LFE3:
 299              		.section	.text.byte_col_cnt,"ax",%progbits
 300              		.align	1
 301              		.global	byte_col_cnt
 302              		.syntax unified
 303              		.thumb
 304              		.thumb_func
 306              	byte_col_cnt:
 307              	.LVL12:
 308              	.LFB14:
 128:Core/Src/GEVA.c **** 
 129:Core/Src/GEVA.c **** /* Draw pixel black or white in a specific location on the screen
 130:Core/Src/GEVA.c ****  * return error code
 131:Core/Src/GEVA.c ****  * error code list:
 132:Core/Src/GEVA.c ****  * 4 point out of scope
 133:Core/Src/GEVA.c ****  */
 134:Core/Src/GEVA.c **** uint8_t put_pixel(uint8_t pos_x, uint8_t pos_y, enum color color, video_buffer* buf) {
 135:Core/Src/GEVA.c **** 
 136:Core/Src/GEVA.c ****     uint8_t error = 0;
 137:Core/Src/GEVA.c ****     uint8_t *n_pos = normalize_pos(pos_x, pos_y, buf);
 138:Core/Src/GEVA.c **** 
 139:Core/Src/GEVA.c ****     if ((n_pos[Y] < 0) || (n_pos[Y] > buf->size_y - 1) || (n_pos[X] < 0) || (n_pos[X] > buf->size_x
 140:Core/Src/GEVA.c ****         error = 4;
 141:Core/Src/GEVA.c ****     else {
 142:Core/Src/GEVA.c ****         if (buf->mode & color)
 143:Core/Src/GEVA.c ****             color = CLEAR_C;
 144:Core/Src/GEVA.c ****         else if (buf->mode & ~color)
 145:Core/Src/GEVA.c ****             color = SET_C;
 146:Core/Src/GEVA.c **** 
 147:Core/Src/GEVA.c ****         if (color)
 148:Core/Src/GEVA.c ****             buf->vid_buf[get_buffer_index(n_pos[X], (buf->size_y - n_pos[Y] - 1), buf->byte_col_cnt
ARM GAS  C:\Users\arist\AppData\Local\Temp\ccSK2xlW.s 			page 9


 149:Core/Src/GEVA.c ****         else
 150:Core/Src/GEVA.c ****             buf->vid_buf[get_buffer_index(n_pos[X], (buf->size_y - n_pos[Y] - 1), buf->byte_col_cnt
 151:Core/Src/GEVA.c ****     }
 152:Core/Src/GEVA.c ****     free(n_pos);
 153:Core/Src/GEVA.c ****     return error;
 154:Core/Src/GEVA.c **** }
 155:Core/Src/GEVA.c **** 
 156:Core/Src/GEVA.c **** 
 157:Core/Src/GEVA.c **** /* Draw line between to points
 158:Core/Src/GEVA.c ****  * return error code
 159:Core/Src/GEVA.c ****  * error code list:
 160:Core/Src/GEVA.c ****  * 4 point out of scope
 161:Core/Src/GEVA.c **** */
 162:Core/Src/GEVA.c **** uint8_t put_line(uint8_t pos_x1, uint8_t pos_y1, uint8_t pos_x2, uint8_t pos_y2, video_buffer* buf)
 163:Core/Src/GEVA.c **** 
 164:Core/Src/GEVA.c ****     uint8_t error = 0;
 165:Core/Src/GEVA.c ****     uint8_t firstx = 0;
 166:Core/Src/GEVA.c ****     uint8_t lastx = 0;
 167:Core/Src/GEVA.c ****     uint8_t firsty = 0;
 168:Core/Src/GEVA.c ****     uint8_t lasty = 0;
 169:Core/Src/GEVA.c **** 
 170:Core/Src/GEVA.c ****     if (pos_x1 == pos_x2) { //vertical line
 171:Core/Src/GEVA.c **** 
 172:Core/Src/GEVA.c ****         uint8_t line_lenght = 0;
 173:Core/Src/GEVA.c **** 
 174:Core/Src/GEVA.c ****         if (pos_y1 > pos_y2) {
 175:Core/Src/GEVA.c ****             line_lenght = (pos_y1 - pos_y2) + 1;
 176:Core/Src/GEVA.c ****             firsty = pos_y2;
 177:Core/Src/GEVA.c ****         }
 178:Core/Src/GEVA.c ****         else {
 179:Core/Src/GEVA.c ****             line_lenght = (pos_y2 - pos_y1) + 1;
 180:Core/Src/GEVA.c ****             firsty = pos_y1;
 181:Core/Src/GEVA.c ****         }
 182:Core/Src/GEVA.c ****         for (uint8_t i = 0; i < line_lenght; i++) {
 183:Core/Src/GEVA.c ****             error = put_pixel(pos_x1, firsty + i, SET_C, buf);
 184:Core/Src/GEVA.c ****         }
 185:Core/Src/GEVA.c ****     }
 186:Core/Src/GEVA.c ****     else {
 187:Core/Src/GEVA.c ****         if (pos_x1 > pos_x2) {
 188:Core/Src/GEVA.c ****             firstx = pos_x2;
 189:Core/Src/GEVA.c ****             lastx = pos_x1;
 190:Core/Src/GEVA.c ****             firsty = pos_y2;
 191:Core/Src/GEVA.c ****             lasty = pos_y1;
 192:Core/Src/GEVA.c ****         }
 193:Core/Src/GEVA.c ****         else {
 194:Core/Src/GEVA.c ****             firstx = pos_x1;
 195:Core/Src/GEVA.c ****             lastx = pos_x2;
 196:Core/Src/GEVA.c ****             firsty = pos_y1;
 197:Core/Src/GEVA.c ****             lasty = pos_y2;
 198:Core/Src/GEVA.c ****         }
 199:Core/Src/GEVA.c **** 
 200:Core/Src/GEVA.c ****         int8_t slope_addendum = (firsty > lasty) ? -1 : 1;
 201:Core/Src/GEVA.c **** 
 202:Core/Src/GEVA.c ****         uint8_t y = firsty;
 203:Core/Src/GEVA.c ****         uint8_t nexty = 0;
 204:Core/Src/GEVA.c ****         int8_t y_todrw = 0;
 205:Core/Src/GEVA.c ****         uint8_t fill_y = 0;
ARM GAS  C:\Users\arist\AppData\Local\Temp\ccSK2xlW.s 			page 10


 206:Core/Src/GEVA.c **** 
 207:Core/Src/GEVA.c ****         for (uint8_t x = firstx; x < lastx + 1; x++) {
 208:Core/Src/GEVA.c **** 
 209:Core/Src/GEVA.c ****             y = calculate_y(x, firstx, lastx, firsty, lasty);
 210:Core/Src/GEVA.c ****             nexty = calculate_y(x + 1, firstx, lastx, firsty, lasty);
 211:Core/Src/GEVA.c ****             fill_y = 0;
 212:Core/Src/GEVA.c **** 
 213:Core/Src/GEVA.c ****             do { 
 214:Core/Src/GEVA.c ****                y_todrw = y + (slope_addendum * fill_y);
 215:Core/Src/GEVA.c ****               
 216:Core/Src/GEVA.c ****                if (y_todrw < 0)
 217:Core/Src/GEVA.c ****                    y_todrw = 0;
 218:Core/Src/GEVA.c **** 
 219:Core/Src/GEVA.c ****                error = put_pixel(x, y_todrw, SET_C, buf);
 220:Core/Src/GEVA.c ****                fill_y++;
 221:Core/Src/GEVA.c **** 
 222:Core/Src/GEVA.c ****                if (y_todrw == pos_y2 && pos_y1 != pos_y2)
 223:Core/Src/GEVA.c ****                    return error;
 224:Core/Src/GEVA.c **** 
 225:Core/Src/GEVA.c ****             } while ( fill_y < modulo(y - nexty));
 226:Core/Src/GEVA.c ****         }
 227:Core/Src/GEVA.c ****     }
 228:Core/Src/GEVA.c ****     return error;
 229:Core/Src/GEVA.c **** }
 230:Core/Src/GEVA.c **** 
 231:Core/Src/GEVA.c **** 
 232:Core/Src/GEVA.c **** /* Clear part of the display buffer memory
 233:Core/Src/GEVA.c ****  * return error code
 234:Core/Src/GEVA.c ****  * error code list:
 235:Core/Src/GEVA.c ****  * 
 236:Core/Src/GEVA.c ****  * 2 dimension mismatch
 237:Core/Src/GEVA.c ****  * 
 238:Core/Src/GEVA.c ****  * 4 starting point out of scope
 239:Core/Src/GEVA.c **** */
 240:Core/Src/GEVA.c **** uint8_t clear_sector(uint8_t pos_x, uint8_t pos_y, uint8_t width, uint8_t height, video_buffer* buf
 241:Core/Src/GEVA.c **** 
 242:Core/Src/GEVA.c ****     uint8_t error = 0;
 243:Core/Src/GEVA.c ****     uint8_t startx_ptr = 0; // pos_x;
 244:Core/Src/GEVA.c ****     uint8_t starty_ptr = 0; // pos_y;
 245:Core/Src/GEVA.c ****     uint8_t endx_ptr = 0;   //pos_x + width;
 246:Core/Src/GEVA.c ****     uint8_t endy_ptr = 0;   // pos_y + height;
 247:Core/Src/GEVA.c ****     uint8_t n_width = 0;    //normalized width
 248:Core/Src/GEVA.c ****     uint8_t* n_pos_ptr = normalize_pos(pos_x, pos_y, buf);
 249:Core/Src/GEVA.c ****     
 250:Core/Src/GEVA.c ****     switch (buf->orient) {
 251:Core/Src/GEVA.c **** 
 252:Core/Src/GEVA.c ****     case LANDSCAPE:
 253:Core/Src/GEVA.c ****         n_width = width;
 254:Core/Src/GEVA.c ****         startx_ptr = n_pos_ptr[X];
 255:Core/Src/GEVA.c ****         starty_ptr = n_pos_ptr[Y];
 256:Core/Src/GEVA.c ****         endx_ptr = startx_ptr + width;
 257:Core/Src/GEVA.c ****         endy_ptr = starty_ptr + height;
 258:Core/Src/GEVA.c ****         break;
 259:Core/Src/GEVA.c **** 
 260:Core/Src/GEVA.c ****     case LANDSCAPE_INVERTED:
 261:Core/Src/GEVA.c ****         n_width = width;
 262:Core/Src/GEVA.c ****         startx_ptr = n_pos_ptr[X] - width + 1;
ARM GAS  C:\Users\arist\AppData\Local\Temp\ccSK2xlW.s 			page 11


 263:Core/Src/GEVA.c ****         starty_ptr = n_pos_ptr[Y] - height + 1;
 264:Core/Src/GEVA.c ****         endx_ptr = n_pos_ptr[X] + 1;
 265:Core/Src/GEVA.c ****         endy_ptr = n_pos_ptr[Y] + 1;
 266:Core/Src/GEVA.c ****         break;
 267:Core/Src/GEVA.c **** 
 268:Core/Src/GEVA.c ****     case PORTRAIT:
 269:Core/Src/GEVA.c ****         n_width = height;
 270:Core/Src/GEVA.c ****         startx_ptr = n_pos_ptr[X] - height + 1;
 271:Core/Src/GEVA.c ****         starty_ptr = n_pos_ptr[Y];
 272:Core/Src/GEVA.c ****         endx_ptr = n_pos_ptr[X] + 1;
 273:Core/Src/GEVA.c ****         endy_ptr = starty_ptr + width;
 274:Core/Src/GEVA.c ****         break;
 275:Core/Src/GEVA.c **** 
 276:Core/Src/GEVA.c ****     case PORTRAIT_INVERTED:
 277:Core/Src/GEVA.c ****         startx_ptr = n_pos_ptr[X];
 278:Core/Src/GEVA.c ****         starty_ptr = n_pos_ptr[Y] - width + 1;
 279:Core/Src/GEVA.c ****         endx_ptr = startx_ptr + height;
 280:Core/Src/GEVA.c ****         endy_ptr = n_pos_ptr[Y] + 1;
 281:Core/Src/GEVA.c ****         break;
 282:Core/Src/GEVA.c **** 
 283:Core/Src/GEVA.c ****     default:
 284:Core/Src/GEVA.c ****         break;
 285:Core/Src/GEVA.c ****     }
 286:Core/Src/GEVA.c **** 
 287:Core/Src/GEVA.c ****     if (pos_x >= buf->size_x || pos_x < 0 || pos_y >= buf->size_y || pos_y < 0)
 288:Core/Src/GEVA.c ****         return 4;
 289:Core/Src/GEVA.c **** 
 290:Core/Src/GEVA.c ****     if (pos_y + height > buf->size_y || pos_x + width > buf->size_x)
 291:Core/Src/GEVA.c ****         error = 2;
 292:Core/Src/GEVA.c **** 
 293:Core/Src/GEVA.c ****     else {
 294:Core/Src/GEVA.c **** 
 295:Core/Src/GEVA.c ****         uint16_t start_byte_ptr = get_buffer_index(startx_ptr, buf->size_y - 1 - starty_ptr, buf->b
 296:Core/Src/GEVA.c ****         uint16_t buffer_byte_ptr = start_byte_ptr;
 297:Core/Src/GEVA.c ****         int16_t initial_shift = modulo(endx_ptr - startx_ptr);
 298:Core/Src/GEVA.c ****         int16_t to_shift = initial_shift;
 299:Core/Src/GEVA.c **** 
 300:Core/Src/GEVA.c ****         for (uint8_t row_clrd = 0; row_clrd < modulo(endy_ptr - starty_ptr); row_clrd++)
 301:Core/Src/GEVA.c ****         {
 302:Core/Src/GEVA.c ****             buffer_byte_ptr = start_byte_ptr - (buf->byte_col_cnt * row_clrd);
 303:Core/Src/GEVA.c ****             to_shift = initial_shift;
 304:Core/Src/GEVA.c **** 
 305:Core/Src/GEVA.c ****             if ( (startx_ptr % 8) + n_width > 7) {  // when multiple bytes are needed
 306:Core/Src/GEVA.c ****                 to_shift -= (8 - (startx_ptr % 8));
 307:Core/Src/GEVA.c ****                 
 308:Core/Src/GEVA.c ****                 if(buf->mode == NORMAL)
 309:Core/Src/GEVA.c ****                     buf->vid_buf[buffer_byte_ptr] &= 0xff << (8 - (startx_ptr % 8));
 310:Core/Src/GEVA.c ****                 else 
 311:Core/Src/GEVA.c ****                     buf->vid_buf[buffer_byte_ptr] |= 0xff >> (startx_ptr % 8);
 312:Core/Src/GEVA.c ****                 
 313:Core/Src/GEVA.c ****                 buffer_byte_ptr++;
 314:Core/Src/GEVA.c ****                 
 315:Core/Src/GEVA.c ****                 while (to_shift > 8) {
 316:Core/Src/GEVA.c ****                     if(buf->mode == NORMAL)
 317:Core/Src/GEVA.c ****                         buf->vid_buf[buffer_byte_ptr] = 0x00;
 318:Core/Src/GEVA.c ****                     else 
 319:Core/Src/GEVA.c ****                         buf->vid_buf[buffer_byte_ptr] = 0xff;
ARM GAS  C:\Users\arist\AppData\Local\Temp\ccSK2xlW.s 			page 12


 320:Core/Src/GEVA.c ****                         
 321:Core/Src/GEVA.c ****                     buffer_byte_ptr++;
 322:Core/Src/GEVA.c ****                     to_shift -= 8;
 323:Core/Src/GEVA.c ****                 }
 324:Core/Src/GEVA.c **** 
 325:Core/Src/GEVA.c ****                 if(buf->mode == NORMAL)
 326:Core/Src/GEVA.c ****                     buf->vid_buf[buffer_byte_ptr] &= 0xff >> to_shift;
 327:Core/Src/GEVA.c ****                 else 
 328:Core/Src/GEVA.c ****                     buf->vid_buf[buffer_byte_ptr] |= 0xff << (8 - (endx_ptr % 8));
 329:Core/Src/GEVA.c ****             }
 330:Core/Src/GEVA.c ****             else { // can do clear operation on a single byte because of sector dimensions
 331:Core/Src/GEVA.c ****                 if(buf->mode == NORMAL)
 332:Core/Src/GEVA.c ****                     buf->vid_buf[buffer_byte_ptr] &= ~((0xff >> startx_ptr % 8) & (0xff << (8 - (en
 333:Core/Src/GEVA.c ****                 else 
 334:Core/Src/GEVA.c ****                     buf->vid_buf[buffer_byte_ptr] |= (0xff >> startx_ptr % 8) & (0xff << (8 - (endx
 335:Core/Src/GEVA.c ****             }
 336:Core/Src/GEVA.c ****         }
 337:Core/Src/GEVA.c ****     }
 338:Core/Src/GEVA.c ****     free(n_pos_ptr);
 339:Core/Src/GEVA.c ****     return error;
 340:Core/Src/GEVA.c **** }
 341:Core/Src/GEVA.c **** 
 342:Core/Src/GEVA.c **** /*put character on screen
 343:Core/Src/GEVA.c ****  * return error code
 344:Core/Src/GEVA.c ****  * error code list:
 345:Core/Src/GEVA.c ****  * 
 346:Core/Src/GEVA.c ****  * 2 dimension mismatch
 347:Core/Src/GEVA.c ****  * 
 348:Core/Src/GEVA.c ****  * 4 starting point out of scope
 349:Core/Src/GEVA.c ****  * note: each letter needs a square of 7x7 pixels clear on the display (because of rotation) befor 
 350:Core/Src/GEVA.c **** */
 351:Core/Src/GEVA.c **** uint8_t put_char(uint8_t pos_x, uint8_t pos_y, uint8_t chr, enum fonts_size ff, video_buffer* buf) 
 352:Core/Src/GEVA.c ****     
 353:Core/Src/GEVA.c ****     uint8_t error = 0;
 354:Core/Src/GEVA.c ****     uint8_t* n_pos; 
 355:Core/Src/GEVA.c ****     uint16_t* c;
 356:Core/Src/GEVA.c ****     
 357:Core/Src/GEVA.c ****     switch(ff){ //font selection
 358:Core/Src/GEVA.c ****         case SMALL:
 359:Core/Src/GEVA.c ****             font_height = C_HEIGHT_S;
 360:Core/Src/GEVA.c ****             font_width = C_WIDTH_S;
 361:Core/Src/GEVA.c ****             c = font_s[chr];
 362:Core/Src/GEVA.c ****         break;
 363:Core/Src/GEVA.c ****         case MEDIUM:
 364:Core/Src/GEVA.c ****             font_height = C_HEIGHT_M;
 365:Core/Src/GEVA.c ****             font_width = C_WIDTH_M;
 366:Core/Src/GEVA.c ****             c = font_m[chr];
 367:Core/Src/GEVA.c ****         break; 
 368:Core/Src/GEVA.c ****         
 369:Core/Src/GEVA.c ****         case LARGE:
 370:Core/Src/GEVA.c ****         break; 
 371:Core/Src/GEVA.c **** 
 372:Core/Src/GEVA.c ****         default:
 373:Core/Src/GEVA.c ****             font_height = C_HEIGHT_S;
 374:Core/Src/GEVA.c ****             font_width = C_WIDTH_S;
 375:Core/Src/GEVA.c ****             c = font_s[chr];
 376:Core/Src/GEVA.c ****         break;
ARM GAS  C:\Users\arist\AppData\Local\Temp\ccSK2xlW.s 			page 13


 377:Core/Src/GEVA.c ****     }
 378:Core/Src/GEVA.c **** 
 379:Core/Src/GEVA.c ****     switch (buf->orient) {
 380:Core/Src/GEVA.c ****         case LANDSCAPE:
 381:Core/Src/GEVA.c ****             n_pos = normalize_pos(pos_x, pos_y, buf); 
 382:Core/Src/GEVA.c ****            break;
 383:Core/Src/GEVA.c **** 
 384:Core/Src/GEVA.c ****         case LANDSCAPE_INVERTED:
 385:Core/Src/GEVA.c ****             n_pos = normalize_pos(pos_x + font_width - 1, pos_y + font_height - 1, buf);
 386:Core/Src/GEVA.c ****                break;
 387:Core/Src/GEVA.c **** 
 388:Core/Src/GEVA.c ****         case PORTRAIT:
 389:Core/Src/GEVA.c ****             n_pos = normalize_pos(pos_x, pos_y + font_height, buf);
 390:Core/Src/GEVA.c ****             break;
 391:Core/Src/GEVA.c **** 
 392:Core/Src/GEVA.c ****         case PORTRAIT_INVERTED:
 393:Core/Src/GEVA.c ****             n_pos = normalize_pos(pos_x + font_height - 1, pos_y, buf);
 394:Core/Src/GEVA.c ****             break;
 395:Core/Src/GEVA.c **** 
 396:Core/Src/GEVA.c ****         default:
 397:Core/Src/GEVA.c ****             n_pos = normalize_pos(pos_x, pos_y, buf);
 398:Core/Src/GEVA.c ****             break;
 399:Core/Src/GEVA.c ****         }
 400:Core/Src/GEVA.c **** 
 401:Core/Src/GEVA.c ****     if (n_pos[X] >= buf->size_x || n_pos[X] < 0 || n_pos[Y] >= buf->size_y || n_pos[Y] < 0)
 402:Core/Src/GEVA.c ****         error = 4;
 403:Core/Src/GEVA.c ****     else if (n_pos[Y] + font_height > buf->size_y || n_pos[X] + font_width > buf->size_x)
 404:Core/Src/GEVA.c ****         error = 2;
 405:Core/Src/GEVA.c ****     else {
 406:Core/Src/GEVA.c ****         c = rotate_char(c, buf);
 407:Core/Src/GEVA.c ****             
 408:Core/Src/GEVA.c ****         uint16_t start_byte_ptr = get_buffer_index(n_pos[X], buf->size_y - 1 - n_pos[Y], buf->byte_
 409:Core/Src/GEVA.c ****         uint16_t buffer_byte_ptr = start_byte_ptr;
 410:Core/Src/GEVA.c ****         uint16_t temp = 0;
 411:Core/Src/GEVA.c ****         uint16_t clr = 0;
 412:Core/Src/GEVA.c ****         uint8_t shifter_a = n_pos[X] % 8;
 413:Core/Src/GEVA.c ****     
 414:Core/Src/GEVA.c ****         for (uint8_t i = 0; i < font_height; i++) {
 415:Core/Src/GEVA.c ****             buffer_byte_ptr = start_byte_ptr - (buf->byte_col_cnt * i);
 416:Core/Src/GEVA.c ****             temp = c[font_height - 1 - i] >> shifter_a;
 417:Core/Src/GEVA.c ****             buf->vid_buf[buffer_byte_ptr] |= (uint8_t)(temp >> 8);
 418:Core/Src/GEVA.c ****             buf->vid_buf[buffer_byte_ptr + 1] |= (uint8_t)temp; 
 419:Core/Src/GEVA.c ****             
 420:Core/Src/GEVA.c ****             if (shifter_a != 0){
 421:Core/Src/GEVA.c ****                     temp = c[font_height - i - 1];
 422:Core/Src/GEVA.c ****                     buf->vid_buf[buffer_byte_ptr + 2] |= (uint8_t)temp << (8 - shifter_a);
 423:Core/Src/GEVA.c ****                 }
 424:Core/Src/GEVA.c ****         }
 425:Core/Src/GEVA.c ****     } 
 426:Core/Src/GEVA.c ****     
 427:Core/Src/GEVA.c ****     free(n_pos);
 428:Core/Src/GEVA.c ****     return error;
 429:Core/Src/GEVA.c **** }
 430:Core/Src/GEVA.c **** 
 431:Core/Src/GEVA.c **** /*put character string on screen
 432:Core/Src/GEVA.c ****  * return error code
 433:Core/Src/GEVA.c ****  * error code list:
ARM GAS  C:\Users\arist\AppData\Local\Temp\ccSK2xlW.s 			page 14


 434:Core/Src/GEVA.c ****  * 1 empty string
 435:Core/Src/GEVA.c ****  * 2 dimension mismatch
 436:Core/Src/GEVA.c ****  *
 437:Core/Src/GEVA.c ****  * 4 starting point out of scope
 438:Core/Src/GEVA.c **** */
 439:Core/Src/GEVA.c **** uint8_t put_string(uint8_t pos_x, uint8_t pos_y, uint8_t* chr, enum fonts_size ff, video_buffer* bu
 440:Core/Src/GEVA.c ****     
 441:Core/Src/GEVA.c ****     uint8_t error = 1;
 442:Core/Src/GEVA.c ****     uint8_t i = 0;
 443:Core/Src/GEVA.c ****     uint8_t y_offset = pos_y;
 444:Core/Src/GEVA.c ****     uint8_t x_offset = pos_x;    
 445:Core/Src/GEVA.c **** 
 446:Core/Src/GEVA.c ****     if (chr != NULL) {
 447:Core/Src/GEVA.c ****         
 448:Core/Src/GEVA.c ****         while(i < strlen(chr)) {
 449:Core/Src/GEVA.c **** 
 450:Core/Src/GEVA.c ****             if (chr[i] == '\r')
 451:Core/Src/GEVA.c ****                 x_offset = pos_x;
 452:Core/Src/GEVA.c ****             else if (chr[i] == '\n')
 453:Core/Src/GEVA.c ****                 y_offset = y_offset - 1 - font_height;
 454:Core/Src/GEVA.c ****             else {
 455:Core/Src/GEVA.c ****                 error = put_char(x_offset, y_offset, chr[i], ff, buf);
 456:Core/Src/GEVA.c ****                 if (error != 0)
 457:Core/Src/GEVA.c ****                     break;
 458:Core/Src/GEVA.c ****                 x_offset += font_width + 1;
 459:Core/Src/GEVA.c ****             
 460:Core/Src/GEVA.c ****             }
 461:Core/Src/GEVA.c ****             i++;
 462:Core/Src/GEVA.c ****         }
 463:Core/Src/GEVA.c ****     }
 464:Core/Src/GEVA.c ****     return error;
 465:Core/Src/GEVA.c **** }
 466:Core/Src/GEVA.c **** 
 467:Core/Src/GEVA.c **** /* Load vbc file smaller than display size to buffer memory
 468:Core/Src/GEVA.c ****  * return error code
 469:Core/Src/GEVA.c ****  * error code list:
 470:Core/Src/GEVA.c ****  * 1 wrong file type
 471:Core/Src/GEVA.c ****  * 2 dimension mismatch
 472:Core/Src/GEVA.c ****  * 3 body bytes count mismatch
 473:Core/Src/GEVA.c ****  * 4 starting point out of scope
 474:Core/Src/GEVA.c ****  * note: starting position (x,y)  referenced to LANDSCAPE and rappresents lower left corner of the 
 475:Core/Src/GEVA.c **** */
 476:Core/Src/GEVA.c **** uint8_t put_vbc(vbc_file file, uint8_t x, uint8_t y, video_buffer* buf) {
 477:Core/Src/GEVA.c ****     uint8_t error = 0;
 478:Core/Src/GEVA.c ****     uint16_t vbc_body_byte = (((uint16_t)file.header.byte_cnt_h) << 8 | file.header.byte_cnt_l) - 5
 479:Core/Src/GEVA.c **** 
 480:Core/Src/GEVA.c ****     if (x > buf->size_x || x < 0 || y > buf->size_y || y < 0)
 481:Core/Src/GEVA.c ****         return 4;
 482:Core/Src/GEVA.c **** 
 483:Core/Src/GEVA.c ****     if (file.header.id != 0xA7)
 484:Core/Src/GEVA.c ****         error = 1;
 485:Core/Src/GEVA.c ****     else if (y + file.header.height > buf->size_y || x + file.header.width > buf->size_x)
 486:Core/Src/GEVA.c ****         error = 2;
 487:Core/Src/GEVA.c ****     else if (vbc_body_byte > buf->byte_buffer_cnt - get_buffer_index(x, y, buf->byte_col_cnt))
 488:Core/Src/GEVA.c ****         error = 3;
 489:Core/Src/GEVA.c ****     else if (vbc_body_byte == buf->byte_buffer_cnt) {
 490:Core/Src/GEVA.c ****         buf->vid_buf = file.body;
ARM GAS  C:\Users\arist\AppData\Local\Temp\ccSK2xlW.s 			page 15


 491:Core/Src/GEVA.c ****     }
 492:Core/Src/GEVA.c ****     else {
 493:Core/Src/GEVA.c ****         uint8_t byte_width = (file.header.width % 8 == 0) ? file.header.width / 8 : file.header.wid
 494:Core/Src/GEVA.c ****         uint16_t start_byte_ptr = get_buffer_index(x, buf->size_y - 1 - y, buf->byte_col_cnt);
 495:Core/Src/GEVA.c ****         uint16_t buffer_byte_ptr = start_byte_ptr;
 496:Core/Src/GEVA.c **** 
 497:Core/Src/GEVA.c ****         for (uint8_t row = 0; row < file.header.height - 1; row++) {
 498:Core/Src/GEVA.c ****             buffer_byte_ptr = start_byte_ptr - (buf->byte_col_cnt * row);
 499:Core/Src/GEVA.c ****             memmove(&buf->vid_buf[buffer_byte_ptr], &file.body[((file.header.height - 1) * byte_wid
 500:Core/Src/GEVA.c ****         }
 501:Core/Src/GEVA.c ****     }
 502:Core/Src/GEVA.c ****     return error;
 503:Core/Src/GEVA.c **** }
 504:Core/Src/GEVA.c **** 
 505:Core/Src/GEVA.c **** 
 506:Core/Src/GEVA.c **** /* ================================================SHAPES==========================================
 507:Core/Src/GEVA.c **** 
 508:Core/Src/GEVA.c **** /* Draw circle at specific location on the screen with specified radius
 509:Core/Src/GEVA.c ****  * return error code
 510:Core/Src/GEVA.c ****  * error code list:
 511:Core/Src/GEVA.c ****  * 4 point out of scope
 512:Core/Src/GEVA.c **** */
 513:Core/Src/GEVA.c **** uint8_t put_circle(uint8_t o_x, uint8_t o_y, uint8_t r, video_buffer* buf) {
 514:Core/Src/GEVA.c **** 
 515:Core/Src/GEVA.c ****     uint8_t error = 0;
 516:Core/Src/GEVA.c ****     uint16_t s = 0;
 517:Core/Src/GEVA.c ****     uint16_t rsqr = r * r;
 518:Core/Src/GEVA.c ****     
 519:Core/Src/GEVA.c ****     for (int16_t y = -r; y <= r; y++) {
 520:Core/Src/GEVA.c ****         for (int16_t x = -r; x <= r; x++) {
 521:Core/Src/GEVA.c ****             s = x * x + y * y;
 522:Core/Src/GEVA.c ****             if (s >= rsqr - r && s <= rsqr + r) {
 523:Core/Src/GEVA.c ****                 error = put_pixel(o_x + x, o_y + y, SET_C, buf);
 524:Core/Src/GEVA.c ****                // if (error)
 525:Core/Src/GEVA.c ****                 //    return error;
 526:Core/Src/GEVA.c ****             }
 527:Core/Src/GEVA.c ****         }
 528:Core/Src/GEVA.c ****     }
 529:Core/Src/GEVA.c ****     return error;
 530:Core/Src/GEVA.c **** }
 531:Core/Src/GEVA.c **** 
 532:Core/Src/GEVA.c **** /* Draw rectangular shape at specific location on the screen with specified height and width
 533:Core/Src/GEVA.c ****  * return error code
 534:Core/Src/GEVA.c ****  * error code list:
 535:Core/Src/GEVA.c ****  * 4 point out of scope
 536:Core/Src/GEVA.c ****  * note: the starting point of the shape is in the lower left corner
 537:Core/Src/GEVA.c **** */
 538:Core/Src/GEVA.c **** uint8_t put_rect(uint8_t o_x,uint8_t o_y, uint8_t width, uint8_t height, video_buffer* buf){
 539:Core/Src/GEVA.c ****     uint8_t error = 0;
 540:Core/Src/GEVA.c ****     error = put_line(o_x, o_y, o_x + width, o_y, buf);
 541:Core/Src/GEVA.c ****     error = put_line(o_x + width, o_y, o_x + width, o_y + height, buf);
 542:Core/Src/GEVA.c ****     error = put_line(o_x, o_y + height, o_x + width, o_y + height, buf);
 543:Core/Src/GEVA.c ****     error = put_line(o_x, o_y, o_x, o_y + height, buf);
 544:Core/Src/GEVA.c ****     return error;
 545:Core/Src/GEVA.c **** }
 546:Core/Src/GEVA.c **** 
 547:Core/Src/GEVA.c **** /* Draw triangle shape with specified vertices
ARM GAS  C:\Users\arist\AppData\Local\Temp\ccSK2xlW.s 			page 16


 548:Core/Src/GEVA.c ****  * return error code
 549:Core/Src/GEVA.c ****  * error code list:
 550:Core/Src/GEVA.c ****  * 4 point out of scope
 551:Core/Src/GEVA.c **** */
 552:Core/Src/GEVA.c **** uint8_t put_triangle(uint8_t a_x, uint8_t a_y, uint8_t b_x, uint8_t b_y, uint8_t c_x, uint8_t c_y, 
 553:Core/Src/GEVA.c ****     uint8_t error = 0;
 554:Core/Src/GEVA.c ****     error = put_line(a_x, a_y, b_x, b_y, buf);
 555:Core/Src/GEVA.c ****     error = put_line(a_x, a_y, c_x, c_y, buf);
 556:Core/Src/GEVA.c ****     error = put_line(b_x, b_y, c_x, c_y, buf);
 557:Core/Src/GEVA.c ****     return error;
 558:Core/Src/GEVA.c **** }
 559:Core/Src/GEVA.c **** 
 560:Core/Src/GEVA.c **** /* ========================================DATA VISUALIZATION======================================
 561:Core/Src/GEVA.c **** 
 562:Core/Src/GEVA.c **** uint8_t update_chart(float new_data, data_container* c, video_buffer* buf){
 563:Core/Src/GEVA.c ****     uint8_t error = 0;
 564:Core/Src/GEVA.c ****     c->data = new_data;
 565:Core/Src/GEVA.c **** 
 566:Core/Src/GEVA.c ****     switch (c->type) {
 567:Core/Src/GEVA.c ****     case COL:
 568:Core/Src/GEVA.c ****         error = update_COL(c,buf);
 569:Core/Src/GEVA.c ****         break;
 570:Core/Src/GEVA.c ****     case XY: //when calling update_XY new data is ignored: changing of data_container.xy_entry stru
 571:Core/Src/GEVA.c ****         error = update_XY(c, buf);
 572:Core/Src/GEVA.c ****         break;
 573:Core/Src/GEVA.c ****     case BAR:
 574:Core/Src/GEVA.c ****         error = update_BAR(c, buf);
 575:Core/Src/GEVA.c ****         break;
 576:Core/Src/GEVA.c ****     case LINE:
 577:Core/Src/GEVA.c ****         error = update_LINE(c,buf);
 578:Core/Src/GEVA.c ****         break;
 579:Core/Src/GEVA.c ****     case SCATTER:
 580:Core/Src/GEVA.c ****         error = update_SCATTER(c, buf);
 581:Core/Src/GEVA.c ****         break;
 582:Core/Src/GEVA.c ****     default:
 583:Core/Src/GEVA.c ****         break;
 584:Core/Src/GEVA.c **** 
 585:Core/Src/GEVA.c ****     }
 586:Core/Src/GEVA.c ****     return error;
 587:Core/Src/GEVA.c **** }
 588:Core/Src/GEVA.c **** 
 589:Core/Src/GEVA.c **** /* ===========================================INTERNAL FUNCTIONS===================================
 590:Core/Src/GEVA.c **** 
 591:Core/Src/GEVA.c **** /* Calculate the number of columns in number of bytes needed for the video buffer*/
 592:Core/Src/GEVA.c **** uint8_t byte_col_cnt(uint8_t size_x) {
 309              		.loc 1 592 38 is_stmt 1 view -0
 310              		.cfi_startproc
 311              		@ args = 0, pretend = 0, frame = 0
 312              		@ frame_needed = 0, uses_anonymous_args = 0
 313              		@ link register save eliminated.
 314              		.loc 1 592 38 is_stmt 0 view .LVU110
 315 0000 0346     		mov	r3, r0
 593:Core/Src/GEVA.c **** 
 594:Core/Src/GEVA.c ****     uint8_t col_n = (size_x / 8);
 316              		.loc 1 594 5 is_stmt 1 view .LVU111
 317              		.loc 1 594 13 is_stmt 0 view .LVU112
 318 0002 C008     		lsrs	r0, r0, #3
ARM GAS  C:\Users\arist\AppData\Local\Temp\ccSK2xlW.s 			page 17


 319              	.LVL13:
 595:Core/Src/GEVA.c **** 
 596:Core/Src/GEVA.c ****     if (size_x % 8)
 320              		.loc 1 596 5 is_stmt 1 view .LVU113
 321              		.loc 1 596 8 is_stmt 0 view .LVU114
 322 0004 13F0070F 		tst	r3, #7
 323 0008 00D0     		beq	.L21
 597:Core/Src/GEVA.c ****         col_n++;
 324              		.loc 1 597 9 is_stmt 1 view .LVU115
 325              		.loc 1 597 14 is_stmt 0 view .LVU116
 326 000a 0130     		adds	r0, r0, #1
 327              	.LVL14:
 328              	.L21:
 598:Core/Src/GEVA.c **** 
 599:Core/Src/GEVA.c ****     return col_n;
 329              		.loc 1 599 5 is_stmt 1 view .LVU117
 600:Core/Src/GEVA.c **** }
 330              		.loc 1 600 1 is_stmt 0 view .LVU118
 331 000c 7047     		bx	lr
 332              		.cfi_endproc
 333              	.LFE14:
 335              		.section	.text.buffer_byte_cnt,"ax",%progbits
 336              		.align	1
 337              		.global	buffer_byte_cnt
 338              		.syntax unified
 339              		.thumb
 340              		.thumb_func
 342              	buffer_byte_cnt:
 343              	.LVL15:
 344              	.LFB15:
 601:Core/Src/GEVA.c **** 
 602:Core/Src/GEVA.c **** /* Calculate the total number of bytes needed for the video buffer*/
 603:Core/Src/GEVA.c **** uint16_t buffer_byte_cnt(video_buffer* buf) {
 345              		.loc 1 603 45 is_stmt 1 view -0
 346              		.cfi_startproc
 347              		@ args = 0, pretend = 0, frame = 0
 348              		@ frame_needed = 0, uses_anonymous_args = 0
 349              		@ link register save eliminated.
 604:Core/Src/GEVA.c ****     
 605:Core/Src/GEVA.c ****     return buf->size_y * buf->byte_col_cnt;
 350              		.loc 1 605 5 view .LVU120
 351              		.loc 1 605 15 is_stmt 0 view .LVU121
 352 0000 4278     		ldrb	r2, [r0, #1]	@ zero_extendqisi2
 353              		.loc 1 605 29 view .LVU122
 354 0002 007A     		ldrb	r0, [r0, #8]	@ zero_extendqisi2
 355              	.LVL16:
 606:Core/Src/GEVA.c **** }
 356              		.loc 1 606 1 view .LVU123
 357 0004 02FB00F0 		mul	r0, r2, r0
 358 0008 7047     		bx	lr
 359              		.cfi_endproc
 360              	.LFE15:
 362              		.section	.text.init_buf,"ax",%progbits
 363              		.align	1
 364              		.global	init_buf
 365              		.syntax unified
 366              		.thumb
ARM GAS  C:\Users\arist\AppData\Local\Temp\ccSK2xlW.s 			page 18


 367              		.thumb_func
 369              	init_buf:
 370              	.LVL17:
 371              	.LFB0:
  30:Core/Src/GEVA.c ****     uint8_t error = 0;
 372              		.loc 1 30 69 is_stmt 1 view -0
 373              		.cfi_startproc
 374              		@ args = 0, pretend = 0, frame = 0
 375              		@ frame_needed = 0, uses_anonymous_args = 0
  30:Core/Src/GEVA.c ****     uint8_t error = 0;
 376              		.loc 1 30 69 is_stmt 0 view .LVU125
 377 0000 38B5     		push	{r3, r4, r5, lr}
 378              		.cfi_def_cfa_offset 16
 379              		.cfi_offset 3, -16
 380              		.cfi_offset 4, -12
 381              		.cfi_offset 5, -8
 382              		.cfi_offset 14, -4
 383 0002 0446     		mov	r4, r0
 384 0004 0846     		mov	r0, r1
 385              	.LVL18:
  31:Core/Src/GEVA.c ****     buf->size_x = size_x;
 386              		.loc 1 31 5 is_stmt 1 view .LVU126
  32:Core/Src/GEVA.c ****     buf->size_y = size_y;
 387              		.loc 1 32 5 view .LVU127
  32:Core/Src/GEVA.c ****     buf->size_y = size_y;
 388              		.loc 1 32 17 is_stmt 0 view .LVU128
 389 0006 2170     		strb	r1, [r4]
  33:Core/Src/GEVA.c ****     buf->byte_col_cnt = byte_col_cnt(size_x);
 390              		.loc 1 33 5 is_stmt 1 view .LVU129
  33:Core/Src/GEVA.c ****     buf->byte_col_cnt = byte_col_cnt(size_x);
 391              		.loc 1 33 17 is_stmt 0 view .LVU130
 392 0008 6270     		strb	r2, [r4, #1]
  34:Core/Src/GEVA.c ****     buf->byte_buffer_cnt = buffer_byte_cnt(buf);
 393              		.loc 1 34 5 is_stmt 1 view .LVU131
  34:Core/Src/GEVA.c ****     buf->byte_buffer_cnt = buffer_byte_cnt(buf);
 394              		.loc 1 34 25 is_stmt 0 view .LVU132
 395 000a FFF7FEFF 		bl	byte_col_cnt
 396              	.LVL19:
  34:Core/Src/GEVA.c ****     buf->byte_buffer_cnt = buffer_byte_cnt(buf);
 397              		.loc 1 34 23 view .LVU133
 398 000e 2072     		strb	r0, [r4, #8]
  35:Core/Src/GEVA.c ****     buf->vid_buf = (uint8_t *)malloc(buf->byte_buffer_cnt);
 399              		.loc 1 35 5 is_stmt 1 view .LVU134
  35:Core/Src/GEVA.c ****     buf->vid_buf = (uint8_t *)malloc(buf->byte_buffer_cnt);
 400              		.loc 1 35 28 is_stmt 0 view .LVU135
 401 0010 2046     		mov	r0, r4
 402 0012 FFF7FEFF 		bl	buffer_byte_cnt
 403              	.LVL20:
  35:Core/Src/GEVA.c ****     buf->vid_buf = (uint8_t *)malloc(buf->byte_buffer_cnt);
 404              		.loc 1 35 26 view .LVU136
 405 0016 6081     		strh	r0, [r4, #10]	@ movhi
  36:Core/Src/GEVA.c ****     
 406              		.loc 1 36 5 is_stmt 1 view .LVU137
  36:Core/Src/GEVA.c ****     
 407              		.loc 1 36 31 is_stmt 0 view .LVU138
 408 0018 FFF7FEFF 		bl	malloc
 409              	.LVL21:
ARM GAS  C:\Users\arist\AppData\Local\Temp\ccSK2xlW.s 			page 19


  36:Core/Src/GEVA.c ****     
 410              		.loc 1 36 18 view .LVU139
 411 001c 6060     		str	r0, [r4, #4]
  39:Core/Src/GEVA.c ****     buf->origin[1] = 0;
 412              		.loc 1 39 5 is_stmt 1 view .LVU140
  39:Core/Src/GEVA.c ****     buf->origin[1] = 0;
 413              		.loc 1 39 20 is_stmt 0 view .LVU141
 414 001e 0025     		movs	r5, #0
 415 0020 A573     		strb	r5, [r4, #14]
  40:Core/Src/GEVA.c ****     buf->r_matrix[0] = 0;
 416              		.loc 1 40 5 is_stmt 1 view .LVU142
  40:Core/Src/GEVA.c ****     buf->r_matrix[0] = 0;
 417              		.loc 1 40 20 is_stmt 0 view .LVU143
 418 0022 E573     		strb	r5, [r4, #15]
  41:Core/Src/GEVA.c ****     buf->r_matrix[1] = 0;
 419              		.loc 1 41 5 is_stmt 1 view .LVU144
  41:Core/Src/GEVA.c ****     buf->r_matrix[1] = 0;
 420              		.loc 1 41 22 is_stmt 0 view .LVU145
 421 0024 2574     		strb	r5, [r4, #16]
  42:Core/Src/GEVA.c ****     buf->r_matrix[2] = 0;
 422              		.loc 1 42 5 is_stmt 1 view .LVU146
  42:Core/Src/GEVA.c ****     buf->r_matrix[2] = 0;
 423              		.loc 1 42 22 is_stmt 0 view .LVU147
 424 0026 6574     		strb	r5, [r4, #17]
  43:Core/Src/GEVA.c ****     buf->r_matrix[3] = 0;
 425              		.loc 1 43 5 is_stmt 1 view .LVU148
  43:Core/Src/GEVA.c ****     buf->r_matrix[3] = 0;
 426              		.loc 1 43 22 is_stmt 0 view .LVU149
 427 0028 A574     		strb	r5, [r4, #18]
  44:Core/Src/GEVA.c **** 
 428              		.loc 1 44 5 is_stmt 1 view .LVU150
  44:Core/Src/GEVA.c **** 
 429              		.loc 1 44 22 is_stmt 0 view .LVU151
 430 002a E574     		strb	r5, [r4, #19]
  46:Core/Src/GEVA.c ****     set_mode(NORMAL, buf);
 431              		.loc 1 46 5 is_stmt 1 view .LVU152
 432 002c 2046     		mov	r0, r4
 433 002e FFF7FEFF 		bl	clr_buffer
 434              	.LVL22:
  47:Core/Src/GEVA.c ****     set_orientation(LANDSCAPE, buf);
 435              		.loc 1 47 5 view .LVU153
 436 0032 2146     		mov	r1, r4
 437 0034 2846     		mov	r0, r5
 438 0036 FFF7FEFF 		bl	set_mode
 439              	.LVL23:
  48:Core/Src/GEVA.c ****     return error;
 440              		.loc 1 48 5 view .LVU154
 441 003a 2146     		mov	r1, r4
 442 003c 2846     		mov	r0, r5
 443 003e FFF7FEFF 		bl	set_orientation
 444              	.LVL24:
  49:Core/Src/GEVA.c **** }
 445              		.loc 1 49 5 view .LVU155
  50:Core/Src/GEVA.c **** 
 446              		.loc 1 50 1 is_stmt 0 view .LVU156
 447 0042 2846     		mov	r0, r5
 448 0044 38BD     		pop	{r3, r4, r5, pc}
ARM GAS  C:\Users\arist\AppData\Local\Temp\ccSK2xlW.s 			page 20


  50:Core/Src/GEVA.c **** 
 449              		.loc 1 50 1 view .LVU157
 450              		.cfi_endproc
 451              	.LFE0:
 453              		.section	.text.get_buffer_index,"ax",%progbits
 454              		.align	1
 455              		.global	get_buffer_index
 456              		.syntax unified
 457              		.thumb
 458              		.thumb_func
 460              	get_buffer_index:
 461              	.LVL25:
 462              	.LFB16:
 607:Core/Src/GEVA.c **** 
 608:Core/Src/GEVA.c **** /* Set the video buffer index to address for  x & y position in the video matrix  
 609:Core/Src/GEVA.c ****  * Sanity check before calling
 610:Core/Src/GEVA.c **** */
 611:Core/Src/GEVA.c **** uint16_t get_buffer_index(uint8_t pos_x, uint8_t pos_y, uint8_t col_byte_cnt){
 463              		.loc 1 611 78 is_stmt 1 view -0
 464              		.cfi_startproc
 465              		@ args = 0, pretend = 0, frame = 0
 466              		@ frame_needed = 0, uses_anonymous_args = 0
 467              		@ link register save eliminated.
 612:Core/Src/GEVA.c **** 
 613:Core/Src/GEVA.c ****     return (col_byte_cnt * pos_y) + (uint8_t)(pos_x / 8);
 468              		.loc 1 613 5 view .LVU159
 469              		.loc 1 613 37 is_stmt 0 view .LVU160
 470 0000 C008     		lsrs	r0, r0, #3
 471              	.LVL26:
 472              		.loc 1 613 35 view .LVU161
 473 0002 02FB0100 		mla	r0, r2, r1, r0
 614:Core/Src/GEVA.c **** 
 615:Core/Src/GEVA.c **** }
 474              		.loc 1 615 1 view .LVU162
 475 0006 80B2     		uxth	r0, r0
 476 0008 7047     		bx	lr
 477              		.cfi_endproc
 478              	.LFE16:
 480              		.section	.text.put_vbc,"ax",%progbits
 481              		.align	1
 482              		.global	put_vbc
 483              		.syntax unified
 484              		.thumb
 485              		.thumb_func
 487              	put_vbc:
 488              	.LVL27:
 489              	.LFB9:
 476:Core/Src/GEVA.c ****     uint8_t error = 0;
 490              		.loc 1 476 73 is_stmt 1 view -0
 491              		.cfi_startproc
 492              		@ args = 8, pretend = 0, frame = 16
 493              		@ frame_needed = 0, uses_anonymous_args = 0
 476:Core/Src/GEVA.c ****     uint8_t error = 0;
 494              		.loc 1 476 73 is_stmt 0 view .LVU164
 495 0000 2DE9F04F 		push	{r4, r5, r6, r7, r8, r9, r10, fp, lr}
 496              		.cfi_def_cfa_offset 36
 497              		.cfi_offset 4, -36
ARM GAS  C:\Users\arist\AppData\Local\Temp\ccSK2xlW.s 			page 21


 498              		.cfi_offset 5, -32
 499              		.cfi_offset 6, -28
 500              		.cfi_offset 7, -24
 501              		.cfi_offset 8, -20
 502              		.cfi_offset 9, -16
 503              		.cfi_offset 10, -12
 504              		.cfi_offset 11, -8
 505              		.cfi_offset 14, -4
 506 0004 85B0     		sub	sp, sp, #20
 507              		.cfi_def_cfa_offset 56
 508 0006 04AC     		add	r4, sp, #16
 509 0008 04E90700 		stmdb	r4, {r0, r1, r2}
 510 000c 1D46     		mov	r5, r3
 511 000e 9DF83870 		ldrb	r7, [sp, #56]	@ zero_extendqisi2
 512 0012 0F9E     		ldr	r6, [sp, #60]
 477:Core/Src/GEVA.c ****     uint16_t vbc_body_byte = (((uint16_t)file.header.byte_cnt_h) << 8 | file.header.byte_cnt_l) - 5
 513              		.loc 1 477 5 is_stmt 1 view .LVU165
 514              	.LVL28:
 478:Core/Src/GEVA.c **** 
 515              		.loc 1 478 5 view .LVU166
 478:Core/Src/GEVA.c **** 
 516              		.loc 1 478 53 is_stmt 0 view .LVU167
 517 0014 9DF80730 		ldrb	r3, [sp, #7]	@ zero_extendqisi2
 518              	.LVL29:
 478:Core/Src/GEVA.c **** 
 519              		.loc 1 478 84 view .LVU168
 520 0018 9DF80840 		ldrb	r4, [sp, #8]	@ zero_extendqisi2
 478:Core/Src/GEVA.c **** 
 521              		.loc 1 478 71 view .LVU169
 522 001c 44EA0324 		orr	r4, r4, r3, lsl #8
 523              	.LVL30:
 480:Core/Src/GEVA.c ****         return 4;
 524              		.loc 1 480 5 is_stmt 1 view .LVU170
 480:Core/Src/GEVA.c ****         return 4;
 525              		.loc 1 480 16 is_stmt 0 view .LVU171
 526 0020 3378     		ldrb	r3, [r6]	@ zero_extendqisi2
 480:Core/Src/GEVA.c ****         return 4;
 527              		.loc 1 480 8 view .LVU172
 528 0022 AB42     		cmp	r3, r5
 529 0024 59D3     		bcc	.L33
 530 0026 053C     		subs	r4, r4, #5
 531              	.LVL31:
 480:Core/Src/GEVA.c ****         return 4;
 532              		.loc 1 480 8 view .LVU173
 533 0028 A4B2     		uxth	r4, r4
 534              	.LVL32:
 480:Core/Src/GEVA.c ****         return 4;
 535              		.loc 1 480 44 discriminator 1 view .LVU174
 536 002a 96F80180 		ldrb	r8, [r6, #1]	@ zero_extendqisi2
 480:Core/Src/GEVA.c ****         return 4;
 537              		.loc 1 480 53 discriminator 1 view .LVU175
 538 002e B845     		cmp	r8, r7
 539 0030 55D3     		bcc	.L34
 483:Core/Src/GEVA.c ****         error = 1;
 540              		.loc 1 483 5 is_stmt 1 view .LVU176
 483:Core/Src/GEVA.c ****         error = 1;
 541              		.loc 1 483 20 is_stmt 0 view .LVU177
ARM GAS  C:\Users\arist\AppData\Local\Temp\ccSK2xlW.s 			page 22


 542 0032 9DF80420 		ldrb	r2, [sp, #4]	@ zero_extendqisi2
 483:Core/Src/GEVA.c ****         error = 1;
 543              		.loc 1 483 8 view .LVU178
 544 0036 A72A     		cmp	r2, #167
 545 0038 03D0     		beq	.L40
 484:Core/Src/GEVA.c ****     else if (y + file.header.height > buf->size_y || x + file.header.width > buf->size_x)
 546              		.loc 1 484 15 view .LVU179
 547 003a 0120     		movs	r0, #1
 548              	.L27:
 549              	.LVL33:
 503:Core/Src/GEVA.c **** 
 550              		.loc 1 503 1 view .LVU180
 551 003c 05B0     		add	sp, sp, #20
 552              		.cfi_remember_state
 553              		.cfi_def_cfa_offset 36
 554              		@ sp needed
 555 003e BDE8F08F 		pop	{r4, r5, r6, r7, r8, r9, r10, fp, pc}
 556              	.LVL34:
 557              	.L40:
 558              		.cfi_restore_state
 485:Core/Src/GEVA.c ****         error = 2;
 559              		.loc 1 485 10 is_stmt 1 view .LVU181
 485:Core/Src/GEVA.c ****         error = 2;
 560              		.loc 1 485 29 is_stmt 0 view .LVU182
 561 0042 9DF806A0 		ldrb	r10, [sp, #6]	@ zero_extendqisi2
 485:Core/Src/GEVA.c ****         error = 2;
 562              		.loc 1 485 16 view .LVU183
 563 0046 07EB0A02 		add	r2, r7, r10
 485:Core/Src/GEVA.c ****         error = 2;
 564              		.loc 1 485 13 view .LVU184
 565 004a 4245     		cmp	r2, r8
 566 004c 49DC     		bgt	.L36
 485:Core/Src/GEVA.c ****         error = 2;
 567              		.loc 1 485 69 discriminator 1 view .LVU185
 568 004e 9DF80590 		ldrb	r9, [sp, #5]	@ zero_extendqisi2
 485:Core/Src/GEVA.c ****         error = 2;
 569              		.loc 1 485 56 discriminator 1 view .LVU186
 570 0052 05EB0902 		add	r2, r5, r9
 485:Core/Src/GEVA.c ****         error = 2;
 571              		.loc 1 485 51 discriminator 1 view .LVU187
 572 0056 9A42     		cmp	r2, r3
 573 0058 45DC     		bgt	.L37
 487:Core/Src/GEVA.c ****         error = 3;
 574              		.loc 1 487 10 is_stmt 1 view .LVU188
 487:Core/Src/GEVA.c ****         error = 3;
 575              		.loc 1 487 33 is_stmt 0 view .LVU189
 576 005a B6F80AB0 		ldrh	fp, [r6, #10]
 487:Core/Src/GEVA.c ****         error = 3;
 577              		.loc 1 487 53 view .LVU190
 578 005e 337A     		ldrb	r3, [r6, #8]	@ zero_extendqisi2
 579 0060 0093     		str	r3, [sp]
 580 0062 1A46     		mov	r2, r3
 581 0064 3946     		mov	r1, r7
 582 0066 2846     		mov	r0, r5
 583 0068 FFF7FEFF 		bl	get_buffer_index
 584              	.LVL35:
 487:Core/Src/GEVA.c ****         error = 3;
ARM GAS  C:\Users\arist\AppData\Local\Temp\ccSK2xlW.s 			page 23


 585              		.loc 1 487 51 view .LVU191
 586 006c ABEB0000 		sub	r0, fp, r0
 487:Core/Src/GEVA.c ****         error = 3;
 587              		.loc 1 487 13 view .LVU192
 588 0070 8442     		cmp	r4, r0
 589 0072 3ADC     		bgt	.L38
 489:Core/Src/GEVA.c ****         buf->vid_buf = file.body;
 590              		.loc 1 489 10 is_stmt 1 view .LVU193
 489:Core/Src/GEVA.c ****         buf->vid_buf = file.body;
 591              		.loc 1 489 13 is_stmt 0 view .LVU194
 592 0074 A345     		cmp	fp, r4
 593 0076 10D0     		beq	.L41
 594              	.LBB4:
 493:Core/Src/GEVA.c ****         uint16_t start_byte_ptr = get_buffer_index(x, buf->size_y - 1 - y, buf->byte_col_cnt);
 595              		.loc 1 493 9 is_stmt 1 view .LVU195
 493:Core/Src/GEVA.c ****         uint16_t start_byte_ptr = get_buffer_index(x, buf->size_y - 1 - y, buf->byte_col_cnt);
 596              		.loc 1 493 17 is_stmt 0 view .LVU196
 597 0078 19F0070F 		tst	r9, #7
 598 007c 11D1     		bne	.L29
 493:Core/Src/GEVA.c ****         uint16_t start_byte_ptr = get_buffer_index(x, buf->size_y - 1 - y, buf->byte_col_cnt);
 599              		.loc 1 493 17 discriminator 1 view .LVU197
 600 007e 4FEAD909 		lsr	r9, r9, #3
 601              	.L30:
 602              	.LVL36:
 494:Core/Src/GEVA.c ****         uint16_t buffer_byte_ptr = start_byte_ptr;
 603              		.loc 1 494 9 is_stmt 1 discriminator 4 view .LVU198
 494:Core/Src/GEVA.c ****         uint16_t buffer_byte_ptr = start_byte_ptr;
 604              		.loc 1 494 71 is_stmt 0 discriminator 4 view .LVU199
 605 0082 A8EB0701 		sub	r1, r8, r7
 606 0086 C9B2     		uxtb	r1, r1
 494:Core/Src/GEVA.c ****         uint16_t buffer_byte_ptr = start_byte_ptr;
 607              		.loc 1 494 35 discriminator 4 view .LVU200
 608 0088 0139     		subs	r1, r1, #1
 609 008a 009A     		ldr	r2, [sp]
 610 008c C9B2     		uxtb	r1, r1
 611 008e 2846     		mov	r0, r5
 612 0090 FFF7FEFF 		bl	get_buffer_index
 613              	.LVL37:
 614 0094 0546     		mov	r5, r0
 615              	.LVL38:
 495:Core/Src/GEVA.c **** 
 616              		.loc 1 495 9 is_stmt 1 discriminator 4 view .LVU201
 497:Core/Src/GEVA.c ****             buffer_byte_ptr = start_byte_ptr - (buf->byte_col_cnt * row);
 617              		.loc 1 497 9 discriminator 4 view .LVU202
 618              	.LBB5:
 497:Core/Src/GEVA.c ****             buffer_byte_ptr = start_byte_ptr - (buf->byte_col_cnt * row);
 619              		.loc 1 497 14 discriminator 4 view .LVU203
 497:Core/Src/GEVA.c ****             buffer_byte_ptr = start_byte_ptr - (buf->byte_col_cnt * row);
 620              		.loc 1 497 22 is_stmt 0 discriminator 4 view .LVU204
 621 0096 0024     		movs	r4, #0
 497:Core/Src/GEVA.c ****             buffer_byte_ptr = start_byte_ptr - (buf->byte_col_cnt * row);
 622              		.loc 1 497 9 discriminator 4 view .LVU205
 623 0098 19E0     		b	.L31
 624              	.LVL39:
 625              	.L41:
 497:Core/Src/GEVA.c ****             buffer_byte_ptr = start_byte_ptr - (buf->byte_col_cnt * row);
 626              		.loc 1 497 9 discriminator 4 view .LVU206
ARM GAS  C:\Users\arist\AppData\Local\Temp\ccSK2xlW.s 			page 24


 627              	.LBE5:
 628              	.LBE4:
 490:Core/Src/GEVA.c ****     }
 629              		.loc 1 490 9 is_stmt 1 view .LVU207
 490:Core/Src/GEVA.c ****     }
 630              		.loc 1 490 28 is_stmt 0 view .LVU208
 631 009a 039B     		ldr	r3, [sp, #12]
 490:Core/Src/GEVA.c ****     }
 632              		.loc 1 490 22 view .LVU209
 633 009c 7360     		str	r3, [r6, #4]
 477:Core/Src/GEVA.c ****     uint16_t vbc_body_byte = (((uint16_t)file.header.byte_cnt_h) << 8 | file.header.byte_cnt_l) - 5
 634              		.loc 1 477 13 view .LVU210
 635 009e 0020     		movs	r0, #0
 636 00a0 CCE7     		b	.L27
 637              	.L29:
 638              	.LBB8:
 493:Core/Src/GEVA.c ****         uint16_t start_byte_ptr = get_buffer_index(x, buf->size_y - 1 - y, buf->byte_col_cnt);
 639              		.loc 1 493 107 discriminator 2 view .LVU211
 640 00a2 4FEAD909 		lsr	r9, r9, #3
 493:Core/Src/GEVA.c ****         uint16_t start_byte_ptr = get_buffer_index(x, buf->size_y - 1 - y, buf->byte_col_cnt);
 641              		.loc 1 493 17 discriminator 2 view .LVU212
 642 00a6 09F10109 		add	r9, r9, #1
 643 00aa EAE7     		b	.L30
 644              	.LVL40:
 645              	.L32:
 646              	.LBB6:
 498:Core/Src/GEVA.c ****             memmove(&buf->vid_buf[buffer_byte_ptr], &file.body[((file.header.height - 1) * byte_wid
 647              		.loc 1 498 13 is_stmt 1 discriminator 3 view .LVU213
 498:Core/Src/GEVA.c ****             memmove(&buf->vid_buf[buffer_byte_ptr], &file.body[((file.header.height - 1) * byte_wid
 648              		.loc 1 498 52 is_stmt 0 discriminator 3 view .LVU214
 649 00ac 307A     		ldrb	r0, [r6, #8]	@ zero_extendqisi2
 498:Core/Src/GEVA.c ****             memmove(&buf->vid_buf[buffer_byte_ptr], &file.body[((file.header.height - 1) * byte_wid
 650              		.loc 1 498 29 discriminator 3 view .LVU215
 651 00ae 04FB1050 		mls	r0, r4, r0, r5
 652              	.LVL41:
 499:Core/Src/GEVA.c ****         }
 653              		.loc 1 499 13 is_stmt 1 discriminator 3 view .LVU216
 499:Core/Src/GEVA.c ****         }
 654              		.loc 1 499 25 is_stmt 0 discriminator 3 view .LVU217
 655 00b2 7368     		ldr	r3, [r6, #4]
 499:Core/Src/GEVA.c ****         }
 656              		.loc 1 499 90 discriminator 3 view .LVU218
 657 00b4 01FB09F1 		mul	r1, r1, r9
 499:Core/Src/GEVA.c ****         }
 658              		.loc 1 499 104 discriminator 3 view .LVU219
 659 00b8 04FB1911 		mls	r1, r4, r9, r1
 499:Core/Src/GEVA.c ****         }
 660              		.loc 1 499 13 discriminator 3 view .LVU220
 661 00bc 4A46     		mov	r2, r9
 662 00be 039F     		ldr	r7, [sp, #12]
 663 00c0 3944     		add	r1, r1, r7
 664 00c2 13FA80F0 		uxtah	r0, r3, r0
 665              	.LVL42:
 499:Core/Src/GEVA.c ****         }
 666              		.loc 1 499 13 discriminator 3 view .LVU221
 667 00c6 FFF7FEFF 		bl	memmove
 668              	.LVL43:
ARM GAS  C:\Users\arist\AppData\Local\Temp\ccSK2xlW.s 			page 25


 497:Core/Src/GEVA.c ****             buffer_byte_ptr = start_byte_ptr - (buf->byte_col_cnt * row);
 669              		.loc 1 497 64 is_stmt 1 discriminator 3 view .LVU222
 670 00ca 0134     		adds	r4, r4, #1
 671              	.LVL44:
 497:Core/Src/GEVA.c ****             buffer_byte_ptr = start_byte_ptr - (buf->byte_col_cnt * row);
 672              		.loc 1 497 64 is_stmt 0 discriminator 3 view .LVU223
 673 00cc E4B2     		uxtb	r4, r4
 674              	.LVL45:
 675              	.L31:
 497:Core/Src/GEVA.c ****             buffer_byte_ptr = start_byte_ptr - (buf->byte_col_cnt * row);
 676              		.loc 1 497 35 is_stmt 1 discriminator 1 view .LVU224
 497:Core/Src/GEVA.c ****             buffer_byte_ptr = start_byte_ptr - (buf->byte_col_cnt * row);
 677              		.loc 1 497 56 is_stmt 0 discriminator 1 view .LVU225
 678 00ce 0AF1FF31 		add	r1, r10, #-1
 497:Core/Src/GEVA.c ****             buffer_byte_ptr = start_byte_ptr - (buf->byte_col_cnt * row);
 679              		.loc 1 497 35 discriminator 1 view .LVU226
 680 00d2 8C42     		cmp	r4, r1
 681 00d4 EADB     		blt	.L32
 682              	.LBE6:
 683              	.LBE8:
 477:Core/Src/GEVA.c ****     uint16_t vbc_body_byte = (((uint16_t)file.header.byte_cnt_h) << 8 | file.header.byte_cnt_l) - 5
 684              		.loc 1 477 13 view .LVU227
 685 00d6 0020     		movs	r0, #0
 686              	.LBB9:
 687              	.LBB7:
 688 00d8 B0E7     		b	.L27
 689              	.LVL46:
 690              	.L33:
 477:Core/Src/GEVA.c ****     uint16_t vbc_body_byte = (((uint16_t)file.header.byte_cnt_h) << 8 | file.header.byte_cnt_l) - 5
 691              		.loc 1 477 13 view .LVU228
 692              	.LBE7:
 693              	.LBE9:
 481:Core/Src/GEVA.c **** 
 694              		.loc 1 481 16 view .LVU229
 695 00da 0420     		movs	r0, #4
 696 00dc AEE7     		b	.L27
 697              	.LVL47:
 698              	.L34:
 481:Core/Src/GEVA.c **** 
 699              		.loc 1 481 16 view .LVU230
 700 00de 0420     		movs	r0, #4
 701 00e0 ACE7     		b	.L27
 702              	.L36:
 486:Core/Src/GEVA.c ****     else if (vbc_body_byte > buf->byte_buffer_cnt - get_buffer_index(x, y, buf->byte_col_cnt))
 703              		.loc 1 486 15 view .LVU231
 704 00e2 0220     		movs	r0, #2
 705 00e4 AAE7     		b	.L27
 706              	.L37:
 707 00e6 0220     		movs	r0, #2
 708 00e8 A8E7     		b	.L27
 709              	.L38:
 488:Core/Src/GEVA.c ****     else if (vbc_body_byte == buf->byte_buffer_cnt) {
 710              		.loc 1 488 15 view .LVU232
 711 00ea 0320     		movs	r0, #3
 712 00ec A6E7     		b	.L27
 713              		.cfi_endproc
 714              	.LFE9:
ARM GAS  C:\Users\arist\AppData\Local\Temp\ccSK2xlW.s 			page 26


 716              		.section	.text.normalize_pos,"ax",%progbits
 717              		.align	1
 718              		.global	normalize_pos
 719              		.syntax unified
 720              		.thumb
 721              		.thumb_func
 723              	normalize_pos:
 724              	.LVL48:
 725              	.LFB17:
 616:Core/Src/GEVA.c **** 
 617:Core/Src/GEVA.c **** /* Normalize orientation operation.  
 618:Core/Src/GEVA.c ****  * Project coordinates in LANDSCAPE coordinates
 619:Core/Src/GEVA.c **** */
 620:Core/Src/GEVA.c **** uint8_t * normalize_pos(uint8_t pos_x, uint8_t pos_y, video_buffer* buf) {
 726              		.loc 1 620 74 is_stmt 1 view -0
 727              		.cfi_startproc
 728              		@ args = 0, pretend = 0, frame = 0
 729              		@ frame_needed = 0, uses_anonymous_args = 0
 730              		.loc 1 620 74 is_stmt 0 view .LVU234
 731 0000 70B5     		push	{r4, r5, r6, lr}
 732              		.cfi_def_cfa_offset 16
 733              		.cfi_offset 4, -16
 734              		.cfi_offset 5, -12
 735              		.cfi_offset 6, -8
 736              		.cfi_offset 14, -4
 737 0002 0646     		mov	r6, r0
 738 0004 0D46     		mov	r5, r1
 739 0006 1446     		mov	r4, r2
 621:Core/Src/GEVA.c **** 
 622:Core/Src/GEVA.c ****     uint8_t *pos = (uint8_t*)malloc(2);
 740              		.loc 1 622 5 is_stmt 1 view .LVU235
 741              		.loc 1 622 30 is_stmt 0 view .LVU236
 742 0008 0220     		movs	r0, #2
 743              	.LVL49:
 744              		.loc 1 622 30 view .LVU237
 745 000a FFF7FEFF 		bl	malloc
 746              	.LVL50:
 623:Core/Src/GEVA.c ****     pos[0] = buf->origin[X] + (pos_x * buf->r_matrix[_A]) + (pos_y * buf->r_matrix[_B]);
 747              		.loc 1 623 5 is_stmt 1 view .LVU238
 748              		.loc 1 623 25 is_stmt 0 view .LVU239
 749 000e A17B     		ldrb	r1, [r4, #14]	@ zero_extendqisi2
 750              		.loc 1 623 83 view .LVU240
 751 0010 94F911C0 		ldrsb	ip, [r4, #17]
 752              		.loc 1 623 53 view .LVU241
 753 0014 94F91030 		ldrsb	r3, [r4, #16]
 754              		.loc 1 623 59 view .LVU242
 755 0018 13FB06F3 		smulbb	r3, r3, r6
 756 001c 0CFB0533 		mla	r3, ip, r5, r3
 757 0020 0B44     		add	r3, r3, r1
 758              		.loc 1 623 12 view .LVU243
 759 0022 0370     		strb	r3, [r0]
 624:Core/Src/GEVA.c ****     pos[1] = buf->origin[Y] + (pos_x * buf->r_matrix[_C]) + (pos_y * buf->r_matrix[_D]);
 760              		.loc 1 624 5 is_stmt 1 view .LVU244
 761              		.loc 1 624 25 is_stmt 0 view .LVU245
 762 0024 94F80FC0 		ldrb	ip, [r4, #15]	@ zero_extendqisi2
 763              		.loc 1 624 83 view .LVU246
 764 0028 94F91310 		ldrsb	r1, [r4, #19]
ARM GAS  C:\Users\arist\AppData\Local\Temp\ccSK2xlW.s 			page 27


 765              		.loc 1 624 53 view .LVU247
 766 002c 94F91230 		ldrsb	r3, [r4, #18]
 767              		.loc 1 624 59 view .LVU248
 768 0030 13FB06F3 		smulbb	r3, r3, r6
 769 0034 01FB0531 		mla	r1, r1, r5, r3
 770 0038 0CEB0103 		add	r3, ip, r1
 771              		.loc 1 624 12 view .LVU249
 772 003c 4370     		strb	r3, [r0, #1]
 625:Core/Src/GEVA.c ****     
 626:Core/Src/GEVA.c ****     return pos;
 773              		.loc 1 626 5 is_stmt 1 view .LVU250
 627:Core/Src/GEVA.c **** }
 774              		.loc 1 627 1 is_stmt 0 view .LVU251
 775 003e 70BD     		pop	{r4, r5, r6, pc}
 776              		.loc 1 627 1 view .LVU252
 777              		.cfi_endproc
 778              	.LFE17:
 780              		.section	.text.put_pixel,"ax",%progbits
 781              		.align	1
 782              		.global	put_pixel
 783              		.syntax unified
 784              		.thumb
 785              		.thumb_func
 787              	put_pixel:
 788              	.LVL51:
 789              	.LFB4:
 134:Core/Src/GEVA.c **** 
 790              		.loc 1 134 86 is_stmt 1 view -0
 791              		.cfi_startproc
 792              		@ args = 0, pretend = 0, frame = 0
 793              		@ frame_needed = 0, uses_anonymous_args = 0
 134:Core/Src/GEVA.c **** 
 794              		.loc 1 134 86 is_stmt 0 view .LVU254
 795 0000 2DE9F041 		push	{r4, r5, r6, r7, r8, lr}
 796              		.cfi_def_cfa_offset 24
 797              		.cfi_offset 4, -24
 798              		.cfi_offset 5, -20
 799              		.cfi_offset 6, -16
 800              		.cfi_offset 7, -12
 801              		.cfi_offset 8, -8
 802              		.cfi_offset 14, -4
 803 0004 9046     		mov	r8, r2
 804 0006 1C46     		mov	r4, r3
 136:Core/Src/GEVA.c ****     uint8_t *n_pos = normalize_pos(pos_x, pos_y, buf);
 805              		.loc 1 136 5 is_stmt 1 view .LVU255
 806              	.LVL52:
 137:Core/Src/GEVA.c **** 
 807              		.loc 1 137 5 view .LVU256
 137:Core/Src/GEVA.c **** 
 808              		.loc 1 137 22 is_stmt 0 view .LVU257
 809 0008 1A46     		mov	r2, r3
 810              	.LVL53:
 137:Core/Src/GEVA.c **** 
 811              		.loc 1 137 22 view .LVU258
 812 000a FFF7FEFF 		bl	normalize_pos
 813              	.LVL54:
 137:Core/Src/GEVA.c **** 
ARM GAS  C:\Users\arist\AppData\Local\Temp\ccSK2xlW.s 			page 28


 814              		.loc 1 137 22 view .LVU259
 815 000e 0546     		mov	r5, r0
 816              	.LVL55:
 139:Core/Src/GEVA.c ****         error = 4;
 817              		.loc 1 139 5 is_stmt 1 view .LVU260
 139:Core/Src/GEVA.c ****         error = 4;
 818              		.loc 1 139 42 is_stmt 0 view .LVU261
 819 0010 6178     		ldrb	r1, [r4, #1]	@ zero_extendqisi2
 139:Core/Src/GEVA.c ****         error = 4;
 820              		.loc 1 139 33 view .LVU262
 821 0012 4378     		ldrb	r3, [r0, #1]	@ zero_extendqisi2
 139:Core/Src/GEVA.c ****         error = 4;
 822              		.loc 1 139 8 view .LVU263
 823 0014 9942     		cmp	r1, r3
 824 0016 35D9     		bls	.L48
 139:Core/Src/GEVA.c ****         error = 4;
 825              		.loc 1 139 92 discriminator 1 view .LVU264
 826 0018 2278     		ldrb	r2, [r4]	@ zero_extendqisi2
 139:Core/Src/GEVA.c ****         error = 4;
 827              		.loc 1 139 83 discriminator 1 view .LVU265
 828 001a 0678     		ldrb	r6, [r0]	@ zero_extendqisi2
 139:Core/Src/GEVA.c ****         error = 4;
 829              		.loc 1 139 74 discriminator 1 view .LVU266
 830 001c B242     		cmp	r2, r6
 831 001e 38D9     		bls	.L49
 142:Core/Src/GEVA.c ****             color = CLEAR_C;
 832              		.loc 1 142 9 is_stmt 1 view .LVU267
 142:Core/Src/GEVA.c ****             color = CLEAR_C;
 833              		.loc 1 142 16 is_stmt 0 view .LVU268
 834 0020 227B     		ldrb	r2, [r4, #12]	@ zero_extendqisi2
 142:Core/Src/GEVA.c ****             color = CLEAR_C;
 835              		.loc 1 142 12 view .LVU269
 836 0022 12EA0807 		ands	r7, r2, r8
 837 0026 19D1     		bne	.L46
 144:Core/Src/GEVA.c ****             color = SET_C;
 838              		.loc 1 144 14 is_stmt 1 view .LVU270
 144:Core/Src/GEVA.c ****             color = SET_C;
 839              		.loc 1 144 17 is_stmt 0 view .LVU271
 840 0028 32EA0802 		bics	r2, r2, r8
 841 002c 02D1     		bne	.L47
 842              	.LVL56:
 147:Core/Src/GEVA.c ****             buf->vid_buf[get_buffer_index(n_pos[X], (buf->size_y - n_pos[Y] - 1), buf->byte_col_cnt
 843              		.loc 1 147 9 is_stmt 1 view .LVU272
 147:Core/Src/GEVA.c ****             buf->vid_buf[get_buffer_index(n_pos[X], (buf->size_y - n_pos[Y] - 1), buf->byte_col_cnt
 844              		.loc 1 147 12 is_stmt 0 view .LVU273
 845 002e B8F1000F 		cmp	r8, #0
 846 0032 13D0     		beq	.L46
 847              	.LVL57:
 848              	.L47:
 148:Core/Src/GEVA.c ****         else
 849              		.loc 1 148 13 is_stmt 1 view .LVU274
 148:Core/Src/GEVA.c ****         else
 850              		.loc 1 148 16 is_stmt 0 view .LVU275
 851 0034 D4F80480 		ldr	r8, [r4, #4]
 148:Core/Src/GEVA.c ****         else
 852              		.loc 1 148 66 view .LVU276
 853 0038 C91A     		subs	r1, r1, r3
ARM GAS  C:\Users\arist\AppData\Local\Temp\ccSK2xlW.s 			page 29


 854 003a C9B2     		uxtb	r1, r1
 148:Core/Src/GEVA.c ****         else
 855              		.loc 1 148 26 view .LVU277
 856 003c 0139     		subs	r1, r1, #1
 857 003e 227A     		ldrb	r2, [r4, #8]	@ zero_extendqisi2
 858 0040 C9B2     		uxtb	r1, r1
 859 0042 3046     		mov	r0, r6
 860              	.LVL58:
 148:Core/Src/GEVA.c ****         else
 861              		.loc 1 148 26 view .LVU278
 862 0044 FFF7FEFF 		bl	get_buffer_index
 863              	.LVL59:
 148:Core/Src/GEVA.c ****         else
 864              		.loc 1 148 25 view .LVU279
 865 0048 18F80030 		ldrb	r3, [r8, r0]	@ zero_extendqisi2
 148:Core/Src/GEVA.c ****         else
 866              		.loc 1 148 124 view .LVU280
 867 004c 06F00706 		and	r6, r6, #7
 148:Core/Src/GEVA.c ****         else
 868              		.loc 1 148 111 view .LVU281
 869 0050 8022     		movs	r2, #128
 870 0052 3241     		asrs	r2, r2, r6
 148:Core/Src/GEVA.c ****         else
 871              		.loc 1 148 103 view .LVU282
 872 0054 1343     		orrs	r3, r3, r2
 873 0056 08F80030 		strb	r3, [r8, r0]
 874 005a 14E0     		b	.L45
 875              	.LVL60:
 876              	.L46:
 150:Core/Src/GEVA.c ****     }
 877              		.loc 1 150 13 is_stmt 1 view .LVU283
 150:Core/Src/GEVA.c ****     }
 878              		.loc 1 150 16 is_stmt 0 view .LVU284
 879 005c 6768     		ldr	r7, [r4, #4]
 150:Core/Src/GEVA.c ****     }
 880              		.loc 1 150 66 view .LVU285
 881 005e C91A     		subs	r1, r1, r3
 882 0060 C9B2     		uxtb	r1, r1
 150:Core/Src/GEVA.c ****     }
 883              		.loc 1 150 26 view .LVU286
 884 0062 0139     		subs	r1, r1, #1
 885 0064 227A     		ldrb	r2, [r4, #8]	@ zero_extendqisi2
 886 0066 C9B2     		uxtb	r1, r1
 887 0068 3046     		mov	r0, r6
 888              	.LVL61:
 150:Core/Src/GEVA.c ****     }
 889              		.loc 1 150 26 view .LVU287
 890 006a FFF7FEFF 		bl	get_buffer_index
 891              	.LVL62:
 150:Core/Src/GEVA.c ****     }
 892              		.loc 1 150 25 view .LVU288
 893 006e 3A5C     		ldrb	r2, [r7, r0]	@ zero_extendqisi2
 150:Core/Src/GEVA.c ****     }
 894              		.loc 1 150 126 view .LVU289
 895 0070 06F00706 		and	r6, r6, #7
 150:Core/Src/GEVA.c ****     }
 896              		.loc 1 150 113 view .LVU290
ARM GAS  C:\Users\arist\AppData\Local\Temp\ccSK2xlW.s 			page 30


 897 0074 8023     		movs	r3, #128
 898 0076 3341     		asrs	r3, r3, r6
 150:Core/Src/GEVA.c ****     }
 899              		.loc 1 150 103 view .LVU291
 900 0078 DB43     		mvns	r3, r3
 901 007a 5BB2     		sxtb	r3, r3
 902 007c 1340     		ands	r3, r3, r2
 903 007e 3B54     		strb	r3, [r7, r0]
 136:Core/Src/GEVA.c ****     uint8_t *n_pos = normalize_pos(pos_x, pos_y, buf);
 904              		.loc 1 136 13 view .LVU292
 905 0080 0027     		movs	r7, #0
 906 0082 00E0     		b	.L45
 907              	.LVL63:
 908              	.L48:
 140:Core/Src/GEVA.c ****     else {
 909              		.loc 1 140 15 view .LVU293
 910 0084 0427     		movs	r7, #4
 911              	.LVL64:
 912              	.L45:
 152:Core/Src/GEVA.c ****     return error;
 913              		.loc 1 152 5 is_stmt 1 view .LVU294
 914 0086 2846     		mov	r0, r5
 915 0088 FFF7FEFF 		bl	free
 916              	.LVL65:
 153:Core/Src/GEVA.c **** }
 917              		.loc 1 153 5 view .LVU295
 154:Core/Src/GEVA.c **** 
 918              		.loc 1 154 1 is_stmt 0 view .LVU296
 919 008c 3846     		mov	r0, r7
 920 008e BDE8F081 		pop	{r4, r5, r6, r7, r8, pc}
 921              	.LVL66:
 922              	.L49:
 140:Core/Src/GEVA.c ****     else {
 923              		.loc 1 140 15 view .LVU297
 924 0092 0427     		movs	r7, #4
 925 0094 F7E7     		b	.L45
 926              		.cfi_endproc
 927              	.LFE4:
 929              		.section	.text.put_circle,"ax",%progbits
 930              		.align	1
 931              		.global	put_circle
 932              		.syntax unified
 933              		.thumb
 934              		.thumb_func
 936              	put_circle:
 937              	.LVL67:
 938              	.LFB10:
 513:Core/Src/GEVA.c **** 
 939              		.loc 1 513 76 is_stmt 1 view -0
 940              		.cfi_startproc
 941              		@ args = 0, pretend = 0, frame = 0
 942              		@ frame_needed = 0, uses_anonymous_args = 0
 513:Core/Src/GEVA.c **** 
 943              		.loc 1 513 76 is_stmt 0 view .LVU299
 944 0000 2DE9F84F 		push	{r3, r4, r5, r6, r7, r8, r9, r10, fp, lr}
 945              		.cfi_def_cfa_offset 40
 946              		.cfi_offset 3, -40
ARM GAS  C:\Users\arist\AppData\Local\Temp\ccSK2xlW.s 			page 31


 947              		.cfi_offset 4, -36
 948              		.cfi_offset 5, -32
 949              		.cfi_offset 6, -28
 950              		.cfi_offset 7, -24
 951              		.cfi_offset 8, -20
 952              		.cfi_offset 9, -16
 953              		.cfi_offset 10, -12
 954              		.cfi_offset 11, -8
 955              		.cfi_offset 14, -4
 956 0004 8246     		mov	r10, r0
 957 0006 8946     		mov	r9, r1
 958 0008 1546     		mov	r5, r2
 959 000a 9846     		mov	r8, r3
 515:Core/Src/GEVA.c ****     uint16_t s = 0;
 960              		.loc 1 515 5 is_stmt 1 view .LVU300
 961              	.LVL68:
 516:Core/Src/GEVA.c ****     uint16_t rsqr = r * r;
 962              		.loc 1 516 5 view .LVU301
 517:Core/Src/GEVA.c ****     
 963              		.loc 1 517 5 view .LVU302
 517:Core/Src/GEVA.c ****     
 964              		.loc 1 517 14 is_stmt 0 view .LVU303
 965 000c 02FB02F7 		mul	r7, r2, r2
 966              	.LVL69:
 519:Core/Src/GEVA.c ****         for (int16_t x = -r; x <= r; x++) {
 967              		.loc 1 519 5 is_stmt 1 view .LVU304
 968              	.LBB10:
 519:Core/Src/GEVA.c ****         for (int16_t x = -r; x <= r; x++) {
 969              		.loc 1 519 10 view .LVU305
 519:Core/Src/GEVA.c ****         for (int16_t x = -r; x <= r; x++) {
 970              		.loc 1 519 18 is_stmt 0 view .LVU306
 971 0010 C2F1000B 		rsb	fp, r2, #0
 972 0014 0FFA8BFB 		sxth	fp, fp
 973              	.LVL70:
 519:Core/Src/GEVA.c ****         for (int16_t x = -r; x <= r; x++) {
 974              		.loc 1 519 18 view .LVU307
 975 0018 5E46     		mov	r6, fp
 976              	.LBE10:
 515:Core/Src/GEVA.c ****     uint16_t s = 0;
 977              		.loc 1 515 13 view .LVU308
 978 001a 0020     		movs	r0, #0
 979              	.LVL71:
 980              	.LBB13:
 519:Core/Src/GEVA.c ****         for (int16_t x = -r; x <= r; x++) {
 981              		.loc 1 519 5 view .LVU309
 982 001c 1FE0     		b	.L52
 983              	.LVL72:
 984              	.L53:
 985              	.LBB11:
 520:Core/Src/GEVA.c ****             s = x * x + y * y;
 986              		.loc 1 520 39 is_stmt 1 discriminator 2 view .LVU310
 987 001e 0134     		adds	r4, r4, #1
 988              	.LVL73:
 520:Core/Src/GEVA.c ****             s = x * x + y * y;
 989              		.loc 1 520 39 is_stmt 0 discriminator 2 view .LVU311
 990 0020 22B2     		sxth	r2, r4
 991              	.LVL74:
ARM GAS  C:\Users\arist\AppData\Local\Temp\ccSK2xlW.s 			page 32


 992              	.L55:
 520:Core/Src/GEVA.c ****             s = x * x + y * y;
 993              		.loc 1 520 32 is_stmt 1 discriminator 1 view .LVU312
 994 0022 AA42     		cmp	r2, r5
 995 0024 19DC     		bgt	.L58
 521:Core/Src/GEVA.c ****             if (s >= rsqr - r && s <= rsqr + r) {
 996              		.loc 1 521 13 view .LVU313
 521:Core/Src/GEVA.c ****             if (s >= rsqr - r && s <= rsqr + r) {
 997              		.loc 1 521 19 is_stmt 0 view .LVU314
 998 0026 94B2     		uxth	r4, r2
 999 0028 02FB02F3 		mul	r3, r2, r2
 521:Core/Src/GEVA.c ****             if (s >= rsqr - r && s <= rsqr + r) {
 1000              		.loc 1 521 27 view .LVU315
 1001 002c 06FB06F1 		mul	r1, r6, r6
 1002 0030 89B2     		uxth	r1, r1
 521:Core/Src/GEVA.c ****             if (s >= rsqr - r && s <= rsqr + r) {
 1003              		.loc 1 521 15 view .LVU316
 1004 0032 11FA83F3 		uxtah	r3, r1, r3
 1005 0036 9BB2     		uxth	r3, r3
 1006              	.LVL75:
 522:Core/Src/GEVA.c ****                 error = put_pixel(o_x + x, o_y + y, SET_C, buf);
 1007              		.loc 1 522 13 is_stmt 1 view .LVU317
 522:Core/Src/GEVA.c ****                 error = put_pixel(o_x + x, o_y + y, SET_C, buf);
 1008              		.loc 1 522 27 is_stmt 0 view .LVU318
 1009 0038 791B     		subs	r1, r7, r5
 522:Core/Src/GEVA.c ****                 error = put_pixel(o_x + x, o_y + y, SET_C, buf);
 1010              		.loc 1 522 16 view .LVU319
 1011 003a 8B42     		cmp	r3, r1
 1012 003c EFDB     		blt	.L53
 522:Core/Src/GEVA.c ****                 error = put_pixel(o_x + x, o_y + y, SET_C, buf);
 1013              		.loc 1 522 44 discriminator 1 view .LVU320
 1014 003e 7919     		adds	r1, r7, r5
 522:Core/Src/GEVA.c ****                 error = put_pixel(o_x + x, o_y + y, SET_C, buf);
 1015              		.loc 1 522 31 discriminator 1 view .LVU321
 1016 0040 8B42     		cmp	r3, r1
 1017 0042 ECDC     		bgt	.L53
 523:Core/Src/GEVA.c ****                // if (error)
 1018              		.loc 1 523 17 is_stmt 1 view .LVU322
 523:Core/Src/GEVA.c ****                // if (error)
 1019              		.loc 1 523 25 is_stmt 0 view .LVU323
 1020 0044 09EB0601 		add	r1, r9, r6
 1021 0048 0AEB0200 		add	r0, r10, r2
 1022              	.LVL76:
 523:Core/Src/GEVA.c ****                // if (error)
 1023              		.loc 1 523 25 view .LVU324
 1024 004c 4346     		mov	r3, r8
 1025              	.LVL77:
 523:Core/Src/GEVA.c ****                // if (error)
 1026              		.loc 1 523 25 view .LVU325
 1027 004e 0122     		movs	r2, #1
 1028              	.LVL78:
 523:Core/Src/GEVA.c ****                // if (error)
 1029              		.loc 1 523 25 view .LVU326
 1030 0050 C9B2     		uxtb	r1, r1
 1031 0052 C0B2     		uxtb	r0, r0
 1032 0054 FFF7FEFF 		bl	put_pixel
 1033              	.LVL79:
ARM GAS  C:\Users\arist\AppData\Local\Temp\ccSK2xlW.s 			page 33


 523:Core/Src/GEVA.c ****                // if (error)
 1034              		.loc 1 523 25 view .LVU327
 1035 0058 E1E7     		b	.L53
 1036              	.LVL80:
 1037              	.L58:
 523:Core/Src/GEVA.c ****                // if (error)
 1038              		.loc 1 523 25 view .LVU328
 1039              	.LBE11:
 519:Core/Src/GEVA.c ****         for (int16_t x = -r; x <= r; x++) {
 1040              		.loc 1 519 35 is_stmt 1 discriminator 2 view .LVU329
 1041 005a 0136     		adds	r6, r6, #1
 1042              	.LVL81:
 519:Core/Src/GEVA.c ****         for (int16_t x = -r; x <= r; x++) {
 1043              		.loc 1 519 35 is_stmt 0 discriminator 2 view .LVU330
 1044 005c 36B2     		sxth	r6, r6
 1045              	.LVL82:
 1046              	.L52:
 519:Core/Src/GEVA.c ****         for (int16_t x = -r; x <= r; x++) {
 1047              		.loc 1 519 28 is_stmt 1 discriminator 1 view .LVU331
 1048 005e AE42     		cmp	r6, r5
 1049 0060 01DC     		bgt	.L59
 1050              	.LBB12:
 520:Core/Src/GEVA.c ****             s = x * x + y * y;
 1051              		.loc 1 520 22 is_stmt 0 view .LVU332
 1052 0062 5A46     		mov	r2, fp
 1053 0064 DDE7     		b	.L55
 1054              	.L59:
 1055              	.LBE12:
 1056              	.LBE13:
 529:Core/Src/GEVA.c **** }
 1057              		.loc 1 529 5 is_stmt 1 view .LVU333
 530:Core/Src/GEVA.c **** 
 1058              		.loc 1 530 1 is_stmt 0 view .LVU334
 1059 0066 BDE8F88F 		pop	{r3, r4, r5, r6, r7, r8, r9, r10, fp, pc}
 530:Core/Src/GEVA.c **** 
 1060              		.loc 1 530 1 view .LVU335
 1061              		.cfi_endproc
 1062              	.LFE10:
 1064              		.section	.text.reverse_byte,"ax",%progbits
 1065              		.align	1
 1066              		.global	reverse_byte
 1067              		.syntax unified
 1068              		.thumb
 1069              		.thumb_func
 1071              	reverse_byte:
 1072              	.LVL83:
 1073              	.LFB19:
 628:Core/Src/GEVA.c **** 
 629:Core/Src/GEVA.c **** /* 
 630:Core/Src/GEVA.c ****  * Generates new normalized character from font.h character 
 631:Core/Src/GEVA.c **** */
 632:Core/Src/GEVA.c **** uint16_t* rotate_char(uint16_t *chr, video_buffer* buf) {
 633:Core/Src/GEVA.c ****     
 634:Core/Src/GEVA.c ****     uint16_t *new_chr = (uint16_t *)malloc(font_height);
 635:Core/Src/GEVA.c ****     
 636:Core/Src/GEVA.c ****     for (uint8_t i = 0; i < font_height; i++)
 637:Core/Src/GEVA.c ****             new_chr[i]=0;
ARM GAS  C:\Users\arist\AppData\Local\Temp\ccSK2xlW.s 			page 34


 638:Core/Src/GEVA.c ****             
 639:Core/Src/GEVA.c ****     uint16_t* nc_ptr = new_chr;
 640:Core/Src/GEVA.c ****     uint16_t bit = 0;
 641:Core/Src/GEVA.c ****     
 642:Core/Src/GEVA.c ****     switch (buf->orient) {
 643:Core/Src/GEVA.c ****    
 644:Core/Src/GEVA.c ****     case LANDSCAPE :
 645:Core/Src/GEVA.c ****         nc_ptr = chr;
 646:Core/Src/GEVA.c ****         break;
 647:Core/Src/GEVA.c ****     
 648:Core/Src/GEVA.c ****     case LANDSCAPE_INVERTED:
 649:Core/Src/GEVA.c **** 
 650:Core/Src/GEVA.c ****         for (uint8_t i = 0; i < font_height; i++) {
 651:Core/Src/GEVA.c ****             new_chr[i] = reverse_byte(chr[font_height - 1 - i] >> 16 - font_width) ;
 652:Core/Src/GEVA.c ****         }
 653:Core/Src/GEVA.c ****         break;
 654:Core/Src/GEVA.c **** 
 655:Core/Src/GEVA.c ****     case PORTRAIT:
 656:Core/Src/GEVA.c **** 
 657:Core/Src/GEVA.c ****         for (uint8_t i = 0; i < font_height; i++) {
 658:Core/Src/GEVA.c ****             for (uint8_t j = 0; j < font_height; j++) {
 659:Core/Src/GEVA.c ****                 bit = (chr[font_height - 1 - i] & (0x8000 >> j)) << j;
 660:Core/Src/GEVA.c ****                 new_chr[font_height - 1  - j] |= bit >> (font_height - i);    
 661:Core/Src/GEVA.c ****                 bit = 0;
 662:Core/Src/GEVA.c ****             }
 663:Core/Src/GEVA.c ****         }
 664:Core/Src/GEVA.c ****         break;
 665:Core/Src/GEVA.c ****    
 666:Core/Src/GEVA.c ****     case PORTRAIT_INVERTED:
 667:Core/Src/GEVA.c **** 
 668:Core/Src/GEVA.c ****         for (uint8_t i = 0; i < font_height; i++) {
 669:Core/Src/GEVA.c ****             for (uint8_t j = 0; j < font_height; j++) {
 670:Core/Src/GEVA.c ****                 bit = (chr[font_height - 1 - i] & (0x8000 >> j)) << j;
 671:Core/Src/GEVA.c ****                 new_chr[j] |= (bit >> i);
 672:Core/Src/GEVA.c ****                 bit = 0;
 673:Core/Src/GEVA.c ****             }
 674:Core/Src/GEVA.c ****         }
 675:Core/Src/GEVA.c ****         break;
 676:Core/Src/GEVA.c ****     
 677:Core/Src/GEVA.c ****     default:
 678:Core/Src/GEVA.c ****         nc_ptr = chr;
 679:Core/Src/GEVA.c ****         break;
 680:Core/Src/GEVA.c ****     }
 681:Core/Src/GEVA.c ****     return nc_ptr;
 682:Core/Src/GEVA.c **** }
 683:Core/Src/GEVA.c **** 
 684:Core/Src/GEVA.c **** uint16_t reverse_byte(uint16_t b) {
 1074              		.loc 1 684 35 is_stmt 1 view -0
 1075              		.cfi_startproc
 1076              		@ args = 0, pretend = 0, frame = 0
 1077              		@ frame_needed = 0, uses_anonymous_args = 0
 1078              		@ link register save eliminated.
 685:Core/Src/GEVA.c **** 
 686:Core/Src/GEVA.c ****     b = ((b >> 1) & 0x5555) | ((b & 0x5555) << 1);
 1079              		.loc 1 686 5 view .LVU337
 1080              		.loc 1 686 45 is_stmt 0 view .LVU338
 1081 0000 114A     		ldr	r2, .L61
ARM GAS  C:\Users\arist\AppData\Local\Temp\ccSK2xlW.s 			page 35


 1082 0002 02EA4002 		and	r2, r2, r0, lsl #1
 1083 0006 12B2     		sxth	r2, r2
 1084              		.loc 1 686 7 view .LVU339
 1085 0008 45F25553 		movw	r3, #21845
 1086 000c 03EA5000 		and	r0, r3, r0, lsr #1
 1087              	.LVL84:
 1088              		.loc 1 686 7 view .LVU340
 1089 0010 1043     		orrs	r0, r0, r2
 1090 0012 83B2     		uxth	r3, r0
 1091              	.LVL85:
 687:Core/Src/GEVA.c ****     b = ((b >> 2) & 0x3333) | ((b & 0x3333) << 2);
 1092              		.loc 1 687 5 is_stmt 1 view .LVU341
 1093              		.loc 1 687 45 is_stmt 0 view .LVU342
 1094 0014 0D4A     		ldr	r2, .L61+4
 1095 0016 02EA8302 		and	r2, r2, r3, lsl #2
 1096 001a 12B2     		sxth	r2, r2
 1097              		.loc 1 687 7 view .LVU343
 1098 001c 43F23333 		movw	r3, #13107
 1099              	.LVL86:
 1100              		.loc 1 687 7 view .LVU344
 1101 0020 03EA9003 		and	r3, r3, r0, lsr #2
 1102 0024 1343     		orrs	r3, r3, r2
 1103 0026 99B2     		uxth	r1, r3
 1104              	.LVL87:
 688:Core/Src/GEVA.c ****     b = ((b >> 4) & 0x0f0f) | ((b & 0x0f0f) << 4);
 1105              		.loc 1 688 5 is_stmt 1 view .LVU345
 1106              		.loc 1 688 45 is_stmt 0 view .LVU346
 1107 0028 094A     		ldr	r2, .L61+8
 1108 002a 02EA0112 		and	r2, r2, r1, lsl #4
 1109 002e 12B2     		sxth	r2, r2
 1110              		.loc 1 688 7 view .LVU347
 1111 0030 40F60F70 		movw	r0, #3855
 1112 0034 00EA1310 		and	r0, r0, r3, lsr #4
 1113 0038 1043     		orrs	r0, r0, r2
 1114 003a 83B2     		uxth	r3, r0
 1115              	.LVL88:
 689:Core/Src/GEVA.c ****     b = ((b >> 8) & 0x00ff) | ((b & 0x00ff) << 8);
 1116              		.loc 1 689 5 is_stmt 1 view .LVU348
 1117              		.loc 1 689 29 is_stmt 0 view .LVU349
 1118 003c C0F30720 		ubfx	r0, r0, #8, #8
 1119              		.loc 1 689 7 view .LVU350
 1120 0040 40EA0320 		orr	r0, r0, r3, lsl #8
 1121              	.LVL89:
 690:Core/Src/GEVA.c **** 
 691:Core/Src/GEVA.c ****     return b;
 1122              		.loc 1 691 5 is_stmt 1 view .LVU351
 692:Core/Src/GEVA.c **** }
 1123              		.loc 1 692 1 is_stmt 0 view .LVU352
 1124 0044 80B2     		uxth	r0, r0
 1125              		.loc 1 692 1 view .LVU353
 1126 0046 7047     		bx	lr
 1127              	.L62:
 1128              		.align	2
 1129              	.L61:
 1130 0048 AAAAFFFF 		.word	-21846
 1131 004c CCCCFFFF 		.word	-13108
 1132 0050 F0F0FFFF 		.word	-3856
ARM GAS  C:\Users\arist\AppData\Local\Temp\ccSK2xlW.s 			page 36


 1133              		.cfi_endproc
 1134              	.LFE19:
 1136              		.section	.text.rotate_char,"ax",%progbits
 1137              		.align	1
 1138              		.global	rotate_char
 1139              		.syntax unified
 1140              		.thumb
 1141              		.thumb_func
 1143              	rotate_char:
 1144              	.LVL90:
 1145              	.LFB18:
 632:Core/Src/GEVA.c ****     
 1146              		.loc 1 632 57 is_stmt 1 view -0
 1147              		.cfi_startproc
 1148              		@ args = 0, pretend = 0, frame = 0
 1149              		@ frame_needed = 0, uses_anonymous_args = 0
 632:Core/Src/GEVA.c ****     
 1150              		.loc 1 632 57 is_stmt 0 view .LVU355
 1151 0000 F8B5     		push	{r3, r4, r5, r6, r7, lr}
 1152              		.cfi_def_cfa_offset 24
 1153              		.cfi_offset 3, -24
 1154              		.cfi_offset 4, -20
 1155              		.cfi_offset 5, -16
 1156              		.cfi_offset 6, -12
 1157              		.cfi_offset 7, -8
 1158              		.cfi_offset 14, -4
 1159 0002 0646     		mov	r6, r0
 1160 0004 0F46     		mov	r7, r1
 634:Core/Src/GEVA.c ****     
 1161              		.loc 1 634 5 is_stmt 1 view .LVU356
 634:Core/Src/GEVA.c ****     
 1162              		.loc 1 634 37 is_stmt 0 view .LVU357
 1163 0006 374B     		ldr	r3, .L81
 1164 0008 1C78     		ldrb	r4, [r3]	@ zero_extendqisi2
 1165 000a 2046     		mov	r0, r4
 1166              	.LVL91:
 634:Core/Src/GEVA.c ****     
 1167              		.loc 1 634 37 view .LVU358
 1168 000c FFF7FEFF 		bl	malloc
 1169              	.LVL92:
 634:Core/Src/GEVA.c ****     
 1170              		.loc 1 634 37 view .LVU359
 1171 0010 0546     		mov	r5, r0
 1172              	.LVL93:
 636:Core/Src/GEVA.c ****             new_chr[i]=0;
 1173              		.loc 1 636 5 is_stmt 1 view .LVU360
 1174              	.LBB14:
 636:Core/Src/GEVA.c ****             new_chr[i]=0;
 1175              		.loc 1 636 10 view .LVU361
 636:Core/Src/GEVA.c ****             new_chr[i]=0;
 1176              		.loc 1 636 18 is_stmt 0 view .LVU362
 1177 0012 0023     		movs	r3, #0
 636:Core/Src/GEVA.c ****             new_chr[i]=0;
 1178              		.loc 1 636 5 view .LVU363
 1179 0014 04E0     		b	.L64
 1180              	.LVL94:
 1181              	.L65:
ARM GAS  C:\Users\arist\AppData\Local\Temp\ccSK2xlW.s 			page 37


 637:Core/Src/GEVA.c ****             
 1182              		.loc 1 637 13 is_stmt 1 discriminator 3 view .LVU364
 637:Core/Src/GEVA.c ****             
 1183              		.loc 1 637 23 is_stmt 0 discriminator 3 view .LVU365
 1184 0016 0022     		movs	r2, #0
 1185 0018 25F81320 		strh	r2, [r5, r3, lsl #1]	@ movhi
 636:Core/Src/GEVA.c ****             new_chr[i]=0;
 1186              		.loc 1 636 43 is_stmt 1 discriminator 3 view .LVU366
 1187 001c 0133     		adds	r3, r3, #1
 1188              	.LVL95:
 636:Core/Src/GEVA.c ****             new_chr[i]=0;
 1189              		.loc 1 636 43 is_stmt 0 discriminator 3 view .LVU367
 1190 001e DBB2     		uxtb	r3, r3
 1191              	.LVL96:
 1192              	.L64:
 636:Core/Src/GEVA.c ****             new_chr[i]=0;
 1193              		.loc 1 636 27 is_stmt 1 discriminator 1 view .LVU368
 1194 0020 9C42     		cmp	r4, r3
 1195 0022 F8D8     		bhi	.L65
 1196              	.LBE14:
 639:Core/Src/GEVA.c ****     uint16_t bit = 0;
 1197              		.loc 1 639 5 view .LVU369
 1198              	.LVL97:
 640:Core/Src/GEVA.c ****     
 1199              		.loc 1 640 5 view .LVU370
 642:Core/Src/GEVA.c ****    
 1200              		.loc 1 642 5 view .LVU371
 642:Core/Src/GEVA.c ****    
 1201              		.loc 1 642 16 is_stmt 0 view .LVU372
 1202 0024 7B7B     		ldrb	r3, [r7, #13]	@ zero_extendqisi2
 1203              	.LVL98:
 642:Core/Src/GEVA.c ****    
 1204              		.loc 1 642 5 view .LVU373
 1205 0026 022B     		cmp	r3, #2
 1206 0028 3CD0     		beq	.L75
 1207 002a 032B     		cmp	r3, #3
 1208 002c 57D0     		beq	.L76
 1209 002e 012B     		cmp	r3, #1
 1210 0030 15D0     		beq	.L77
 1211 0032 3546     		mov	r5, r6
 1212              	.LVL99:
 1213              	.L63:
 682:Core/Src/GEVA.c **** 
 1214              		.loc 1 682 1 view .LVU374
 1215 0034 2846     		mov	r0, r5
 1216 0036 F8BD     		pop	{r3, r4, r5, r6, r7, pc}
 1217              	.LVL100:
 1218              	.L70:
 1219              	.LBB15:
 651:Core/Src/GEVA.c ****         }
 1220              		.loc 1 651 13 is_stmt 1 discriminator 3 view .LVU375
 651:Core/Src/GEVA.c ****         }
 1221              		.loc 1 651 55 is_stmt 0 discriminator 3 view .LVU376
 1222 0038 631E     		subs	r3, r4, #1
 651:Core/Src/GEVA.c ****         }
 1223              		.loc 1 651 59 discriminator 3 view .LVU377
 1224 003a DB1B     		subs	r3, r3, r7
ARM GAS  C:\Users\arist\AppData\Local\Temp\ccSK2xlW.s 			page 38


 651:Core/Src/GEVA.c ****         }
 1225              		.loc 1 651 42 discriminator 3 view .LVU378
 1226 003c 36F81300 		ldrh	r0, [r6, r3, lsl #1]
 651:Core/Src/GEVA.c ****         }
 1227              		.loc 1 651 70 discriminator 3 view .LVU379
 1228 0040 294B     		ldr	r3, .L81+4
 1229 0042 1B78     		ldrb	r3, [r3]	@ zero_extendqisi2
 1230 0044 C3F11003 		rsb	r3, r3, #16
 651:Core/Src/GEVA.c ****         }
 1231              		.loc 1 651 64 discriminator 3 view .LVU380
 1232 0048 1841     		asrs	r0, r0, r3
 651:Core/Src/GEVA.c ****         }
 1233              		.loc 1 651 26 discriminator 3 view .LVU381
 1234 004a 80B2     		uxth	r0, r0
 1235 004c FFF7FEFF 		bl	reverse_byte
 1236              	.LVL101:
 651:Core/Src/GEVA.c ****         }
 1237              		.loc 1 651 24 discriminator 3 view .LVU382
 1238 0050 25F81700 		strh	r0, [r5, r7, lsl #1]	@ movhi
 650:Core/Src/GEVA.c ****             new_chr[i] = reverse_byte(chr[font_height - 1 - i] >> 16 - font_width) ;
 1239              		.loc 1 650 47 is_stmt 1 discriminator 3 view .LVU383
 1240 0054 0137     		adds	r7, r7, #1
 1241              	.LVL102:
 650:Core/Src/GEVA.c ****             new_chr[i] = reverse_byte(chr[font_height - 1 - i] >> 16 - font_width) ;
 1242              		.loc 1 650 47 is_stmt 0 discriminator 3 view .LVU384
 1243 0056 FFB2     		uxtb	r7, r7
 1244              	.LVL103:
 1245              	.L68:
 650:Core/Src/GEVA.c ****             new_chr[i] = reverse_byte(chr[font_height - 1 - i] >> 16 - font_width) ;
 1246              		.loc 1 650 31 is_stmt 1 discriminator 1 view .LVU385
 1247 0058 BC42     		cmp	r4, r7
 1248 005a EDD8     		bhi	.L70
 1249 005c EAE7     		b	.L63
 1250              	.LVL104:
 1251              	.L77:
 650:Core/Src/GEVA.c ****             new_chr[i] = reverse_byte(chr[font_height - 1 - i] >> 16 - font_width) ;
 1252              		.loc 1 650 31 is_stmt 0 discriminator 1 view .LVU386
 1253              	.LBE15:
 642:Core/Src/GEVA.c ****    
 1254              		.loc 1 642 5 view .LVU387
 1255 005e 0027     		movs	r7, #0
 1256              	.LVL105:
 642:Core/Src/GEVA.c ****    
 1257              		.loc 1 642 5 view .LVU388
 1258 0060 FAE7     		b	.L68
 1259              	.LVL106:
 1260              	.L71:
 1261              	.LBB16:
 1262              	.LBB17:
 659:Core/Src/GEVA.c ****                 new_chr[font_height - 1  - j] |= bit >> (font_height - i);    
 1263              		.loc 1 659 17 is_stmt 1 discriminator 3 view .LVU389
 659:Core/Src/GEVA.c ****                 new_chr[font_height - 1  - j] |= bit >> (font_height - i);    
 1264              		.loc 1 659 40 is_stmt 0 discriminator 3 view .LVU390
 1265 0062 611E     		subs	r1, r4, #1
 659:Core/Src/GEVA.c ****                 new_chr[font_height - 1  - j] |= bit >> (font_height - i);    
 1266              		.loc 1 659 44 discriminator 3 view .LVU391
 1267 0064 A1EB0C03 		sub	r3, r1, ip
ARM GAS  C:\Users\arist\AppData\Local\Temp\ccSK2xlW.s 			page 39


 659:Core/Src/GEVA.c ****                 new_chr[font_height - 1  - j] |= bit >> (font_height - i);    
 1268              		.loc 1 659 27 discriminator 3 view .LVU392
 1269 0068 36F81330 		ldrh	r3, [r6, r3, lsl #1]
 659:Core/Src/GEVA.c ****                 new_chr[font_height - 1  - j] |= bit >> (font_height - i);    
 1270              		.loc 1 659 59 discriminator 3 view .LVU393
 1271 006c 4FF40040 		mov	r0, #32768
 1272 0070 1041     		asrs	r0, r0, r2
 659:Core/Src/GEVA.c ****                 new_chr[font_height - 1  - j] |= bit >> (font_height - i);    
 1273              		.loc 1 659 49 discriminator 3 view .LVU394
 1274 0072 0340     		ands	r3, r3, r0
 659:Core/Src/GEVA.c ****                 new_chr[font_height - 1  - j] |= bit >> (font_height - i);    
 1275              		.loc 1 659 66 discriminator 3 view .LVU395
 1276 0074 9340     		lsls	r3, r3, r2
 1277              	.LVL107:
 660:Core/Src/GEVA.c ****                 bit = 0;
 1278              		.loc 1 660 17 is_stmt 1 discriminator 3 view .LVU396
 660:Core/Src/GEVA.c ****                 bit = 0;
 1279              		.loc 1 660 24 is_stmt 0 discriminator 3 view .LVU397
 1280 0076 891A     		subs	r1, r1, r2
 1281 0078 35F81100 		ldrh	r0, [r5, r1, lsl #1]
 660:Core/Src/GEVA.c ****                 bit = 0;
 1282              		.loc 1 660 70 discriminator 3 view .LVU398
 1283 007c A4EB0C0E 		sub	lr, r4, ip
 660:Core/Src/GEVA.c ****                 bit = 0;
 1284              		.loc 1 660 54 discriminator 3 view .LVU399
 1285 0080 9BB2     		uxth	r3, r3
 660:Core/Src/GEVA.c ****                 bit = 0;
 1286              		.loc 1 660 54 discriminator 3 view .LVU400
 1287 0082 43FA0EF3 		asr	r3, r3, lr
 1288              	.LVL108:
 660:Core/Src/GEVA.c ****                 bit = 0;
 1289              		.loc 1 660 47 discriminator 3 view .LVU401
 1290 0086 0343     		orrs	r3, r3, r0
 1291 0088 25F81130 		strh	r3, [r5, r1, lsl #1]	@ movhi
 1292              	.LVL109:
 661:Core/Src/GEVA.c ****             }
 1293              		.loc 1 661 17 is_stmt 1 discriminator 3 view .LVU402
 658:Core/Src/GEVA.c ****                 bit = (chr[font_height - 1 - i] & (0x8000 >> j)) << j;
 1294              		.loc 1 658 51 discriminator 3 view .LVU403
 1295 008c 0132     		adds	r2, r2, #1
 1296              	.LVL110:
 658:Core/Src/GEVA.c ****                 bit = (chr[font_height - 1 - i] & (0x8000 >> j)) << j;
 1297              		.loc 1 658 51 is_stmt 0 discriminator 3 view .LVU404
 1298 008e D2B2     		uxtb	r2, r2
 1299              	.LVL111:
 1300              	.L72:
 658:Core/Src/GEVA.c ****                 bit = (chr[font_height - 1 - i] & (0x8000 >> j)) << j;
 1301              		.loc 1 658 35 is_stmt 1 discriminator 1 view .LVU405
 1302 0090 9442     		cmp	r4, r2
 1303 0092 E6D8     		bhi	.L71
 1304              	.LBE17:
 657:Core/Src/GEVA.c ****             for (uint8_t j = 0; j < font_height; j++) {
 1305              		.loc 1 657 47 discriminator 2 view .LVU406
 1306 0094 0CF1010C 		add	ip, ip, #1
 1307              	.LVL112:
 657:Core/Src/GEVA.c ****             for (uint8_t j = 0; j < font_height; j++) {
 1308              		.loc 1 657 47 is_stmt 0 discriminator 2 view .LVU407
ARM GAS  C:\Users\arist\AppData\Local\Temp\ccSK2xlW.s 			page 40


 1309 0098 5FFA8CFC 		uxtb	ip, ip
 1310              	.LVL113:
 1311              	.L66:
 657:Core/Src/GEVA.c ****             for (uint8_t j = 0; j < font_height; j++) {
 1312              		.loc 1 657 31 is_stmt 1 discriminator 1 view .LVU408
 1313 009c 6445     		cmp	r4, ip
 1314 009e C9D9     		bls	.L63
 1315              	.LBB18:
 658:Core/Src/GEVA.c ****                 bit = (chr[font_height - 1 - i] & (0x8000 >> j)) << j;
 1316              		.loc 1 658 26 is_stmt 0 view .LVU409
 1317 00a0 0022     		movs	r2, #0
 1318 00a2 F5E7     		b	.L72
 1319              	.LVL114:
 1320              	.L75:
 658:Core/Src/GEVA.c ****                 bit = (chr[font_height - 1 - i] & (0x8000 >> j)) << j;
 1321              		.loc 1 658 26 view .LVU410
 1322              	.LBE18:
 1323              	.LBE16:
 642:Core/Src/GEVA.c ****    
 1324              		.loc 1 642 5 view .LVU411
 1325 00a4 4FF0000C 		mov	ip, #0
 1326 00a8 F8E7     		b	.L66
 1327              	.LVL115:
 1328              	.L73:
 1329              	.LBB19:
 1330              	.LBB20:
 670:Core/Src/GEVA.c ****                 new_chr[j] |= (bit >> i);
 1331              		.loc 1 670 17 is_stmt 1 discriminator 3 view .LVU412
 670:Core/Src/GEVA.c ****                 new_chr[j] |= (bit >> i);
 1332              		.loc 1 670 40 is_stmt 0 discriminator 3 view .LVU413
 1333 00aa 631E     		subs	r3, r4, #1
 670:Core/Src/GEVA.c ****                 new_chr[j] |= (bit >> i);
 1334              		.loc 1 670 44 discriminator 3 view .LVU414
 1335 00ac 1B1A     		subs	r3, r3, r0
 670:Core/Src/GEVA.c ****                 new_chr[j] |= (bit >> i);
 1336              		.loc 1 670 27 discriminator 3 view .LVU415
 1337 00ae 36F81330 		ldrh	r3, [r6, r3, lsl #1]
 670:Core/Src/GEVA.c ****                 new_chr[j] |= (bit >> i);
 1338              		.loc 1 670 59 discriminator 3 view .LVU416
 1339 00b2 4FF40041 		mov	r1, #32768
 1340 00b6 1141     		asrs	r1, r1, r2
 670:Core/Src/GEVA.c ****                 new_chr[j] |= (bit >> i);
 1341              		.loc 1 670 49 discriminator 3 view .LVU417
 1342 00b8 0B40     		ands	r3, r3, r1
 670:Core/Src/GEVA.c ****                 new_chr[j] |= (bit >> i);
 1343              		.loc 1 670 66 discriminator 3 view .LVU418
 1344 00ba 9340     		lsls	r3, r3, r2
 1345              	.LVL116:
 671:Core/Src/GEVA.c ****                 bit = 0;
 1346              		.loc 1 671 17 is_stmt 1 discriminator 3 view .LVU419
 671:Core/Src/GEVA.c ****                 bit = 0;
 1347              		.loc 1 671 24 is_stmt 0 discriminator 3 view .LVU420
 1348 00bc 35F81210 		ldrh	r1, [r5, r2, lsl #1]
 671:Core/Src/GEVA.c ****                 bit = 0;
 1349              		.loc 1 671 36 discriminator 3 view .LVU421
 1350 00c0 9BB2     		uxth	r3, r3
 671:Core/Src/GEVA.c ****                 bit = 0;
ARM GAS  C:\Users\arist\AppData\Local\Temp\ccSK2xlW.s 			page 41


 1351              		.loc 1 671 36 discriminator 3 view .LVU422
 1352 00c2 0341     		asrs	r3, r3, r0
 1353              	.LVL117:
 671:Core/Src/GEVA.c ****                 bit = 0;
 1354              		.loc 1 671 28 discriminator 3 view .LVU423
 1355 00c4 0B43     		orrs	r3, r3, r1
 1356 00c6 25F81230 		strh	r3, [r5, r2, lsl #1]	@ movhi
 1357              	.LVL118:
 672:Core/Src/GEVA.c ****             }
 1358              		.loc 1 672 17 is_stmt 1 discriminator 3 view .LVU424
 669:Core/Src/GEVA.c ****                 bit = (chr[font_height - 1 - i] & (0x8000 >> j)) << j;
 1359              		.loc 1 669 51 discriminator 3 view .LVU425
 1360 00ca 0132     		adds	r2, r2, #1
 1361              	.LVL119:
 669:Core/Src/GEVA.c ****                 bit = (chr[font_height - 1 - i] & (0x8000 >> j)) << j;
 1362              		.loc 1 669 51 is_stmt 0 discriminator 3 view .LVU426
 1363 00cc D2B2     		uxtb	r2, r2
 1364              	.LVL120:
 1365              	.L74:
 669:Core/Src/GEVA.c ****                 bit = (chr[font_height - 1 - i] & (0x8000 >> j)) << j;
 1366              		.loc 1 669 35 is_stmt 1 discriminator 1 view .LVU427
 1367 00ce 9442     		cmp	r4, r2
 1368 00d0 EBD8     		bhi	.L73
 1369              	.LBE20:
 668:Core/Src/GEVA.c ****             for (uint8_t j = 0; j < font_height; j++) {
 1370              		.loc 1 668 47 discriminator 2 view .LVU428
 1371 00d2 0130     		adds	r0, r0, #1
 1372              	.LVL121:
 668:Core/Src/GEVA.c ****             for (uint8_t j = 0; j < font_height; j++) {
 1373              		.loc 1 668 47 is_stmt 0 discriminator 2 view .LVU429
 1374 00d4 C0B2     		uxtb	r0, r0
 1375              	.LVL122:
 1376              	.L67:
 668:Core/Src/GEVA.c ****             for (uint8_t j = 0; j < font_height; j++) {
 1377              		.loc 1 668 31 is_stmt 1 discriminator 1 view .LVU430
 1378 00d6 8442     		cmp	r4, r0
 1379 00d8 ACD9     		bls	.L63
 1380              	.LBB21:
 669:Core/Src/GEVA.c ****                 bit = (chr[font_height - 1 - i] & (0x8000 >> j)) << j;
 1381              		.loc 1 669 26 is_stmt 0 view .LVU431
 1382 00da 0022     		movs	r2, #0
 1383 00dc F7E7     		b	.L74
 1384              	.LVL123:
 1385              	.L76:
 669:Core/Src/GEVA.c ****                 bit = (chr[font_height - 1 - i] & (0x8000 >> j)) << j;
 1386              		.loc 1 669 26 view .LVU432
 1387              	.LBE21:
 1388              	.LBE19:
 642:Core/Src/GEVA.c ****    
 1389              		.loc 1 642 5 view .LVU433
 1390 00de 0020     		movs	r0, #0
 1391              	.LVL124:
 642:Core/Src/GEVA.c ****    
 1392              		.loc 1 642 5 view .LVU434
 1393 00e0 F9E7     		b	.L67
 1394              	.L82:
 1395 00e2 00BF     		.align	2
ARM GAS  C:\Users\arist\AppData\Local\Temp\ccSK2xlW.s 			page 42


 1396              	.L81:
 1397 00e4 00000000 		.word	font_height
 1398 00e8 00000000 		.word	font_width
 1399              		.cfi_endproc
 1400              	.LFE18:
 1402              		.section	.text.put_char,"ax",%progbits
 1403              		.align	1
 1404              		.global	put_char
 1405              		.syntax unified
 1406              		.thumb
 1407              		.thumb_func
 1409              	put_char:
 1410              	.LVL125:
 1411              	.LFB7:
 351:Core/Src/GEVA.c ****     
 1412              		.loc 1 351 100 is_stmt 1 view -0
 1413              		.cfi_startproc
 1414              		@ args = 4, pretend = 0, frame = 0
 1415              		@ frame_needed = 0, uses_anonymous_args = 0
 351:Core/Src/GEVA.c ****     
 1416              		.loc 1 351 100 is_stmt 0 view .LVU436
 1417 0000 2DE9F041 		push	{r4, r5, r6, r7, r8, lr}
 1418              		.cfi_def_cfa_offset 24
 1419              		.cfi_offset 4, -24
 1420              		.cfi_offset 5, -20
 1421              		.cfi_offset 6, -16
 1422              		.cfi_offset 7, -12
 1423              		.cfi_offset 8, -8
 1424              		.cfi_offset 14, -4
 1425 0004 069C     		ldr	r4, [sp, #24]
 353:Core/Src/GEVA.c ****     uint8_t* n_pos; 
 1426              		.loc 1 353 5 is_stmt 1 view .LVU437
 1427              	.LVL126:
 354:Core/Src/GEVA.c ****     uint16_t* c;
 1428              		.loc 1 354 5 view .LVU438
 355:Core/Src/GEVA.c ****     
 1429              		.loc 1 355 5 view .LVU439
 357:Core/Src/GEVA.c ****         case SMALL:
 1430              		.loc 1 357 5 view .LVU440
 1431 0006 012B     		cmp	r3, #1
 1432 0008 20D0     		beq	.L84
 1433 000a 022B     		cmp	r3, #2
 1434 000c 17D0     		beq	.L85
 1435 000e 5BB1     		cbz	r3, .L103
 373:Core/Src/GEVA.c ****             font_width = C_WIDTH_S;
 1436              		.loc 1 373 13 view .LVU441
 373:Core/Src/GEVA.c ****             font_width = C_WIDTH_S;
 1437              		.loc 1 373 25 is_stmt 0 view .LVU442
 1438 0010 654B     		ldr	r3, .L106
 1439              	.LVL127:
 373:Core/Src/GEVA.c ****             font_width = C_WIDTH_S;
 1440              		.loc 1 373 25 view .LVU443
 1441 0012 0725     		movs	r5, #7
 1442 0014 1D70     		strb	r5, [r3]
 374:Core/Src/GEVA.c ****             c = font_s[chr];
 1443              		.loc 1 374 13 is_stmt 1 view .LVU444
 374:Core/Src/GEVA.c ****             c = font_s[chr];
ARM GAS  C:\Users\arist\AppData\Local\Temp\ccSK2xlW.s 			page 43


 1444              		.loc 1 374 24 is_stmt 0 view .LVU445
 1445 0016 654B     		ldr	r3, .L106+4
 1446 0018 0525     		movs	r5, #5
 1447 001a 1D70     		strb	r5, [r3]
 375:Core/Src/GEVA.c ****         break;
 1448              		.loc 1 375 13 is_stmt 1 view .LVU446
 375:Core/Src/GEVA.c ****         break;
 1449              		.loc 1 375 15 is_stmt 0 view .LVU447
 1450 001c C2EBC202 		rsb	r2, r2, r2, lsl #3
 1451              	.LVL128:
 375:Core/Src/GEVA.c ****         break;
 1452              		.loc 1 375 15 view .LVU448
 1453 0020 634E     		ldr	r6, .L106+8
 1454 0022 06EB4206 		add	r6, r6, r2, lsl #1
 1455              	.LVL129:
 376:Core/Src/GEVA.c ****     }
 1456              		.loc 1 376 9 is_stmt 1 view .LVU449
 1457 0026 0AE0     		b	.L85
 1458              	.LVL130:
 1459              	.L103:
 359:Core/Src/GEVA.c ****             font_width = C_WIDTH_S;
 1460              		.loc 1 359 13 view .LVU450
 359:Core/Src/GEVA.c ****             font_width = C_WIDTH_S;
 1461              		.loc 1 359 25 is_stmt 0 view .LVU451
 1462 0028 5F4B     		ldr	r3, .L106
 1463              	.LVL131:
 359:Core/Src/GEVA.c ****             font_width = C_WIDTH_S;
 1464              		.loc 1 359 25 view .LVU452
 1465 002a 0725     		movs	r5, #7
 1466 002c 1D70     		strb	r5, [r3]
 360:Core/Src/GEVA.c ****             c = font_s[chr];
 1467              		.loc 1 360 13 is_stmt 1 view .LVU453
 360:Core/Src/GEVA.c ****             c = font_s[chr];
 1468              		.loc 1 360 24 is_stmt 0 view .LVU454
 1469 002e 5F4B     		ldr	r3, .L106+4
 1470 0030 0525     		movs	r5, #5
 1471 0032 1D70     		strb	r5, [r3]
 361:Core/Src/GEVA.c ****         break;
 1472              		.loc 1 361 13 is_stmt 1 view .LVU455
 361:Core/Src/GEVA.c ****         break;
 1473              		.loc 1 361 15 is_stmt 0 view .LVU456
 1474 0034 C2EBC202 		rsb	r2, r2, r2, lsl #3
 1475              	.LVL132:
 361:Core/Src/GEVA.c ****         break;
 1476              		.loc 1 361 15 view .LVU457
 1477 0038 5D4E     		ldr	r6, .L106+8
 1478 003a 06EB4206 		add	r6, r6, r2, lsl #1
 1479              	.LVL133:
 362:Core/Src/GEVA.c ****         case MEDIUM:
 1480              		.loc 1 362 9 is_stmt 1 view .LVU458
 1481              	.L85:
 379:Core/Src/GEVA.c ****         case LANDSCAPE:
 1482              		.loc 1 379 5 view .LVU459
 379:Core/Src/GEVA.c ****         case LANDSCAPE:
 1483              		.loc 1 379 16 is_stmt 0 view .LVU460
 1484 003e 637B     		ldrb	r3, [r4, #13]	@ zero_extendqisi2
 379:Core/Src/GEVA.c ****         case LANDSCAPE:
ARM GAS  C:\Users\arist\AppData\Local\Temp\ccSK2xlW.s 			page 44


 1485              		.loc 1 379 5 view .LVU461
 1486 0040 032B     		cmp	r3, #3
 1487 0042 4FD8     		bhi	.L87
 1488 0044 DFE803F0 		tbb	[pc, r3]
 1489              	.L89:
 1490 0048 0E       		.byte	(.L92-.L89)/2
 1491 0049 29       		.byte	(.L91-.L89)/2
 1492 004a 3A       		.byte	(.L90-.L89)/2
 1493 004b 43       		.byte	(.L88-.L89)/2
 1494              	.LVL134:
 1495              		.p2align 1
 1496              	.L84:
 364:Core/Src/GEVA.c ****             font_width = C_WIDTH_M;
 1497              		.loc 1 364 13 is_stmt 1 view .LVU462
 364:Core/Src/GEVA.c ****             font_width = C_WIDTH_M;
 1498              		.loc 1 364 25 is_stmt 0 view .LVU463
 1499 004c 564B     		ldr	r3, .L106
 1500              	.LVL135:
 364:Core/Src/GEVA.c ****             font_width = C_WIDTH_M;
 1501              		.loc 1 364 25 view .LVU464
 1502 004e 0E25     		movs	r5, #14
 1503 0050 1D70     		strb	r5, [r3]
 365:Core/Src/GEVA.c ****             c = font_m[chr];
 1504              		.loc 1 365 13 is_stmt 1 view .LVU465
 365:Core/Src/GEVA.c ****             c = font_m[chr];
 1505              		.loc 1 365 24 is_stmt 0 view .LVU466
 1506 0052 564B     		ldr	r3, .L106+4
 1507 0054 0A25     		movs	r5, #10
 1508 0056 1D70     		strb	r5, [r3]
 366:Core/Src/GEVA.c ****         break; 
 1509              		.loc 1 366 13 is_stmt 1 view .LVU467
 366:Core/Src/GEVA.c ****         break; 
 1510              		.loc 1 366 15 is_stmt 0 view .LVU468
 1511 0058 C2EBC202 		rsb	r2, r2, r2, lsl #3
 1512              	.LVL136:
 366:Core/Src/GEVA.c ****         break; 
 1513              		.loc 1 366 15 view .LVU469
 1514 005c 554E     		ldr	r6, .L106+12
 1515 005e 06EB8206 		add	r6, r6, r2, lsl #2
 1516              	.LVL137:
 367:Core/Src/GEVA.c ****         
 1517              		.loc 1 367 9 is_stmt 1 view .LVU470
 1518 0062 ECE7     		b	.L85
 1519              	.L92:
 381:Core/Src/GEVA.c ****            break;
 1520              		.loc 1 381 13 view .LVU471
 381:Core/Src/GEVA.c ****            break;
 1521              		.loc 1 381 21 is_stmt 0 view .LVU472
 1522 0064 2246     		mov	r2, r4
 1523 0066 FFF7FEFF 		bl	normalize_pos
 1524              	.LVL138:
 381:Core/Src/GEVA.c ****            break;
 1525              		.loc 1 381 21 view .LVU473
 1526 006a 0546     		mov	r5, r0
 1527              	.LVL139:
 382:Core/Src/GEVA.c **** 
 1528              		.loc 1 382 12 is_stmt 1 view .LVU474
ARM GAS  C:\Users\arist\AppData\Local\Temp\ccSK2xlW.s 			page 45


 1529              	.L93:
 401:Core/Src/GEVA.c ****         error = 4;
 1530              		.loc 1 401 5 view .LVU475
 401:Core/Src/GEVA.c ****         error = 4;
 1531              		.loc 1 401 14 is_stmt 0 view .LVU476
 1532 006c 2A78     		ldrb	r2, [r5]	@ zero_extendqisi2
 401:Core/Src/GEVA.c ****         error = 4;
 1533              		.loc 1 401 24 view .LVU477
 1534 006e 2378     		ldrb	r3, [r4]	@ zero_extendqisi2
 401:Core/Src/GEVA.c ****         error = 4;
 1535              		.loc 1 401 8 view .LVU478
 1536 0070 9A42     		cmp	r2, r3
 1537 0072 80F08E80 		bcs	.L98
 401:Core/Src/GEVA.c ****         error = 4;
 1538              		.loc 1 401 57 discriminator 1 view .LVU479
 1539 0076 6878     		ldrb	r0, [r5, #1]	@ zero_extendqisi2
 1540              	.LVL140:
 401:Core/Src/GEVA.c ****         error = 4;
 1541              		.loc 1 401 67 discriminator 1 view .LVU480
 1542 0078 6178     		ldrb	r1, [r4, #1]	@ zero_extendqisi2
 401:Core/Src/GEVA.c ****         error = 4;
 1543              		.loc 1 401 76 discriminator 1 view .LVU481
 1544 007a 8842     		cmp	r0, r1
 1545 007c 80F09080 		bcs	.L99
 403:Core/Src/GEVA.c ****         error = 2;
 1546              		.loc 1 403 10 is_stmt 1 view .LVU482
 403:Core/Src/GEVA.c ****         error = 2;
 1547              		.loc 1 403 23 is_stmt 0 view .LVU483
 1548 0080 494F     		ldr	r7, .L106
 1549 0082 3F78     		ldrb	r7, [r7]	@ zero_extendqisi2
 1550 0084 3844     		add	r0, r0, r7
 403:Core/Src/GEVA.c ****         error = 2;
 1551              		.loc 1 403 13 view .LVU484
 1552 0086 8842     		cmp	r0, r1
 1553 0088 00F38C80 		bgt	.L100
 403:Core/Src/GEVA.c ****         error = 2;
 1554              		.loc 1 403 63 discriminator 1 view .LVU485
 1555 008c 4749     		ldr	r1, .L106+4
 1556 008e 0978     		ldrb	r1, [r1]	@ zero_extendqisi2
 1557 0090 0A44     		add	r2, r2, r1
 403:Core/Src/GEVA.c ****         error = 2;
 1558              		.loc 1 403 51 discriminator 1 view .LVU486
 1559 0092 9A42     		cmp	r2, r3
 1560 0094 2BDD     		ble	.L104
 404:Core/Src/GEVA.c ****     else {
 1561              		.loc 1 404 15 view .LVU487
 1562 0096 0224     		movs	r4, #2
 1563 0098 7CE0     		b	.L94
 1564              	.LVL141:
 1565              	.L91:
 385:Core/Src/GEVA.c ****                break;
 1566              		.loc 1 385 13 is_stmt 1 view .LVU488
 385:Core/Src/GEVA.c ****                break;
 1567              		.loc 1 385 41 is_stmt 0 view .LVU489
 1568 009a 444B     		ldr	r3, .L106+4
 1569 009c 1B78     		ldrb	r3, [r3]	@ zero_extendqisi2
 1570 009e 1844     		add	r0, r0, r3
ARM GAS  C:\Users\arist\AppData\Local\Temp\ccSK2xlW.s 			page 46


 1571              	.LVL142:
 385:Core/Src/GEVA.c ****                break;
 1572              		.loc 1 385 41 view .LVU490
 1573 00a0 C0B2     		uxtb	r0, r0
 385:Core/Src/GEVA.c ****                break;
 1574              		.loc 1 385 65 view .LVU491
 1575 00a2 414B     		ldr	r3, .L106
 1576 00a4 1B78     		ldrb	r3, [r3]	@ zero_extendqisi2
 1577 00a6 1944     		add	r1, r1, r3
 1578              	.LVL143:
 385:Core/Src/GEVA.c ****                break;
 1579              		.loc 1 385 65 view .LVU492
 1580 00a8 C9B2     		uxtb	r1, r1
 385:Core/Src/GEVA.c ****                break;
 1581              		.loc 1 385 21 view .LVU493
 1582 00aa 0139     		subs	r1, r1, #1
 1583 00ac 0138     		subs	r0, r0, #1
 1584 00ae 2246     		mov	r2, r4
 1585 00b0 C9B2     		uxtb	r1, r1
 1586 00b2 C0B2     		uxtb	r0, r0
 1587 00b4 FFF7FEFF 		bl	normalize_pos
 1588              	.LVL144:
 1589 00b8 0546     		mov	r5, r0
 1590              	.LVL145:
 386:Core/Src/GEVA.c **** 
 1591              		.loc 1 386 16 is_stmt 1 view .LVU494
 1592 00ba D7E7     		b	.L93
 1593              	.LVL146:
 1594              	.L90:
 389:Core/Src/GEVA.c ****             break;
 1595              		.loc 1 389 13 view .LVU495
 389:Core/Src/GEVA.c ****             break;
 1596              		.loc 1 389 21 is_stmt 0 view .LVU496
 1597 00bc 3A4B     		ldr	r3, .L106
 1598 00be 1B78     		ldrb	r3, [r3]	@ zero_extendqisi2
 1599 00c0 1944     		add	r1, r1, r3
 1600              	.LVL147:
 389:Core/Src/GEVA.c ****             break;
 1601              		.loc 1 389 21 view .LVU497
 1602 00c2 2246     		mov	r2, r4
 1603 00c4 C9B2     		uxtb	r1, r1
 1604 00c6 FFF7FEFF 		bl	normalize_pos
 1605              	.LVL148:
 389:Core/Src/GEVA.c ****             break;
 1606              		.loc 1 389 21 view .LVU498
 1607 00ca 0546     		mov	r5, r0
 1608              	.LVL149:
 390:Core/Src/GEVA.c **** 
 1609              		.loc 1 390 13 is_stmt 1 view .LVU499
 1610 00cc CEE7     		b	.L93
 1611              	.LVL150:
 1612              	.L88:
 393:Core/Src/GEVA.c ****             break;
 1613              		.loc 1 393 13 view .LVU500
 393:Core/Src/GEVA.c ****             break;
 1614              		.loc 1 393 41 is_stmt 0 view .LVU501
 1615 00ce 364B     		ldr	r3, .L106
ARM GAS  C:\Users\arist\AppData\Local\Temp\ccSK2xlW.s 			page 47


 1616 00d0 1B78     		ldrb	r3, [r3]	@ zero_extendqisi2
 1617 00d2 1844     		add	r0, r0, r3
 1618              	.LVL151:
 393:Core/Src/GEVA.c ****             break;
 1619              		.loc 1 393 41 view .LVU502
 1620 00d4 C0B2     		uxtb	r0, r0
 393:Core/Src/GEVA.c ****             break;
 1621              		.loc 1 393 21 view .LVU503
 1622 00d6 0138     		subs	r0, r0, #1
 1623 00d8 2246     		mov	r2, r4
 1624 00da C0B2     		uxtb	r0, r0
 1625 00dc FFF7FEFF 		bl	normalize_pos
 1626              	.LVL152:
 393:Core/Src/GEVA.c ****             break;
 1627              		.loc 1 393 21 view .LVU504
 1628 00e0 0546     		mov	r5, r0
 1629              	.LVL153:
 394:Core/Src/GEVA.c **** 
 1630              		.loc 1 394 13 is_stmt 1 view .LVU505
 1631 00e2 C3E7     		b	.L93
 1632              	.LVL154:
 1633              	.L87:
 397:Core/Src/GEVA.c ****             break;
 1634              		.loc 1 397 13 view .LVU506
 397:Core/Src/GEVA.c ****             break;
 1635              		.loc 1 397 21 is_stmt 0 view .LVU507
 1636 00e4 2246     		mov	r2, r4
 1637 00e6 FFF7FEFF 		bl	normalize_pos
 1638              	.LVL155:
 397:Core/Src/GEVA.c ****             break;
 1639              		.loc 1 397 21 view .LVU508
 1640 00ea 0546     		mov	r5, r0
 1641              	.LVL156:
 398:Core/Src/GEVA.c ****         }
 1642              		.loc 1 398 13 is_stmt 1 view .LVU509
 1643 00ec BEE7     		b	.L93
 1644              	.LVL157:
 1645              	.L104:
 1646              	.LBB22:
 406:Core/Src/GEVA.c ****             
 1647              		.loc 1 406 9 view .LVU510
 406:Core/Src/GEVA.c ****             
 1648              		.loc 1 406 13 is_stmt 0 view .LVU511
 1649 00ee 2146     		mov	r1, r4
 1650 00f0 3046     		mov	r0, r6
 1651 00f2 FFF7FEFF 		bl	rotate_char
 1652              	.LVL158:
 1653 00f6 0646     		mov	r6, r0
 1654              	.LVL159:
 408:Core/Src/GEVA.c ****         uint16_t buffer_byte_ptr = start_byte_ptr;
 1655              		.loc 1 408 9 is_stmt 1 view .LVU512
 408:Core/Src/GEVA.c ****         uint16_t buffer_byte_ptr = start_byte_ptr;
 1656              		.loc 1 408 35 is_stmt 0 view .LVU513
 1657 00f8 2F78     		ldrb	r7, [r5]	@ zero_extendqisi2
 408:Core/Src/GEVA.c ****         uint16_t buffer_byte_ptr = start_byte_ptr;
 1658              		.loc 1 408 65 view .LVU514
 1659 00fa 6178     		ldrb	r1, [r4, #1]	@ zero_extendqisi2
ARM GAS  C:\Users\arist\AppData\Local\Temp\ccSK2xlW.s 			page 48


 408:Core/Src/GEVA.c ****         uint16_t buffer_byte_ptr = start_byte_ptr;
 1660              		.loc 1 408 85 view .LVU515
 1661 00fc 6B78     		ldrb	r3, [r5, #1]	@ zero_extendqisi2
 408:Core/Src/GEVA.c ****         uint16_t buffer_byte_ptr = start_byte_ptr;
 1662              		.loc 1 408 78 view .LVU516
 1663 00fe C91A     		subs	r1, r1, r3
 1664 0100 C9B2     		uxtb	r1, r1
 408:Core/Src/GEVA.c ****         uint16_t buffer_byte_ptr = start_byte_ptr;
 1665              		.loc 1 408 35 view .LVU517
 1666 0102 0139     		subs	r1, r1, #1
 1667 0104 227A     		ldrb	r2, [r4, #8]	@ zero_extendqisi2
 1668 0106 C9B2     		uxtb	r1, r1
 1669 0108 3846     		mov	r0, r7
 1670              	.LVL160:
 408:Core/Src/GEVA.c ****         uint16_t buffer_byte_ptr = start_byte_ptr;
 1671              		.loc 1 408 35 view .LVU518
 1672 010a FFF7FEFF 		bl	get_buffer_index
 1673              	.LVL161:
 409:Core/Src/GEVA.c ****         uint16_t temp = 0;
 1674              		.loc 1 409 9 is_stmt 1 view .LVU519
 410:Core/Src/GEVA.c ****         uint16_t clr = 0;
 1675              		.loc 1 410 9 view .LVU520
 411:Core/Src/GEVA.c ****         uint8_t shifter_a = n_pos[X] % 8;
 1676              		.loc 1 411 9 view .LVU521
 412:Core/Src/GEVA.c ****     
 1677              		.loc 1 412 9 view .LVU522
 412:Core/Src/GEVA.c ****     
 1678              		.loc 1 412 17 is_stmt 0 view .LVU523
 1679 010e 07F00707 		and	r7, r7, #7
 1680              	.LVL162:
 414:Core/Src/GEVA.c ****             buffer_byte_ptr = start_byte_ptr - (buf->byte_col_cnt * i);
 1681              		.loc 1 414 9 is_stmt 1 view .LVU524
 1682              	.LBB23:
 414:Core/Src/GEVA.c ****             buffer_byte_ptr = start_byte_ptr - (buf->byte_col_cnt * i);
 1683              		.loc 1 414 14 view .LVU525
 414:Core/Src/GEVA.c ****             buffer_byte_ptr = start_byte_ptr - (buf->byte_col_cnt * i);
 1684              		.loc 1 414 22 is_stmt 0 view .LVU526
 1685 0112 0021     		movs	r1, #0
 414:Core/Src/GEVA.c ****             buffer_byte_ptr = start_byte_ptr - (buf->byte_col_cnt * i);
 1686              		.loc 1 414 9 view .LVU527
 1687 0114 01E0     		b	.L95
 1688              	.LVL163:
 1689              	.L96:
 414:Core/Src/GEVA.c ****             buffer_byte_ptr = start_byte_ptr - (buf->byte_col_cnt * i);
 1690              		.loc 1 414 47 is_stmt 1 discriminator 2 view .LVU528
 1691 0116 0131     		adds	r1, r1, #1
 1692              	.LVL164:
 414:Core/Src/GEVA.c ****             buffer_byte_ptr = start_byte_ptr - (buf->byte_col_cnt * i);
 1693              		.loc 1 414 47 is_stmt 0 discriminator 2 view .LVU529
 1694 0118 C9B2     		uxtb	r1, r1
 1695              	.LVL165:
 1696              	.L95:
 414:Core/Src/GEVA.c ****             buffer_byte_ptr = start_byte_ptr - (buf->byte_col_cnt * i);
 1697              		.loc 1 414 31 is_stmt 1 discriminator 1 view .LVU530
 1698 011a 234B     		ldr	r3, .L106
 1699 011c 1A78     		ldrb	r2, [r3]	@ zero_extendqisi2
 1700 011e 8A42     		cmp	r2, r1
ARM GAS  C:\Users\arist\AppData\Local\Temp\ccSK2xlW.s 			page 49


 1701 0120 35D9     		bls	.L105
 415:Core/Src/GEVA.c ****             temp = c[font_height - 1 - i] >> shifter_a;
 1702              		.loc 1 415 13 view .LVU531
 415:Core/Src/GEVA.c ****             temp = c[font_height - 1 - i] >> shifter_a;
 1703              		.loc 1 415 52 is_stmt 0 view .LVU532
 1704 0122 237A     		ldrb	r3, [r4, #8]	@ zero_extendqisi2
 415:Core/Src/GEVA.c ****             temp = c[font_height - 1 - i] >> shifter_a;
 1705              		.loc 1 415 29 view .LVU533
 1706 0124 01FB1303 		mls	r3, r1, r3, r0
 1707 0128 9BB2     		uxth	r3, r3
 1708              	.LVL166:
 416:Core/Src/GEVA.c ****             buf->vid_buf[buffer_byte_ptr] |= (uint8_t)(temp >> 8);
 1709              		.loc 1 416 13 is_stmt 1 view .LVU534
 416:Core/Src/GEVA.c ****             buf->vid_buf[buffer_byte_ptr] |= (uint8_t)(temp >> 8);
 1710              		.loc 1 416 34 is_stmt 0 view .LVU535
 1711 012a 013A     		subs	r2, r2, #1
 416:Core/Src/GEVA.c ****             buf->vid_buf[buffer_byte_ptr] |= (uint8_t)(temp >> 8);
 1712              		.loc 1 416 38 view .LVU536
 1713 012c 521A     		subs	r2, r2, r1
 416:Core/Src/GEVA.c ****             buf->vid_buf[buffer_byte_ptr] |= (uint8_t)(temp >> 8);
 1714              		.loc 1 416 21 view .LVU537
 1715 012e 36F81220 		ldrh	r2, [r6, r2, lsl #1]
 416:Core/Src/GEVA.c ****             buf->vid_buf[buffer_byte_ptr] |= (uint8_t)(temp >> 8);
 1716              		.loc 1 416 43 view .LVU538
 1717 0132 3A41     		asrs	r2, r2, r7
 1718              	.LVL167:
 417:Core/Src/GEVA.c ****             buf->vid_buf[buffer_byte_ptr + 1] |= (uint8_t)temp; 
 1719              		.loc 1 417 13 is_stmt 1 view .LVU539
 417:Core/Src/GEVA.c ****             buf->vid_buf[buffer_byte_ptr + 1] |= (uint8_t)temp; 
 1720              		.loc 1 417 16 is_stmt 0 view .LVU540
 1721 0134 D4F804E0 		ldr	lr, [r4, #4]
 417:Core/Src/GEVA.c ****             buf->vid_buf[buffer_byte_ptr + 1] |= (uint8_t)temp; 
 1722              		.loc 1 417 25 view .LVU541
 1723 0138 1EF803C0 		ldrb	ip, [lr, r3]	@ zero_extendqisi2
 417:Core/Src/GEVA.c ****             buf->vid_buf[buffer_byte_ptr + 1] |= (uint8_t)temp; 
 1724              		.loc 1 417 46 view .LVU542
 1725 013c C2F30728 		ubfx	r8, r2, #8, #8
 417:Core/Src/GEVA.c ****             buf->vid_buf[buffer_byte_ptr + 1] |= (uint8_t)temp; 
 1726              		.loc 1 417 43 view .LVU543
 1727 0140 4CEA080C 		orr	ip, ip, r8
 1728 0144 0EF803C0 		strb	ip, [lr, r3]
 418:Core/Src/GEVA.c ****             
 1729              		.loc 1 418 13 is_stmt 1 view .LVU544
 418:Core/Src/GEVA.c ****             
 1730              		.loc 1 418 16 is_stmt 0 view .LVU545
 1731 0148 D4F80480 		ldr	r8, [r4, #4]
 418:Core/Src/GEVA.c ****             
 1732              		.loc 1 418 25 view .LVU546
 1733 014c 03F1010E 		add	lr, r3, #1
 1734 0150 18F80EC0 		ldrb	ip, [r8, lr]	@ zero_extendqisi2
 418:Core/Src/GEVA.c ****             
 1735              		.loc 1 418 50 view .LVU547
 1736 0154 D2B2     		uxtb	r2, r2
 1737              	.LVL168:
 418:Core/Src/GEVA.c ****             
 1738              		.loc 1 418 47 view .LVU548
 1739 0156 4CEA0202 		orr	r2, ip, r2
ARM GAS  C:\Users\arist\AppData\Local\Temp\ccSK2xlW.s 			page 50


 1740 015a 08F80E20 		strb	r2, [r8, lr]
 420:Core/Src/GEVA.c ****                     temp = c[font_height - i - 1];
 1741              		.loc 1 420 13 is_stmt 1 view .LVU549
 420:Core/Src/GEVA.c ****                     temp = c[font_height - i - 1];
 1742              		.loc 1 420 16 is_stmt 0 view .LVU550
 1743 015e 002F     		cmp	r7, #0
 1744 0160 D9D0     		beq	.L96
 421:Core/Src/GEVA.c ****                     buf->vid_buf[buffer_byte_ptr + 2] |= (uint8_t)temp << (8 - shifter_a);
 1745              		.loc 1 421 21 is_stmt 1 view .LVU551
 421:Core/Src/GEVA.c ****                     buf->vid_buf[buffer_byte_ptr + 2] |= (uint8_t)temp << (8 - shifter_a);
 1746              		.loc 1 421 42 is_stmt 0 view .LVU552
 1747 0162 114A     		ldr	r2, .L106
 1748 0164 1278     		ldrb	r2, [r2]	@ zero_extendqisi2
 1749 0166 521A     		subs	r2, r2, r1
 421:Core/Src/GEVA.c ****                     buf->vid_buf[buffer_byte_ptr + 2] |= (uint8_t)temp << (8 - shifter_a);
 1750              		.loc 1 421 29 view .LVU553
 1751 0168 6FF0004C 		mvn	ip, #-2147483648
 1752 016c 9444     		add	ip, ip, r2
 1753              	.LVL169:
 422:Core/Src/GEVA.c ****                 }
 1754              		.loc 1 422 21 is_stmt 1 view .LVU554
 422:Core/Src/GEVA.c ****                 }
 1755              		.loc 1 422 24 is_stmt 0 view .LVU555
 1756 016e D4F804E0 		ldr	lr, [r4, #4]
 422:Core/Src/GEVA.c ****                 }
 1757              		.loc 1 422 33 view .LVU556
 1758 0172 0233     		adds	r3, r3, #2
 1759              	.LVL170:
 422:Core/Src/GEVA.c ****                 }
 1760              		.loc 1 422 33 view .LVU557
 1761 0174 1EF80320 		ldrb	r2, [lr, r3]	@ zero_extendqisi2
 422:Core/Src/GEVA.c ****                 }
 1762              		.loc 1 422 58 view .LVU558
 1763 0178 16F81CC0 		ldrb	ip, [r6, ip, lsl #1]	@ zero_extendqisi2
 1764              	.LVL171:
 422:Core/Src/GEVA.c ****                 }
 1765              		.loc 1 422 78 view .LVU559
 1766 017c C7F10808 		rsb	r8, r7, #8
 422:Core/Src/GEVA.c ****                 }
 1767              		.loc 1 422 72 view .LVU560
 1768 0180 0CFA08FC 		lsl	ip, ip, r8
 422:Core/Src/GEVA.c ****                 }
 1769              		.loc 1 422 55 view .LVU561
 1770 0184 42EA0C02 		orr	r2, r2, ip
 1771 0188 0EF80320 		strb	r2, [lr, r3]
 1772              	.LVL172:
 422:Core/Src/GEVA.c ****                 }
 1773              		.loc 1 422 55 view .LVU562
 1774 018c C3E7     		b	.L96
 1775              	.LVL173:
 1776              	.L105:
 422:Core/Src/GEVA.c ****                 }
 1777              		.loc 1 422 55 view .LVU563
 1778              	.LBE23:
 1779              	.LBE22:
 353:Core/Src/GEVA.c ****     uint8_t* n_pos; 
 1780              		.loc 1 353 13 view .LVU564
ARM GAS  C:\Users\arist\AppData\Local\Temp\ccSK2xlW.s 			page 51


 1781 018e 0024     		movs	r4, #0
 1782              	.LBB25:
 1783              	.LBB24:
 1784 0190 00E0     		b	.L94
 1785              	.LVL174:
 1786              	.L98:
 353:Core/Src/GEVA.c ****     uint8_t* n_pos; 
 1787              		.loc 1 353 13 view .LVU565
 1788              	.LBE24:
 1789              	.LBE25:
 402:Core/Src/GEVA.c ****     else if (n_pos[Y] + font_height > buf->size_y || n_pos[X] + font_width > buf->size_x)
 1790              		.loc 1 402 15 view .LVU566
 1791 0192 0424     		movs	r4, #4
 1792              	.LVL175:
 1793              	.L94:
 427:Core/Src/GEVA.c ****     return error;
 1794              		.loc 1 427 5 is_stmt 1 view .LVU567
 1795 0194 2846     		mov	r0, r5
 1796 0196 FFF7FEFF 		bl	free
 1797              	.LVL176:
 428:Core/Src/GEVA.c **** }
 1798              		.loc 1 428 5 view .LVU568
 429:Core/Src/GEVA.c **** 
 1799              		.loc 1 429 1 is_stmt 0 view .LVU569
 1800 019a 2046     		mov	r0, r4
 1801 019c BDE8F081 		pop	{r4, r5, r6, r7, r8, pc}
 1802              	.LVL177:
 1803              	.L99:
 402:Core/Src/GEVA.c ****     else if (n_pos[Y] + font_height > buf->size_y || n_pos[X] + font_width > buf->size_x)
 1804              		.loc 1 402 15 view .LVU570
 1805 01a0 0424     		movs	r4, #4
 1806 01a2 F7E7     		b	.L94
 1807              	.L100:
 404:Core/Src/GEVA.c ****     else {
 1808              		.loc 1 404 15 view .LVU571
 1809 01a4 0224     		movs	r4, #2
 1810 01a6 F5E7     		b	.L94
 1811              	.L107:
 1812              		.align	2
 1813              	.L106:
 1814 01a8 00000000 		.word	font_height
 1815 01ac 00000000 		.word	font_width
 1816 01b0 00000000 		.word	font_s
 1817 01b4 00000000 		.word	font_m
 1818              		.cfi_endproc
 1819              	.LFE7:
 1821              		.section	.text.put_string,"ax",%progbits
 1822              		.align	1
 1823              		.global	put_string
 1824              		.syntax unified
 1825              		.thumb
 1826              		.thumb_func
 1828              	put_string:
 1829              	.LVL178:
 1830              	.LFB8:
 439:Core/Src/GEVA.c ****     
 1831              		.loc 1 439 103 is_stmt 1 view -0
ARM GAS  C:\Users\arist\AppData\Local\Temp\ccSK2xlW.s 			page 52


 1832              		.cfi_startproc
 1833              		@ args = 4, pretend = 0, frame = 0
 1834              		@ frame_needed = 0, uses_anonymous_args = 0
 439:Core/Src/GEVA.c ****     
 1835              		.loc 1 439 103 is_stmt 0 view .LVU573
 1836 0000 2DE9F04F 		push	{r4, r5, r6, r7, r8, r9, r10, fp, lr}
 1837              		.cfi_def_cfa_offset 36
 1838              		.cfi_offset 4, -36
 1839              		.cfi_offset 5, -32
 1840              		.cfi_offset 6, -28
 1841              		.cfi_offset 7, -24
 1842              		.cfi_offset 8, -20
 1843              		.cfi_offset 9, -16
 1844              		.cfi_offset 10, -12
 1845              		.cfi_offset 11, -8
 1846              		.cfi_offset 14, -4
 1847 0004 83B0     		sub	sp, sp, #12
 1848              		.cfi_def_cfa_offset 48
 1849 0006 DDF830B0 		ldr	fp, [sp, #48]
 441:Core/Src/GEVA.c ****     uint8_t i = 0;
 1850              		.loc 1 441 5 is_stmt 1 view .LVU574
 1851              	.LVL179:
 442:Core/Src/GEVA.c ****     uint8_t y_offset = pos_y;
 1852              		.loc 1 442 5 view .LVU575
 443:Core/Src/GEVA.c ****     uint8_t x_offset = pos_x;    
 1853              		.loc 1 443 5 view .LVU576
 444:Core/Src/GEVA.c **** 
 1854              		.loc 1 444 5 view .LVU577
 446:Core/Src/GEVA.c ****         
 1855              		.loc 1 446 5 view .LVU578
 446:Core/Src/GEVA.c ****         
 1856              		.loc 1 446 8 is_stmt 0 view .LVU579
 1857 000a 42B1     		cbz	r2, .L117
 1858 000c 8046     		mov	r8, r0
 1859 000e 0F46     		mov	r7, r1
 1860 0010 9946     		mov	r9, r3
 1861 0012 1546     		mov	r5, r2
 444:Core/Src/GEVA.c **** 
 1862              		.loc 1 444 13 view .LVU580
 1863 0014 0646     		mov	r6, r0
 442:Core/Src/GEVA.c ****     uint8_t y_offset = pos_y;
 1864              		.loc 1 442 13 view .LVU581
 1865 0016 0024     		movs	r4, #0
 441:Core/Src/GEVA.c ****     uint8_t i = 0;
 1866              		.loc 1 441 13 view .LVU582
 1867 0018 4FF0010A 		mov	r10, #1
 1868 001c 19E0     		b	.L109
 1869              	.L117:
 441:Core/Src/GEVA.c ****     uint8_t i = 0;
 1870              		.loc 1 441 13 view .LVU583
 1871 001e 4FF0010A 		mov	r10, #1
 1872              	.LVL180:
 1873              	.L110:
 464:Core/Src/GEVA.c **** }
 1874              		.loc 1 464 5 is_stmt 1 view .LVU584
 465:Core/Src/GEVA.c **** 
 1875              		.loc 1 465 1 is_stmt 0 view .LVU585
ARM GAS  C:\Users\arist\AppData\Local\Temp\ccSK2xlW.s 			page 53


 1876 0022 5046     		mov	r0, r10
 1877 0024 03B0     		add	sp, sp, #12
 1878              		.cfi_remember_state
 1879              		.cfi_def_cfa_offset 36
 1880              		@ sp needed
 1881 0026 BDE8F08F 		pop	{r4, r5, r6, r7, r8, r9, r10, fp, pc}
 1882              	.LVL181:
 1883              	.L112:
 1884              		.cfi_restore_state
 455:Core/Src/GEVA.c ****                 if (error != 0)
 1885              		.loc 1 455 17 is_stmt 1 view .LVU586
 455:Core/Src/GEVA.c ****                 if (error != 0)
 1886              		.loc 1 455 25 is_stmt 0 view .LVU587
 1887 002a CDF800B0 		str	fp, [sp]
 1888 002e 4B46     		mov	r3, r9
 1889 0030 3946     		mov	r1, r7
 1890 0032 3046     		mov	r0, r6
 1891 0034 FFF7FEFF 		bl	put_char
 1892              	.LVL182:
 456:Core/Src/GEVA.c ****                     break;
 1893              		.loc 1 456 17 is_stmt 1 view .LVU588
 456:Core/Src/GEVA.c ****                     break;
 1894              		.loc 1 456 20 is_stmt 0 view .LVU589
 1895 0038 8246     		mov	r10, r0
 1896 003a 0028     		cmp	r0, #0
 1897 003c F1D1     		bne	.L110
 458:Core/Src/GEVA.c ****             
 1898              		.loc 1 458 17 is_stmt 1 view .LVU590
 458:Core/Src/GEVA.c ****             
 1899              		.loc 1 458 26 is_stmt 0 view .LVU591
 1900 003e 0D4B     		ldr	r3, .L118
 1901 0040 1B78     		ldrb	r3, [r3]	@ zero_extendqisi2
 1902 0042 3344     		add	r3, r3, r6
 1903 0044 DBB2     		uxtb	r3, r3
 1904 0046 0133     		adds	r3, r3, #1
 1905 0048 DEB2     		uxtb	r6, r3
 1906              	.LVL183:
 458:Core/Src/GEVA.c ****             
 1907              		.loc 1 458 26 view .LVU592
 1908 004a 00E0     		b	.L111
 1909              	.LVL184:
 1910              	.L115:
 451:Core/Src/GEVA.c ****             else if (chr[i] == '\n')
 1911              		.loc 1 451 26 view .LVU593
 1912 004c 4646     		mov	r6, r8
 1913              	.LVL185:
 1914              	.L111:
 461:Core/Src/GEVA.c ****         }
 1915              		.loc 1 461 13 is_stmt 1 view .LVU594
 461:Core/Src/GEVA.c ****         }
 1916              		.loc 1 461 14 is_stmt 0 view .LVU595
 1917 004e 0134     		adds	r4, r4, #1
 1918              	.LVL186:
 461:Core/Src/GEVA.c ****         }
 1919              		.loc 1 461 14 view .LVU596
 1920 0050 E4B2     		uxtb	r4, r4
 1921              	.LVL187:
ARM GAS  C:\Users\arist\AppData\Local\Temp\ccSK2xlW.s 			page 54


 1922              	.L109:
 448:Core/Src/GEVA.c **** 
 1923              		.loc 1 448 17 is_stmt 1 view .LVU597
 448:Core/Src/GEVA.c **** 
 1924              		.loc 1 448 19 is_stmt 0 view .LVU598
 1925 0052 2846     		mov	r0, r5
 1926 0054 FFF7FEFF 		bl	strlen
 1927              	.LVL188:
 448:Core/Src/GEVA.c **** 
 1928              		.loc 1 448 17 view .LVU599
 1929 0058 8442     		cmp	r4, r0
 1930 005a E2D2     		bcs	.L110
 450:Core/Src/GEVA.c ****                 x_offset = pos_x;
 1931              		.loc 1 450 13 is_stmt 1 view .LVU600
 450:Core/Src/GEVA.c ****                 x_offset = pos_x;
 1932              		.loc 1 450 20 is_stmt 0 view .LVU601
 1933 005c 2A5D     		ldrb	r2, [r5, r4]	@ zero_extendqisi2
 450:Core/Src/GEVA.c ****                 x_offset = pos_x;
 1934              		.loc 1 450 16 view .LVU602
 1935 005e 0D2A     		cmp	r2, #13
 1936 0060 F4D0     		beq	.L115
 452:Core/Src/GEVA.c ****                 y_offset = y_offset - 1 - font_height;
 1937              		.loc 1 452 18 is_stmt 1 view .LVU603
 452:Core/Src/GEVA.c ****                 y_offset = y_offset - 1 - font_height;
 1938              		.loc 1 452 21 is_stmt 0 view .LVU604
 1939 0062 0A2A     		cmp	r2, #10
 1940 0064 E1D1     		bne	.L112
 453:Core/Src/GEVA.c ****             else {
 1941              		.loc 1 453 17 is_stmt 1 view .LVU605
 453:Core/Src/GEVA.c ****             else {
 1942              		.loc 1 453 41 is_stmt 0 view .LVU606
 1943 0066 044B     		ldr	r3, .L118+4
 1944 0068 1B78     		ldrb	r3, [r3]	@ zero_extendqisi2
 1945 006a FB1A     		subs	r3, r7, r3
 1946 006c DBB2     		uxtb	r3, r3
 453:Core/Src/GEVA.c ****             else {
 1947              		.loc 1 453 26 view .LVU607
 1948 006e 013B     		subs	r3, r3, #1
 1949 0070 DFB2     		uxtb	r7, r3
 1950              	.LVL189:
 453:Core/Src/GEVA.c ****             else {
 1951              		.loc 1 453 26 view .LVU608
 1952 0072 ECE7     		b	.L111
 1953              	.L119:
 1954              		.align	2
 1955              	.L118:
 1956 0074 00000000 		.word	font_width
 1957 0078 00000000 		.word	font_height
 1958              		.cfi_endproc
 1959              	.LFE8:
 1961              		.section	.text.modulo,"ax",%progbits
 1962              		.align	1
 1963              		.global	modulo
 1964              		.syntax unified
 1965              		.thumb
 1966              		.thumb_func
 1968              	modulo:
ARM GAS  C:\Users\arist\AppData\Local\Temp\ccSK2xlW.s 			page 55


 1969              	.LVL190:
 1970              	.LFB20:
 693:Core/Src/GEVA.c **** 
 694:Core/Src/GEVA.c **** 
 695:Core/Src/GEVA.c **** uint8_t modulo(int8_t n) {
 1971              		.loc 1 695 26 is_stmt 1 view -0
 1972              		.cfi_startproc
 1973              		@ args = 0, pretend = 0, frame = 0
 1974              		@ frame_needed = 0, uses_anonymous_args = 0
 1975              		@ link register save eliminated.
 696:Core/Src/GEVA.c ****     return (n > 0) ? n : -n;
 1976              		.loc 1 696 5 view .LVU610
 1977              		.loc 1 696 24 is_stmt 0 view .LVU611
 1978 0000 0028     		cmp	r0, #0
 1979 0002 B8BF     		it	lt
 1980 0004 4042     		rsblt	r0, r0, #0
 1981              	.LVL191:
 697:Core/Src/GEVA.c **** }
 1982              		.loc 1 697 1 view .LVU612
 1983 0006 C0B2     		uxtb	r0, r0
 1984 0008 7047     		bx	lr
 1985              		.cfi_endproc
 1986              	.LFE20:
 1988              		.section	.text.clear_sector,"ax",%progbits
 1989              		.align	1
 1990              		.global	clear_sector
 1991              		.syntax unified
 1992              		.thumb
 1993              		.thumb_func
 1995              	clear_sector:
 1996              	.LVL192:
 1997              	.LFB6:
 240:Core/Src/GEVA.c **** 
 1998              		.loc 1 240 102 is_stmt 1 view -0
 1999              		.cfi_startproc
 2000              		@ args = 4, pretend = 0, frame = 16
 2001              		@ frame_needed = 0, uses_anonymous_args = 0
 240:Core/Src/GEVA.c **** 
 2002              		.loc 1 240 102 is_stmt 0 view .LVU614
 2003 0000 2DE9F04F 		push	{r4, r5, r6, r7, r8, r9, r10, fp, lr}
 2004              		.cfi_def_cfa_offset 36
 2005              		.cfi_offset 4, -36
 2006              		.cfi_offset 5, -32
 2007              		.cfi_offset 6, -28
 2008              		.cfi_offset 7, -24
 2009              		.cfi_offset 8, -20
 2010              		.cfi_offset 9, -16
 2011              		.cfi_offset 10, -12
 2012              		.cfi_offset 11, -8
 2013              		.cfi_offset 14, -4
 2014 0004 85B0     		sub	sp, sp, #20
 2015              		.cfi_def_cfa_offset 56
 2016 0006 0290     		str	r0, [sp, #8]
 2017 0008 0D46     		mov	r5, r1
 2018 000a 0192     		str	r2, [sp, #4]
 2019 000c 9946     		mov	r9, r3
 2020 000e 0E9C     		ldr	r4, [sp, #56]
ARM GAS  C:\Users\arist\AppData\Local\Temp\ccSK2xlW.s 			page 56


 242:Core/Src/GEVA.c ****     uint8_t startx_ptr = 0; // pos_x;
 2021              		.loc 1 242 5 is_stmt 1 view .LVU615
 2022              	.LVL193:
 243:Core/Src/GEVA.c ****     uint8_t starty_ptr = 0; // pos_y;
 2023              		.loc 1 243 5 view .LVU616
 244:Core/Src/GEVA.c ****     uint8_t endx_ptr = 0;   //pos_x + width;
 2024              		.loc 1 244 5 view .LVU617
 245:Core/Src/GEVA.c ****     uint8_t endy_ptr = 0;   // pos_y + height;
 2025              		.loc 1 245 5 view .LVU618
 246:Core/Src/GEVA.c ****     uint8_t n_width = 0;    //normalized width
 2026              		.loc 1 246 5 view .LVU619
 247:Core/Src/GEVA.c ****     uint8_t* n_pos_ptr = normalize_pos(pos_x, pos_y, buf);
 2027              		.loc 1 247 5 view .LVU620
 248:Core/Src/GEVA.c ****     
 2028              		.loc 1 248 5 view .LVU621
 248:Core/Src/GEVA.c ****     
 2029              		.loc 1 248 26 is_stmt 0 view .LVU622
 2030 0010 2246     		mov	r2, r4
 2031              	.LVL194:
 248:Core/Src/GEVA.c ****     
 2032              		.loc 1 248 26 view .LVU623
 2033 0012 FFF7FEFF 		bl	normalize_pos
 2034              	.LVL195:
 248:Core/Src/GEVA.c ****     
 2035              		.loc 1 248 26 view .LVU624
 2036 0016 0646     		mov	r6, r0
 2037              	.LVL196:
 250:Core/Src/GEVA.c **** 
 2038              		.loc 1 250 5 is_stmt 1 view .LVU625
 250:Core/Src/GEVA.c **** 
 2039              		.loc 1 250 16 is_stmt 0 view .LVU626
 2040 0018 637B     		ldrb	r3, [r4, #13]	@ zero_extendqisi2
 250:Core/Src/GEVA.c **** 
 2041              		.loc 1 250 5 view .LVU627
 2042 001a 032B     		cmp	r3, #3
 2043 001c 73D8     		bhi	.L142
 2044 001e DFE803F0 		tbb	[pc, r3]
 2045              	.L124:
 2046 0022 02       		.byte	(.L127-.L124)/2
 2047 0023 34       		.byte	(.L126-.L124)/2
 2048 0024 4B       		.byte	(.L125-.L124)/2
 2049 0025 5D       		.byte	(.L123-.L124)/2
 2050              		.p2align 1
 2051              	.L127:
 253:Core/Src/GEVA.c ****         startx_ptr = n_pos_ptr[X];
 2052              		.loc 1 253 9 is_stmt 1 view .LVU628
 2053              	.LVL197:
 254:Core/Src/GEVA.c ****         starty_ptr = n_pos_ptr[Y];
 2054              		.loc 1 254 9 view .LVU629
 254:Core/Src/GEVA.c ****         starty_ptr = n_pos_ptr[Y];
 2055              		.loc 1 254 20 is_stmt 0 view .LVU630
 2056 0026 0778     		ldrb	r7, [r0]	@ zero_extendqisi2
 2057              	.LVL198:
 255:Core/Src/GEVA.c ****         endx_ptr = startx_ptr + width;
 2058              		.loc 1 255 9 is_stmt 1 view .LVU631
 255:Core/Src/GEVA.c ****         endx_ptr = startx_ptr + width;
 2059              		.loc 1 255 20 is_stmt 0 view .LVU632
ARM GAS  C:\Users\arist\AppData\Local\Temp\ccSK2xlW.s 			page 57


 2060 0028 90F80180 		ldrb	r8, [r0, #1]	@ zero_extendqisi2
 2061              	.LVL199:
 256:Core/Src/GEVA.c ****         endy_ptr = starty_ptr + height;
 2062              		.loc 1 256 9 is_stmt 1 view .LVU633
 256:Core/Src/GEVA.c ****         endy_ptr = starty_ptr + height;
 2063              		.loc 1 256 18 is_stmt 0 view .LVU634
 2064 002c 019A     		ldr	r2, [sp, #4]
 2065 002e D319     		adds	r3, r2, r7
 2066 0030 5FFA83FB 		uxtb	fp, r3
 2067              	.LVL200:
 257:Core/Src/GEVA.c ****         break;
 2068              		.loc 1 257 9 is_stmt 1 view .LVU635
 257:Core/Src/GEVA.c ****         break;
 2069              		.loc 1 257 18 is_stmt 0 view .LVU636
 2070 0034 09EB0803 		add	r3, r9, r8
 2071 0038 5FFA83FA 		uxtb	r10, r3
 2072              	.LVL201:
 258:Core/Src/GEVA.c **** 
 2073              		.loc 1 258 9 is_stmt 1 view .LVU637
 253:Core/Src/GEVA.c ****         startx_ptr = n_pos_ptr[X];
 2074              		.loc 1 253 17 is_stmt 0 view .LVU638
 2075 003c 0392     		str	r2, [sp, #12]
 2076              	.LVL202:
 2077              	.L122:
 287:Core/Src/GEVA.c ****         return 4;
 2078              		.loc 1 287 5 is_stmt 1 view .LVU639
 287:Core/Src/GEVA.c ****         return 4;
 2079              		.loc 1 287 21 is_stmt 0 view .LVU640
 2080 003e 2278     		ldrb	r2, [r4]	@ zero_extendqisi2
 287:Core/Src/GEVA.c ****         return 4;
 2081              		.loc 1 287 8 view .LVU641
 2082 0040 0299     		ldr	r1, [sp, #8]
 2083 0042 8A42     		cmp	r2, r1
 2084 0044 40F2F580 		bls	.L143
 287:Core/Src/GEVA.c ****         return 4;
 2085              		.loc 1 287 58 discriminator 1 view .LVU642
 2086 0048 6378     		ldrb	r3, [r4, #1]	@ zero_extendqisi2
 287:Core/Src/GEVA.c ****         return 4;
 2087              		.loc 1 287 67 discriminator 1 view .LVU643
 2088 004a AB42     		cmp	r3, r5
 2089 004c 40F2F380 		bls	.L144
 290:Core/Src/GEVA.c ****         error = 2;
 2090              		.loc 1 290 5 is_stmt 1 view .LVU644
 290:Core/Src/GEVA.c ****         error = 2;
 2091              		.loc 1 290 15 is_stmt 0 view .LVU645
 2092 0050 4D44     		add	r5, r5, r9
 290:Core/Src/GEVA.c ****         error = 2;
 2093              		.loc 1 290 8 view .LVU646
 2094 0052 9D42     		cmp	r5, r3
 2095 0054 00F3E380 		bgt	.L145
 290:Core/Src/GEVA.c ****         error = 2;
 2096              		.loc 1 290 47 discriminator 1 view .LVU647
 2097 0058 0198     		ldr	r0, [sp, #4]
 2098              	.LVL203:
 290:Core/Src/GEVA.c ****         error = 2;
 2099              		.loc 1 290 47 discriminator 1 view .LVU648
 2100 005a 0144     		add	r1, r1, r0
ARM GAS  C:\Users\arist\AppData\Local\Temp\ccSK2xlW.s 			page 58


 290:Core/Src/GEVA.c ****         error = 2;
 2101              		.loc 1 290 38 discriminator 1 view .LVU649
 2102 005c 9142     		cmp	r1, r2
 2103 005e 00F3E680 		bgt	.L146
 2104              	.LBB26:
 295:Core/Src/GEVA.c ****         uint16_t buffer_byte_ptr = start_byte_ptr;
 2105              		.loc 1 295 9 is_stmt 1 view .LVU650
 295:Core/Src/GEVA.c ****         uint16_t buffer_byte_ptr = start_byte_ptr;
 2106              		.loc 1 295 80 is_stmt 0 view .LVU651
 2107 0062 A3EB0801 		sub	r1, r3, r8
 2108 0066 C9B2     		uxtb	r1, r1
 295:Core/Src/GEVA.c ****         uint16_t buffer_byte_ptr = start_byte_ptr;
 2109              		.loc 1 295 35 view .LVU652
 2110 0068 0139     		subs	r1, r1, #1
 2111 006a 227A     		ldrb	r2, [r4, #8]	@ zero_extendqisi2
 2112 006c C9B2     		uxtb	r1, r1
 2113 006e 3846     		mov	r0, r7
 2114 0070 FFF7FEFF 		bl	get_buffer_index
 2115              	.LVL204:
 2116 0074 8146     		mov	r9, r0
 2117              	.LVL205:
 296:Core/Src/GEVA.c ****         int16_t initial_shift = modulo(endx_ptr - startx_ptr);
 2118              		.loc 1 296 9 is_stmt 1 view .LVU653
 297:Core/Src/GEVA.c ****         int16_t to_shift = initial_shift;
 2119              		.loc 1 297 9 view .LVU654
 297:Core/Src/GEVA.c ****         int16_t to_shift = initial_shift;
 2120              		.loc 1 297 49 is_stmt 0 view .LVU655
 2121 0076 ABEB0700 		sub	r0, fp, r7
 297:Core/Src/GEVA.c ****         int16_t to_shift = initial_shift;
 2122              		.loc 1 297 33 view .LVU656
 2123 007a 40B2     		sxtb	r0, r0
 2124 007c FFF7FEFF 		bl	modulo
 2125              	.LVL206:
 2126 0080 0190     		str	r0, [sp, #4]
 2127              	.LVL207:
 298:Core/Src/GEVA.c **** 
 2128              		.loc 1 298 9 is_stmt 1 view .LVU657
 300:Core/Src/GEVA.c ****         {
 2129              		.loc 1 300 9 view .LVU658
 2130              	.LBB27:
 300:Core/Src/GEVA.c ****         {
 2131              		.loc 1 300 14 view .LVU659
 300:Core/Src/GEVA.c ****         {
 2132              		.loc 1 300 22 is_stmt 0 view .LVU660
 2133 0082 0025     		movs	r5, #0
 2134 0084 0296     		str	r6, [sp, #8]
 2135 0086 039E     		ldr	r6, [sp, #12]
 2136              	.LVL208:
 300:Core/Src/GEVA.c ****         {
 2137              		.loc 1 300 9 view .LVU661
 2138 0088 A0E0     		b	.L130
 2139              	.LVL209:
 2140              	.L126:
 300:Core/Src/GEVA.c ****         {
 2141              		.loc 1 300 9 view .LVU662
 2142              	.LBE27:
 2143              	.LBE26:
ARM GAS  C:\Users\arist\AppData\Local\Temp\ccSK2xlW.s 			page 59


 261:Core/Src/GEVA.c ****         startx_ptr = n_pos_ptr[X] - width + 1;
 2144              		.loc 1 261 9 is_stmt 1 view .LVU663
 262:Core/Src/GEVA.c ****         starty_ptr = n_pos_ptr[Y] - height + 1;
 2145              		.loc 1 262 9 view .LVU664
 262:Core/Src/GEVA.c ****         starty_ptr = n_pos_ptr[Y] - height + 1;
 2146              		.loc 1 262 31 is_stmt 0 view .LVU665
 2147 008a 0378     		ldrb	r3, [r0]	@ zero_extendqisi2
 262:Core/Src/GEVA.c ****         starty_ptr = n_pos_ptr[Y] - height + 1;
 2148              		.loc 1 262 35 view .LVU666
 2149 008c 0199     		ldr	r1, [sp, #4]
 2150 008e 5F1A     		subs	r7, r3, r1
 2151 0090 FFB2     		uxtb	r7, r7
 262:Core/Src/GEVA.c ****         starty_ptr = n_pos_ptr[Y] - height + 1;
 2152              		.loc 1 262 20 view .LVU667
 2153 0092 0137     		adds	r7, r7, #1
 2154 0094 FFB2     		uxtb	r7, r7
 2155              	.LVL210:
 263:Core/Src/GEVA.c ****         endx_ptr = n_pos_ptr[X] + 1;
 2156              		.loc 1 263 9 is_stmt 1 view .LVU668
 263:Core/Src/GEVA.c ****         endx_ptr = n_pos_ptr[X] + 1;
 2157              		.loc 1 263 31 is_stmt 0 view .LVU669
 2158 0096 4278     		ldrb	r2, [r0, #1]	@ zero_extendqisi2
 263:Core/Src/GEVA.c ****         endx_ptr = n_pos_ptr[X] + 1;
 2159              		.loc 1 263 35 view .LVU670
 2160 0098 A2EB0908 		sub	r8, r2, r9
 2161 009c 5FFA88F8 		uxtb	r8, r8
 263:Core/Src/GEVA.c ****         endx_ptr = n_pos_ptr[X] + 1;
 2162              		.loc 1 263 20 view .LVU671
 2163 00a0 08F10108 		add	r8, r8, #1
 2164 00a4 5FFA88F8 		uxtb	r8, r8
 2165              	.LVL211:
 264:Core/Src/GEVA.c ****         endy_ptr = n_pos_ptr[Y] + 1;
 2166              		.loc 1 264 9 is_stmt 1 view .LVU672
 264:Core/Src/GEVA.c ****         endy_ptr = n_pos_ptr[Y] + 1;
 2167              		.loc 1 264 18 is_stmt 0 view .LVU673
 2168 00a8 0133     		adds	r3, r3, #1
 2169 00aa 5FFA83FB 		uxtb	fp, r3
 2170              	.LVL212:
 265:Core/Src/GEVA.c ****         break;
 2171              		.loc 1 265 9 is_stmt 1 view .LVU674
 265:Core/Src/GEVA.c ****         break;
 2172              		.loc 1 265 18 is_stmt 0 view .LVU675
 2173 00ae 0132     		adds	r2, r2, #1
 2174 00b0 5FFA82FA 		uxtb	r10, r2
 2175              	.LVL213:
 266:Core/Src/GEVA.c **** 
 2176              		.loc 1 266 9 is_stmt 1 view .LVU676
 261:Core/Src/GEVA.c ****         startx_ptr = n_pos_ptr[X] - width + 1;
 2177              		.loc 1 261 17 is_stmt 0 view .LVU677
 2178 00b4 0391     		str	r1, [sp, #12]
 266:Core/Src/GEVA.c **** 
 2179              		.loc 1 266 9 view .LVU678
 2180 00b6 C2E7     		b	.L122
 2181              	.LVL214:
 2182              	.L125:
 269:Core/Src/GEVA.c ****         startx_ptr = n_pos_ptr[X] - height + 1;
 2183              		.loc 1 269 9 is_stmt 1 view .LVU679
ARM GAS  C:\Users\arist\AppData\Local\Temp\ccSK2xlW.s 			page 60


 270:Core/Src/GEVA.c ****         starty_ptr = n_pos_ptr[Y];
 2184              		.loc 1 270 9 view .LVU680
 270:Core/Src/GEVA.c ****         starty_ptr = n_pos_ptr[Y];
 2185              		.loc 1 270 31 is_stmt 0 view .LVU681
 2186 00b8 0378     		ldrb	r3, [r0]	@ zero_extendqisi2
 270:Core/Src/GEVA.c ****         starty_ptr = n_pos_ptr[Y];
 2187              		.loc 1 270 35 view .LVU682
 2188 00ba A3EB0907 		sub	r7, r3, r9
 2189 00be FFB2     		uxtb	r7, r7
 270:Core/Src/GEVA.c ****         starty_ptr = n_pos_ptr[Y];
 2190              		.loc 1 270 20 view .LVU683
 2191 00c0 0137     		adds	r7, r7, #1
 2192 00c2 FFB2     		uxtb	r7, r7
 2193              	.LVL215:
 271:Core/Src/GEVA.c ****         endx_ptr = n_pos_ptr[X] + 1;
 2194              		.loc 1 271 9 is_stmt 1 view .LVU684
 271:Core/Src/GEVA.c ****         endx_ptr = n_pos_ptr[X] + 1;
 2195              		.loc 1 271 20 is_stmt 0 view .LVU685
 2196 00c4 90F80180 		ldrb	r8, [r0, #1]	@ zero_extendqisi2
 2197              	.LVL216:
 272:Core/Src/GEVA.c ****         endy_ptr = starty_ptr + width;
 2198              		.loc 1 272 9 is_stmt 1 view .LVU686
 272:Core/Src/GEVA.c ****         endy_ptr = starty_ptr + width;
 2199              		.loc 1 272 18 is_stmt 0 view .LVU687
 2200 00c8 0133     		adds	r3, r3, #1
 2201 00ca 5FFA83FB 		uxtb	fp, r3
 2202              	.LVL217:
 273:Core/Src/GEVA.c ****         break;
 2203              		.loc 1 273 9 is_stmt 1 view .LVU688
 273:Core/Src/GEVA.c ****         break;
 2204              		.loc 1 273 18 is_stmt 0 view .LVU689
 2205 00ce 019B     		ldr	r3, [sp, #4]
 2206 00d0 4344     		add	r3, r3, r8
 2207 00d2 5FFA83FA 		uxtb	r10, r3
 2208              	.LVL218:
 274:Core/Src/GEVA.c **** 
 2209              		.loc 1 274 9 is_stmt 1 view .LVU690
 269:Core/Src/GEVA.c ****         startx_ptr = n_pos_ptr[X] - height + 1;
 2210              		.loc 1 269 17 is_stmt 0 view .LVU691
 2211 00d6 CDF80C90 		str	r9, [sp, #12]
 274:Core/Src/GEVA.c **** 
 2212              		.loc 1 274 9 view .LVU692
 2213 00da B0E7     		b	.L122
 2214              	.LVL219:
 2215              	.L123:
 277:Core/Src/GEVA.c ****         starty_ptr = n_pos_ptr[Y] - width + 1;
 2216              		.loc 1 277 9 is_stmt 1 view .LVU693
 277:Core/Src/GEVA.c ****         starty_ptr = n_pos_ptr[Y] - width + 1;
 2217              		.loc 1 277 20 is_stmt 0 view .LVU694
 2218 00dc 0778     		ldrb	r7, [r0]	@ zero_extendqisi2
 2219              	.LVL220:
 278:Core/Src/GEVA.c ****         endx_ptr = startx_ptr + height;
 2220              		.loc 1 278 9 is_stmt 1 view .LVU695
 278:Core/Src/GEVA.c ****         endx_ptr = startx_ptr + height;
 2221              		.loc 1 278 31 is_stmt 0 view .LVU696
 2222 00de 4378     		ldrb	r3, [r0, #1]	@ zero_extendqisi2
 278:Core/Src/GEVA.c ****         endx_ptr = startx_ptr + height;
ARM GAS  C:\Users\arist\AppData\Local\Temp\ccSK2xlW.s 			page 61


 2223              		.loc 1 278 35 view .LVU697
 2224 00e0 019A     		ldr	r2, [sp, #4]
 2225 00e2 A3EB0208 		sub	r8, r3, r2
 2226 00e6 5FFA88F8 		uxtb	r8, r8
 278:Core/Src/GEVA.c ****         endx_ptr = startx_ptr + height;
 2227              		.loc 1 278 20 view .LVU698
 2228 00ea 08F10108 		add	r8, r8, #1
 2229 00ee 5FFA88F8 		uxtb	r8, r8
 2230              	.LVL221:
 279:Core/Src/GEVA.c ****         endy_ptr = n_pos_ptr[Y] + 1;
 2231              		.loc 1 279 9 is_stmt 1 view .LVU699
 279:Core/Src/GEVA.c ****         endy_ptr = n_pos_ptr[Y] + 1;
 2232              		.loc 1 279 18 is_stmt 0 view .LVU700
 2233 00f2 07EB0902 		add	r2, r7, r9
 2234 00f6 5FFA82FB 		uxtb	fp, r2
 2235              	.LVL222:
 280:Core/Src/GEVA.c ****         break;
 2236              		.loc 1 280 9 is_stmt 1 view .LVU701
 280:Core/Src/GEVA.c ****         break;
 2237              		.loc 1 280 18 is_stmt 0 view .LVU702
 2238 00fa 0133     		adds	r3, r3, #1
 2239 00fc 5FFA83FA 		uxtb	r10, r3
 2240              	.LVL223:
 281:Core/Src/GEVA.c **** 
 2241              		.loc 1 281 9 is_stmt 1 view .LVU703
 247:Core/Src/GEVA.c ****     uint8_t* n_pos_ptr = normalize_pos(pos_x, pos_y, buf);
 2242              		.loc 1 247 13 is_stmt 0 view .LVU704
 2243 0100 0023     		movs	r3, #0
 2244 0102 0393     		str	r3, [sp, #12]
 281:Core/Src/GEVA.c **** 
 2245              		.loc 1 281 9 view .LVU705
 2246 0104 9BE7     		b	.L122
 2247              	.LVL224:
 2248              	.L142:
 250:Core/Src/GEVA.c **** 
 2249              		.loc 1 250 5 view .LVU706
 2250 0106 0023     		movs	r3, #0
 2251 0108 1F46     		mov	r7, r3
 2252 010a 0393     		str	r3, [sp, #12]
 2253 010c 9A46     		mov	r10, r3
 2254 010e 9B46     		mov	fp, r3
 2255 0110 9846     		mov	r8, r3
 2256 0112 94E7     		b	.L122
 2257              	.LVL225:
 2258              	.L150:
 2259              	.LBB30:
 2260              	.LBB28:
 306:Core/Src/GEVA.c ****                 
 2261              		.loc 1 306 17 is_stmt 1 view .LVU707
 306:Core/Src/GEVA.c ****                 
 2262              		.loc 1 306 26 is_stmt 0 view .LVU708
 2263 0114 0199     		ldr	r1, [sp, #4]
 2264 0116 8818     		adds	r0, r1, r2
 2265 0118 0838     		subs	r0, r0, #8
 2266 011a 00B2     		sxth	r0, r0
 2267              	.LVL226:
 308:Core/Src/GEVA.c ****                     buf->vid_buf[buffer_byte_ptr] &= 0xff << (8 - (startx_ptr % 8));
ARM GAS  C:\Users\arist\AppData\Local\Temp\ccSK2xlW.s 			page 62


 2268              		.loc 1 308 17 is_stmt 1 view .LVU709
 308:Core/Src/GEVA.c ****                     buf->vid_buf[buffer_byte_ptr] &= 0xff << (8 - (startx_ptr % 8));
 2269              		.loc 1 308 23 is_stmt 0 view .LVU710
 2270 011c 217B     		ldrb	r1, [r4, #12]	@ zero_extendqisi2
 308:Core/Src/GEVA.c ****                     buf->vid_buf[buffer_byte_ptr] &= 0xff << (8 - (startx_ptr % 8));
 2271              		.loc 1 308 19 view .LVU711
 2272 011e 71B9     		cbnz	r1, .L132
 309:Core/Src/GEVA.c ****                 else 
 2273              		.loc 1 309 21 is_stmt 1 view .LVU712
 309:Core/Src/GEVA.c ****                 else 
 2274              		.loc 1 309 24 is_stmt 0 view .LVU713
 2275 0120 D4F804C0 		ldr	ip, [r4, #4]
 309:Core/Src/GEVA.c ****                 else 
 2276              		.loc 1 309 33 view .LVU714
 2277 0124 1CF80310 		ldrb	r1, [ip, r3]	@ zero_extendqisi2
 309:Core/Src/GEVA.c ****                 else 
 2278              		.loc 1 309 65 view .LVU715
 2279 0128 C2F1080E 		rsb	lr, r2, #8
 309:Core/Src/GEVA.c ****                 else 
 2280              		.loc 1 309 59 view .LVU716
 2281 012c FF22     		movs	r2, #255
 2282 012e 02FA0EF2 		lsl	r2, r2, lr
 309:Core/Src/GEVA.c ****                 else 
 2283              		.loc 1 309 51 view .LVU717
 2284 0132 0A40     		ands	r2, r2, r1
 2285 0134 0CF80320 		strb	r2, [ip, r3]
 2286              	.L133:
 313:Core/Src/GEVA.c ****                 
 2287              		.loc 1 313 17 is_stmt 1 view .LVU718
 313:Core/Src/GEVA.c ****                 
 2288              		.loc 1 313 32 is_stmt 0 view .LVU719
 2289 0138 0133     		adds	r3, r3, #1
 2290              	.LVL227:
 313:Core/Src/GEVA.c ****                 
 2291              		.loc 1 313 32 view .LVU720
 2292 013a 9BB2     		uxth	r3, r3
 2293              	.LVL228:
 315:Core/Src/GEVA.c ****                     if(buf->mode == NORMAL)
 2294              		.loc 1 315 17 is_stmt 1 view .LVU721
 315:Core/Src/GEVA.c ****                     if(buf->mode == NORMAL)
 2295              		.loc 1 315 23 is_stmt 0 view .LVU722
 2296 013c 12E0     		b	.L134
 2297              	.L132:
 311:Core/Src/GEVA.c ****                 
 2298              		.loc 1 311 21 is_stmt 1 view .LVU723
 311:Core/Src/GEVA.c ****                 
 2299              		.loc 1 311 24 is_stmt 0 view .LVU724
 2300 013e D4F804C0 		ldr	ip, [r4, #4]
 311:Core/Src/GEVA.c ****                 
 2301              		.loc 1 311 33 view .LVU725
 2302 0142 1CF80310 		ldrb	r1, [ip, r3]	@ zero_extendqisi2
 311:Core/Src/GEVA.c ****                 
 2303              		.loc 1 311 59 view .LVU726
 2304 0146 4FF0FF0E 		mov	lr, #255
 2305 014a 4EFA02F2 		asr	r2, lr, r2
 311:Core/Src/GEVA.c ****                 
 2306              		.loc 1 311 51 view .LVU727
ARM GAS  C:\Users\arist\AppData\Local\Temp\ccSK2xlW.s 			page 63


 2307 014e 0A43     		orrs	r2, r2, r1
 2308 0150 0CF80320 		strb	r2, [ip, r3]
 2309 0154 F0E7     		b	.L133
 2310              	.L135:
 319:Core/Src/GEVA.c ****                         
 2311              		.loc 1 319 25 is_stmt 1 view .LVU728
 319:Core/Src/GEVA.c ****                         
 2312              		.loc 1 319 28 is_stmt 0 view .LVU729
 2313 0156 6268     		ldr	r2, [r4, #4]
 319:Core/Src/GEVA.c ****                         
 2314              		.loc 1 319 55 view .LVU730
 2315 0158 FF21     		movs	r1, #255
 2316 015a D154     		strb	r1, [r2, r3]
 2317              	.L136:
 321:Core/Src/GEVA.c ****                     to_shift -= 8;
 2318              		.loc 1 321 21 is_stmt 1 view .LVU731
 321:Core/Src/GEVA.c ****                     to_shift -= 8;
 2319              		.loc 1 321 36 is_stmt 0 view .LVU732
 2320 015c 0133     		adds	r3, r3, #1
 2321              	.LVL229:
 321:Core/Src/GEVA.c ****                     to_shift -= 8;
 2322              		.loc 1 321 36 view .LVU733
 2323 015e 9BB2     		uxth	r3, r3
 2324              	.LVL230:
 322:Core/Src/GEVA.c ****                 }
 2325              		.loc 1 322 21 is_stmt 1 view .LVU734
 322:Core/Src/GEVA.c ****                 }
 2326              		.loc 1 322 30 is_stmt 0 view .LVU735
 2327 0160 0838     		subs	r0, r0, #8
 2328              	.LVL231:
 322:Core/Src/GEVA.c ****                 }
 2329              		.loc 1 322 30 view .LVU736
 2330 0162 00B2     		sxth	r0, r0
 2331              	.LVL232:
 2332              	.L134:
 315:Core/Src/GEVA.c ****                     if(buf->mode == NORMAL)
 2333              		.loc 1 315 33 is_stmt 1 view .LVU737
 2334 0164 0828     		cmp	r0, #8
 2335 0166 06DD     		ble	.L148
 316:Core/Src/GEVA.c ****                         buf->vid_buf[buffer_byte_ptr] = 0x00;
 2336              		.loc 1 316 21 view .LVU738
 316:Core/Src/GEVA.c ****                         buf->vid_buf[buffer_byte_ptr] = 0x00;
 2337              		.loc 1 316 27 is_stmt 0 view .LVU739
 2338 0168 227B     		ldrb	r2, [r4, #12]	@ zero_extendqisi2
 316:Core/Src/GEVA.c ****                         buf->vid_buf[buffer_byte_ptr] = 0x00;
 2339              		.loc 1 316 23 view .LVU740
 2340 016a 002A     		cmp	r2, #0
 2341 016c F3D1     		bne	.L135
 317:Core/Src/GEVA.c ****                     else 
 2342              		.loc 1 317 25 is_stmt 1 view .LVU741
 317:Core/Src/GEVA.c ****                     else 
 2343              		.loc 1 317 28 is_stmt 0 view .LVU742
 2344 016e 6268     		ldr	r2, [r4, #4]
 317:Core/Src/GEVA.c ****                     else 
 2345              		.loc 1 317 55 view .LVU743
 2346 0170 0021     		movs	r1, #0
 2347 0172 D154     		strb	r1, [r2, r3]
ARM GAS  C:\Users\arist\AppData\Local\Temp\ccSK2xlW.s 			page 64


 2348 0174 F2E7     		b	.L136
 2349              	.L148:
 325:Core/Src/GEVA.c ****                     buf->vid_buf[buffer_byte_ptr] &= 0xff >> to_shift;
 2350              		.loc 1 325 17 is_stmt 1 view .LVU744
 325:Core/Src/GEVA.c ****                     buf->vid_buf[buffer_byte_ptr] &= 0xff >> to_shift;
 2351              		.loc 1 325 23 is_stmt 0 view .LVU745
 2352 0176 227B     		ldrb	r2, [r4, #12]	@ zero_extendqisi2
 325:Core/Src/GEVA.c ****                     buf->vid_buf[buffer_byte_ptr] &= 0xff >> to_shift;
 2353              		.loc 1 325 19 view .LVU746
 2354 0178 4AB9     		cbnz	r2, .L138
 326:Core/Src/GEVA.c ****                 else 
 2355              		.loc 1 326 21 is_stmt 1 view .LVU747
 326:Core/Src/GEVA.c ****                 else 
 2356              		.loc 1 326 24 is_stmt 0 view .LVU748
 2357 017a D4F804C0 		ldr	ip, [r4, #4]
 326:Core/Src/GEVA.c ****                 else 
 2358              		.loc 1 326 33 view .LVU749
 2359 017e 1CF80320 		ldrb	r2, [ip, r3]	@ zero_extendqisi2
 326:Core/Src/GEVA.c ****                 else 
 2360              		.loc 1 326 59 view .LVU750
 2361 0182 FF21     		movs	r1, #255
 2362 0184 0141     		asrs	r1, r1, r0
 326:Core/Src/GEVA.c ****                 else 
 2363              		.loc 1 326 51 view .LVU751
 2364 0186 0A40     		ands	r2, r2, r1
 2365 0188 0CF80320 		strb	r2, [ip, r3]
 2366 018c 1CE0     		b	.L139
 2367              	.L138:
 328:Core/Src/GEVA.c ****             }
 2368              		.loc 1 328 21 is_stmt 1 view .LVU752
 328:Core/Src/GEVA.c ****             }
 2369              		.loc 1 328 24 is_stmt 0 view .LVU753
 2370 018e 6068     		ldr	r0, [r4, #4]
 2371              	.LVL233:
 328:Core/Src/GEVA.c ****             }
 2372              		.loc 1 328 33 view .LVU754
 2373 0190 C25C     		ldrb	r2, [r0, r3]	@ zero_extendqisi2
 328:Core/Src/GEVA.c ****             }
 2374              		.loc 1 328 77 view .LVU755
 2375 0192 0BF0070C 		and	ip, fp, #7
 328:Core/Src/GEVA.c ****             }
 2376              		.loc 1 328 65 view .LVU756
 2377 0196 CCF1080C 		rsb	ip, ip, #8
 328:Core/Src/GEVA.c ****             }
 2378              		.loc 1 328 59 view .LVU757
 2379 019a FF21     		movs	r1, #255
 2380 019c 01FA0CF1 		lsl	r1, r1, ip
 328:Core/Src/GEVA.c ****             }
 2381              		.loc 1 328 51 view .LVU758
 2382 01a0 0A43     		orrs	r2, r2, r1
 2383 01a2 C254     		strb	r2, [r0, r3]
 2384 01a4 10E0     		b	.L139
 2385              	.LVL234:
 2386              	.L140:
 334:Core/Src/GEVA.c ****             }
 2387              		.loc 1 334 21 is_stmt 1 view .LVU759
 334:Core/Src/GEVA.c ****             }
ARM GAS  C:\Users\arist\AppData\Local\Temp\ccSK2xlW.s 			page 65


 2388              		.loc 1 334 24 is_stmt 0 view .LVU760
 2389 01a6 6068     		ldr	r0, [r4, #4]
 334:Core/Src/GEVA.c ****             }
 2390              		.loc 1 334 33 view .LVU761
 2391 01a8 C15C     		ldrb	r1, [r0, r3]	@ zero_extendqisi2
 334:Core/Src/GEVA.c ****             }
 2392              		.loc 1 334 60 view .LVU762
 2393 01aa 4FF0FF0C 		mov	ip, #255
 2394 01ae 4CFA02F2 		asr	r2, ip, r2
 334:Core/Src/GEVA.c ****             }
 2395              		.loc 1 334 105 view .LVU763
 2396 01b2 0BF0070E 		and	lr, fp, #7
 334:Core/Src/GEVA.c ****             }
 2397              		.loc 1 334 93 view .LVU764
 2398 01b6 CEF1080E 		rsb	lr, lr, #8
 334:Core/Src/GEVA.c ****             }
 2399              		.loc 1 334 87 view .LVU765
 2400 01ba 0CFA0EFC 		lsl	ip, ip, lr
 334:Core/Src/GEVA.c ****             }
 2401              		.loc 1 334 79 view .LVU766
 2402 01be 02EA0C02 		and	r2, r2, ip
 2403 01c2 52B2     		sxtb	r2, r2
 334:Core/Src/GEVA.c ****             }
 2404              		.loc 1 334 51 view .LVU767
 2405 01c4 1143     		orrs	r1, r1, r2
 2406 01c6 C154     		strb	r1, [r0, r3]
 2407              	.LVL235:
 2408              	.L139:
 300:Core/Src/GEVA.c ****         {
 2409              		.loc 1 300 86 is_stmt 1 discriminator 2 view .LVU768
 2410 01c8 0135     		adds	r5, r5, #1
 2411              	.LVL236:
 300:Core/Src/GEVA.c ****         {
 2412              		.loc 1 300 86 is_stmt 0 discriminator 2 view .LVU769
 2413 01ca EDB2     		uxtb	r5, r5
 2414              	.LVL237:
 2415              	.L130:
 300:Core/Src/GEVA.c ****         {
 2416              		.loc 1 300 45 is_stmt 1 discriminator 1 view .LVU770
 300:Core/Src/GEVA.c ****         {
 2417              		.loc 1 300 63 is_stmt 0 discriminator 1 view .LVU771
 2418 01cc AAEB0800 		sub	r0, r10, r8
 300:Core/Src/GEVA.c ****         {
 2419              		.loc 1 300 47 discriminator 1 view .LVU772
 2420 01d0 40B2     		sxtb	r0, r0
 2421 01d2 FFF7FEFF 		bl	modulo
 2422              	.LVL238:
 300:Core/Src/GEVA.c ****         {
 2423              		.loc 1 300 45 discriminator 1 view .LVU773
 2424 01d6 A842     		cmp	r0, r5
 2425 01d8 1ED9     		bls	.L149
 302:Core/Src/GEVA.c ****             to_shift = initial_shift;
 2426              		.loc 1 302 13 is_stmt 1 view .LVU774
 302:Core/Src/GEVA.c ****             to_shift = initial_shift;
 2427              		.loc 1 302 52 is_stmt 0 view .LVU775
 2428 01da 237A     		ldrb	r3, [r4, #8]	@ zero_extendqisi2
 302:Core/Src/GEVA.c ****             to_shift = initial_shift;
ARM GAS  C:\Users\arist\AppData\Local\Temp\ccSK2xlW.s 			page 66


 2429              		.loc 1 302 29 view .LVU776
 2430 01dc 05FB1393 		mls	r3, r5, r3, r9
 2431 01e0 9BB2     		uxth	r3, r3
 2432              	.LVL239:
 303:Core/Src/GEVA.c **** 
 2433              		.loc 1 303 13 is_stmt 1 view .LVU777
 305:Core/Src/GEVA.c ****                 to_shift -= (8 - (startx_ptr % 8));
 2434              		.loc 1 305 13 view .LVU778
 2435 01e2 07F00702 		and	r2, r7, #7
 305:Core/Src/GEVA.c ****                 to_shift -= (8 - (startx_ptr % 8));
 2436              		.loc 1 305 35 is_stmt 0 view .LVU779
 2437 01e6 B118     		adds	r1, r6, r2
 305:Core/Src/GEVA.c ****                 to_shift -= (8 - (startx_ptr % 8));
 2438              		.loc 1 305 16 view .LVU780
 2439 01e8 0729     		cmp	r1, #7
 2440 01ea 93DC     		bgt	.L150
 331:Core/Src/GEVA.c ****                     buf->vid_buf[buffer_byte_ptr] &= ~((0xff >> startx_ptr % 8) & (0xff << (8 - (en
 2441              		.loc 1 331 17 is_stmt 1 view .LVU781
 331:Core/Src/GEVA.c ****                     buf->vid_buf[buffer_byte_ptr] &= ~((0xff >> startx_ptr % 8) & (0xff << (8 - (en
 2442              		.loc 1 331 23 is_stmt 0 view .LVU782
 2443 01ec 217B     		ldrb	r1, [r4, #12]	@ zero_extendqisi2
 331:Core/Src/GEVA.c ****                     buf->vid_buf[buffer_byte_ptr] &= ~((0xff >> startx_ptr % 8) & (0xff << (8 - (en
 2444              		.loc 1 331 19 view .LVU783
 2445 01ee 0029     		cmp	r1, #0
 2446 01f0 D9D1     		bne	.L140
 332:Core/Src/GEVA.c ****                 else 
 2447              		.loc 1 332 21 is_stmt 1 view .LVU784
 332:Core/Src/GEVA.c ****                 else 
 2448              		.loc 1 332 24 is_stmt 0 view .LVU785
 2449 01f2 6068     		ldr	r0, [r4, #4]
 332:Core/Src/GEVA.c ****                 else 
 2450              		.loc 1 332 33 view .LVU786
 2451 01f4 C15C     		ldrb	r1, [r0, r3]	@ zero_extendqisi2
 332:Core/Src/GEVA.c ****                 else 
 2452              		.loc 1 332 62 view .LVU787
 2453 01f6 4FF0FF0C 		mov	ip, #255
 2454 01fa 4CFA02F2 		asr	r2, ip, r2
 332:Core/Src/GEVA.c ****                 else 
 2455              		.loc 1 332 107 view .LVU788
 2456 01fe 0BF0070E 		and	lr, fp, #7
 332:Core/Src/GEVA.c ****                 else 
 2457              		.loc 1 332 95 view .LVU789
 2458 0202 CEF1080E 		rsb	lr, lr, #8
 332:Core/Src/GEVA.c ****                 else 
 2459              		.loc 1 332 89 view .LVU790
 2460 0206 0CFA0EFC 		lsl	ip, ip, lr
 332:Core/Src/GEVA.c ****                 else 
 2461              		.loc 1 332 81 view .LVU791
 2462 020a 02EA0C02 		and	r2, r2, ip
 2463 020e 52B2     		sxtb	r2, r2
 332:Core/Src/GEVA.c ****                 else 
 2464              		.loc 1 332 51 view .LVU792
 2465 0210 21EA0201 		bic	r1, r1, r2
 2466 0214 C154     		strb	r1, [r0, r3]
 2467 0216 D7E7     		b	.L139
 2468              	.LVL240:
 2469              	.L149:
ARM GAS  C:\Users\arist\AppData\Local\Temp\ccSK2xlW.s 			page 67


 332:Core/Src/GEVA.c ****                 else 
 2470              		.loc 1 332 51 view .LVU793
 2471              	.LBE28:
 2472              	.LBE30:
 242:Core/Src/GEVA.c ****     uint8_t startx_ptr = 0; // pos_x;
 2473              		.loc 1 242 13 view .LVU794
 2474 0218 029E     		ldr	r6, [sp, #8]
 2475 021a 0024     		movs	r4, #0
 2476              	.LBB31:
 2477              	.LBB29:
 2478 021c 00E0     		b	.L129
 2479              	.LVL241:
 2480              	.L145:
 242:Core/Src/GEVA.c ****     uint8_t startx_ptr = 0; // pos_x;
 2481              		.loc 1 242 13 view .LVU795
 2482              	.LBE29:
 2483              	.LBE31:
 291:Core/Src/GEVA.c **** 
 2484              		.loc 1 291 15 view .LVU796
 2485 021e 0224     		movs	r4, #2
 2486              	.LVL242:
 2487              	.L129:
 338:Core/Src/GEVA.c ****     return error;
 2488              		.loc 1 338 5 is_stmt 1 view .LVU797
 2489 0220 3046     		mov	r0, r6
 2490 0222 FFF7FEFF 		bl	free
 2491              	.LVL243:
 339:Core/Src/GEVA.c **** }
 2492              		.loc 1 339 5 view .LVU798
 2493              	.L128:
 340:Core/Src/GEVA.c **** 
 2494              		.loc 1 340 1 is_stmt 0 view .LVU799
 2495 0226 2046     		mov	r0, r4
 2496 0228 05B0     		add	sp, sp, #20
 2497              		.cfi_remember_state
 2498              		.cfi_def_cfa_offset 36
 2499              		@ sp needed
 2500 022a BDE8F08F 		pop	{r4, r5, r6, r7, r8, r9, r10, fp, pc}
 2501              	.LVL244:
 2502              	.L146:
 2503              		.cfi_restore_state
 291:Core/Src/GEVA.c **** 
 2504              		.loc 1 291 15 view .LVU800
 2505 022e 0224     		movs	r4, #2
 2506 0230 F6E7     		b	.L129
 2507              	.LVL245:
 2508              	.L143:
 288:Core/Src/GEVA.c **** 
 2509              		.loc 1 288 16 view .LVU801
 2510 0232 0424     		movs	r4, #4
 2511 0234 F7E7     		b	.L128
 2512              	.L144:
 2513 0236 0424     		movs	r4, #4
 2514 0238 F5E7     		b	.L128
 2515              		.cfi_endproc
 2516              	.LFE6:
 2518              		.section	.text.calculate_y,"ax",%progbits
ARM GAS  C:\Users\arist\AppData\Local\Temp\ccSK2xlW.s 			page 68


 2519              		.align	1
 2520              		.global	calculate_y
 2521              		.syntax unified
 2522              		.thumb
 2523              		.thumb_func
 2525              	calculate_y:
 2526              	.LVL246:
 2527              	.LFB21:
 698:Core/Src/GEVA.c **** 
 699:Core/Src/GEVA.c **** uint8_t calculate_y(uint8_t x, uint8_t x0, uint8_t x1, uint8_t y0, uint8_t y1) {
 2528              		.loc 1 699 80 is_stmt 1 view -0
 2529              		.cfi_startproc
 2530              		@ args = 4, pretend = 0, frame = 0
 2531              		@ frame_needed = 0, uses_anonymous_args = 0
 2532              		@ link register save eliminated.
 700:Core/Src/GEVA.c ****     return ((x - x0) * (y1 - y0) / (x1 - x0)) + y0;
 2533              		.loc 1 700 5 view .LVU803
 2534              		.loc 1 700 16 is_stmt 0 view .LVU804
 2535 0000 401A     		subs	r0, r0, r1
 2536              	.LVL247:
 2537              		.loc 1 700 28 view .LVU805
 2538 0002 9DF800C0 		ldrb	ip, [sp]	@ zero_extendqisi2
 2539 0006 ACEB030C 		sub	ip, ip, r3
 2540              		.loc 1 700 22 view .LVU806
 2541 000a 0CFB00F0 		mul	r0, ip, r0
 2542              		.loc 1 700 40 view .LVU807
 2543 000e 521A     		subs	r2, r2, r1
 2544              	.LVL248:
 2545              		.loc 1 700 34 view .LVU808
 2546 0010 90FBF2F0 		sdiv	r0, r0, r2
 2547              		.loc 1 700 47 view .LVU809
 2548 0014 1844     		add	r0, r0, r3
 701:Core/Src/GEVA.c **** }
 2549              		.loc 1 701 1 view .LVU810
 2550 0016 C0B2     		uxtb	r0, r0
 2551 0018 7047     		bx	lr
 2552              		.cfi_endproc
 2553              	.LFE21:
 2555              		.section	.text.put_line,"ax",%progbits
 2556              		.align	1
 2557              		.global	put_line
 2558              		.syntax unified
 2559              		.thumb
 2560              		.thumb_func
 2562              	put_line:
 2563              	.LVL249:
 2564              	.LFB5:
 162:Core/Src/GEVA.c **** 
 2565              		.loc 1 162 101 is_stmt 1 view -0
 2566              		.cfi_startproc
 2567              		@ args = 4, pretend = 0, frame = 32
 2568              		@ frame_needed = 0, uses_anonymous_args = 0
 162:Core/Src/GEVA.c **** 
 2569              		.loc 1 162 101 is_stmt 0 view .LVU812
 2570 0000 2DE9F04F 		push	{r4, r5, r6, r7, r8, r9, r10, fp, lr}
 2571              		.cfi_def_cfa_offset 36
 2572              		.cfi_offset 4, -36
ARM GAS  C:\Users\arist\AppData\Local\Temp\ccSK2xlW.s 			page 69


 2573              		.cfi_offset 5, -32
 2574              		.cfi_offset 6, -28
 2575              		.cfi_offset 7, -24
 2576              		.cfi_offset 8, -20
 2577              		.cfi_offset 9, -16
 2578              		.cfi_offset 10, -12
 2579              		.cfi_offset 11, -8
 2580              		.cfi_offset 14, -4
 2581 0004 8BB0     		sub	sp, sp, #44
 2582              		.cfi_def_cfa_offset 80
 2583 0006 0446     		mov	r4, r0
 2584 0008 0491     		str	r1, [sp, #16]
 2585 000a 1F46     		mov	r7, r3
 2586 000c DDF850B0 		ldr	fp, [sp, #80]
 164:Core/Src/GEVA.c ****     uint8_t firstx = 0;
 2587              		.loc 1 164 5 is_stmt 1 view .LVU813
 2588              	.LVL250:
 165:Core/Src/GEVA.c ****     uint8_t lastx = 0;
 2589              		.loc 1 165 5 view .LVU814
 166:Core/Src/GEVA.c ****     uint8_t firsty = 0;
 2590              		.loc 1 166 5 view .LVU815
 167:Core/Src/GEVA.c ****     uint8_t lasty = 0;
 2591              		.loc 1 167 5 view .LVU816
 168:Core/Src/GEVA.c **** 
 2592              		.loc 1 168 5 view .LVU817
 170:Core/Src/GEVA.c **** 
 2593              		.loc 1 170 5 view .LVU818
 170:Core/Src/GEVA.c **** 
 2594              		.loc 1 170 8 is_stmt 0 view .LVU819
 2595 0010 9042     		cmp	r0, r2
 2596 0012 12D0     		beq	.L171
 2597              	.LBB32:
 187:Core/Src/GEVA.c ****             firstx = pos_x2;
 2598              		.loc 1 187 9 is_stmt 1 view .LVU820
 187:Core/Src/GEVA.c ****             firstx = pos_x2;
 2599              		.loc 1 187 12 is_stmt 0 view .LVU821
 2600 0014 9042     		cmp	r0, r2
 2601 0016 2DD9     		bls	.L166
 191:Core/Src/GEVA.c ****         }
 2602              		.loc 1 191 19 view .LVU822
 2603 0018 0499     		ldr	r1, [sp, #16]
 2604              	.LVL251:
 188:Core/Src/GEVA.c ****             lastx = pos_x1;
 2605              		.loc 1 188 20 view .LVU823
 2606 001a 1446     		mov	r4, r2
 189:Core/Src/GEVA.c ****             firsty = pos_y2;
 2607              		.loc 1 189 19 view .LVU824
 2608 001c 0246     		mov	r2, r0
 2609              	.LVL252:
 2610              	.L159:
 200:Core/Src/GEVA.c **** 
 2611              		.loc 1 200 9 is_stmt 1 view .LVU825
 200:Core/Src/GEVA.c **** 
 2612              		.loc 1 200 16 is_stmt 0 view .LVU826
 2613 001e 8B42     		cmp	r3, r1
 2614 0020 2BD9     		bls	.L167
 2615 0022 4FF0FF3A 		mov	r10, #-1
ARM GAS  C:\Users\arist\AppData\Local\Temp\ccSK2xlW.s 			page 70


 2616              	.L160:
 2617              	.LVL253:
 202:Core/Src/GEVA.c ****         uint8_t nexty = 0;
 2618              		.loc 1 202 9 is_stmt 1 discriminator 4 view .LVU827
 203:Core/Src/GEVA.c ****         int8_t y_todrw = 0;
 2619              		.loc 1 203 9 discriminator 4 view .LVU828
 204:Core/Src/GEVA.c ****         uint8_t fill_y = 0;
 2620              		.loc 1 204 9 discriminator 4 view .LVU829
 205:Core/Src/GEVA.c **** 
 2621              		.loc 1 205 9 discriminator 4 view .LVU830
 207:Core/Src/GEVA.c **** 
 2622              		.loc 1 207 9 discriminator 4 view .LVU831
 2623              	.LBB33:
 207:Core/Src/GEVA.c **** 
 2624              		.loc 1 207 14 discriminator 4 view .LVU832
 207:Core/Src/GEVA.c **** 
 2625              		.loc 1 207 22 is_stmt 0 discriminator 4 view .LVU833
 2626 0026 A046     		mov	r8, r4
 2627              	.LBE33:
 2628              	.LBE32:
 164:Core/Src/GEVA.c ****     uint8_t firstx = 0;
 2629              		.loc 1 164 13 discriminator 4 view .LVU834
 2630 0028 4FF0000C 		mov	ip, #0
 2631 002c 0593     		str	r3, [sp, #20]
 2632 002e 0891     		str	r1, [sp, #32]
 2633 0030 CDF80CC0 		str	ip, [sp, #12]
 2634 0034 0994     		str	r4, [sp, #36]
 2635 0036 1446     		mov	r4, r2
 2636              	.LVL254:
 2637              	.LBB37:
 2638              	.LBB34:
 207:Core/Src/GEVA.c **** 
 2639              		.loc 1 207 9 discriminator 4 view .LVU835
 2640 0038 47E0     		b	.L161
 2641              	.LVL255:
 2642              	.L171:
 207:Core/Src/GEVA.c **** 
 2643              		.loc 1 207 9 discriminator 4 view .LVU836
 2644              	.LBE34:
 2645              	.LBE37:
 2646              	.LBB38:
 172:Core/Src/GEVA.c **** 
 2647              		.loc 1 172 9 is_stmt 1 view .LVU837
 174:Core/Src/GEVA.c ****             line_lenght = (pos_y1 - pos_y2) + 1;
 2648              		.loc 1 174 9 view .LVU838
 174:Core/Src/GEVA.c ****             line_lenght = (pos_y1 - pos_y2) + 1;
 2649              		.loc 1 174 12 is_stmt 0 view .LVU839
 2650 003a B942     		cmp	r1, r7
 2651 003c 11D9     		bls	.L154
 175:Core/Src/GEVA.c ****             firsty = pos_y2;
 2652              		.loc 1 175 13 is_stmt 1 view .LVU840
 175:Core/Src/GEVA.c ****             firsty = pos_y2;
 2653              		.loc 1 175 35 is_stmt 0 view .LVU841
 2654 003e CE1B     		subs	r6, r1, r7
 2655 0040 F6B2     		uxtb	r6, r6
 175:Core/Src/GEVA.c ****             firsty = pos_y2;
 2656              		.loc 1 175 25 view .LVU842
ARM GAS  C:\Users\arist\AppData\Local\Temp\ccSK2xlW.s 			page 71


 2657 0042 0136     		adds	r6, r6, #1
 2658 0044 F6B2     		uxtb	r6, r6
 2659              	.LVL256:
 176:Core/Src/GEVA.c ****         }
 2660              		.loc 1 176 13 is_stmt 1 view .LVU843
 2661              	.L155:
 182:Core/Src/GEVA.c ****             error = put_pixel(pos_x1, firsty + i, SET_C, buf);
 2662              		.loc 1 182 9 view .LVU844
 2663              	.LBB39:
 182:Core/Src/GEVA.c ****             error = put_pixel(pos_x1, firsty + i, SET_C, buf);
 2664              		.loc 1 182 14 view .LVU845
 182:Core/Src/GEVA.c ****             error = put_pixel(pos_x1, firsty + i, SET_C, buf);
 2665              		.loc 1 182 22 is_stmt 0 view .LVU846
 2666 0046 0025     		movs	r5, #0
 2667 0048 2846     		mov	r0, r5
 2668              	.LVL257:
 2669              	.L156:
 182:Core/Src/GEVA.c ****             error = put_pixel(pos_x1, firsty + i, SET_C, buf);
 2670              		.loc 1 182 31 is_stmt 1 discriminator 1 view .LVU847
 2671 004a AE42     		cmp	r6, r5
 2672 004c 10D9     		bls	.L172
 183:Core/Src/GEVA.c ****         }
 2673              		.loc 1 183 13 discriminator 3 view .LVU848
 183:Core/Src/GEVA.c ****         }
 2674              		.loc 1 183 21 is_stmt 0 discriminator 3 view .LVU849
 2675 004e 7919     		adds	r1, r7, r5
 2676 0050 5B46     		mov	r3, fp
 2677 0052 0122     		movs	r2, #1
 2678 0054 C9B2     		uxtb	r1, r1
 2679 0056 2046     		mov	r0, r4
 2680              	.LVL258:
 183:Core/Src/GEVA.c ****         }
 2681              		.loc 1 183 21 discriminator 3 view .LVU850
 2682 0058 FFF7FEFF 		bl	put_pixel
 2683              	.LVL259:
 182:Core/Src/GEVA.c ****             error = put_pixel(pos_x1, firsty + i, SET_C, buf);
 2684              		.loc 1 182 47 is_stmt 1 discriminator 3 view .LVU851
 2685 005c 0135     		adds	r5, r5, #1
 2686              	.LVL260:
 182:Core/Src/GEVA.c ****             error = put_pixel(pos_x1, firsty + i, SET_C, buf);
 2687              		.loc 1 182 47 is_stmt 0 discriminator 3 view .LVU852
 2688 005e EDB2     		uxtb	r5, r5
 2689              	.LVL261:
 182:Core/Src/GEVA.c ****             error = put_pixel(pos_x1, firsty + i, SET_C, buf);
 2690              		.loc 1 182 47 discriminator 3 view .LVU853
 2691 0060 F3E7     		b	.L156
 2692              	.LVL262:
 2693              	.L154:
 182:Core/Src/GEVA.c ****             error = put_pixel(pos_x1, firsty + i, SET_C, buf);
 2694              		.loc 1 182 47 discriminator 3 view .LVU854
 2695              	.LBE39:
 179:Core/Src/GEVA.c ****             firsty = pos_y1;
 2696              		.loc 1 179 13 is_stmt 1 view .LVU855
 179:Core/Src/GEVA.c ****             firsty = pos_y1;
 2697              		.loc 1 179 35 is_stmt 0 view .LVU856
 2698 0062 049B     		ldr	r3, [sp, #16]
 2699              	.LVL263:
ARM GAS  C:\Users\arist\AppData\Local\Temp\ccSK2xlW.s 			page 72


 179:Core/Src/GEVA.c ****             firsty = pos_y1;
 2700              		.loc 1 179 35 view .LVU857
 2701 0064 FE1A     		subs	r6, r7, r3
 2702 0066 F6B2     		uxtb	r6, r6
 179:Core/Src/GEVA.c ****             firsty = pos_y1;
 2703              		.loc 1 179 25 view .LVU858
 2704 0068 0136     		adds	r6, r6, #1
 2705 006a F6B2     		uxtb	r6, r6
 2706              	.LVL264:
 180:Core/Src/GEVA.c ****         }
 2707              		.loc 1 180 13 is_stmt 1 view .LVU859
 180:Core/Src/GEVA.c ****         }
 2708              		.loc 1 180 20 is_stmt 0 view .LVU860
 2709 006c 1F46     		mov	r7, r3
 2710 006e EAE7     		b	.L155
 2711              	.LVL265:
 2712              	.L172:
 2713              	.LBB40:
 180:Core/Src/GEVA.c ****         }
 2714              		.loc 1 180 20 view .LVU861
 2715 0070 8446     		mov	ip, r0
 2716 0072 23E0     		b	.L158
 2717              	.LVL266:
 2718              	.L166:
 180:Core/Src/GEVA.c ****         }
 2719              		.loc 1 180 20 view .LVU862
 2720              	.LBE40:
 2721              	.LBE38:
 2722              	.LBB41:
 197:Core/Src/GEVA.c ****         }
 2723              		.loc 1 197 19 view .LVU863
 2724 0074 1946     		mov	r1, r3
 2725              	.LVL267:
 196:Core/Src/GEVA.c ****             lasty = pos_y2;
 2726              		.loc 1 196 20 view .LVU864
 2727 0076 049B     		ldr	r3, [sp, #16]
 2728              	.LVL268:
 196:Core/Src/GEVA.c ****             lasty = pos_y2;
 2729              		.loc 1 196 20 view .LVU865
 2730 0078 D1E7     		b	.L159
 2731              	.LVL269:
 2732              	.L167:
 200:Core/Src/GEVA.c **** 
 2733              		.loc 1 200 16 view .LVU866
 2734 007a 4FF0010A 		mov	r10, #1
 2735 007e D2E7     		b	.L160
 2736              	.LVL270:
 2737              	.L162:
 2738              	.LBB35:
 219:Core/Src/GEVA.c ****                fill_y++;
 2739              		.loc 1 219 16 is_stmt 1 view .LVU867
 219:Core/Src/GEVA.c ****                fill_y++;
 2740              		.loc 1 219 24 is_stmt 0 view .LVU868
 2741 0080 5B46     		mov	r3, fp
 2742 0082 0122     		movs	r2, #1
 2743 0084 E1B2     		uxtb	r1, r4
 2744 0086 4046     		mov	r0, r8
ARM GAS  C:\Users\arist\AppData\Local\Temp\ccSK2xlW.s 			page 73


 2745 0088 FFF7FEFF 		bl	put_pixel
 2746              	.LVL271:
 2747 008c 0390     		str	r0, [sp, #12]
 2748              	.LVL272:
 220:Core/Src/GEVA.c **** 
 2749              		.loc 1 220 16 is_stmt 1 view .LVU869
 220:Core/Src/GEVA.c **** 
 2750              		.loc 1 220 22 is_stmt 0 view .LVU870
 2751 008e 0135     		adds	r5, r5, #1
 2752              	.LVL273:
 220:Core/Src/GEVA.c **** 
 2753              		.loc 1 220 22 view .LVU871
 2754 0090 EDB2     		uxtb	r5, r5
 2755              	.LVL274:
 222:Core/Src/GEVA.c ****                    return error;
 2756              		.loc 1 222 16 is_stmt 1 view .LVU872
 222:Core/Src/GEVA.c ****                    return error;
 2757              		.loc 1 222 19 is_stmt 0 view .LVU873
 2758 0092 BC42     		cmp	r4, r7
 2759 0094 0DD0     		beq	.L173
 2760              	.L163:
 225:Core/Src/GEVA.c ****         }
 2761              		.loc 1 225 30 is_stmt 1 view .LVU874
 225:Core/Src/GEVA.c ****         }
 2762              		.loc 1 225 41 is_stmt 0 view .LVU875
 2763 0096 A6EB0900 		sub	r0, r6, r9
 225:Core/Src/GEVA.c ****         }
 2764              		.loc 1 225 32 view .LVU876
 2765 009a 40B2     		sxtb	r0, r0
 2766 009c FFF7FEFF 		bl	modulo
 2767              	.LVL275:
 225:Core/Src/GEVA.c ****         }
 2768              		.loc 1 225 30 view .LVU877
 2769 00a0 A842     		cmp	r0, r5
 2770 00a2 0FD9     		bls	.L174
 2771              	.LVL276:
 2772              	.L164:
 213:Core/Src/GEVA.c ****                y_todrw = y + (slope_addendum * fill_y);
 2773              		.loc 1 213 13 is_stmt 1 view .LVU878
 214:Core/Src/GEVA.c ****               
 2774              		.loc 1 214 16 view .LVU879
 214:Core/Src/GEVA.c ****               
 2775              		.loc 1 214 28 is_stmt 0 view .LVU880
 2776 00a4 0AFB0564 		mla	r4, r10, r5, r6
 214:Core/Src/GEVA.c ****               
 2777              		.loc 1 214 24 view .LVU881
 2778 00a8 64B2     		sxtb	r4, r4
 2779              	.LVL277:
 216:Core/Src/GEVA.c ****                    y_todrw = 0;
 2780              		.loc 1 216 16 is_stmt 1 view .LVU882
 216:Core/Src/GEVA.c ****                    y_todrw = 0;
 2781              		.loc 1 216 19 is_stmt 0 view .LVU883
 2782 00aa 002C     		cmp	r4, #0
 2783 00ac E8DA     		bge	.L162
 217:Core/Src/GEVA.c **** 
 2784              		.loc 1 217 28 view .LVU884
 2785 00ae 0024     		movs	r4, #0
ARM GAS  C:\Users\arist\AppData\Local\Temp\ccSK2xlW.s 			page 74


 2786              	.LVL278:
 217:Core/Src/GEVA.c **** 
 2787              		.loc 1 217 28 view .LVU885
 2788 00b0 E6E7     		b	.L162
 2789              	.LVL279:
 2790              	.L173:
 222:Core/Src/GEVA.c ****                    return error;
 2791              		.loc 1 222 38 discriminator 1 view .LVU886
 2792 00b2 049B     		ldr	r3, [sp, #16]
 2793 00b4 BB42     		cmp	r3, r7
 2794 00b6 EED0     		beq	.L163
 2795 00b8 DDF80CC0 		ldr	ip, [sp, #12]
 2796              	.LVL280:
 2797              	.L158:
 222:Core/Src/GEVA.c ****                    return error;
 2798              		.loc 1 222 38 discriminator 1 view .LVU887
 2799              	.LBE35:
 2800              	.LBE41:
 229:Core/Src/GEVA.c **** 
 2801              		.loc 1 229 1 view .LVU888
 2802 00bc 6046     		mov	r0, ip
 2803 00be 0BB0     		add	sp, sp, #44
 2804              		.cfi_remember_state
 2805              		.cfi_def_cfa_offset 36
 2806              		@ sp needed
 2807 00c0 BDE8F08F 		pop	{r4, r5, r6, r7, r8, r9, r10, fp, pc}
 2808              	.LVL281:
 2809              	.L174:
 2810              		.cfi_restore_state
 2811              	.LBB42:
 2812              	.LBB36:
 207:Core/Src/GEVA.c **** 
 2813              		.loc 1 207 50 view .LVU889
 2814 00c4 079C     		ldr	r4, [sp, #28]
 2815              	.LVL282:
 207:Core/Src/GEVA.c **** 
 2816              		.loc 1 207 50 view .LVU890
 2817 00c6 DDF81880 		ldr	r8, [sp, #24]
 2818              	.LVL283:
 2819              	.L161:
 207:Core/Src/GEVA.c **** 
 2820              		.loc 1 207 36 is_stmt 1 discriminator 1 view .LVU891
 2821 00ca 4445     		cmp	r4, r8
 2822 00cc 18D3     		bcc	.L175
 209:Core/Src/GEVA.c ****             nexty = calculate_y(x + 1, firstx, lastx, firsty, lasty);
 2823              		.loc 1 209 13 view .LVU892
 209:Core/Src/GEVA.c ****             nexty = calculate_y(x + 1, firstx, lastx, firsty, lasty);
 2824              		.loc 1 209 17 is_stmt 0 view .LVU893
 2825 00ce 089D     		ldr	r5, [sp, #32]
 2826 00d0 0095     		str	r5, [sp]
 2827 00d2 059B     		ldr	r3, [sp, #20]
 2828 00d4 2246     		mov	r2, r4
 2829 00d6 DDF82490 		ldr	r9, [sp, #36]
 2830 00da 4946     		mov	r1, r9
 2831 00dc 4046     		mov	r0, r8
 2832 00de FFF7FEFF 		bl	calculate_y
 2833              	.LVL284:
ARM GAS  C:\Users\arist\AppData\Local\Temp\ccSK2xlW.s 			page 75


 2834 00e2 0646     		mov	r6, r0
 2835              	.LVL285:
 210:Core/Src/GEVA.c ****             fill_y = 0;
 2836              		.loc 1 210 13 is_stmt 1 view .LVU894
 210:Core/Src/GEVA.c ****             fill_y = 0;
 2837              		.loc 1 210 21 is_stmt 0 view .LVU895
 2838 00e4 08F10103 		add	r3, r8, #1
 2839 00e8 D8B2     		uxtb	r0, r3
 2840 00ea 0690     		str	r0, [sp, #24]
 2841 00ec 0095     		str	r5, [sp]
 2842 00ee 059B     		ldr	r3, [sp, #20]
 2843 00f0 2246     		mov	r2, r4
 2844 00f2 4946     		mov	r1, r9
 2845 00f4 FFF7FEFF 		bl	calculate_y
 2846              	.LVL286:
 2847 00f8 8146     		mov	r9, r0
 2848              	.LVL287:
 211:Core/Src/GEVA.c **** 
 2849              		.loc 1 211 13 is_stmt 1 view .LVU896
 211:Core/Src/GEVA.c **** 
 2850              		.loc 1 211 20 is_stmt 0 view .LVU897
 2851 00fa 0025     		movs	r5, #0
 2852 00fc 0794     		str	r4, [sp, #28]
 2853 00fe D1E7     		b	.L164
 2854              	.LVL288:
 2855              	.L175:
 211:Core/Src/GEVA.c **** 
 2856              		.loc 1 211 20 view .LVU898
 2857 0100 DDF80CC0 		ldr	ip, [sp, #12]
 2858 0104 DAE7     		b	.L158
 2859              	.LBE36:
 2860              	.LBE42:
 2861              		.cfi_endproc
 2862              	.LFE5:
 2864              		.section	.text.put_rect,"ax",%progbits
 2865              		.align	1
 2866              		.global	put_rect
 2867              		.syntax unified
 2868              		.thumb
 2869              		.thumb_func
 2871              	put_rect:
 2872              	.LVL289:
 2873              	.LFB11:
 538:Core/Src/GEVA.c ****     uint8_t error = 0;
 2874              		.loc 1 538 92 is_stmt 1 view -0
 2875              		.cfi_startproc
 2876              		@ args = 4, pretend = 0, frame = 0
 2877              		@ frame_needed = 0, uses_anonymous_args = 0
 538:Core/Src/GEVA.c ****     uint8_t error = 0;
 2878              		.loc 1 538 92 is_stmt 0 view .LVU900
 2879 0000 2DE9F041 		push	{r4, r5, r6, r7, r8, lr}
 2880              		.cfi_def_cfa_offset 24
 2881              		.cfi_offset 4, -24
 2882              		.cfi_offset 5, -20
 2883              		.cfi_offset 6, -16
 2884              		.cfi_offset 7, -12
 2885              		.cfi_offset 8, -8
ARM GAS  C:\Users\arist\AppData\Local\Temp\ccSK2xlW.s 			page 76


 2886              		.cfi_offset 14, -4
 2887 0004 82B0     		sub	sp, sp, #8
 2888              		.cfi_def_cfa_offset 32
 2889 0006 0646     		mov	r6, r0
 2890 0008 0F46     		mov	r7, r1
 2891 000a 1C46     		mov	r4, r3
 2892 000c DDF82080 		ldr	r8, [sp, #32]
 539:Core/Src/GEVA.c ****     error = put_line(o_x, o_y, o_x + width, o_y, buf);
 2893              		.loc 1 539 5 is_stmt 1 view .LVU901
 2894              	.LVL290:
 540:Core/Src/GEVA.c ****     error = put_line(o_x + width, o_y, o_x + width, o_y + height, buf);
 2895              		.loc 1 540 5 view .LVU902
 540:Core/Src/GEVA.c ****     error = put_line(o_x + width, o_y, o_x + width, o_y + height, buf);
 2896              		.loc 1 540 13 is_stmt 0 view .LVU903
 2897 0010 0244     		add	r2, r2, r0
 2898              	.LVL291:
 540:Core/Src/GEVA.c ****     error = put_line(o_x + width, o_y, o_x + width, o_y + height, buf);
 2899              		.loc 1 540 13 view .LVU904
 2900 0012 D5B2     		uxtb	r5, r2
 2901 0014 CDF80080 		str	r8, [sp]
 2902 0018 0B46     		mov	r3, r1
 2903              	.LVL292:
 540:Core/Src/GEVA.c ****     error = put_line(o_x + width, o_y, o_x + width, o_y + height, buf);
 2904              		.loc 1 540 13 view .LVU905
 2905 001a 2A46     		mov	r2, r5
 2906 001c FFF7FEFF 		bl	put_line
 2907              	.LVL293:
 541:Core/Src/GEVA.c ****     error = put_line(o_x, o_y + height, o_x + width, o_y + height, buf);
 2908              		.loc 1 541 5 is_stmt 1 view .LVU906
 541:Core/Src/GEVA.c ****     error = put_line(o_x, o_y + height, o_x + width, o_y + height, buf);
 2909              		.loc 1 541 13 is_stmt 0 view .LVU907
 2910 0020 3C44     		add	r4, r4, r7
 2911 0022 E4B2     		uxtb	r4, r4
 2912 0024 CDF80080 		str	r8, [sp]
 2913 0028 2346     		mov	r3, r4
 2914 002a 2A46     		mov	r2, r5
 2915 002c 3946     		mov	r1, r7
 2916 002e 2846     		mov	r0, r5
 2917 0030 FFF7FEFF 		bl	put_line
 2918              	.LVL294:
 542:Core/Src/GEVA.c ****     error = put_line(o_x, o_y, o_x, o_y + height, buf);
 2919              		.loc 1 542 5 is_stmt 1 view .LVU908
 542:Core/Src/GEVA.c ****     error = put_line(o_x, o_y, o_x, o_y + height, buf);
 2920              		.loc 1 542 13 is_stmt 0 view .LVU909
 2921 0034 CDF80080 		str	r8, [sp]
 2922 0038 2346     		mov	r3, r4
 2923 003a 2A46     		mov	r2, r5
 2924 003c 2146     		mov	r1, r4
 2925 003e 3046     		mov	r0, r6
 2926 0040 FFF7FEFF 		bl	put_line
 2927              	.LVL295:
 543:Core/Src/GEVA.c ****     return error;
 2928              		.loc 1 543 5 is_stmt 1 view .LVU910
 543:Core/Src/GEVA.c ****     return error;
 2929              		.loc 1 543 13 is_stmt 0 view .LVU911
 2930 0044 CDF80080 		str	r8, [sp]
 2931 0048 2346     		mov	r3, r4
ARM GAS  C:\Users\arist\AppData\Local\Temp\ccSK2xlW.s 			page 77


 2932 004a 3246     		mov	r2, r6
 2933 004c 3946     		mov	r1, r7
 2934 004e 3046     		mov	r0, r6
 2935 0050 FFF7FEFF 		bl	put_line
 2936              	.LVL296:
 544:Core/Src/GEVA.c **** }
 2937              		.loc 1 544 5 is_stmt 1 view .LVU912
 545:Core/Src/GEVA.c **** 
 2938              		.loc 1 545 1 is_stmt 0 view .LVU913
 2939 0054 02B0     		add	sp, sp, #8
 2940              		.cfi_def_cfa_offset 24
 2941              		@ sp needed
 2942 0056 BDE8F081 		pop	{r4, r5, r6, r7, r8, pc}
 545:Core/Src/GEVA.c **** 
 2943              		.loc 1 545 1 view .LVU914
 2944              		.cfi_endproc
 2945              	.LFE11:
 2947              		.section	.text.put_triangle,"ax",%progbits
 2948              		.align	1
 2949              		.global	put_triangle
 2950              		.syntax unified
 2951              		.thumb
 2952              		.thumb_func
 2954              	put_triangle:
 2955              	.LVL297:
 2956              	.LFB12:
 552:Core/Src/GEVA.c ****     uint8_t error = 0;
 2957              		.loc 1 552 119 is_stmt 1 view -0
 2958              		.cfi_startproc
 2959              		@ args = 12, pretend = 0, frame = 0
 2960              		@ frame_needed = 0, uses_anonymous_args = 0
 552:Core/Src/GEVA.c ****     uint8_t error = 0;
 2961              		.loc 1 552 119 is_stmt 0 view .LVU916
 2962 0000 2DE9F047 		push	{r4, r5, r6, r7, r8, r9, r10, lr}
 2963              		.cfi_def_cfa_offset 32
 2964              		.cfi_offset 4, -32
 2965              		.cfi_offset 5, -28
 2966              		.cfi_offset 6, -24
 2967              		.cfi_offset 7, -20
 2968              		.cfi_offset 8, -16
 2969              		.cfi_offset 9, -12
 2970              		.cfi_offset 10, -8
 2971              		.cfi_offset 14, -4
 2972 0004 82B0     		sub	sp, sp, #8
 2973              		.cfi_def_cfa_offset 40
 2974 0006 0746     		mov	r7, r0
 2975 0008 8846     		mov	r8, r1
 2976 000a 1446     		mov	r4, r2
 2977 000c 1D46     		mov	r5, r3
 2978 000e 9DF82890 		ldrb	r9, [sp, #40]	@ zero_extendqisi2
 2979 0012 9DF82CA0 		ldrb	r10, [sp, #44]	@ zero_extendqisi2
 2980 0016 0C9E     		ldr	r6, [sp, #48]
 553:Core/Src/GEVA.c ****     error = put_line(a_x, a_y, b_x, b_y, buf);
 2981              		.loc 1 553 5 is_stmt 1 view .LVU917
 2982              	.LVL298:
 554:Core/Src/GEVA.c ****     error = put_line(a_x, a_y, c_x, c_y, buf);
 2983              		.loc 1 554 5 view .LVU918
ARM GAS  C:\Users\arist\AppData\Local\Temp\ccSK2xlW.s 			page 78


 554:Core/Src/GEVA.c ****     error = put_line(a_x, a_y, c_x, c_y, buf);
 2984              		.loc 1 554 13 is_stmt 0 view .LVU919
 2985 0018 0096     		str	r6, [sp]
 2986 001a FFF7FEFF 		bl	put_line
 2987              	.LVL299:
 555:Core/Src/GEVA.c ****     error = put_line(b_x, b_y, c_x, c_y, buf);
 2988              		.loc 1 555 5 is_stmt 1 view .LVU920
 555:Core/Src/GEVA.c ****     error = put_line(b_x, b_y, c_x, c_y, buf);
 2989              		.loc 1 555 13 is_stmt 0 view .LVU921
 2990 001e 0096     		str	r6, [sp]
 2991 0020 5346     		mov	r3, r10
 2992 0022 4A46     		mov	r2, r9
 2993 0024 4146     		mov	r1, r8
 2994 0026 3846     		mov	r0, r7
 2995 0028 FFF7FEFF 		bl	put_line
 2996              	.LVL300:
 556:Core/Src/GEVA.c ****     return error;
 2997              		.loc 1 556 5 is_stmt 1 view .LVU922
 556:Core/Src/GEVA.c ****     return error;
 2998              		.loc 1 556 13 is_stmt 0 view .LVU923
 2999 002c 0096     		str	r6, [sp]
 3000 002e 5346     		mov	r3, r10
 3001 0030 4A46     		mov	r2, r9
 3002 0032 2946     		mov	r1, r5
 3003 0034 2046     		mov	r0, r4
 3004 0036 FFF7FEFF 		bl	put_line
 3005              	.LVL301:
 557:Core/Src/GEVA.c **** }
 3006              		.loc 1 557 5 is_stmt 1 view .LVU924
 558:Core/Src/GEVA.c **** 
 3007              		.loc 1 558 1 is_stmt 0 view .LVU925
 3008 003a 02B0     		add	sp, sp, #8
 3009              		.cfi_def_cfa_offset 32
 3010              		@ sp needed
 3011 003c BDE8F087 		pop	{r4, r5, r6, r7, r8, r9, r10, pc}
 558:Core/Src/GEVA.c **** 
 3012              		.loc 1 558 1 view .LVU926
 3013              		.cfi_endproc
 3014              	.LFE12:
 3016              		.section	.text.put_pos_COL,"ax",%progbits
 3017              		.align	1
 3018              		.global	put_pos_COL
 3019              		.syntax unified
 3020              		.thumb
 3021              		.thumb_func
 3023              	put_pos_COL:
 3024              	.LVL302:
 3025              	.LFB22:
 702:Core/Src/GEVA.c **** 
 703:Core/Src/GEVA.c **** /* Draw only positive column chart
 704:Core/Src/GEVA.c ****  * return error code
 705:Core/Src/GEVA.c ****  * error code list:
 706:Core/Src/GEVA.c ****  * 1 data out of range
 707:Core/Src/GEVA.c ****  * 2 dimension mismatch
 708:Core/Src/GEVA.c ****  * 3 chart not defined
 709:Core/Src/GEVA.c ****  * 4 starting point out of scope
 710:Core/Src/GEVA.c **** */
ARM GAS  C:\Users\arist\AppData\Local\Temp\ccSK2xlW.s 			page 79


 711:Core/Src/GEVA.c **** uint8_t put_pos_COL(data_container* c, video_buffer* buf) {
 3026              		.loc 1 711 59 is_stmt 1 view -0
 3027              		.cfi_startproc
 3028              		@ args = 0, pretend = 0, frame = 8
 3029              		@ frame_needed = 0, uses_anonymous_args = 0
 712:Core/Src/GEVA.c **** 
 713:Core/Src/GEVA.c ****     uint8_t error = 1;
 3030              		.loc 1 713 5 view .LVU928
 714:Core/Src/GEVA.c **** 
 715:Core/Src/GEVA.c ****     if (c->max == 0 || c->dim_x == 0 || c->dim_y_pos == 0 || c->max <= c->min)
 3031              		.loc 1 715 5 view .LVU929
 3032              		.loc 1 715 10 is_stmt 0 view .LVU930
 3033 0000 D0ED027A 		vldr.32	s15, [r0, #8]
 3034              		.loc 1 715 8 view .LVU931
 3035 0004 F5EE407A 		vcmp.f32	s15, #0
 3036 0008 F1EE10FA 		vmrs	APSR_nzcv, FPSCR
 3037 000c 54D0     		beq	.L187
 711:Core/Src/GEVA.c **** 
 3038              		.loc 1 711 59 discriminator 1 view .LVU932
 3039 000e F0B5     		push	{r4, r5, r6, r7, lr}
 3040              		.cfi_def_cfa_offset 20
 3041              		.cfi_offset 4, -20
 3042              		.cfi_offset 5, -16
 3043              		.cfi_offset 6, -12
 3044              		.cfi_offset 7, -8
 3045              		.cfi_offset 14, -4
 3046 0010 85B0     		sub	sp, sp, #20
 3047              		.cfi_def_cfa_offset 40
 3048 0012 0446     		mov	r4, r0
 3049 0014 0D46     		mov	r5, r1
 3050              		.loc 1 715 25 discriminator 1 view .LVU933
 3051 0016 C278     		ldrb	r2, [r0, #3]	@ zero_extendqisi2
 3052              		.loc 1 715 21 discriminator 1 view .LVU934
 3053 0018 002A     		cmp	r2, #0
 3054 001a 4FD0     		beq	.L188
 3055              		.loc 1 715 42 discriminator 2 view .LVU935
 3056 001c 0379     		ldrb	r3, [r0, #4]	@ zero_extendqisi2
 3057              		.loc 1 715 38 discriminator 2 view .LVU936
 3058 001e 002B     		cmp	r3, #0
 3059 0020 4FD0     		beq	.L189
 3060              		.loc 1 715 73 discriminator 3 view .LVU937
 3061 0022 90ED037A 		vldr.32	s14, [r0, #12]
 3062              		.loc 1 715 59 discriminator 3 view .LVU938
 3063 0026 F4EEC77A 		vcmpe.f32	s15, s14
 3064 002a F1EE10FA 		vmrs	APSR_nzcv, FPSCR
 3065 002e 01D8     		bhi	.L200
 716:Core/Src/GEVA.c ****         error = 3;
 3066              		.loc 1 716 15 view .LVU939
 3067 0030 0320     		movs	r0, #3
 3068              	.LVL303:
 3069              		.loc 1 716 15 view .LVU940
 3070 0032 44E0     		b	.L181
 3071              	.LVL304:
 3072              	.L200:
 717:Core/Src/GEVA.c **** 
 718:Core/Src/GEVA.c ****     else {
 719:Core/Src/GEVA.c ****         error = clear_sector(c->o_x, c->o_y, c->dim_x, c->dim_y_pos, buf); //limits check within cl
ARM GAS  C:\Users\arist\AppData\Local\Temp\ccSK2xlW.s 			page 80


 3073              		.loc 1 719 9 is_stmt 1 view .LVU941
 3074              		.loc 1 719 17 is_stmt 0 view .LVU942
 3075 0034 0091     		str	r1, [sp]
 3076 0036 4178     		ldrb	r1, [r0, #1]	@ zero_extendqisi2
 3077              	.LVL305:
 3078              		.loc 1 719 17 view .LVU943
 3079 0038 0078     		ldrb	r0, [r0]	@ zero_extendqisi2
 3080              	.LVL306:
 3081              		.loc 1 719 17 view .LVU944
 3082 003a FFF7FEFF 		bl	clear_sector
 3083              	.LVL307:
 720:Core/Src/GEVA.c **** 
 721:Core/Src/GEVA.c ****         if (c->o_y + c->data >= 0) {
 3084              		.loc 1 721 9 is_stmt 1 view .LVU945
 3085              		.loc 1 721 14 is_stmt 0 view .LVU946
 3086 003e 6378     		ldrb	r3, [r4, #1]	@ zero_extendqisi2
 3087 0040 07EE903A 		vmov	s15, r3	@ int
 3088              		.loc 1 721 23 view .LVU947
 3089 0044 94ED057A 		vldr.32	s14, [r4, #20]
 3090              		.loc 1 721 20 view .LVU948
 3091 0048 F8EEE77A 		vcvt.f32.s32	s15, s15
 3092 004c 77EE877A 		vadd.f32	s15, s15, s14
 3093              		.loc 1 721 12 view .LVU949
 3094 0050 F5EEC07A 		vcmpe.f32	s15, #0
 3095 0054 F1EE10FA 		vmrs	APSR_nzcv, FPSCR
 3096 0058 35DB     		blt	.L195
 722:Core/Src/GEVA.c ****             if (c->data > 0 && c->data <= c->max) {
 3097              		.loc 1 722 13 is_stmt 1 view .LVU950
 3098              		.loc 1 722 16 is_stmt 0 view .LVU951
 3099 005a B5EEC07A 		vcmpe.f32	s14, #0
 3100 005e F1EE10FA 		vmrs	APSR_nzcv, FPSCR
 3101 0062 2CDD     		ble	.L181
 3102              		.loc 1 722 44 discriminator 1 view .LVU952
 3103 0064 D4ED026A 		vldr.32	s13, [r4, #8]
 3104              		.loc 1 722 29 discriminator 1 view .LVU953
 3105 0068 B4EEE67A 		vcmpe.f32	s14, s13
 3106 006c F1EE10FA 		vmrs	APSR_nzcv, FPSCR
 3107 0070 25D8     		bhi	.L181
 3108              	.LBB43:
 723:Core/Src/GEVA.c ****                 uint8_t dy = c->data * c->dim_y_pos / c->max;
 3109              		.loc 1 723 17 is_stmt 1 view .LVU954
 3110              		.loc 1 723 41 is_stmt 0 view .LVU955
 3111 0072 2379     		ldrb	r3, [r4, #4]	@ zero_extendqisi2
 3112 0074 07EE903A 		vmov	s15, r3	@ int
 3113              		.loc 1 723 38 view .LVU956
 3114 0078 F8EEE77A 		vcvt.f32.s32	s15, s15
 3115 007c 67EE877A 		vmul.f32	s15, s15, s14
 3116              		.loc 1 723 53 view .LVU957
 3117 0080 87EEA67A 		vdiv.f32	s14, s15, s13
 3118              		.loc 1 723 25 view .LVU958
 3119 0084 FCEEC77A 		vcvt.u32.f32	s15, s14
 3120 0088 CDED037A 		vstr.32	s15, [sp, #12]	@ int
 3121 008c 9DF80C70 		ldrb	r7, [sp, #12]	@ zero_extendqisi2
 3122              	.LVL308:
 724:Core/Src/GEVA.c **** 
 725:Core/Src/GEVA.c ****                 for (uint8_t i = 0; i < c->dim_x; i++)
 3123              		.loc 1 725 17 is_stmt 1 view .LVU959
ARM GAS  C:\Users\arist\AppData\Local\Temp\ccSK2xlW.s 			page 81


 3124              	.LBB44:
 3125              		.loc 1 725 22 view .LVU960
 3126              		.loc 1 725 30 is_stmt 0 view .LVU961
 3127 0090 0026     		movs	r6, #0
 3128              		.loc 1 725 17 view .LVU962
 3129 0092 0DE0     		b	.L185
 3130              	.LVL309:
 3131              	.L186:
 726:Core/Src/GEVA.c ****                     error = put_line(c->o_x + i, c->o_y, c->o_x + i, c->o_y + dy - 1, buf);
 3132              		.loc 1 726 21 is_stmt 1 discriminator 3 view .LVU963
 3133              		.loc 1 726 39 is_stmt 0 discriminator 3 view .LVU964
 3134 0094 2078     		ldrb	r0, [r4]	@ zero_extendqisi2
 3135              	.LVL310:
 3136              		.loc 1 726 29 discriminator 3 view .LVU965
 3137 0096 3044     		add	r0, r0, r6
 3138 0098 C0B2     		uxtb	r0, r0
 3139 009a 6178     		ldrb	r1, [r4, #1]	@ zero_extendqisi2
 3140              		.loc 1 726 77 discriminator 3 view .LVU966
 3141 009c CB19     		adds	r3, r1, r7
 3142 009e DBB2     		uxtb	r3, r3
 3143              		.loc 1 726 29 discriminator 3 view .LVU967
 3144 00a0 013B     		subs	r3, r3, #1
 3145 00a2 0095     		str	r5, [sp]
 3146 00a4 DBB2     		uxtb	r3, r3
 3147 00a6 0246     		mov	r2, r0
 3148 00a8 FFF7FEFF 		bl	put_line
 3149              	.LVL311:
 725:Core/Src/GEVA.c ****                     error = put_line(c->o_x + i, c->o_y, c->o_x + i, c->o_y + dy - 1, buf);
 3150              		.loc 1 725 52 is_stmt 1 discriminator 3 view .LVU968
 3151 00ac 0136     		adds	r6, r6, #1
 3152              	.LVL312:
 725:Core/Src/GEVA.c ****                     error = put_line(c->o_x + i, c->o_y, c->o_x + i, c->o_y + dy - 1, buf);
 3153              		.loc 1 725 52 is_stmt 0 discriminator 3 view .LVU969
 3154 00ae F6B2     		uxtb	r6, r6
 3155              	.LVL313:
 3156              	.L185:
 725:Core/Src/GEVA.c ****                     error = put_line(c->o_x + i, c->o_y, c->o_x + i, c->o_y + dy - 1, buf);
 3157              		.loc 1 725 39 is_stmt 1 discriminator 1 view .LVU970
 725:Core/Src/GEVA.c ****                     error = put_line(c->o_x + i, c->o_y, c->o_x + i, c->o_y + dy - 1, buf);
 3158              		.loc 1 725 42 is_stmt 0 discriminator 1 view .LVU971
 3159 00b0 E378     		ldrb	r3, [r4, #3]	@ zero_extendqisi2
 725:Core/Src/GEVA.c ****                     error = put_line(c->o_x + i, c->o_y, c->o_x + i, c->o_y + dy - 1, buf);
 3160              		.loc 1 725 39 discriminator 1 view .LVU972
 3161 00b2 B342     		cmp	r3, r6
 3162 00b4 EED8     		bhi	.L186
 725:Core/Src/GEVA.c ****                     error = put_line(c->o_x + i, c->o_y, c->o_x + i, c->o_y + dy - 1, buf);
 3163              		.loc 1 725 39 discriminator 1 view .LVU973
 3164 00b6 02E0     		b	.L181
 3165              	.LVL314:
 3166              	.L187:
 3167              		.cfi_def_cfa_offset 0
 3168              		.cfi_restore 4
 3169              		.cfi_restore 5
 3170              		.cfi_restore 6
 3171              		.cfi_restore 7
 3172              		.cfi_restore 14
 725:Core/Src/GEVA.c ****                     error = put_line(c->o_x + i, c->o_y, c->o_x + i, c->o_y + dy - 1, buf);
ARM GAS  C:\Users\arist\AppData\Local\Temp\ccSK2xlW.s 			page 82


 3173              		.loc 1 725 39 discriminator 1 view .LVU974
 3174              	.LBE44:
 3175              	.LBE43:
 716:Core/Src/GEVA.c **** 
 3176              		.loc 1 716 15 view .LVU975
 3177 00b8 0320     		movs	r0, #3
 3178              	.LVL315:
 727:Core/Src/GEVA.c ****             }
 728:Core/Src/GEVA.c ****         }
 729:Core/Src/GEVA.c ****         else
 730:Core/Src/GEVA.c ****             error = 2;
 731:Core/Src/GEVA.c ****     }
 732:Core/Src/GEVA.c **** 
 733:Core/Src/GEVA.c ****     return error;
 3179              		.loc 1 733 5 is_stmt 1 view .LVU976
 734:Core/Src/GEVA.c **** }
 3180              		.loc 1 734 1 is_stmt 0 view .LVU977
 3181 00ba 7047     		bx	lr
 3182              	.LVL316:
 3183              	.L188:
 3184              		.cfi_def_cfa_offset 40
 3185              		.cfi_offset 4, -20
 3186              		.cfi_offset 5, -16
 3187              		.cfi_offset 6, -12
 3188              		.cfi_offset 7, -8
 3189              		.cfi_offset 14, -4
 716:Core/Src/GEVA.c **** 
 3190              		.loc 1 716 15 view .LVU978
 3191 00bc 0320     		movs	r0, #3
 3192              	.LVL317:
 3193              	.L181:
 733:Core/Src/GEVA.c **** }
 3194              		.loc 1 733 5 is_stmt 1 view .LVU979
 3195              		.loc 1 734 1 is_stmt 0 view .LVU980
 3196 00be 05B0     		add	sp, sp, #20
 3197              		.cfi_remember_state
 3198              		.cfi_def_cfa_offset 20
 3199              		@ sp needed
 3200 00c0 F0BD     		pop	{r4, r5, r6, r7, pc}
 3201              	.LVL318:
 3202              	.L189:
 3203              		.cfi_restore_state
 716:Core/Src/GEVA.c **** 
 3204              		.loc 1 716 15 view .LVU981
 3205 00c2 0320     		movs	r0, #3
 3206              	.LVL319:
 716:Core/Src/GEVA.c **** 
 3207              		.loc 1 716 15 view .LVU982
 3208 00c4 FBE7     		b	.L181
 3209              	.LVL320:
 3210              	.L195:
 730:Core/Src/GEVA.c ****     }
 3211              		.loc 1 730 19 view .LVU983
 3212 00c6 0220     		movs	r0, #2
 3213              	.LVL321:
 730:Core/Src/GEVA.c ****     }
 3214              		.loc 1 730 19 view .LVU984
ARM GAS  C:\Users\arist\AppData\Local\Temp\ccSK2xlW.s 			page 83


 3215 00c8 F9E7     		b	.L181
 3216              		.cfi_endproc
 3217              	.LFE22:
 3219              		.section	.text.put_neg_COL,"ax",%progbits
 3220              		.align	1
 3221              		.global	put_neg_COL
 3222              		.syntax unified
 3223              		.thumb
 3224              		.thumb_func
 3226              	put_neg_COL:
 3227              	.LVL322:
 3228              	.LFB23:
 735:Core/Src/GEVA.c **** 
 736:Core/Src/GEVA.c **** /* Draw only positive column chart
 737:Core/Src/GEVA.c ****  * return error code
 738:Core/Src/GEVA.c ****  * error code list:
 739:Core/Src/GEVA.c ****  * 1 data out of range
 740:Core/Src/GEVA.c ****  * 2 dimension mismatch
 741:Core/Src/GEVA.c ****  * 3 chart not defined
 742:Core/Src/GEVA.c ****  * 4 starting point out of scope
 743:Core/Src/GEVA.c **** */
 744:Core/Src/GEVA.c **** uint8_t put_neg_COL(data_container* c, video_buffer* buf) {
 3229              		.loc 1 744 59 is_stmt 1 view -0
 3230              		.cfi_startproc
 3231              		@ args = 0, pretend = 0, frame = 8
 3232              		@ frame_needed = 0, uses_anonymous_args = 0
 745:Core/Src/GEVA.c **** 
 746:Core/Src/GEVA.c ****     uint8_t error = 1;
 3233              		.loc 1 746 5 view .LVU986
 747:Core/Src/GEVA.c **** 
 748:Core/Src/GEVA.c ****     if (c->dim_x == 0 || c->max <= c->min)
 3234              		.loc 1 748 5 view .LVU987
 3235              		.loc 1 748 10 is_stmt 0 view .LVU988
 3236 0000 C278     		ldrb	r2, [r0, #3]	@ zero_extendqisi2
 3237              		.loc 1 748 8 view .LVU989
 3238 0002 002A     		cmp	r2, #0
 3239 0004 54D0     		beq	.L208
 744:Core/Src/GEVA.c **** 
 3240              		.loc 1 744 59 discriminator 1 view .LVU990
 3241 0006 F0B5     		push	{r4, r5, r6, r7, lr}
 3242              		.cfi_def_cfa_offset 20
 3243              		.cfi_offset 4, -20
 3244              		.cfi_offset 5, -16
 3245              		.cfi_offset 6, -12
 3246              		.cfi_offset 7, -8
 3247              		.cfi_offset 14, -4
 3248 0008 85B0     		sub	sp, sp, #20
 3249              		.cfi_def_cfa_offset 40
 3250 000a 0446     		mov	r4, r0
 3251 000c 0D46     		mov	r5, r1
 3252              		.loc 1 748 27 discriminator 1 view .LVU991
 3253 000e 90ED027A 		vldr.32	s14, [r0, #8]
 3254              		.loc 1 748 37 discriminator 1 view .LVU992
 3255 0012 D0ED037A 		vldr.32	s15, [r0, #12]
 3256              		.loc 1 748 23 discriminator 1 view .LVU993
 3257 0016 B4EEE77A 		vcmpe.f32	s14, s15
 3258 001a F1EE10FA 		vmrs	APSR_nzcv, FPSCR
ARM GAS  C:\Users\arist\AppData\Local\Temp\ccSK2xlW.s 			page 84


 3259 001e 02D8     		bhi	.L219
 749:Core/Src/GEVA.c ****         error = 3;
 3260              		.loc 1 749 15 view .LVU994
 3261 0020 0320     		movs	r0, #3
 3262              	.LVL323:
 3263              	.L202:
 750:Core/Src/GEVA.c **** 
 751:Core/Src/GEVA.c ****     else {
 752:Core/Src/GEVA.c ****         error = clear_sector(c->o_x, c->o_y - c->dim_y_neg, c->dim_x, c->dim_y_neg, buf); //limits 
 753:Core/Src/GEVA.c **** 
 754:Core/Src/GEVA.c ****         if (c->o_y + c->data <= 0) {
 755:Core/Src/GEVA.c **** 
 756:Core/Src/GEVA.c ****             if (c->data < 0 && c->data >= c->min) {
 757:Core/Src/GEVA.c ****                 uint8_t dy = c->data * c->dim_y_neg / c->min;
 758:Core/Src/GEVA.c **** 
 759:Core/Src/GEVA.c ****                 for (uint8_t i = 0; i < c->dim_x; i++)
 760:Core/Src/GEVA.c ****                     error = put_line(c->o_x + i, c->o_y-dy+1, c->o_x + i, c->o_y, buf);
 761:Core/Src/GEVA.c ****             }
 762:Core/Src/GEVA.c ****         }
 763:Core/Src/GEVA.c ****         else
 764:Core/Src/GEVA.c ****             error = 2;
 765:Core/Src/GEVA.c ****     }
 766:Core/Src/GEVA.c ****     return error;
 3264              		.loc 1 766 5 is_stmt 1 view .LVU995
 767:Core/Src/GEVA.c **** }
 3265              		.loc 1 767 1 is_stmt 0 view .LVU996
 3266 0022 05B0     		add	sp, sp, #20
 3267              		.cfi_remember_state
 3268              		.cfi_def_cfa_offset 20
 3269              		@ sp needed
 3270 0024 F0BD     		pop	{r4, r5, r6, r7, pc}
 3271              	.LVL324:
 3272              	.L219:
 3273              		.cfi_restore_state
 752:Core/Src/GEVA.c **** 
 3274              		.loc 1 752 9 is_stmt 1 view .LVU997
 752:Core/Src/GEVA.c **** 
 3275              		.loc 1 752 39 is_stmt 0 view .LVU998
 3276 0026 4178     		ldrb	r1, [r0, #1]	@ zero_extendqisi2
 3277              	.LVL325:
 752:Core/Src/GEVA.c **** 
 3278              		.loc 1 752 48 view .LVU999
 3279 0028 4379     		ldrb	r3, [r0, #5]	@ zero_extendqisi2
 752:Core/Src/GEVA.c **** 
 3280              		.loc 1 752 17 view .LVU1000
 3281 002a C91A     		subs	r1, r1, r3
 3282 002c 0095     		str	r5, [sp]
 3283 002e C9B2     		uxtb	r1, r1
 3284 0030 0078     		ldrb	r0, [r0]	@ zero_extendqisi2
 3285              	.LVL326:
 752:Core/Src/GEVA.c **** 
 3286              		.loc 1 752 17 view .LVU1001
 3287 0032 FFF7FEFF 		bl	clear_sector
 3288              	.LVL327:
 754:Core/Src/GEVA.c **** 
 3289              		.loc 1 754 9 is_stmt 1 view .LVU1002
 754:Core/Src/GEVA.c **** 
ARM GAS  C:\Users\arist\AppData\Local\Temp\ccSK2xlW.s 			page 85


 3290              		.loc 1 754 14 is_stmt 0 view .LVU1003
 3291 0036 6378     		ldrb	r3, [r4, #1]	@ zero_extendqisi2
 3292 0038 07EE903A 		vmov	s15, r3	@ int
 754:Core/Src/GEVA.c **** 
 3293              		.loc 1 754 23 view .LVU1004
 3294 003c 94ED057A 		vldr.32	s14, [r4, #20]
 754:Core/Src/GEVA.c **** 
 3295              		.loc 1 754 20 view .LVU1005
 3296 0040 F8EEE77A 		vcvt.f32.s32	s15, s15
 3297 0044 77EE877A 		vadd.f32	s15, s15, s14
 754:Core/Src/GEVA.c **** 
 3298              		.loc 1 754 12 view .LVU1006
 3299 0048 F5EEC07A 		vcmpe.f32	s15, #0
 3300 004c F1EE10FA 		vmrs	APSR_nzcv, FPSCR
 3301 0050 30D8     		bhi	.L214
 756:Core/Src/GEVA.c ****                 uint8_t dy = c->data * c->dim_y_neg / c->min;
 3302              		.loc 1 756 13 is_stmt 1 view .LVU1007
 756:Core/Src/GEVA.c ****                 uint8_t dy = c->data * c->dim_y_neg / c->min;
 3303              		.loc 1 756 16 is_stmt 0 view .LVU1008
 3304 0052 B5EEC07A 		vcmpe.f32	s14, #0
 3305 0056 F1EE10FA 		vmrs	APSR_nzcv, FPSCR
 3306 005a E2D5     		bpl	.L202
 756:Core/Src/GEVA.c ****                 uint8_t dy = c->data * c->dim_y_neg / c->min;
 3307              		.loc 1 756 44 discriminator 1 view .LVU1009
 3308 005c D4ED036A 		vldr.32	s13, [r4, #12]
 756:Core/Src/GEVA.c ****                 uint8_t dy = c->data * c->dim_y_neg / c->min;
 3309              		.loc 1 756 29 discriminator 1 view .LVU1010
 3310 0060 B4EEE67A 		vcmpe.f32	s14, s13
 3311 0064 F1EE10FA 		vmrs	APSR_nzcv, FPSCR
 3312 0068 DBDB     		blt	.L202
 3313              	.LBB45:
 757:Core/Src/GEVA.c **** 
 3314              		.loc 1 757 17 is_stmt 1 view .LVU1011
 757:Core/Src/GEVA.c **** 
 3315              		.loc 1 757 41 is_stmt 0 view .LVU1012
 3316 006a 6379     		ldrb	r3, [r4, #5]	@ zero_extendqisi2
 3317 006c 07EE903A 		vmov	s15, r3	@ int
 757:Core/Src/GEVA.c **** 
 3318              		.loc 1 757 38 view .LVU1013
 3319 0070 F8EEE77A 		vcvt.f32.s32	s15, s15
 3320 0074 67EE877A 		vmul.f32	s15, s15, s14
 757:Core/Src/GEVA.c **** 
 3321              		.loc 1 757 53 view .LVU1014
 3322 0078 87EEA67A 		vdiv.f32	s14, s15, s13
 757:Core/Src/GEVA.c **** 
 3323              		.loc 1 757 25 view .LVU1015
 3324 007c FCEEC77A 		vcvt.u32.f32	s15, s14
 3325 0080 CDED037A 		vstr.32	s15, [sp, #12]	@ int
 3326 0084 9DF80C70 		ldrb	r7, [sp, #12]	@ zero_extendqisi2
 3327              	.LVL328:
 759:Core/Src/GEVA.c ****                     error = put_line(c->o_x + i, c->o_y-dy+1, c->o_x + i, c->o_y, buf);
 3328              		.loc 1 759 17 is_stmt 1 view .LVU1016
 3329              	.LBB46:
 759:Core/Src/GEVA.c ****                     error = put_line(c->o_x + i, c->o_y-dy+1, c->o_x + i, c->o_y, buf);
 3330              		.loc 1 759 22 view .LVU1017
 759:Core/Src/GEVA.c ****                     error = put_line(c->o_x + i, c->o_y-dy+1, c->o_x + i, c->o_y, buf);
 3331              		.loc 1 759 30 is_stmt 0 view .LVU1018
ARM GAS  C:\Users\arist\AppData\Local\Temp\ccSK2xlW.s 			page 86


 3332 0088 0026     		movs	r6, #0
 759:Core/Src/GEVA.c ****                     error = put_line(c->o_x + i, c->o_y-dy+1, c->o_x + i, c->o_y, buf);
 3333              		.loc 1 759 17 view .LVU1019
 3334 008a 0DE0     		b	.L206
 3335              	.LVL329:
 3336              	.L207:
 760:Core/Src/GEVA.c ****             }
 3337              		.loc 1 760 21 is_stmt 1 discriminator 3 view .LVU1020
 760:Core/Src/GEVA.c ****             }
 3338              		.loc 1 760 39 is_stmt 0 discriminator 3 view .LVU1021
 3339 008c 2078     		ldrb	r0, [r4]	@ zero_extendqisi2
 3340              	.LVL330:
 760:Core/Src/GEVA.c ****             }
 3341              		.loc 1 760 29 discriminator 3 view .LVU1022
 3342 008e 3044     		add	r0, r0, r6
 3343 0090 C0B2     		uxtb	r0, r0
 760:Core/Src/GEVA.c ****             }
 3344              		.loc 1 760 51 discriminator 3 view .LVU1023
 3345 0092 6378     		ldrb	r3, [r4, #1]	@ zero_extendqisi2
 760:Core/Src/GEVA.c ****             }
 3346              		.loc 1 760 56 discriminator 3 view .LVU1024
 3347 0094 D91B     		subs	r1, r3, r7
 3348 0096 C9B2     		uxtb	r1, r1
 760:Core/Src/GEVA.c ****             }
 3349              		.loc 1 760 29 discriminator 3 view .LVU1025
 3350 0098 0131     		adds	r1, r1, #1
 3351 009a 0095     		str	r5, [sp]
 3352 009c 0246     		mov	r2, r0
 3353 009e C9B2     		uxtb	r1, r1
 3354 00a0 FFF7FEFF 		bl	put_line
 3355              	.LVL331:
 759:Core/Src/GEVA.c ****                     error = put_line(c->o_x + i, c->o_y-dy+1, c->o_x + i, c->o_y, buf);
 3356              		.loc 1 759 52 is_stmt 1 discriminator 3 view .LVU1026
 3357 00a4 0136     		adds	r6, r6, #1
 3358              	.LVL332:
 759:Core/Src/GEVA.c ****                     error = put_line(c->o_x + i, c->o_y-dy+1, c->o_x + i, c->o_y, buf);
 3359              		.loc 1 759 52 is_stmt 0 discriminator 3 view .LVU1027
 3360 00a6 F6B2     		uxtb	r6, r6
 3361              	.LVL333:
 3362              	.L206:
 759:Core/Src/GEVA.c ****                     error = put_line(c->o_x + i, c->o_y-dy+1, c->o_x + i, c->o_y, buf);
 3363              		.loc 1 759 39 is_stmt 1 discriminator 1 view .LVU1028
 759:Core/Src/GEVA.c ****                     error = put_line(c->o_x + i, c->o_y-dy+1, c->o_x + i, c->o_y, buf);
 3364              		.loc 1 759 42 is_stmt 0 discriminator 1 view .LVU1029
 3365 00a8 E378     		ldrb	r3, [r4, #3]	@ zero_extendqisi2
 759:Core/Src/GEVA.c ****                     error = put_line(c->o_x + i, c->o_y-dy+1, c->o_x + i, c->o_y, buf);
 3366              		.loc 1 759 39 discriminator 1 view .LVU1030
 3367 00aa B342     		cmp	r3, r6
 3368 00ac EED8     		bhi	.L207
 759:Core/Src/GEVA.c ****                     error = put_line(c->o_x + i, c->o_y-dy+1, c->o_x + i, c->o_y, buf);
 3369              		.loc 1 759 39 discriminator 1 view .LVU1031
 3370 00ae B8E7     		b	.L202
 3371              	.LVL334:
 3372              	.L208:
 3373              		.cfi_def_cfa_offset 0
 3374              		.cfi_restore 4
 3375              		.cfi_restore 5
ARM GAS  C:\Users\arist\AppData\Local\Temp\ccSK2xlW.s 			page 87


 3376              		.cfi_restore 6
 3377              		.cfi_restore 7
 3378              		.cfi_restore 14
 759:Core/Src/GEVA.c ****                     error = put_line(c->o_x + i, c->o_y-dy+1, c->o_x + i, c->o_y, buf);
 3379              		.loc 1 759 39 discriminator 1 view .LVU1032
 3380              	.LBE46:
 3381              	.LBE45:
 749:Core/Src/GEVA.c **** 
 3382              		.loc 1 749 15 view .LVU1033
 3383 00b0 0320     		movs	r0, #3
 3384              	.LVL335:
 766:Core/Src/GEVA.c **** }
 3385              		.loc 1 766 5 is_stmt 1 view .LVU1034
 3386              		.loc 1 767 1 is_stmt 0 view .LVU1035
 3387 00b2 7047     		bx	lr
 3388              	.LVL336:
 3389              	.L214:
 3390              		.cfi_def_cfa_offset 40
 3391              		.cfi_offset 4, -20
 3392              		.cfi_offset 5, -16
 3393              		.cfi_offset 6, -12
 3394              		.cfi_offset 7, -8
 3395              		.cfi_offset 14, -4
 764:Core/Src/GEVA.c ****     }
 3396              		.loc 1 764 19 view .LVU1036
 3397 00b4 0220     		movs	r0, #2
 3398              	.LVL337:
 764:Core/Src/GEVA.c ****     }
 3399              		.loc 1 764 19 view .LVU1037
 3400 00b6 B4E7     		b	.L202
 3401              		.cfi_endproc
 3402              	.LFE23:
 3404              		.section	.text.update_COL,"ax",%progbits
 3405              		.align	1
 3406              		.global	update_COL
 3407              		.syntax unified
 3408              		.thumb
 3409              		.thumb_func
 3411              	update_COL:
 3412              	.LVL338:
 3413              	.LFB24:
 768:Core/Src/GEVA.c **** 
 769:Core/Src/GEVA.c **** uint8_t update_COL(data_container* c, video_buffer* buf) {
 3414              		.loc 1 769 58 is_stmt 1 view -0
 3415              		.cfi_startproc
 3416              		@ args = 0, pretend = 0, frame = 0
 3417              		@ frame_needed = 0, uses_anonymous_args = 0
 3418              		.loc 1 769 58 is_stmt 0 view .LVU1039
 3419 0000 38B5     		push	{r3, r4, r5, lr}
 3420              		.cfi_def_cfa_offset 16
 3421              		.cfi_offset 3, -16
 3422              		.cfi_offset 4, -12
 3423              		.cfi_offset 5, -8
 3424              		.cfi_offset 14, -4
 3425 0002 0446     		mov	r4, r0
 3426 0004 0D46     		mov	r5, r1
 770:Core/Src/GEVA.c ****     uint8_t error = 0;
ARM GAS  C:\Users\arist\AppData\Local\Temp\ccSK2xlW.s 			page 88


 3427              		.loc 1 770 5 is_stmt 1 view .LVU1040
 3428              	.LVL339:
 771:Core/Src/GEVA.c ****     error = put_pos_COL(c, buf);
 3429              		.loc 1 771 5 view .LVU1041
 3430              		.loc 1 771 13 is_stmt 0 view .LVU1042
 3431 0006 FFF7FEFF 		bl	put_pos_COL
 3432              	.LVL340:
 772:Core/Src/GEVA.c ****     error = put_neg_COL(c, buf);
 3433              		.loc 1 772 5 is_stmt 1 view .LVU1043
 3434              		.loc 1 772 13 is_stmt 0 view .LVU1044
 3435 000a 2946     		mov	r1, r5
 3436 000c 2046     		mov	r0, r4
 3437 000e FFF7FEFF 		bl	put_neg_COL
 3438              	.LVL341:
 773:Core/Src/GEVA.c ****     return error;
 3439              		.loc 1 773 5 is_stmt 1 view .LVU1045
 774:Core/Src/GEVA.c **** }
 3440              		.loc 1 774 1 is_stmt 0 view .LVU1046
 3441 0012 38BD     		pop	{r3, r4, r5, pc}
 3442              		.loc 1 774 1 view .LVU1047
 3443              		.cfi_endproc
 3444              	.LFE24:
 3446              		.section	.text.update_BAR,"ax",%progbits
 3447              		.align	1
 3448              		.global	update_BAR
 3449              		.syntax unified
 3450              		.thumb
 3451              		.thumb_func
 3453              	update_BAR:
 3454              	.LVL342:
 3455              	.LFB25:
 775:Core/Src/GEVA.c **** 
 776:Core/Src/GEVA.c **** /* Draw positive bar chart
 777:Core/Src/GEVA.c ****  * return error code
 778:Core/Src/GEVA.c ****  * error code list:
 779:Core/Src/GEVA.c ****  * 1 data out of range
 780:Core/Src/GEVA.c ****  * 2 dimension mismatch
 781:Core/Src/GEVA.c ****  * 3 chart not defined
 782:Core/Src/GEVA.c ****  * 4 starting point out of scope
 783:Core/Src/GEVA.c **** */
 784:Core/Src/GEVA.c **** uint8_t update_BAR(data_container* c, video_buffer* buf) {
 3456              		.loc 1 784 58 is_stmt 1 view -0
 3457              		.cfi_startproc
 3458              		@ args = 0, pretend = 0, frame = 8
 3459              		@ frame_needed = 0, uses_anonymous_args = 0
 785:Core/Src/GEVA.c **** 
 786:Core/Src/GEVA.c ****     uint8_t error = 1;
 3460              		.loc 1 786 5 view .LVU1049
 787:Core/Src/GEVA.c **** 
 788:Core/Src/GEVA.c ****     if (c->max == 0 || c->dim_x == 0 || c->dim_y_pos == 0 || c->max <= c->min)
 3461              		.loc 1 788 5 view .LVU1050
 3462              		.loc 1 788 10 is_stmt 0 view .LVU1051
 3463 0000 D0ED027A 		vldr.32	s15, [r0, #8]
 3464              		.loc 1 788 8 view .LVU1052
 3465 0004 F5EE407A 		vcmp.f32	s15, #0
 3466 0008 F1EE10FA 		vmrs	APSR_nzcv, FPSCR
 3467 000c 54D0     		beq	.L229
ARM GAS  C:\Users\arist\AppData\Local\Temp\ccSK2xlW.s 			page 89


 784:Core/Src/GEVA.c **** 
 3468              		.loc 1 784 58 discriminator 1 view .LVU1053
 3469 000e F0B5     		push	{r4, r5, r6, r7, lr}
 3470              		.cfi_def_cfa_offset 20
 3471              		.cfi_offset 4, -20
 3472              		.cfi_offset 5, -16
 3473              		.cfi_offset 6, -12
 3474              		.cfi_offset 7, -8
 3475              		.cfi_offset 14, -4
 3476 0010 85B0     		sub	sp, sp, #20
 3477              		.cfi_def_cfa_offset 40
 3478 0012 0446     		mov	r4, r0
 3479 0014 0D46     		mov	r5, r1
 3480              		.loc 1 788 25 discriminator 1 view .LVU1054
 3481 0016 C278     		ldrb	r2, [r0, #3]	@ zero_extendqisi2
 3482              		.loc 1 788 21 discriminator 1 view .LVU1055
 3483 0018 002A     		cmp	r2, #0
 3484 001a 4FD0     		beq	.L230
 3485              		.loc 1 788 42 discriminator 2 view .LVU1056
 3486 001c 0379     		ldrb	r3, [r0, #4]	@ zero_extendqisi2
 3487              		.loc 1 788 38 discriminator 2 view .LVU1057
 3488 001e 002B     		cmp	r3, #0
 3489 0020 4FD0     		beq	.L231
 3490              		.loc 1 788 73 discriminator 3 view .LVU1058
 3491 0022 90ED037A 		vldr.32	s14, [r0, #12]
 3492              		.loc 1 788 59 discriminator 3 view .LVU1059
 3493 0026 F4EEC77A 		vcmpe.f32	s15, s14
 3494 002a F1EE10FA 		vmrs	APSR_nzcv, FPSCR
 3495 002e 01D8     		bhi	.L242
 789:Core/Src/GEVA.c ****         error = 3;
 3496              		.loc 1 789 15 view .LVU1060
 3497 0030 0320     		movs	r0, #3
 3498              	.LVL343:
 3499              		.loc 1 789 15 view .LVU1061
 3500 0032 44E0     		b	.L223
 3501              	.LVL344:
 3502              	.L242:
 790:Core/Src/GEVA.c **** 
 791:Core/Src/GEVA.c ****     else {
 792:Core/Src/GEVA.c ****         error = clear_sector(c->o_x, c->o_y, c->dim_x, c->dim_y_pos, buf); //limits check within cl
 3503              		.loc 1 792 9 is_stmt 1 view .LVU1062
 3504              		.loc 1 792 17 is_stmt 0 view .LVU1063
 3505 0034 0091     		str	r1, [sp]
 3506 0036 4178     		ldrb	r1, [r0, #1]	@ zero_extendqisi2
 3507              	.LVL345:
 3508              		.loc 1 792 17 view .LVU1064
 3509 0038 0078     		ldrb	r0, [r0]	@ zero_extendqisi2
 3510              	.LVL346:
 3511              		.loc 1 792 17 view .LVU1065
 3512 003a FFF7FEFF 		bl	clear_sector
 3513              	.LVL347:
 793:Core/Src/GEVA.c **** 
 794:Core/Src/GEVA.c ****         if (c->o_y + c->data >= 0) {
 3514              		.loc 1 794 9 is_stmt 1 view .LVU1066
 3515              		.loc 1 794 14 is_stmt 0 view .LVU1067
 3516 003e 6378     		ldrb	r3, [r4, #1]	@ zero_extendqisi2
 3517 0040 07EE903A 		vmov	s15, r3	@ int
ARM GAS  C:\Users\arist\AppData\Local\Temp\ccSK2xlW.s 			page 90


 3518              		.loc 1 794 23 view .LVU1068
 3519 0044 94ED057A 		vldr.32	s14, [r4, #20]
 3520              		.loc 1 794 20 view .LVU1069
 3521 0048 F8EEE77A 		vcvt.f32.s32	s15, s15
 3522 004c 77EE877A 		vadd.f32	s15, s15, s14
 3523              		.loc 1 794 12 view .LVU1070
 3524 0050 F5EEC07A 		vcmpe.f32	s15, #0
 3525 0054 F1EE10FA 		vmrs	APSR_nzcv, FPSCR
 3526 0058 35DB     		blt	.L237
 795:Core/Src/GEVA.c ****             if (c->data > 0 && c->data <= c->max) {
 3527              		.loc 1 795 13 is_stmt 1 view .LVU1071
 3528              		.loc 1 795 16 is_stmt 0 view .LVU1072
 3529 005a B5EEC07A 		vcmpe.f32	s14, #0
 3530 005e F1EE10FA 		vmrs	APSR_nzcv, FPSCR
 3531 0062 2CDD     		ble	.L223
 3532              		.loc 1 795 44 discriminator 1 view .LVU1073
 3533 0064 D4ED026A 		vldr.32	s13, [r4, #8]
 3534              		.loc 1 795 29 discriminator 1 view .LVU1074
 3535 0068 B4EEE67A 		vcmpe.f32	s14, s13
 3536 006c F1EE10FA 		vmrs	APSR_nzcv, FPSCR
 3537 0070 25D8     		bhi	.L223
 3538              	.LBB47:
 796:Core/Src/GEVA.c ****                 uint8_t dx = c->data * c->dim_x / c->max;
 3539              		.loc 1 796 17 is_stmt 1 view .LVU1075
 3540              		.loc 1 796 41 is_stmt 0 view .LVU1076
 3541 0072 E378     		ldrb	r3, [r4, #3]	@ zero_extendqisi2
 3542 0074 07EE903A 		vmov	s15, r3	@ int
 3543              		.loc 1 796 38 view .LVU1077
 3544 0078 F8EEE77A 		vcvt.f32.s32	s15, s15
 3545 007c 67EE877A 		vmul.f32	s15, s15, s14
 3546              		.loc 1 796 49 view .LVU1078
 3547 0080 87EEA67A 		vdiv.f32	s14, s15, s13
 3548              		.loc 1 796 25 view .LVU1079
 3549 0084 FCEEC77A 		vcvt.u32.f32	s15, s14
 3550 0088 CDED037A 		vstr.32	s15, [sp, #12]	@ int
 3551 008c 9DF80C70 		ldrb	r7, [sp, #12]	@ zero_extendqisi2
 3552              	.LVL348:
 797:Core/Src/GEVA.c **** 
 798:Core/Src/GEVA.c ****                 for (uint8_t i = 0; i < c->dim_y_pos; i++)
 3553              		.loc 1 798 17 is_stmt 1 view .LVU1080
 3554              	.LBB48:
 3555              		.loc 1 798 22 view .LVU1081
 3556              		.loc 1 798 30 is_stmt 0 view .LVU1082
 3557 0090 0026     		movs	r6, #0
 3558              		.loc 1 798 17 view .LVU1083
 3559 0092 0DE0     		b	.L227
 3560              	.LVL349:
 3561              	.L228:
 799:Core/Src/GEVA.c ****                     error = put_line(c->o_x, c->o_y + i, c->o_x + dx - 1, c->o_y + i, buf);
 3562              		.loc 1 799 21 is_stmt 1 discriminator 3 view .LVU1084
 3563              		.loc 1 799 29 is_stmt 0 discriminator 3 view .LVU1085
 3564 0094 2078     		ldrb	r0, [r4]	@ zero_extendqisi2
 3565              	.LVL350:
 3566              		.loc 1 799 47 discriminator 3 view .LVU1086
 3567 0096 6178     		ldrb	r1, [r4, #1]	@ zero_extendqisi2
 3568              		.loc 1 799 29 discriminator 3 view .LVU1087
 3569 0098 3144     		add	r1, r1, r6
ARM GAS  C:\Users\arist\AppData\Local\Temp\ccSK2xlW.s 			page 91


 3570 009a C9B2     		uxtb	r1, r1
 3571              		.loc 1 799 65 discriminator 3 view .LVU1088
 3572 009c C219     		adds	r2, r0, r7
 3573 009e D2B2     		uxtb	r2, r2
 3574              		.loc 1 799 29 discriminator 3 view .LVU1089
 3575 00a0 013A     		subs	r2, r2, #1
 3576 00a2 0095     		str	r5, [sp]
 3577 00a4 0B46     		mov	r3, r1
 3578 00a6 D2B2     		uxtb	r2, r2
 3579 00a8 FFF7FEFF 		bl	put_line
 3580              	.LVL351:
 798:Core/Src/GEVA.c ****                     error = put_line(c->o_x, c->o_y + i, c->o_x + dx - 1, c->o_y + i, buf);
 3581              		.loc 1 798 56 is_stmt 1 discriminator 3 view .LVU1090
 3582 00ac 0136     		adds	r6, r6, #1
 3583              	.LVL352:
 798:Core/Src/GEVA.c ****                     error = put_line(c->o_x, c->o_y + i, c->o_x + dx - 1, c->o_y + i, buf);
 3584              		.loc 1 798 56 is_stmt 0 discriminator 3 view .LVU1091
 3585 00ae F6B2     		uxtb	r6, r6
 3586              	.LVL353:
 3587              	.L227:
 798:Core/Src/GEVA.c ****                     error = put_line(c->o_x, c->o_y + i, c->o_x + dx - 1, c->o_y + i, buf);
 3588              		.loc 1 798 39 is_stmt 1 discriminator 1 view .LVU1092
 798:Core/Src/GEVA.c ****                     error = put_line(c->o_x, c->o_y + i, c->o_x + dx - 1, c->o_y + i, buf);
 3589              		.loc 1 798 42 is_stmt 0 discriminator 1 view .LVU1093
 3590 00b0 2379     		ldrb	r3, [r4, #4]	@ zero_extendqisi2
 798:Core/Src/GEVA.c ****                     error = put_line(c->o_x, c->o_y + i, c->o_x + dx - 1, c->o_y + i, buf);
 3591              		.loc 1 798 39 discriminator 1 view .LVU1094
 3592 00b2 B342     		cmp	r3, r6
 3593 00b4 EED8     		bhi	.L228
 798:Core/Src/GEVA.c ****                     error = put_line(c->o_x, c->o_y + i, c->o_x + dx - 1, c->o_y + i, buf);
 3594              		.loc 1 798 39 discriminator 1 view .LVU1095
 3595 00b6 02E0     		b	.L223
 3596              	.LVL354:
 3597              	.L229:
 3598              		.cfi_def_cfa_offset 0
 3599              		.cfi_restore 4
 3600              		.cfi_restore 5
 3601              		.cfi_restore 6
 3602              		.cfi_restore 7
 3603              		.cfi_restore 14
 798:Core/Src/GEVA.c ****                     error = put_line(c->o_x, c->o_y + i, c->o_x + dx - 1, c->o_y + i, buf);
 3604              		.loc 1 798 39 discriminator 1 view .LVU1096
 3605              	.LBE48:
 3606              	.LBE47:
 789:Core/Src/GEVA.c **** 
 3607              		.loc 1 789 15 view .LVU1097
 3608 00b8 0320     		movs	r0, #3
 3609              	.LVL355:
 800:Core/Src/GEVA.c ****             }
 801:Core/Src/GEVA.c ****         }
 802:Core/Src/GEVA.c ****         else
 803:Core/Src/GEVA.c ****             error = 2;
 804:Core/Src/GEVA.c ****     }
 805:Core/Src/GEVA.c **** 
 806:Core/Src/GEVA.c ****     return error;
 3610              		.loc 1 806 5 is_stmt 1 view .LVU1098
 807:Core/Src/GEVA.c **** }
ARM GAS  C:\Users\arist\AppData\Local\Temp\ccSK2xlW.s 			page 92


 3611              		.loc 1 807 1 is_stmt 0 view .LVU1099
 3612 00ba 7047     		bx	lr
 3613              	.LVL356:
 3614              	.L230:
 3615              		.cfi_def_cfa_offset 40
 3616              		.cfi_offset 4, -20
 3617              		.cfi_offset 5, -16
 3618              		.cfi_offset 6, -12
 3619              		.cfi_offset 7, -8
 3620              		.cfi_offset 14, -4
 789:Core/Src/GEVA.c **** 
 3621              		.loc 1 789 15 view .LVU1100
 3622 00bc 0320     		movs	r0, #3
 3623              	.LVL357:
 3624              	.L223:
 806:Core/Src/GEVA.c **** }
 3625              		.loc 1 806 5 is_stmt 1 view .LVU1101
 3626              		.loc 1 807 1 is_stmt 0 view .LVU1102
 3627 00be 05B0     		add	sp, sp, #20
 3628              		.cfi_remember_state
 3629              		.cfi_def_cfa_offset 20
 3630              		@ sp needed
 3631 00c0 F0BD     		pop	{r4, r5, r6, r7, pc}
 3632              	.LVL358:
 3633              	.L231:
 3634              		.cfi_restore_state
 789:Core/Src/GEVA.c **** 
 3635              		.loc 1 789 15 view .LVU1103
 3636 00c2 0320     		movs	r0, #3
 3637              	.LVL359:
 789:Core/Src/GEVA.c **** 
 3638              		.loc 1 789 15 view .LVU1104
 3639 00c4 FBE7     		b	.L223
 3640              	.LVL360:
 3641              	.L237:
 803:Core/Src/GEVA.c ****     }
 3642              		.loc 1 803 19 view .LVU1105
 3643 00c6 0220     		movs	r0, #2
 3644              	.LVL361:
 803:Core/Src/GEVA.c ****     }
 3645              		.loc 1 803 19 view .LVU1106
 3646 00c8 F9E7     		b	.L223
 3647              		.cfi_endproc
 3648              	.LFE25:
 3650              		.section	.text.update_LINE,"ax",%progbits
 3651              		.align	1
 3652              		.global	update_LINE
 3653              		.syntax unified
 3654              		.thumb
 3655              		.thumb_func
 3657              	update_LINE:
 3658              	.LVL362:
 3659              	.LFB26:
 808:Core/Src/GEVA.c **** 
 809:Core/Src/GEVA.c **** /* Draw line like chart
 810:Core/Src/GEVA.c ****  * return error code
 811:Core/Src/GEVA.c ****  * error code list:
ARM GAS  C:\Users\arist\AppData\Local\Temp\ccSK2xlW.s 			page 93


 812:Core/Src/GEVA.c ****  * 1 data out of range
 813:Core/Src/GEVA.c ****  * 2 dimension mismatch
 814:Core/Src/GEVA.c ****  * 3 chart not defined
 815:Core/Src/GEVA.c ****  * 4 starting point out of scope
 816:Core/Src/GEVA.c ****  * beware: no check on data coherence nor axis limits
 817:Core/Src/GEVA.c ****  * note: change data before calling update
 818:Core/Src/GEVA.c **** */
 819:Core/Src/GEVA.c **** uint8_t update_LINE(data_container* c, video_buffer* buf) {
 3660              		.loc 1 819 59 is_stmt 1 view -0
 3661              		.cfi_startproc
 3662              		@ args = 0, pretend = 0, frame = 0
 3663              		@ frame_needed = 0, uses_anonymous_args = 0
 3664              		.loc 1 819 59 is_stmt 0 view .LVU1108
 3665 0000 2DE9F041 		push	{r4, r5, r6, r7, r8, lr}
 3666              		.cfi_def_cfa_offset 24
 3667              		.cfi_offset 4, -24
 3668              		.cfi_offset 5, -20
 3669              		.cfi_offset 6, -16
 3670              		.cfi_offset 7, -12
 3671              		.cfi_offset 8, -8
 3672              		.cfi_offset 14, -4
 3673 0004 82B0     		sub	sp, sp, #8
 3674              		.cfi_def_cfa_offset 32
 3675 0006 0446     		mov	r4, r0
 3676 0008 0F46     		mov	r7, r1
 820:Core/Src/GEVA.c **** 
 821:Core/Src/GEVA.c ****     uint8_t error = 1;
 3677              		.loc 1 821 5 is_stmt 1 view .LVU1109
 3678              	.LVL363:
 822:Core/Src/GEVA.c ****     int16_t value = (c->data * c->dim_y_pos / c->max);
 3679              		.loc 1 822 5 view .LVU1110
 3680              		.loc 1 822 23 is_stmt 0 view .LVU1111
 3681 000a 90ED057A 		vldr.32	s14, [r0, #20]
 3682              		.loc 1 822 33 view .LVU1112
 3683 000e 0379     		ldrb	r3, [r0, #4]	@ zero_extendqisi2
 3684 0010 07EE903A 		vmov	s15, r3	@ int
 3685              		.loc 1 822 30 view .LVU1113
 3686 0014 F8EEE77A 		vcvt.f32.s32	s15, s15
 3687 0018 67EE877A 		vmul.f32	s15, s15, s14
 3688              		.loc 1 822 48 view .LVU1114
 3689 001c D0ED026A 		vldr.32	s13, [r0, #8]
 3690              		.loc 1 822 45 view .LVU1115
 3691 0020 87EEA67A 		vdiv.f32	s14, s15, s13
 3692              		.loc 1 822 13 view .LVU1116
 3693 0024 FDEEC77A 		vcvt.s32.f32	s15, s14
 3694 0028 17EE903A 		vmov	r3, s15	@ int
 3695 002c 1EB2     		sxth	r6, r3
 3696              	.LVL364:
 823:Core/Src/GEVA.c ****     static uint8_t old_data;
 3697              		.loc 1 823 5 is_stmt 1 view .LVU1117
 824:Core/Src/GEVA.c ****     static uint8_t dx;
 3698              		.loc 1 824 5 view .LVU1118
 825:Core/Src/GEVA.c ****     dx = c->dim_x / c->x_division; //limit is dim_x
 3699              		.loc 1 825 5 view .LVU1119
 3700              		.loc 1 825 11 is_stmt 0 view .LVU1120
 3701 002e C278     		ldrb	r2, [r0, #3]	@ zero_extendqisi2
 3702              		.loc 1 825 22 view .LVU1121
ARM GAS  C:\Users\arist\AppData\Local\Temp\ccSK2xlW.s 			page 94


 3703 0030 037E     		ldrb	r3, [r0, #24]	@ zero_extendqisi2
 3704              		.loc 1 825 8 view .LVU1122
 3705 0032 B2FBF3F1 		udiv	r1, r2, r3
 3706              	.LVL365:
 3707              		.loc 1 825 8 view .LVU1123
 3708 0036 4B48     		ldr	r0, .L253
 3709              	.LVL366:
 3710              		.loc 1 825 8 view .LVU1124
 3711 0038 0170     		strb	r1, [r0]
 826:Core/Src/GEVA.c ****     static uint8_t x;
 3712              		.loc 1 826 5 is_stmt 1 view .LVU1125
 827:Core/Src/GEVA.c **** 
 828:Core/Src/GEVA.c ****     static uint8_t x_cnt = 0;
 3713              		.loc 1 828 5 view .LVU1126
 829:Core/Src/GEVA.c **** 
 830:Core/Src/GEVA.c ****     if (c->dim_x == 0 || c->max <= c->min)
 3714              		.loc 1 830 5 view .LVU1127
 3715              		.loc 1 830 8 is_stmt 0 view .LVU1128
 3716 003a 002A     		cmp	r2, #0
 3717 003c 00F08D80 		beq	.L250
 3718              		.loc 1 830 37 discriminator 1 view .LVU1129
 3719 0040 D4ED037A 		vldr.32	s15, [r4, #12]
 3720              		.loc 1 830 23 discriminator 1 view .LVU1130
 3721 0044 F4EEE76A 		vcmpe.f32	s13, s15
 3722 0048 F1EE10FA 		vmrs	APSR_nzcv, FPSCR
 3723 004c 40F28780 		bls	.L251
 831:Core/Src/GEVA.c ****         error = 3;
 832:Core/Src/GEVA.c **** 
 833:Core/Src/GEVA.c ****     else {
 834:Core/Src/GEVA.c ****         if (x_cnt > c->x_division)
 3724              		.loc 1 834 9 is_stmt 1 view .LVU1131
 3725              		.loc 1 834 19 is_stmt 0 view .LVU1132
 3726 0050 4548     		ldr	r0, .L253+4
 3727 0052 0078     		ldrb	r0, [r0]	@ zero_extendqisi2
 3728              		.loc 1 834 12 view .LVU1133
 3729 0054 8342     		cmp	r3, r0
 3730 0056 02D2     		bcs	.L245
 835:Core/Src/GEVA.c ****             x_cnt = 0;
 3731              		.loc 1 835 13 is_stmt 1 view .LVU1134
 3732              		.loc 1 835 19 is_stmt 0 view .LVU1135
 3733 0058 434B     		ldr	r3, .L253+4
 3734 005a 0020     		movs	r0, #0
 3735 005c 1870     		strb	r0, [r3]
 3736              	.L245:
 836:Core/Src/GEVA.c **** 
 837:Core/Src/GEVA.c ****         if (x_cnt == 0) {
 3737              		.loc 1 837 9 is_stmt 1 view .LVU1136
 3738              		.loc 1 837 19 is_stmt 0 view .LVU1137
 3739 005e 424B     		ldr	r3, .L253+4
 3740 0060 1D78     		ldrb	r5, [r3]	@ zero_extendqisi2
 3741              		.loc 1 837 12 view .LVU1138
 3742 0062 002D     		cmp	r5, #0
 3743 0064 60D1     		bne	.L246
 838:Core/Src/GEVA.c ****             // cancel chart area only at first entry
 839:Core/Src/GEVA.c ****             //draw axis only at first entry
 840:Core/Src/GEVA.c ****             put_line(c->o_x, c->o_y, c->o_x + c->dim_x, c->o_y, buf);
 3744              		.loc 1 840 13 is_stmt 1 view .LVU1139
ARM GAS  C:\Users\arist\AppData\Local\Temp\ccSK2xlW.s 			page 95


 3745 0066 2078     		ldrb	r0, [r4]	@ zero_extendqisi2
 3746 0068 6178     		ldrb	r1, [r4, #1]	@ zero_extendqisi2
 3747 006a 0244     		add	r2, r2, r0
 3748 006c 0097     		str	r7, [sp]
 3749 006e 0B46     		mov	r3, r1
 3750 0070 D2B2     		uxtb	r2, r2
 3751 0072 FFF7FEFF 		bl	put_line
 3752              	.LVL367:
 841:Core/Src/GEVA.c ****             put_line(c->o_x, c->o_y, c->o_x, c->o_y + c->dim_y_pos, buf);
 3753              		.loc 1 841 13 view .LVU1140
 3754 0076 2078     		ldrb	r0, [r4]	@ zero_extendqisi2
 3755 0078 6178     		ldrb	r1, [r4, #1]	@ zero_extendqisi2
 3756              		.loc 1 841 56 is_stmt 0 view .LVU1141
 3757 007a 2379     		ldrb	r3, [r4, #4]	@ zero_extendqisi2
 3758              		.loc 1 841 13 view .LVU1142
 3759 007c 0B44     		add	r3, r3, r1
 3760 007e 0097     		str	r7, [sp]
 3761 0080 DBB2     		uxtb	r3, r3
 3762 0082 0246     		mov	r2, r0
 3763 0084 FFF7FEFF 		bl	put_line
 3764              	.LVL368:
 842:Core/Src/GEVA.c ****             put_line(c->o_x, c->o_y, c->o_x, c->o_y - c->dim_y_neg, buf); //
 3765              		.loc 1 842 13 is_stmt 1 view .LVU1143
 3766 0088 2078     		ldrb	r0, [r4]	@ zero_extendqisi2
 3767 008a 6178     		ldrb	r1, [r4, #1]	@ zero_extendqisi2
 3768              		.loc 1 842 56 is_stmt 0 view .LVU1144
 3769 008c 6379     		ldrb	r3, [r4, #5]	@ zero_extendqisi2
 3770              		.loc 1 842 13 view .LVU1145
 3771 008e CB1A     		subs	r3, r1, r3
 3772 0090 0097     		str	r7, [sp]
 3773 0092 DBB2     		uxtb	r3, r3
 3774 0094 0246     		mov	r2, r0
 3775 0096 FFF7FEFF 		bl	put_line
 3776              	.LVL369:
 843:Core/Src/GEVA.c ****             
 844:Core/Src/GEVA.c ****             for (uint8_t i = 0; i <= c->x_division; i++) //draw x data markers
 3777              		.loc 1 844 13 is_stmt 1 view .LVU1146
 3778              	.LBB49:
 3779              		.loc 1 844 18 view .LVU1147
 3780              		.loc 1 844 13 is_stmt 0 view .LVU1148
 3781 009a 13E0     		b	.L247
 3782              	.LVL370:
 3783              	.L248:
 845:Core/Src/GEVA.c ****                 put_pixel(c->o_x + dx * i, c->o_y - 1,SET_C, buf);
 3784              		.loc 1 845 17 is_stmt 1 discriminator 3 view .LVU1149
 3785              		.loc 1 845 28 is_stmt 0 discriminator 3 view .LVU1150
 3786 009c 2378     		ldrb	r3, [r4]	@ zero_extendqisi2
 3787              		.loc 1 845 39 discriminator 3 view .LVU1151
 3788 009e 314A     		ldr	r2, .L253
 3789 00a0 1078     		ldrb	r0, [r2]	@ zero_extendqisi2
 3790 00a2 10FB05F0 		smulbb	r0, r0, r5
 3791              		.loc 1 845 45 discriminator 3 view .LVU1152
 3792 00a6 94F801C0 		ldrb	ip, [r4, #1]	@ zero_extendqisi2
 3793              		.loc 1 845 17 discriminator 3 view .LVU1153
 3794 00aa 0CF1FF3C 		add	ip, ip, #-1
 3795 00ae 53FA80F0 		uxtab	r0, r3, r0
 3796 00b2 3B46     		mov	r3, r7
ARM GAS  C:\Users\arist\AppData\Local\Temp\ccSK2xlW.s 			page 96


 3797 00b4 0122     		movs	r2, #1
 3798 00b6 5FFA8CF1 		uxtb	r1, ip
 3799 00ba C0B2     		uxtb	r0, r0
 3800 00bc FFF7FEFF 		bl	put_pixel
 3801              	.LVL371:
 844:Core/Src/GEVA.c ****                 put_pixel(c->o_x + dx * i, c->o_y - 1,SET_C, buf);
 3802              		.loc 1 844 54 is_stmt 1 discriminator 3 view .LVU1154
 3803 00c0 0135     		adds	r5, r5, #1
 3804              	.LVL372:
 844:Core/Src/GEVA.c ****                 put_pixel(c->o_x + dx * i, c->o_y - 1,SET_C, buf);
 3805              		.loc 1 844 54 is_stmt 0 discriminator 3 view .LVU1155
 3806 00c2 EDB2     		uxtb	r5, r5
 3807              	.LVL373:
 3808              	.L247:
 844:Core/Src/GEVA.c ****                 put_pixel(c->o_x + dx * i, c->o_y - 1,SET_C, buf);
 3809              		.loc 1 844 35 is_stmt 1 discriminator 1 view .LVU1156
 844:Core/Src/GEVA.c ****                 put_pixel(c->o_x + dx * i, c->o_y - 1,SET_C, buf);
 3810              		.loc 1 844 39 is_stmt 0 discriminator 1 view .LVU1157
 3811 00c4 237E     		ldrb	r3, [r4, #24]	@ zero_extendqisi2
 844:Core/Src/GEVA.c ****                 put_pixel(c->o_x + dx * i, c->o_y - 1,SET_C, buf);
 3812              		.loc 1 844 35 discriminator 1 view .LVU1158
 3813 00c6 AB42     		cmp	r3, r5
 3814 00c8 E8D2     		bcs	.L248
 3815              	.LBE49:
 846:Core/Src/GEVA.c ****             
 847:Core/Src/GEVA.c ****             old_data = c->o_y;
 3816              		.loc 1 847 13 is_stmt 1 view .LVU1159
 3817              		.loc 1 847 25 is_stmt 0 view .LVU1160
 3818 00ca 6178     		ldrb	r1, [r4, #1]	@ zero_extendqisi2
 3819              		.loc 1 847 22 view .LVU1161
 3820 00cc 274D     		ldr	r5, .L253+8
 3821              	.LVL374:
 3822              		.loc 1 847 22 view .LVU1162
 3823 00ce 2970     		strb	r1, [r5]
 848:Core/Src/GEVA.c ****             error = clear_sector(c->o_x + 1, c->o_y - c->dim_y_neg, c->dim_x, c->dim_y_neg, buf); /
 3824              		.loc 1 848 13 is_stmt 1 view .LVU1163
 3825              		.loc 1 848 35 is_stmt 0 view .LVU1164
 3826 00d0 2078     		ldrb	r0, [r4]	@ zero_extendqisi2
 3827              		.loc 1 848 56 view .LVU1165
 3828 00d2 6379     		ldrb	r3, [r4, #5]	@ zero_extendqisi2
 3829              		.loc 1 848 21 view .LVU1166
 3830 00d4 C91A     		subs	r1, r1, r3
 3831 00d6 0130     		adds	r0, r0, #1
 3832 00d8 0097     		str	r7, [sp]
 3833 00da E278     		ldrb	r2, [r4, #3]	@ zero_extendqisi2
 3834 00dc C9B2     		uxtb	r1, r1
 3835 00de C0B2     		uxtb	r0, r0
 3836 00e0 FFF7FEFF 		bl	clear_sector
 3837              	.LVL375:
 849:Core/Src/GEVA.c ****             error = clear_sector(c->o_x + 1, c->o_y + 1, c->dim_x, c->dim_y_pos, buf); //limits che
 3838              		.loc 1 849 13 is_stmt 1 view .LVU1167
 3839              		.loc 1 849 35 is_stmt 0 view .LVU1168
 3840 00e4 2078     		ldrb	r0, [r4]	@ zero_extendqisi2
 3841              		.loc 1 849 47 view .LVU1169
 3842 00e6 6178     		ldrb	r1, [r4, #1]	@ zero_extendqisi2
 3843              		.loc 1 849 21 view .LVU1170
 3844 00e8 0131     		adds	r1, r1, #1
ARM GAS  C:\Users\arist\AppData\Local\Temp\ccSK2xlW.s 			page 97


 3845 00ea 0130     		adds	r0, r0, #1
 3846 00ec 0097     		str	r7, [sp]
 3847 00ee 2379     		ldrb	r3, [r4, #4]	@ zero_extendqisi2
 3848 00f0 E278     		ldrb	r2, [r4, #3]	@ zero_extendqisi2
 3849 00f2 C9B2     		uxtb	r1, r1
 3850 00f4 C0B2     		uxtb	r0, r0
 3851 00f6 FFF7FEFF 		bl	clear_sector
 3852              	.LVL376:
 850:Core/Src/GEVA.c ****             //first entry
 851:Core/Src/GEVA.c ****             error = put_line(c->o_x, (uint8_t)old_data, c->o_x, (uint8_t)(c->o_y + value), buf);
 3853              		.loc 1 851 13 is_stmt 1 view .LVU1171
 3854              		.loc 1 851 21 is_stmt 0 view .LVU1172
 3855 00fa 2078     		ldrb	r0, [r4]	@ zero_extendqisi2
 3856              		.loc 1 851 76 view .LVU1173
 3857 00fc 6378     		ldrb	r3, [r4, #1]	@ zero_extendqisi2
 3858              		.loc 1 851 21 view .LVU1174
 3859 00fe F6B2     		uxtb	r6, r6
 3860              	.LVL377:
 3861              		.loc 1 851 21 view .LVU1175
 3862 0100 3344     		add	r3, r3, r6
 3863 0102 0097     		str	r7, [sp]
 3864 0104 DBB2     		uxtb	r3, r3
 3865 0106 0246     		mov	r2, r0
 3866 0108 2978     		ldrb	r1, [r5]	@ zero_extendqisi2
 3867 010a FFF7FEFF 		bl	put_line
 3868              	.LVL378:
 852:Core/Src/GEVA.c ****             old_data = c->o_y + value;
 3869              		.loc 1 852 13 is_stmt 1 view .LVU1176
 3870              		.loc 1 852 25 is_stmt 0 view .LVU1177
 3871 010e 6378     		ldrb	r3, [r4, #1]	@ zero_extendqisi2
 3872              		.loc 1 852 31 view .LVU1178
 3873 0110 1E44     		add	r6, r6, r3
 3874              		.loc 1 852 22 view .LVU1179
 3875 0112 2E70     		strb	r6, [r5]
 853:Core/Src/GEVA.c ****             x = c->o_x;
 3876              		.loc 1 853 13 is_stmt 1 view .LVU1180
 3877              		.loc 1 853 18 is_stmt 0 view .LVU1181
 3878 0114 2278     		ldrb	r2, [r4]	@ zero_extendqisi2
 3879              		.loc 1 853 15 view .LVU1182
 3880 0116 164B     		ldr	r3, .L253+12
 3881 0118 1A70     		strb	r2, [r3]
 3882              	.LVL379:
 3883              	.L249:
 854:Core/Src/GEVA.c ****         }
 855:Core/Src/GEVA.c ****         else {
 856:Core/Src/GEVA.c ****             error = put_line(x, (uint8_t)old_data, x + dx, c->o_y + value, buf);
 857:Core/Src/GEVA.c ****             old_data = (uint8_t)(c->o_y + value);
 858:Core/Src/GEVA.c ****             x += dx;
 859:Core/Src/GEVA.c ****         }
 860:Core/Src/GEVA.c ****         x_cnt++;
 3884              		.loc 1 860 9 is_stmt 1 view .LVU1183
 3885              		.loc 1 860 14 is_stmt 0 view .LVU1184
 3886 011a 134A     		ldr	r2, .L253+4
 3887 011c 1378     		ldrb	r3, [r2]	@ zero_extendqisi2
 3888 011e 0133     		adds	r3, r3, #1
 3889 0120 1370     		strb	r3, [r2]
 3890              	.LVL380:
ARM GAS  C:\Users\arist\AppData\Local\Temp\ccSK2xlW.s 			page 98


 3891              	.L244:
 861:Core/Src/GEVA.c ****     }
 862:Core/Src/GEVA.c ****     return error;
 3892              		.loc 1 862 5 is_stmt 1 view .LVU1185
 863:Core/Src/GEVA.c **** }
 3893              		.loc 1 863 1 is_stmt 0 view .LVU1186
 3894 0122 02B0     		add	sp, sp, #8
 3895              		.cfi_remember_state
 3896              		.cfi_def_cfa_offset 24
 3897              		@ sp needed
 3898 0124 BDE8F081 		pop	{r4, r5, r6, r7, r8, pc}
 3899              	.LVL381:
 3900              	.L246:
 3901              		.cfi_restore_state
 856:Core/Src/GEVA.c ****             old_data = (uint8_t)(c->o_y + value);
 3902              		.loc 1 856 13 is_stmt 1 view .LVU1187
 856:Core/Src/GEVA.c ****             old_data = (uint8_t)(c->o_y + value);
 3903              		.loc 1 856 21 is_stmt 0 view .LVU1188
 3904 0128 114D     		ldr	r5, .L253+12
 3905 012a 2878     		ldrb	r0, [r5]	@ zero_extendqisi2
 856:Core/Src/GEVA.c ****             old_data = (uint8_t)(c->o_y + value);
 3906              		.loc 1 856 61 view .LVU1189
 3907 012c 6378     		ldrb	r3, [r4, #1]	@ zero_extendqisi2
 856:Core/Src/GEVA.c ****             old_data = (uint8_t)(c->o_y + value);
 3908              		.loc 1 856 21 view .LVU1190
 3909 012e F6B2     		uxtb	r6, r6
 3910              	.LVL382:
 856:Core/Src/GEVA.c ****             old_data = (uint8_t)(c->o_y + value);
 3911              		.loc 1 856 21 view .LVU1191
 3912 0130 3344     		add	r3, r3, r6
 3913 0132 0A18     		adds	r2, r1, r0
 3914 0134 DFF83480 		ldr	r8, .L253+8
 3915 0138 0097     		str	r7, [sp]
 3916 013a DBB2     		uxtb	r3, r3
 3917 013c D2B2     		uxtb	r2, r2
 3918 013e 98F80010 		ldrb	r1, [r8]	@ zero_extendqisi2
 3919 0142 FFF7FEFF 		bl	put_line
 3920              	.LVL383:
 857:Core/Src/GEVA.c ****             x += dx;
 3921              		.loc 1 857 13 is_stmt 1 view .LVU1192
 857:Core/Src/GEVA.c ****             x += dx;
 3922              		.loc 1 857 35 is_stmt 0 view .LVU1193
 3923 0146 6378     		ldrb	r3, [r4, #1]	@ zero_extendqisi2
 857:Core/Src/GEVA.c ****             x += dx;
 3924              		.loc 1 857 24 view .LVU1194
 3925 0148 1E44     		add	r6, r6, r3
 857:Core/Src/GEVA.c ****             x += dx;
 3926              		.loc 1 857 22 view .LVU1195
 3927 014a 88F80060 		strb	r6, [r8]
 858:Core/Src/GEVA.c ****         }
 3928              		.loc 1 858 13 is_stmt 1 view .LVU1196
 858:Core/Src/GEVA.c ****         }
 3929              		.loc 1 858 15 is_stmt 0 view .LVU1197
 3930 014e 2B78     		ldrb	r3, [r5]	@ zero_extendqisi2
 3931 0150 044A     		ldr	r2, .L253
 3932 0152 1278     		ldrb	r2, [r2]	@ zero_extendqisi2
 3933 0154 1344     		add	r3, r3, r2
ARM GAS  C:\Users\arist\AppData\Local\Temp\ccSK2xlW.s 			page 99


 3934 0156 2B70     		strb	r3, [r5]
 3935 0158 DFE7     		b	.L249
 3936              	.LVL384:
 3937              	.L250:
 831:Core/Src/GEVA.c **** 
 3938              		.loc 1 831 15 view .LVU1198
 3939 015a 0320     		movs	r0, #3
 3940 015c E1E7     		b	.L244
 3941              	.L251:
 3942 015e 0320     		movs	r0, #3
 3943 0160 DFE7     		b	.L244
 3944              	.L254:
 3945 0162 00BF     		.align	2
 3946              	.L253:
 3947 0164 00000000 		.word	dx.7
 3948 0168 00000000 		.word	x_cnt.6
 3949 016c 00000000 		.word	old_data.5
 3950 0170 00000000 		.word	x.4
 3951              		.cfi_endproc
 3952              	.LFE26:
 3954              		.section	.text.update_SCATTER,"ax",%progbits
 3955              		.align	1
 3956              		.global	update_SCATTER
 3957              		.syntax unified
 3958              		.thumb
 3959              		.thumb_func
 3961              	update_SCATTER:
 3962              	.LVL385:
 3963              	.LFB27:
 864:Core/Src/GEVA.c **** 
 865:Core/Src/GEVA.c **** /* Draw scatter like chart
 866:Core/Src/GEVA.c ****  * return error code
 867:Core/Src/GEVA.c ****  * error code list:
 868:Core/Src/GEVA.c ****  * 1 data out of range
 869:Core/Src/GEVA.c ****  * 2 dimension mismatch
 870:Core/Src/GEVA.c ****  * 3 chart not defined
 871:Core/Src/GEVA.c ****  * 4 starting point out of scope
 872:Core/Src/GEVA.c ****  * beware: no check on data coherence nor axis limits
 873:Core/Src/GEVA.c ****  * note: change data before calling update
 874:Core/Src/GEVA.c **** */
 875:Core/Src/GEVA.c **** uint8_t update_SCATTER(data_container* c, video_buffer* buf) {
 3964              		.loc 1 875 62 is_stmt 1 view -0
 3965              		.cfi_startproc
 3966              		@ args = 0, pretend = 0, frame = 0
 3967              		@ frame_needed = 0, uses_anonymous_args = 0
 3968              		.loc 1 875 62 is_stmt 0 view .LVU1200
 3969 0000 F0B5     		push	{r4, r5, r6, r7, lr}
 3970              		.cfi_def_cfa_offset 20
 3971              		.cfi_offset 4, -20
 3972              		.cfi_offset 5, -16
 3973              		.cfi_offset 6, -12
 3974              		.cfi_offset 7, -8
 3975              		.cfi_offset 14, -4
 3976 0002 83B0     		sub	sp, sp, #12
 3977              		.cfi_def_cfa_offset 32
 3978 0004 0446     		mov	r4, r0
 3979 0006 0F46     		mov	r7, r1
ARM GAS  C:\Users\arist\AppData\Local\Temp\ccSK2xlW.s 			page 100


 876:Core/Src/GEVA.c ****     
 877:Core/Src/GEVA.c ****     uint8_t error = 1;
 3980              		.loc 1 877 5 is_stmt 1 view .LVU1201
 3981              	.LVL386:
 878:Core/Src/GEVA.c ****     int16_t value = (c->data * c->dim_y_pos / c->max);
 3982              		.loc 1 878 5 view .LVU1202
 3983              		.loc 1 878 23 is_stmt 0 view .LVU1203
 3984 0008 90ED057A 		vldr.32	s14, [r0, #20]
 3985              		.loc 1 878 33 view .LVU1204
 3986 000c 0379     		ldrb	r3, [r0, #4]	@ zero_extendqisi2
 3987 000e 07EE903A 		vmov	s15, r3	@ int
 3988              		.loc 1 878 30 view .LVU1205
 3989 0012 F8EEE77A 		vcvt.f32.s32	s15, s15
 3990 0016 67EE877A 		vmul.f32	s15, s15, s14
 3991              		.loc 1 878 48 view .LVU1206
 3992 001a D0ED026A 		vldr.32	s13, [r0, #8]
 3993              		.loc 1 878 45 view .LVU1207
 3994 001e 87EEA67A 		vdiv.f32	s14, s15, s13
 3995              		.loc 1 878 13 view .LVU1208
 3996 0022 FDEEC77A 		vcvt.s32.f32	s15, s14
 3997 0026 17EE903A 		vmov	r3, s15	@ int
 3998 002a 1EB2     		sxth	r6, r3
 3999              	.LVL387:
 879:Core/Src/GEVA.c ****     static uint8_t old_data;
 4000              		.loc 1 879 5 is_stmt 1 view .LVU1209
 880:Core/Src/GEVA.c ****     static uint8_t dx;
 4001              		.loc 1 880 5 view .LVU1210
 881:Core/Src/GEVA.c ****     dx = c->dim_x / c->x_division; //limit is dim_x
 4002              		.loc 1 881 5 view .LVU1211
 4003              		.loc 1 881 11 is_stmt 0 view .LVU1212
 4004 002c C278     		ldrb	r2, [r0, #3]	@ zero_extendqisi2
 4005              		.loc 1 881 22 view .LVU1213
 4006 002e 037E     		ldrb	r3, [r0, #24]	@ zero_extendqisi2
 4007              		.loc 1 881 8 view .LVU1214
 4008 0030 B2FBF3F0 		udiv	r0, r2, r3
 4009              	.LVL388:
 4010              		.loc 1 881 8 view .LVU1215
 4011 0034 4449     		ldr	r1, .L265
 4012              	.LVL389:
 4013              		.loc 1 881 8 view .LVU1216
 4014 0036 0870     		strb	r0, [r1]
 882:Core/Src/GEVA.c ****     static uint8_t x;
 4015              		.loc 1 882 5 is_stmt 1 view .LVU1217
 883:Core/Src/GEVA.c **** 
 884:Core/Src/GEVA.c ****     static uint8_t x_cnt = 0;
 4016              		.loc 1 884 5 view .LVU1218
 885:Core/Src/GEVA.c **** 
 886:Core/Src/GEVA.c ****     if (c->dim_x == 0 || c->max <= c->min)
 4017              		.loc 1 886 5 view .LVU1219
 4018              		.loc 1 886 8 is_stmt 0 view .LVU1220
 4019 0038 002A     		cmp	r2, #0
 4020 003a 00F08180 		beq	.L262
 4021              		.loc 1 886 37 discriminator 1 view .LVU1221
 4022 003e D4ED037A 		vldr.32	s15, [r4, #12]
 4023              		.loc 1 886 23 discriminator 1 view .LVU1222
 4024 0042 F4EEE76A 		vcmpe.f32	s13, s15
 4025 0046 F1EE10FA 		vmrs	APSR_nzcv, FPSCR
ARM GAS  C:\Users\arist\AppData\Local\Temp\ccSK2xlW.s 			page 101


 4026 004a 7BD9     		bls	.L263
 887:Core/Src/GEVA.c ****         error = 3;
 888:Core/Src/GEVA.c **** 
 889:Core/Src/GEVA.c ****     else {
 890:Core/Src/GEVA.c ****         if (x_cnt > c->x_division)
 4027              		.loc 1 890 9 is_stmt 1 view .LVU1223
 4028              		.loc 1 890 19 is_stmt 0 view .LVU1224
 4029 004c 3F49     		ldr	r1, .L265+4
 4030 004e 0978     		ldrb	r1, [r1]	@ zero_extendqisi2
 4031              		.loc 1 890 12 view .LVU1225
 4032 0050 8B42     		cmp	r3, r1
 4033 0052 02D2     		bcs	.L257
 891:Core/Src/GEVA.c ****             x_cnt = 0;
 4034              		.loc 1 891 13 is_stmt 1 view .LVU1226
 4035              		.loc 1 891 19 is_stmt 0 view .LVU1227
 4036 0054 3D4B     		ldr	r3, .L265+4
 4037 0056 0021     		movs	r1, #0
 4038 0058 1970     		strb	r1, [r3]
 4039              	.L257:
 892:Core/Src/GEVA.c **** 
 893:Core/Src/GEVA.c ****         if (x_cnt == 0) {
 4040              		.loc 1 893 9 is_stmt 1 view .LVU1228
 4041              		.loc 1 893 19 is_stmt 0 view .LVU1229
 4042 005a 3C4B     		ldr	r3, .L265+4
 4043 005c 1D78     		ldrb	r5, [r3]	@ zero_extendqisi2
 4044              		.loc 1 893 12 view .LVU1230
 4045 005e 002D     		cmp	r5, #0
 4046 0060 5FD1     		bne	.L258
 894:Core/Src/GEVA.c ****             // cancel chart area only at first entry
 895:Core/Src/GEVA.c ****             //draw axis only at first entry
 896:Core/Src/GEVA.c ****             put_line(c->o_x, c->o_y, c->o_x + c->dim_x, c->o_y, buf);
 4047              		.loc 1 896 13 is_stmt 1 view .LVU1231
 4048 0062 2078     		ldrb	r0, [r4]	@ zero_extendqisi2
 4049 0064 6178     		ldrb	r1, [r4, #1]	@ zero_extendqisi2
 4050 0066 0244     		add	r2, r2, r0
 4051 0068 0097     		str	r7, [sp]
 4052 006a 0B46     		mov	r3, r1
 4053 006c D2B2     		uxtb	r2, r2
 4054 006e FFF7FEFF 		bl	put_line
 4055              	.LVL390:
 897:Core/Src/GEVA.c ****             put_line(c->o_x, c->o_y, c->o_x, c->o_y + c->dim_y_pos, buf);
 4056              		.loc 1 897 13 view .LVU1232
 4057 0072 2078     		ldrb	r0, [r4]	@ zero_extendqisi2
 4058 0074 6178     		ldrb	r1, [r4, #1]	@ zero_extendqisi2
 4059              		.loc 1 897 56 is_stmt 0 view .LVU1233
 4060 0076 2379     		ldrb	r3, [r4, #4]	@ zero_extendqisi2
 4061              		.loc 1 897 13 view .LVU1234
 4062 0078 0B44     		add	r3, r3, r1
 4063 007a 0097     		str	r7, [sp]
 4064 007c DBB2     		uxtb	r3, r3
 4065 007e 0246     		mov	r2, r0
 4066 0080 FFF7FEFF 		bl	put_line
 4067              	.LVL391:
 898:Core/Src/GEVA.c ****             put_line(c->o_x, c->o_y, c->o_x, c->o_y - c->dim_y_neg, buf);
 4068              		.loc 1 898 13 is_stmt 1 view .LVU1235
 4069 0084 2078     		ldrb	r0, [r4]	@ zero_extendqisi2
 4070 0086 6178     		ldrb	r1, [r4, #1]	@ zero_extendqisi2
ARM GAS  C:\Users\arist\AppData\Local\Temp\ccSK2xlW.s 			page 102


 4071              		.loc 1 898 56 is_stmt 0 view .LVU1236
 4072 0088 6379     		ldrb	r3, [r4, #5]	@ zero_extendqisi2
 4073              		.loc 1 898 13 view .LVU1237
 4074 008a CB1A     		subs	r3, r1, r3
 4075 008c 0097     		str	r7, [sp]
 4076 008e DBB2     		uxtb	r3, r3
 4077 0090 0246     		mov	r2, r0
 4078 0092 FFF7FEFF 		bl	put_line
 4079              	.LVL392:
 899:Core/Src/GEVA.c ****             
 900:Core/Src/GEVA.c ****                 
 901:Core/Src/GEVA.c ****             for (uint8_t i = 0; i <= c->x_division; i++) //draw x data markers
 4080              		.loc 1 901 13 is_stmt 1 view .LVU1238
 4081              	.LBB50:
 4082              		.loc 1 901 18 view .LVU1239
 4083              		.loc 1 901 13 is_stmt 0 view .LVU1240
 4084 0096 13E0     		b	.L259
 4085              	.LVL393:
 4086              	.L260:
 902:Core/Src/GEVA.c ****                 put_pixel(c->o_x + dx * i, c->o_y - 1, SET_C, buf);
 4087              		.loc 1 902 17 is_stmt 1 discriminator 3 view .LVU1241
 4088              		.loc 1 902 28 is_stmt 0 discriminator 3 view .LVU1242
 4089 0098 2378     		ldrb	r3, [r4]	@ zero_extendqisi2
 4090              		.loc 1 902 39 discriminator 3 view .LVU1243
 4091 009a 2B4A     		ldr	r2, .L265
 4092 009c 1078     		ldrb	r0, [r2]	@ zero_extendqisi2
 4093 009e 10FB05F0 		smulbb	r0, r0, r5
 4094              		.loc 1 902 45 discriminator 3 view .LVU1244
 4095 00a2 94F801C0 		ldrb	ip, [r4, #1]	@ zero_extendqisi2
 4096              		.loc 1 902 17 discriminator 3 view .LVU1245
 4097 00a6 0CF1FF3C 		add	ip, ip, #-1
 4098 00aa 53FA80F0 		uxtab	r0, r3, r0
 4099 00ae 3B46     		mov	r3, r7
 4100 00b0 0122     		movs	r2, #1
 4101 00b2 5FFA8CF1 		uxtb	r1, ip
 4102 00b6 C0B2     		uxtb	r0, r0
 4103 00b8 FFF7FEFF 		bl	put_pixel
 4104              	.LVL394:
 901:Core/Src/GEVA.c ****                 put_pixel(c->o_x + dx * i, c->o_y - 1, SET_C, buf);
 4105              		.loc 1 901 54 is_stmt 1 discriminator 3 view .LVU1246
 4106 00bc 0135     		adds	r5, r5, #1
 4107              	.LVL395:
 901:Core/Src/GEVA.c ****                 put_pixel(c->o_x + dx * i, c->o_y - 1, SET_C, buf);
 4108              		.loc 1 901 54 is_stmt 0 discriminator 3 view .LVU1247
 4109 00be EDB2     		uxtb	r5, r5
 4110              	.LVL396:
 4111              	.L259:
 901:Core/Src/GEVA.c ****                 put_pixel(c->o_x + dx * i, c->o_y - 1, SET_C, buf);
 4112              		.loc 1 901 35 is_stmt 1 discriminator 1 view .LVU1248
 901:Core/Src/GEVA.c ****                 put_pixel(c->o_x + dx * i, c->o_y - 1, SET_C, buf);
 4113              		.loc 1 901 39 is_stmt 0 discriminator 1 view .LVU1249
 4114 00c0 237E     		ldrb	r3, [r4, #24]	@ zero_extendqisi2
 901:Core/Src/GEVA.c ****                 put_pixel(c->o_x + dx * i, c->o_y - 1, SET_C, buf);
 4115              		.loc 1 901 35 discriminator 1 view .LVU1250
 4116 00c2 AB42     		cmp	r3, r5
 4117 00c4 E8D2     		bcs	.L260
 4118              	.LBE50:
ARM GAS  C:\Users\arist\AppData\Local\Temp\ccSK2xlW.s 			page 103


 903:Core/Src/GEVA.c **** 
 904:Core/Src/GEVA.c ****             old_data = c->o_y;
 4119              		.loc 1 904 13 is_stmt 1 view .LVU1251
 4120              		.loc 1 904 25 is_stmt 0 view .LVU1252
 4121 00c6 6178     		ldrb	r1, [r4, #1]	@ zero_extendqisi2
 4122              		.loc 1 904 22 view .LVU1253
 4123 00c8 214D     		ldr	r5, .L265+8
 4124              	.LVL397:
 4125              		.loc 1 904 22 view .LVU1254
 4126 00ca 2970     		strb	r1, [r5]
 905:Core/Src/GEVA.c ****                 
 906:Core/Src/GEVA.c ****             error = clear_sector(c->o_x + 1, c->o_y - c->dim_y_neg, c->dim_x, c->dim_y_neg, buf); /
 4127              		.loc 1 906 13 is_stmt 1 view .LVU1255
 4128              		.loc 1 906 35 is_stmt 0 view .LVU1256
 4129 00cc 2078     		ldrb	r0, [r4]	@ zero_extendqisi2
 4130              		.loc 1 906 56 view .LVU1257
 4131 00ce 6379     		ldrb	r3, [r4, #5]	@ zero_extendqisi2
 4132              		.loc 1 906 21 view .LVU1258
 4133 00d0 C91A     		subs	r1, r1, r3
 4134 00d2 0130     		adds	r0, r0, #1
 4135 00d4 0097     		str	r7, [sp]
 4136 00d6 E278     		ldrb	r2, [r4, #3]	@ zero_extendqisi2
 4137 00d8 C9B2     		uxtb	r1, r1
 4138 00da C0B2     		uxtb	r0, r0
 4139 00dc FFF7FEFF 		bl	clear_sector
 4140              	.LVL398:
 907:Core/Src/GEVA.c ****             error = clear_sector(c->o_x + 1, c->o_y + 1, c->dim_x, c->dim_y_pos, buf); //limits che
 4141              		.loc 1 907 13 is_stmt 1 view .LVU1259
 4142              		.loc 1 907 35 is_stmt 0 view .LVU1260
 4143 00e0 2078     		ldrb	r0, [r4]	@ zero_extendqisi2
 4144              		.loc 1 907 47 view .LVU1261
 4145 00e2 6178     		ldrb	r1, [r4, #1]	@ zero_extendqisi2
 4146              		.loc 1 907 21 view .LVU1262
 4147 00e4 0131     		adds	r1, r1, #1
 4148 00e6 0130     		adds	r0, r0, #1
 4149 00e8 0097     		str	r7, [sp]
 4150 00ea 2379     		ldrb	r3, [r4, #4]	@ zero_extendqisi2
 4151 00ec E278     		ldrb	r2, [r4, #3]	@ zero_extendqisi2
 4152 00ee C9B2     		uxtb	r1, r1
 4153 00f0 C0B2     		uxtb	r0, r0
 4154 00f2 FFF7FEFF 		bl	clear_sector
 4155              	.LVL399:
 908:Core/Src/GEVA.c ****             //first entry
 909:Core/Src/GEVA.c ****             error = put_line(c->o_x, (uint8_t)old_data, c->o_x, (uint8_t)(c->o_y + value), buf);
 4156              		.loc 1 909 13 is_stmt 1 view .LVU1263
 4157              		.loc 1 909 21 is_stmt 0 view .LVU1264
 4158 00f6 2078     		ldrb	r0, [r4]	@ zero_extendqisi2
 4159              		.loc 1 909 76 view .LVU1265
 4160 00f8 6378     		ldrb	r3, [r4, #1]	@ zero_extendqisi2
 4161              		.loc 1 909 21 view .LVU1266
 4162 00fa F6B2     		uxtb	r6, r6
 4163              	.LVL400:
 4164              		.loc 1 909 21 view .LVU1267
 4165 00fc 3344     		add	r3, r3, r6
 4166 00fe 0097     		str	r7, [sp]
 4167 0100 DBB2     		uxtb	r3, r3
 4168 0102 0246     		mov	r2, r0
ARM GAS  C:\Users\arist\AppData\Local\Temp\ccSK2xlW.s 			page 104


 4169 0104 2978     		ldrb	r1, [r5]	@ zero_extendqisi2
 4170 0106 FFF7FEFF 		bl	put_line
 4171              	.LVL401:
 910:Core/Src/GEVA.c ****             old_data = c->o_y + value;
 4172              		.loc 1 910 13 is_stmt 1 view .LVU1268
 4173              		.loc 1 910 25 is_stmt 0 view .LVU1269
 4174 010a 6378     		ldrb	r3, [r4, #1]	@ zero_extendqisi2
 4175              		.loc 1 910 31 view .LVU1270
 4176 010c 1E44     		add	r6, r6, r3
 4177              		.loc 1 910 22 view .LVU1271
 4178 010e 2E70     		strb	r6, [r5]
 911:Core/Src/GEVA.c ****             x = c->o_x;
 4179              		.loc 1 911 13 is_stmt 1 view .LVU1272
 4180              		.loc 1 911 18 is_stmt 0 view .LVU1273
 4181 0110 2278     		ldrb	r2, [r4]	@ zero_extendqisi2
 4182              		.loc 1 911 15 view .LVU1274
 4183 0112 104B     		ldr	r3, .L265+12
 4184 0114 1A70     		strb	r2, [r3]
 4185              	.LVL402:
 4186              	.L261:
 912:Core/Src/GEVA.c ****         }
 913:Core/Src/GEVA.c ****         else {
 914:Core/Src/GEVA.c ****             error = put_pixel(x, (uint8_t)(c->o_y + value), SET_C, buf);
 915:Core/Src/GEVA.c ****             //old_data = (uint8_t)(c->o_y + value);
 916:Core/Src/GEVA.c ****             x += dx;
 917:Core/Src/GEVA.c ****         }
 918:Core/Src/GEVA.c ****         x_cnt++;
 4187              		.loc 1 918 9 is_stmt 1 view .LVU1275
 4188              		.loc 1 918 14 is_stmt 0 view .LVU1276
 4189 0116 0D4A     		ldr	r2, .L265+4
 4190 0118 1378     		ldrb	r3, [r2]	@ zero_extendqisi2
 4191 011a 0133     		adds	r3, r3, #1
 4192 011c 1370     		strb	r3, [r2]
 4193              	.LVL403:
 4194              	.L256:
 919:Core/Src/GEVA.c ****     }
 920:Core/Src/GEVA.c ****     return error;
 4195              		.loc 1 920 5 is_stmt 1 view .LVU1277
 921:Core/Src/GEVA.c **** }
 4196              		.loc 1 921 1 is_stmt 0 view .LVU1278
 4197 011e 03B0     		add	sp, sp, #12
 4198              		.cfi_remember_state
 4199              		.cfi_def_cfa_offset 20
 4200              		@ sp needed
 4201 0120 F0BD     		pop	{r4, r5, r6, r7, pc}
 4202              	.LVL404:
 4203              	.L258:
 4204              		.cfi_restore_state
 914:Core/Src/GEVA.c ****             //old_data = (uint8_t)(c->o_y + value);
 4205              		.loc 1 914 13 is_stmt 1 view .LVU1279
 914:Core/Src/GEVA.c ****             //old_data = (uint8_t)(c->o_y + value);
 4206              		.loc 1 914 45 is_stmt 0 view .LVU1280
 4207 0122 6178     		ldrb	r1, [r4, #1]	@ zero_extendqisi2
 914:Core/Src/GEVA.c ****             //old_data = (uint8_t)(c->o_y + value);
 4208              		.loc 1 914 21 view .LVU1281
 4209 0124 3144     		add	r1, r1, r6
 4210 0126 0B4C     		ldr	r4, .L265+12
ARM GAS  C:\Users\arist\AppData\Local\Temp\ccSK2xlW.s 			page 105


 4211              	.LVL405:
 914:Core/Src/GEVA.c ****             //old_data = (uint8_t)(c->o_y + value);
 4212              		.loc 1 914 21 view .LVU1282
 4213 0128 3B46     		mov	r3, r7
 4214 012a 0122     		movs	r2, #1
 4215 012c C9B2     		uxtb	r1, r1
 4216 012e 2078     		ldrb	r0, [r4]	@ zero_extendqisi2
 4217 0130 FFF7FEFF 		bl	put_pixel
 4218              	.LVL406:
 916:Core/Src/GEVA.c ****         }
 4219              		.loc 1 916 13 is_stmt 1 view .LVU1283
 916:Core/Src/GEVA.c ****         }
 4220              		.loc 1 916 15 is_stmt 0 view .LVU1284
 4221 0134 2378     		ldrb	r3, [r4]	@ zero_extendqisi2
 4222 0136 044A     		ldr	r2, .L265
 4223 0138 1278     		ldrb	r2, [r2]	@ zero_extendqisi2
 4224 013a 1344     		add	r3, r3, r2
 4225 013c 2370     		strb	r3, [r4]
 4226 013e EAE7     		b	.L261
 4227              	.LVL407:
 4228              	.L262:
 887:Core/Src/GEVA.c **** 
 4229              		.loc 1 887 15 view .LVU1285
 4230 0140 0320     		movs	r0, #3
 4231 0142 ECE7     		b	.L256
 4232              	.L263:
 4233 0144 0320     		movs	r0, #3
 4234 0146 EAE7     		b	.L256
 4235              	.L266:
 4236              		.align	2
 4237              	.L265:
 4238 0148 00000000 		.word	dx.3
 4239 014c 00000000 		.word	x_cnt.2
 4240 0150 00000000 		.word	old_data.1
 4241 0154 00000000 		.word	x.0
 4242              		.cfi_endproc
 4243              	.LFE27:
 4245              		.section	.text.update_XY,"ax",%progbits
 4246              		.align	1
 4247              		.global	update_XY
 4248              		.syntax unified
 4249              		.thumb
 4250              		.thumb_func
 4252              	update_XY:
 4253              	.LVL408:
 4254              	.LFB28:
 922:Core/Src/GEVA.c **** 
 923:Core/Src/GEVA.c **** 
 924:Core/Src/GEVA.c **** /* Draw XY type chart where for every x is associate a y value similar to scatter but data are take
 925:Core/Src/GEVA.c ****  * return error code
 926:Core/Src/GEVA.c ****  * error code list:
 927:Core/Src/GEVA.c ****  * 1 data out of range
 928:Core/Src/GEVA.c ****  * 2 dimension mismatch
 929:Core/Src/GEVA.c ****  * 3 chart not defined
 930:Core/Src/GEVA.c ****  * 4 starting point out of scope
 931:Core/Src/GEVA.c ****  * beware: no check on data coherence nor axis limits
 932:Core/Src/GEVA.c ****  * note: both x and y values get scaled thus the visualization can be messy if x values are to clos
ARM GAS  C:\Users\arist\AppData\Local\Temp\ccSK2xlW.s 			page 106


 933:Core/Src/GEVA.c **** */
 934:Core/Src/GEVA.c **** uint8_t update_XY(data_container* c, video_buffer* buf) {
 4255              		.loc 1 934 57 is_stmt 1 view -0
 4256              		.cfi_startproc
 4257              		@ args = 0, pretend = 0, frame = 0
 4258              		@ frame_needed = 0, uses_anonymous_args = 0
 4259              		.loc 1 934 57 is_stmt 0 view .LVU1287
 4260 0000 F0B5     		push	{r4, r5, r6, r7, lr}
 4261              		.cfi_def_cfa_offset 20
 4262              		.cfi_offset 4, -20
 4263              		.cfi_offset 5, -16
 4264              		.cfi_offset 6, -12
 4265              		.cfi_offset 7, -8
 4266              		.cfi_offset 14, -4
 4267 0002 83B0     		sub	sp, sp, #12
 4268              		.cfi_def_cfa_offset 32
 935:Core/Src/GEVA.c **** 
 936:Core/Src/GEVA.c ****     uint8_t error = 1;
 4269              		.loc 1 936 5 is_stmt 1 view .LVU1288
 4270              	.LVL409:
 937:Core/Src/GEVA.c ****     uint8_t dx = 0;
 4271              		.loc 1 937 5 view .LVU1289
 938:Core/Src/GEVA.c ****     int16_t dy = 0;
 4272              		.loc 1 938 5 view .LVU1290
 939:Core/Src/GEVA.c **** 
 940:Core/Src/GEVA.c ****     if (c->dim_x == 0 || c->max <= c->min)
 4273              		.loc 1 940 5 view .LVU1291
 4274              		.loc 1 940 10 is_stmt 0 view .LVU1292
 4275 0004 C278     		ldrb	r2, [r0, #3]	@ zero_extendqisi2
 4276              		.loc 1 940 8 view .LVU1293
 4277 0006 002A     		cmp	r2, #0
 4278 0008 73D0     		beq	.L271
 4279 000a 0446     		mov	r4, r0
 4280 000c 0E46     		mov	r6, r1
 4281              		.loc 1 940 27 discriminator 1 view .LVU1294
 4282 000e 90ED027A 		vldr.32	s14, [r0, #8]
 4283              		.loc 1 940 37 discriminator 1 view .LVU1295
 4284 0012 D0ED037A 		vldr.32	s15, [r0, #12]
 4285              		.loc 1 940 23 discriminator 1 view .LVU1296
 4286 0016 B4EEE77A 		vcmpe.f32	s14, s15
 4287 001a F1EE10FA 		vmrs	APSR_nzcv, FPSCR
 4288 001e 01D8     		bhi	.L274
 941:Core/Src/GEVA.c ****         error = 3;
 4289              		.loc 1 941 15 view .LVU1297
 4290 0020 0327     		movs	r7, #3
 4291 0022 67E0     		b	.L268
 4292              	.L274:
 942:Core/Src/GEVA.c **** 
 943:Core/Src/GEVA.c ****     else {
 944:Core/Src/GEVA.c ****             // cancel chart area only at first entry
 945:Core/Src/GEVA.c ****             //draw axis only at first entry
 946:Core/Src/GEVA.c ****             error = clear_sector(c->o_x, c->o_y - c->dim_y_neg, c->dim_x, c->dim_y_neg, buf); //lim
 4293              		.loc 1 946 13 is_stmt 1 view .LVU1298
 4294              		.loc 1 946 43 is_stmt 0 view .LVU1299
 4295 0024 4178     		ldrb	r1, [r0, #1]	@ zero_extendqisi2
 4296              	.LVL410:
 4297              		.loc 1 946 52 view .LVU1300
ARM GAS  C:\Users\arist\AppData\Local\Temp\ccSK2xlW.s 			page 107


 4298 0026 4379     		ldrb	r3, [r0, #5]	@ zero_extendqisi2
 4299              		.loc 1 946 21 view .LVU1301
 4300 0028 C91A     		subs	r1, r1, r3
 4301 002a 0096     		str	r6, [sp]
 4302 002c C9B2     		uxtb	r1, r1
 4303 002e 0078     		ldrb	r0, [r0]	@ zero_extendqisi2
 4304              	.LVL411:
 4305              		.loc 1 946 21 view .LVU1302
 4306 0030 FFF7FEFF 		bl	clear_sector
 4307              	.LVL412:
 947:Core/Src/GEVA.c ****             error = clear_sector(c->o_x, c->o_y, c->dim_x, c->dim_y_pos, buf); //limits check withi
 4308              		.loc 1 947 13 is_stmt 1 view .LVU1303
 4309              		.loc 1 947 21 is_stmt 0 view .LVU1304
 4310 0034 0096     		str	r6, [sp]
 4311 0036 2379     		ldrb	r3, [r4, #4]	@ zero_extendqisi2
 4312 0038 E278     		ldrb	r2, [r4, #3]	@ zero_extendqisi2
 4313 003a 6178     		ldrb	r1, [r4, #1]	@ zero_extendqisi2
 4314 003c 2078     		ldrb	r0, [r4]	@ zero_extendqisi2
 4315 003e FFF7FEFF 		bl	clear_sector
 4316              	.LVL413:
 4317 0042 0746     		mov	r7, r0
 4318              	.LVL414:
 948:Core/Src/GEVA.c ****             put_line(c->o_x, c->o_y, c->o_x + c->dim_x, c->o_y, buf);
 4319              		.loc 1 948 13 is_stmt 1 view .LVU1305
 4320 0044 2078     		ldrb	r0, [r4]	@ zero_extendqisi2
 4321 0046 6178     		ldrb	r1, [r4, #1]	@ zero_extendqisi2
 4322              		.loc 1 948 48 is_stmt 0 view .LVU1306
 4323 0048 E278     		ldrb	r2, [r4, #3]	@ zero_extendqisi2
 4324              		.loc 1 948 13 view .LVU1307
 4325 004a 0244     		add	r2, r2, r0
 4326 004c 0096     		str	r6, [sp]
 4327 004e 0B46     		mov	r3, r1
 4328 0050 D2B2     		uxtb	r2, r2
 4329 0052 FFF7FEFF 		bl	put_line
 4330              	.LVL415:
 949:Core/Src/GEVA.c ****             put_line(c->o_x, c->o_y, c->o_x, c->o_y + c->dim_y_pos, buf);
 4331              		.loc 1 949 13 is_stmt 1 view .LVU1308
 4332 0056 2078     		ldrb	r0, [r4]	@ zero_extendqisi2
 4333 0058 6178     		ldrb	r1, [r4, #1]	@ zero_extendqisi2
 4334              		.loc 1 949 56 is_stmt 0 view .LVU1309
 4335 005a 2379     		ldrb	r3, [r4, #4]	@ zero_extendqisi2
 4336              		.loc 1 949 13 view .LVU1310
 4337 005c 0B44     		add	r3, r3, r1
 4338 005e 0096     		str	r6, [sp]
 4339 0060 DBB2     		uxtb	r3, r3
 4340 0062 0246     		mov	r2, r0
 4341 0064 FFF7FEFF 		bl	put_line
 4342              	.LVL416:
 950:Core/Src/GEVA.c ****             put_line(c->o_x, c->o_y, c->o_x, c->o_y - c->dim_y_neg, buf);
 4343              		.loc 1 950 13 is_stmt 1 view .LVU1311
 4344 0068 2078     		ldrb	r0, [r4]	@ zero_extendqisi2
 4345 006a 6178     		ldrb	r1, [r4, #1]	@ zero_extendqisi2
 4346              		.loc 1 950 56 is_stmt 0 view .LVU1312
 4347 006c 6379     		ldrb	r3, [r4, #5]	@ zero_extendqisi2
 4348              		.loc 1 950 13 view .LVU1313
 4349 006e CB1A     		subs	r3, r1, r3
 4350 0070 0096     		str	r6, [sp]
ARM GAS  C:\Users\arist\AppData\Local\Temp\ccSK2xlW.s 			page 108


 4351 0072 DBB2     		uxtb	r3, r3
 4352 0074 0246     		mov	r2, r0
 4353 0076 FFF7FEFF 		bl	put_line
 4354              	.LVL417:
 951:Core/Src/GEVA.c **** 
 952:Core/Src/GEVA.c ****             for (uint8_t i = 0; i < c->xy_entries.n_ent; i++){
 4355              		.loc 1 952 13 is_stmt 1 view .LVU1314
 4356              	.LBB51:
 4357              		.loc 1 952 18 view .LVU1315
 4358              		.loc 1 952 26 is_stmt 0 view .LVU1316
 4359 007a 0025     		movs	r5, #0
 4360              		.loc 1 952 13 view .LVU1317
 4361 007c 35E0     		b	.L269
 4362              	.LVL418:
 4363              	.L270:
 953:Core/Src/GEVA.c ****                 dx = c->xy_entries.x[i] * c->dim_x / c->max_x;
 4364              		.loc 1 953 17 is_stmt 1 discriminator 3 view .LVU1318
 4365              		.loc 1 953 35 is_stmt 0 discriminator 3 view .LVU1319
 4366 007e 236A     		ldr	r3, [r4, #32]
 4367              		.loc 1 953 37 discriminator 3 view .LVU1320
 4368 0080 03EB8503 		add	r3, r3, r5, lsl #2
 4369 0084 D3ED007A 		vldr.32	s15, [r3]
 4370              		.loc 1 953 44 discriminator 3 view .LVU1321
 4371 0088 E378     		ldrb	r3, [r4, #3]	@ zero_extendqisi2
 4372 008a 07EE103A 		vmov	s14, r3	@ int
 4373              		.loc 1 953 41 discriminator 3 view .LVU1322
 4374 008e B8EEC77A 		vcvt.f32.s32	s14, s14
 4375 0092 27EE277A 		vmul.f32	s14, s14, s15
 4376              		.loc 1 953 55 discriminator 3 view .LVU1323
 4377 0096 D4ED046A 		vldr.32	s13, [r4, #16]
 4378              		.loc 1 953 52 discriminator 3 view .LVU1324
 4379 009a C7EE267A 		vdiv.f32	s15, s14, s13
 4380              		.loc 1 953 20 discriminator 3 view .LVU1325
 4381 009e FCEEE77A 		vcvt.u32.f32	s15, s15
 4382 00a2 17EE900A 		vmov	r0, s15	@ int
 4383              	.LVL419:
 954:Core/Src/GEVA.c ****                 dy = c->xy_entries.y[i] * c->dim_y_pos / c->max;
 4384              		.loc 1 954 17 is_stmt 1 discriminator 3 view .LVU1326
 4385              		.loc 1 954 35 is_stmt 0 discriminator 3 view .LVU1327
 4386 00a6 636A     		ldr	r3, [r4, #36]
 4387              		.loc 1 954 37 discriminator 3 view .LVU1328
 4388 00a8 03EB8503 		add	r3, r3, r5, lsl #2
 4389 00ac D3ED007A 		vldr.32	s15, [r3]
 4390              		.loc 1 954 44 discriminator 3 view .LVU1329
 4391 00b0 2379     		ldrb	r3, [r4, #4]	@ zero_extendqisi2
 4392 00b2 07EE103A 		vmov	s14, r3	@ int
 4393              		.loc 1 954 41 discriminator 3 view .LVU1330
 4394 00b6 B8EEC77A 		vcvt.f32.s32	s14, s14
 4395 00ba 27EE277A 		vmul.f32	s14, s14, s15
 4396              		.loc 1 954 59 discriminator 3 view .LVU1331
 4397 00be D4ED026A 		vldr.32	s13, [r4, #8]
 4398              		.loc 1 954 56 discriminator 3 view .LVU1332
 4399 00c2 C7EE267A 		vdiv.f32	s15, s14, s13
 4400              		.loc 1 954 20 discriminator 3 view .LVU1333
 4401 00c6 FDEEE77A 		vcvt.s32.f32	s15, s15
 4402 00ca 17EE901A 		vmov	r1, s15	@ int
 4403              	.LVL420:
ARM GAS  C:\Users\arist\AppData\Local\Temp\ccSK2xlW.s 			page 109


 955:Core/Src/GEVA.c ****                 put_pixel(c->o_x + dx, c->o_y + dy, SET_C, buf);
 4404              		.loc 1 955 17 is_stmt 1 discriminator 3 view .LVU1334
 4405              		.loc 1 955 28 is_stmt 0 discriminator 3 view .LVU1335
 4406 00ce 2378     		ldrb	r3, [r4]	@ zero_extendqisi2
 4407              		.loc 1 955 41 discriminator 3 view .LVU1336
 4408 00d0 6278     		ldrb	r2, [r4, #1]	@ zero_extendqisi2
 4409              		.loc 1 955 17 discriminator 3 view .LVU1337
 4410 00d2 02FA81F1 		sxtah	r1, r2, r1
 4411              	.LVL421:
 4412              		.loc 1 955 17 discriminator 3 view .LVU1338
 4413 00d6 53FA80F0 		uxtab	r0, r3, r0
 4414              	.LVL422:
 4415              		.loc 1 955 17 discriminator 3 view .LVU1339
 4416 00da 3346     		mov	r3, r6
 4417 00dc 0122     		movs	r2, #1
 4418 00de C9B2     		uxtb	r1, r1
 4419 00e0 C0B2     		uxtb	r0, r0
 4420 00e2 FFF7FEFF 		bl	put_pixel
 4421              	.LVL423:
 952:Core/Src/GEVA.c ****                 dx = c->xy_entries.x[i] * c->dim_x / c->max_x;
 4422              		.loc 1 952 59 is_stmt 1 discriminator 3 view .LVU1340
 4423 00e6 0135     		adds	r5, r5, #1
 4424              	.LVL424:
 952:Core/Src/GEVA.c ****                 dx = c->xy_entries.x[i] * c->dim_x / c->max_x;
 4425              		.loc 1 952 59 is_stmt 0 discriminator 3 view .LVU1341
 4426 00e8 EDB2     		uxtb	r5, r5
 4427              	.LVL425:
 4428              	.L269:
 952:Core/Src/GEVA.c ****                 dx = c->xy_entries.x[i] * c->dim_x / c->max_x;
 4429              		.loc 1 952 35 is_stmt 1 discriminator 1 view .LVU1342
 952:Core/Src/GEVA.c ****                 dx = c->xy_entries.x[i] * c->dim_x / c->max_x;
 4430              		.loc 1 952 50 is_stmt 0 discriminator 1 view .LVU1343
 4431 00ea 237F     		ldrb	r3, [r4, #28]	@ zero_extendqisi2
 952:Core/Src/GEVA.c ****                 dx = c->xy_entries.x[i] * c->dim_x / c->max_x;
 4432              		.loc 1 952 35 discriminator 1 view .LVU1344
 4433 00ec AB42     		cmp	r3, r5
 4434 00ee C6D8     		bhi	.L270
 4435 00f0 00E0     		b	.L268
 4436              	.LVL426:
 4437              	.L271:
 952:Core/Src/GEVA.c ****                 dx = c->xy_entries.x[i] * c->dim_x / c->max_x;
 4438              		.loc 1 952 35 discriminator 1 view .LVU1345
 4439              	.LBE51:
 941:Core/Src/GEVA.c **** 
 4440              		.loc 1 941 15 view .LVU1346
 4441 00f2 0327     		movs	r7, #3
 4442              	.LVL427:
 4443              	.L268:
 956:Core/Src/GEVA.c ****             } 
 957:Core/Src/GEVA.c ****     }
 958:Core/Src/GEVA.c ****     return error;
 4444              		.loc 1 958 5 is_stmt 1 view .LVU1347
 959:Core/Src/GEVA.c **** }
 4445              		.loc 1 959 1 is_stmt 0 view .LVU1348
 4446 00f4 3846     		mov	r0, r7
 4447 00f6 03B0     		add	sp, sp, #12
 4448              		.cfi_def_cfa_offset 20
ARM GAS  C:\Users\arist\AppData\Local\Temp\ccSK2xlW.s 			page 110


 4449              		@ sp needed
 4450 00f8 F0BD     		pop	{r4, r5, r6, r7, pc}
 4451              		.loc 1 959 1 view .LVU1349
 4452              		.cfi_endproc
 4453              	.LFE28:
 4455              		.section	.text.update_chart,"ax",%progbits
 4456              		.align	1
 4457              		.global	update_chart
 4458              		.syntax unified
 4459              		.thumb
 4460              		.thumb_func
 4462              	update_chart:
 4463              	.LVL428:
 4464              	.LFB13:
 562:Core/Src/GEVA.c ****     uint8_t error = 0;
 4465              		.loc 1 562 75 is_stmt 1 view -0
 4466              		.cfi_startproc
 4467              		@ args = 0, pretend = 0, frame = 0
 4468              		@ frame_needed = 0, uses_anonymous_args = 0
 562:Core/Src/GEVA.c ****     uint8_t error = 0;
 4469              		.loc 1 562 75 is_stmt 0 view .LVU1351
 4470 0000 08B5     		push	{r3, lr}
 4471              		.cfi_def_cfa_offset 8
 4472              		.cfi_offset 3, -8
 4473              		.cfi_offset 14, -4
 563:Core/Src/GEVA.c ****     c->data = new_data;
 4474              		.loc 1 563 5 is_stmt 1 view .LVU1352
 4475              	.LVL429:
 564:Core/Src/GEVA.c **** 
 4476              		.loc 1 564 5 view .LVU1353
 564:Core/Src/GEVA.c **** 
 4477              		.loc 1 564 13 is_stmt 0 view .LVU1354
 4478 0002 80ED050A 		vstr.32	s0, [r0, #20]
 566:Core/Src/GEVA.c ****     case COL:
 4479              		.loc 1 566 5 is_stmt 1 view .LVU1355
 566:Core/Src/GEVA.c ****     case COL:
 4480              		.loc 1 566 14 is_stmt 0 view .LVU1356
 4481 0006 8378     		ldrb	r3, [r0, #2]	@ zero_extendqisi2
 566:Core/Src/GEVA.c ****     case COL:
 4482              		.loc 1 566 5 view .LVU1357
 4483 0008 042B     		cmp	r3, #4
 4484 000a 13D8     		bhi	.L283
 4485 000c DFE803F0 		tbb	[pc, r3]
 4486              	.L278:
 4487 0010 09       		.byte	(.L282-.L278)/2
 4488 0011 03       		.byte	(.L281-.L278)/2
 4489 0012 0C       		.byte	(.L280-.L278)/2
 4490 0013 06       		.byte	(.L279-.L278)/2
 4491 0014 0F       		.byte	(.L277-.L278)/2
 4492 0015 00       		.p2align 1
 4493              	.L281:
 568:Core/Src/GEVA.c ****         break;
 4494              		.loc 1 568 9 is_stmt 1 view .LVU1358
 568:Core/Src/GEVA.c ****         break;
 4495              		.loc 1 568 17 is_stmt 0 view .LVU1359
 4496 0016 FFF7FEFF 		bl	update_COL
 4497              	.LVL430:
ARM GAS  C:\Users\arist\AppData\Local\Temp\ccSK2xlW.s 			page 111


 569:Core/Src/GEVA.c ****     case XY: //when calling update_XY new data is ignored: changing of data_container.xy_entry stru
 4498              		.loc 1 569 9 is_stmt 1 view .LVU1360
 4499              	.L276:
 586:Core/Src/GEVA.c **** }
 4500              		.loc 1 586 5 view .LVU1361
 587:Core/Src/GEVA.c **** 
 4501              		.loc 1 587 1 is_stmt 0 view .LVU1362
 4502 001a 08BD     		pop	{r3, pc}
 4503              	.LVL431:
 4504              	.L279:
 571:Core/Src/GEVA.c ****         break;
 4505              		.loc 1 571 9 is_stmt 1 view .LVU1363
 571:Core/Src/GEVA.c ****         break;
 4506              		.loc 1 571 17 is_stmt 0 view .LVU1364
 4507 001c FFF7FEFF 		bl	update_XY
 4508              	.LVL432:
 572:Core/Src/GEVA.c ****     case BAR:
 4509              		.loc 1 572 9 is_stmt 1 view .LVU1365
 4510 0020 FBE7     		b	.L276
 4511              	.LVL433:
 4512              	.L282:
 574:Core/Src/GEVA.c ****         break;
 4513              		.loc 1 574 9 view .LVU1366
 574:Core/Src/GEVA.c ****         break;
 4514              		.loc 1 574 17 is_stmt 0 view .LVU1367
 4515 0022 FFF7FEFF 		bl	update_BAR
 4516              	.LVL434:
 575:Core/Src/GEVA.c ****     case LINE:
 4517              		.loc 1 575 9 is_stmt 1 view .LVU1368
 4518 0026 F8E7     		b	.L276
 4519              	.LVL435:
 4520              	.L280:
 577:Core/Src/GEVA.c ****         break;
 4521              		.loc 1 577 9 view .LVU1369
 577:Core/Src/GEVA.c ****         break;
 4522              		.loc 1 577 17 is_stmt 0 view .LVU1370
 4523 0028 FFF7FEFF 		bl	update_LINE
 4524              	.LVL436:
 578:Core/Src/GEVA.c ****     case SCATTER:
 4525              		.loc 1 578 9 is_stmt 1 view .LVU1371
 4526 002c F5E7     		b	.L276
 4527              	.LVL437:
 4528              	.L277:
 580:Core/Src/GEVA.c ****         break;
 4529              		.loc 1 580 9 view .LVU1372
 580:Core/Src/GEVA.c ****         break;
 4530              		.loc 1 580 17 is_stmt 0 view .LVU1373
 4531 002e FFF7FEFF 		bl	update_SCATTER
 4532              	.LVL438:
 581:Core/Src/GEVA.c ****     default:
 4533              		.loc 1 581 9 is_stmt 1 view .LVU1374
 4534 0032 F2E7     		b	.L276
 4535              	.LVL439:
 4536              	.L283:
 566:Core/Src/GEVA.c ****     case COL:
 4537              		.loc 1 566 5 is_stmt 0 view .LVU1375
 4538 0034 0020     		movs	r0, #0
ARM GAS  C:\Users\arist\AppData\Local\Temp\ccSK2xlW.s 			page 112


 4539              	.LVL440:
 566:Core/Src/GEVA.c ****     case COL:
 4540              		.loc 1 566 5 view .LVU1376
 4541 0036 F0E7     		b	.L276
 4542              		.cfi_endproc
 4543              	.LFE13:
 4545              		.section	.bss.x.0,"aw",%nobits
 4548              	x.0:
 4549 0000 00       		.space	1
 4550              		.section	.bss.old_data.1,"aw",%nobits
 4553              	old_data.1:
 4554 0000 00       		.space	1
 4555              		.section	.bss.x_cnt.2,"aw",%nobits
 4558              	x_cnt.2:
 4559 0000 00       		.space	1
 4560              		.section	.bss.dx.3,"aw",%nobits
 4563              	dx.3:
 4564 0000 00       		.space	1
 4565              		.section	.bss.x.4,"aw",%nobits
 4568              	x.4:
 4569 0000 00       		.space	1
 4570              		.section	.bss.old_data.5,"aw",%nobits
 4573              	old_data.5:
 4574 0000 00       		.space	1
 4575              		.section	.bss.x_cnt.6,"aw",%nobits
 4578              	x_cnt.6:
 4579 0000 00       		.space	1
 4580              		.section	.bss.dx.7,"aw",%nobits
 4583              	dx.7:
 4584 0000 00       		.space	1
 4585              		.global	font_l
 4586              		.section	.data.font_l,"aw"
 4587              		.align	2
 4590              	font_l:
 4591 0000 00FF     		.short	-256
 4592 0002 00FF     		.short	-256
 4593 0004 00FF     		.short	-256
 4594 0006 00FF     		.short	-256
 4595 0008 00FF     		.short	-256
 4596 000a 00FF     		.short	-256
 4597 000c 0001     		.short	256
 4598 000e 0070     		.short	28672
 4599 0010 0088     		.short	-30720
 4600 0012 00D8     		.short	-10240
 4601 0014 0088     		.short	-30720
 4602 0016 00A8     		.short	-22528
 4603 0018 0088     		.short	-30720
 4604 001a 0070     		.short	28672
 4605 001c 0070     		.short	28672
 4606 001e 00F8     		.short	-2048
 4607 0020 00A8     		.short	-22528
 4608 0022 00F8     		.short	-2048
 4609 0024 00D8     		.short	-10240
 4610 0026 00F8     		.short	-2048
 4611 0028 0070     		.short	28672
 4612 002a 0050     		.short	20480
 4613 002c 00F8     		.short	-2048
ARM GAS  C:\Users\arist\AppData\Local\Temp\ccSK2xlW.s 			page 113


 4614 002e 00F8     		.short	-2048
 4615 0030 00F8     		.short	-2048
 4616 0032 0070     		.short	28672
 4617 0034 0020     		.short	8192
 4618 0036 0000     		.short	0
 4619 0038 0000     		.short	0
 4620 003a 0020     		.short	8192
 4621 003c 0070     		.short	28672
 4622 003e 00F8     		.short	-2048
 4623 0040 0070     		.short	28672
 4624 0042 0020     		.short	8192
 4625 0044 0000     		.short	0
 4626 0046 0070     		.short	28672
 4627 0048 0070     		.short	28672
 4628 004a 00F8     		.short	-2048
 4629 004c 00F8     		.short	-2048
 4630 004e 0020     		.short	8192
 4631 0050 00F8     		.short	-2048
 4632 0052 0000     		.short	0
 4633 0054 0020     		.short	8192
 4634 0056 0070     		.short	28672
 4635 0058 00F8     		.short	-2048
 4636 005a 00F8     		.short	-2048
 4637 005c 00F8     		.short	-2048
 4638 005e 0020     		.short	8192
 4639 0060 00F8     		.short	-2048
 4640 0062 0000     		.short	0
 4641 0064 0000     		.short	0
 4642 0066 0070     		.short	28672
 4643 0068 0070     		.short	28672
 4644 006a 0070     		.short	28672
 4645 006c 0000     		.short	0
 4646 006e 0000     		.short	0
 4647 0070 0000     		.short	0
 4648 0072 00F8     		.short	-2048
 4649 0074 0088     		.short	-30720
 4650 0076 0088     		.short	-30720
 4651 0078 0088     		.short	-30720
 4652 007a 00F8     		.short	-2048
 4653 007c 0000     		.short	0
 4654 007e 0000     		.short	0
 4655 0080 0070     		.short	28672
 4656 0082 0088     		.short	-30720
 4657 0084 0088     		.short	-30720
 4658 0086 0088     		.short	-30720
 4659 0088 0070     		.short	28672
 4660 008a 0000     		.short	0
 4661 008c 00F8     		.short	-2048
 4662 008e 0088     		.short	-30720
 4663 0090 0070     		.short	28672
 4664 0092 0070     		.short	28672
 4665 0094 0070     		.short	28672
 4666 0096 0088     		.short	-30720
 4667 0098 00F8     		.short	-2048
 4668 009a 0000     		.short	0
 4669 009c 0038     		.short	14336
 4670 009e 0018     		.short	6144
ARM GAS  C:\Users\arist\AppData\Local\Temp\ccSK2xlW.s 			page 114


 4671 00a0 0068     		.short	26624
 4672 00a2 00A0     		.short	-24576
 4673 00a4 0040     		.short	16384
 4674 00a6 0000     		.short	0
 4675 00a8 0070     		.short	28672
 4676 00aa 0088     		.short	-30720
 4677 00ac 0088     		.short	-30720
 4678 00ae 0070     		.short	28672
 4679 00b0 0020     		.short	8192
 4680 00b2 0070     		.short	28672
 4681 00b4 0020     		.short	8192
 4682 00b6 0020     		.short	8192
 4683 00b8 0030     		.short	12288
 4684 00ba 0028     		.short	10240
 4685 00bc 0020     		.short	8192
 4686 00be 0060     		.short	24576
 4687 00c0 00E0     		.short	-8192
 4688 00c2 0040     		.short	16384
 4689 00c4 0008     		.short	2048
 4690 00c6 0018     		.short	6144
 4691 00c8 0028     		.short	10240
 4692 00ca 0048     		.short	18432
 4693 00cc 0058     		.short	22528
 4694 00ce 00D8     		.short	-10240
 4695 00d0 00C0     		.short	-16384
 4696 00d2 0000     		.short	0
 4697 00d4 00A8     		.short	-22528
 4698 00d6 0070     		.short	28672
 4699 00d8 00D8     		.short	-10240
 4700 00da 0070     		.short	28672
 4701 00dc 00A8     		.short	-22528
 4702 00de 0000     		.short	0
 4703 00e0 0000     		.short	0
 4704 00e2 0040     		.short	16384
 4705 00e4 0060     		.short	24576
 4706 00e6 0070     		.short	28672
 4707 00e8 0060     		.short	24576
 4708 00ea 0040     		.short	16384
 4709 00ec 0000     		.short	0
 4710 00ee 0000     		.short	0
 4711 00f0 0010     		.short	4096
 4712 00f2 0030     		.short	12288
 4713 00f4 0070     		.short	28672
 4714 00f6 0030     		.short	12288
 4715 00f8 0010     		.short	4096
 4716 00fa 0000     		.short	0
 4717 00fc 0020     		.short	8192
 4718 00fe 0070     		.short	28672
 4719 0100 0020     		.short	8192
 4720 0102 0020     		.short	8192
 4721 0104 0070     		.short	28672
 4722 0106 0020     		.short	8192
 4723 0108 0000     		.short	0
 4724 010a 0050     		.short	20480
 4725 010c 0050     		.short	20480
 4726 010e 0050     		.short	20480
 4727 0110 0050     		.short	20480
ARM GAS  C:\Users\arist\AppData\Local\Temp\ccSK2xlW.s 			page 115


 4728 0112 0050     		.short	20480
 4729 0114 0000     		.short	0
 4730 0116 0050     		.short	20480
 4731 0118 00D8     		.short	-10240
 4732 011a 00D8     		.short	-10240
 4733 011c 00D8     		.short	-10240
 4734 011e 00D8     		.short	-10240
 4735 0120 00D8     		.short	-10240
 4736 0122 00D8     		.short	-10240
 4737 0124 00D8     		.short	-10240
 4738 0126 0000     		.short	0
 4739 0128 0020     		.short	8192
 4740 012a 00A8     		.short	-22528
 4741 012c 00A8     		.short	-22528
 4742 012e 0088     		.short	-30720
 4743 0130 0070     		.short	28672
 4744 0132 0000     		.short	0
 4745 0134 0000     		.short	0
 4746 0136 0038     		.short	14336
 4747 0138 0030     		.short	12288
 4748 013a 00A8     		.short	-22528
 4749 013c 0088     		.short	-30720
 4750 013e 0088     		.short	-30720
 4751 0140 0070     		.short	28672
 4752 0142 0000     		.short	0
 4753 0144 0020     		.short	8192
 4754 0146 0070     		.short	28672
 4755 0148 0020     		.short	8192
 4756 014a 0070     		.short	28672
 4757 014c 0020     		.short	8192
 4758 014e 0070     		.short	28672
 4759 0150 0000     		.short	0
 4760 0152 0020     		.short	8192
 4761 0154 0070     		.short	28672
 4762 0156 0020     		.short	8192
 4763 0158 0020     		.short	8192
 4764 015a 0020     		.short	8192
 4765 015c 0000     		.short	0
 4766 015e 0000     		.short	0
 4767 0160 0020     		.short	8192
 4768 0162 0020     		.short	8192
 4769 0164 0020     		.short	8192
 4770 0166 0070     		.short	28672
 4771 0168 0020     		.short	8192
 4772 016a 0000     		.short	0
 4773 016c 0000     		.short	0
 4774 016e 0000     		.short	0
 4775 0170 0010     		.short	4096
 4776 0172 00F8     		.short	-2048
 4777 0174 0010     		.short	4096
 4778 0176 0000     		.short	0
 4779 0178 0000     		.short	0
 4780 017a 0000     		.short	0
 4781 017c 0000     		.short	0
 4782 017e 0040     		.short	16384
 4783 0180 00F8     		.short	-2048
 4784 0182 0040     		.short	16384
ARM GAS  C:\Users\arist\AppData\Local\Temp\ccSK2xlW.s 			page 116


 4785 0184 0000     		.short	0
 4786 0186 0000     		.short	0
 4787 0188 0080     		.short	-32768
 4788 018a 0080     		.short	-32768
 4789 018c 0080     		.short	-32768
 4790 018e 0080     		.short	-32768
 4791 0190 0080     		.short	-32768
 4792 0192 0080     		.short	-32768
 4793 0194 00F8     		.short	-2048
 4794 0196 0000     		.short	0
 4795 0198 0000     		.short	0
 4796 019a 0050     		.short	20480
 4797 019c 00F8     		.short	-2048
 4798 019e 0050     		.short	20480
 4799 01a0 0000     		.short	0
 4800 01a2 0000     		.short	0
 4801 01a4 0000     		.short	0
 4802 01a6 0000     		.short	0
 4803 01a8 0020     		.short	8192
 4804 01aa 0070     		.short	28672
 4805 01ac 00F8     		.short	-2048
 4806 01ae 0000     		.short	0
 4807 01b0 0000     		.short	0
 4808 01b2 0000     		.short	0
 4809 01b4 0000     		.short	0
 4810 01b6 00F8     		.short	-2048
 4811 01b8 0070     		.short	28672
 4812 01ba 0020     		.short	8192
 4813 01bc 0000     		.short	0
 4814 01be 0000     		.short	0
 4815 01c0 0000     		.short	0
 4816 01c2 0000     		.short	0
 4817 01c4 0000     		.short	0
 4818 01c6 0000     		.short	0
 4819 01c8 0000     		.short	0
 4820 01ca 0000     		.short	0
 4821 01cc 0000     		.short	0
 4822 01ce 0020     		.short	8192
 4823 01d0 0020     		.short	8192
 4824 01d2 0020     		.short	8192
 4825 01d4 0020     		.short	8192
 4826 01d6 0020     		.short	8192
 4827 01d8 0000     		.short	0
 4828 01da 0020     		.short	8192
 4829 01dc 0050     		.short	20480
 4830 01de 0050     		.short	20480
 4831 01e0 0050     		.short	20480
 4832 01e2 0000     		.short	0
 4833 01e4 0000     		.short	0
 4834 01e6 0000     		.short	0
 4835 01e8 0000     		.short	0
 4836 01ea 0000     		.short	0
 4837 01ec 0050     		.short	20480
 4838 01ee 00F8     		.short	-2048
 4839 01f0 0050     		.short	20480
 4840 01f2 00F8     		.short	-2048
 4841 01f4 0050     		.short	20480
ARM GAS  C:\Users\arist\AppData\Local\Temp\ccSK2xlW.s 			page 117


 4842 01f6 0000     		.short	0
 4843 01f8 0020     		.short	8192
 4844 01fa 0070     		.short	28672
 4845 01fc 0080     		.short	-32768
 4846 01fe 0070     		.short	28672
 4847 0200 0008     		.short	2048
 4848 0202 0070     		.short	28672
 4849 0204 0020     		.short	8192
 4850 0206 0000     		.short	0
 4851 0208 00C8     		.short	-14336
 4852 020a 00D0     		.short	-12288
 4853 020c 0020     		.short	8192
 4854 020e 0058     		.short	22528
 4855 0210 0098     		.short	-26624
 4856 0212 0000     		.short	0
 4857 0214 0020     		.short	8192
 4858 0216 0050     		.short	20480
 4859 0218 0050     		.short	20480
 4860 021a 0020     		.short	8192
 4861 021c 0050     		.short	20480
 4862 021e 00F8     		.short	-2048
 4863 0220 0010     		.short	4096
 4864 0222 0020     		.short	8192
 4865 0224 0020     		.short	8192
 4866 0226 0020     		.short	8192
 4867 0228 0000     		.short	0
 4868 022a 0000     		.short	0
 4869 022c 0000     		.short	0
 4870 022e 0000     		.short	0
 4871 0230 0010     		.short	4096
 4872 0232 0020     		.short	8192
 4873 0234 0040     		.short	16384
 4874 0236 0040     		.short	16384
 4875 0238 0040     		.short	16384
 4876 023a 0020     		.short	8192
 4877 023c 0010     		.short	4096
 4878 023e 0040     		.short	16384
 4879 0240 0020     		.short	8192
 4880 0242 0010     		.short	4096
 4881 0244 0010     		.short	4096
 4882 0246 0010     		.short	4096
 4883 0248 0020     		.short	8192
 4884 024a 0040     		.short	16384
 4885 024c 0000     		.short	0
 4886 024e 0020     		.short	8192
 4887 0250 0070     		.short	28672
 4888 0252 0020     		.short	8192
 4889 0254 0050     		.short	20480
 4890 0256 0000     		.short	0
 4891 0258 0000     		.short	0
 4892 025a 0000     		.short	0
 4893 025c 0020     		.short	8192
 4894 025e 0020     		.short	8192
 4895 0260 00F8     		.short	-2048
 4896 0262 0020     		.short	8192
 4897 0264 0020     		.short	8192
 4898 0266 0000     		.short	0
ARM GAS  C:\Users\arist\AppData\Local\Temp\ccSK2xlW.s 			page 118


 4899 0268 0000     		.short	0
 4900 026a 0000     		.short	0
 4901 026c 0000     		.short	0
 4902 026e 0000     		.short	0
 4903 0270 0020     		.short	8192
 4904 0272 0020     		.short	8192
 4905 0274 0040     		.short	16384
 4906 0276 0000     		.short	0
 4907 0278 0000     		.short	0
 4908 027a 0000     		.short	0
 4909 027c 00F8     		.short	-2048
 4910 027e 0000     		.short	0
 4911 0280 0000     		.short	0
 4912 0282 0000     		.short	0
 4913 0284 0000     		.short	0
 4914 0286 0000     		.short	0
 4915 0288 0000     		.short	0
 4916 028a 0000     		.short	0
 4917 028c 0000     		.short	0
 4918 028e 0000     		.short	0
 4919 0290 0020     		.short	8192
 4920 0292 0000     		.short	0
 4921 0294 0008     		.short	2048
 4922 0296 0010     		.short	4096
 4923 0298 0020     		.short	8192
 4924 029a 0040     		.short	16384
 4925 029c 0080     		.short	-32768
 4926 029e 0000     		.short	0
 4927 02a0 0060     		.short	24576
 4928 02a2 0090     		.short	-28672
 4929 02a4 0090     		.short	-28672
 4930 02a6 0090     		.short	-28672
 4931 02a8 0090     		.short	-28672
 4932 02aa 0090     		.short	-28672
 4933 02ac 0060     		.short	24576
 4934 02ae 0020     		.short	8192
 4935 02b0 0060     		.short	24576
 4936 02b2 0020     		.short	8192
 4937 02b4 0020     		.short	8192
 4938 02b6 0020     		.short	8192
 4939 02b8 0020     		.short	8192
 4940 02ba 0070     		.short	28672
 4941 02bc 0060     		.short	24576
 4942 02be 0090     		.short	-28672
 4943 02c0 0010     		.short	4096
 4944 02c2 0020     		.short	8192
 4945 02c4 0040     		.short	16384
 4946 02c6 0080     		.short	-32768
 4947 02c8 00F0     		.short	-4096
 4948 02ca 0060     		.short	24576
 4949 02cc 0090     		.short	-28672
 4950 02ce 0010     		.short	4096
 4951 02d0 0020     		.short	8192
 4952 02d2 0010     		.short	4096
 4953 02d4 0090     		.short	-28672
 4954 02d6 0060     		.short	24576
 4955 02d8 0020     		.short	8192
ARM GAS  C:\Users\arist\AppData\Local\Temp\ccSK2xlW.s 			page 119


 4956 02da 0060     		.short	24576
 4957 02dc 00A0     		.short	-24576
 4958 02de 00F0     		.short	-4096
 4959 02e0 0020     		.short	8192
 4960 02e2 0020     		.short	8192
 4961 02e4 0070     		.short	28672
 4962 02e6 00F0     		.short	-4096
 4963 02e8 0080     		.short	-32768
 4964 02ea 0080     		.short	-32768
 4965 02ec 0060     		.short	24576
 4966 02ee 0010     		.short	4096
 4967 02f0 0090     		.short	-28672
 4968 02f2 0060     		.short	24576
 4969 02f4 0060     		.short	24576
 4970 02f6 0090     		.short	-28672
 4971 02f8 0080     		.short	-32768
 4972 02fa 00E0     		.short	-8192
 4973 02fc 0090     		.short	-28672
 4974 02fe 0090     		.short	-28672
 4975 0300 0060     		.short	24576
 4976 0302 00E0     		.short	-8192
 4977 0304 0010     		.short	4096
 4978 0306 0010     		.short	4096
 4979 0308 0020     		.short	8192
 4980 030a 0040     		.short	16384
 4981 030c 0040     		.short	16384
 4982 030e 0040     		.short	16384
 4983 0310 0060     		.short	24576
 4984 0312 0090     		.short	-28672
 4985 0314 0090     		.short	-28672
 4986 0316 0060     		.short	24576
 4987 0318 0090     		.short	-28672
 4988 031a 0090     		.short	-28672
 4989 031c 0060     		.short	24576
 4990 031e 0060     		.short	24576
 4991 0320 0090     		.short	-28672
 4992 0322 0090     		.short	-28672
 4993 0324 0070     		.short	28672
 4994 0326 0010     		.short	4096
 4995 0328 0090     		.short	-28672
 4996 032a 0060     		.short	24576
 4997 032c 0000     		.short	0
 4998 032e 0000     		.short	0
 4999 0330 0020     		.short	8192
 5000 0332 0000     		.short	0
 5001 0334 0020     		.short	8192
 5002 0336 0000     		.short	0
 5003 0338 0000     		.short	0
 5004 033a 0000     		.short	0
 5005 033c 0000     		.short	0
 5006 033e 0020     		.short	8192
 5007 0340 0000     		.short	0
 5008 0342 0020     		.short	8192
 5009 0344 0020     		.short	8192
 5010 0346 0040     		.short	16384
 5011 0348 0000     		.short	0
 5012 034a 0020     		.short	8192
ARM GAS  C:\Users\arist\AppData\Local\Temp\ccSK2xlW.s 			page 120


 5013 034c 0040     		.short	16384
 5014 034e 0080     		.short	-32768
 5015 0350 0040     		.short	16384
 5016 0352 0020     		.short	8192
 5017 0354 0000     		.short	0
 5018 0356 0000     		.short	0
 5019 0358 0000     		.short	0
 5020 035a 0070     		.short	28672
 5021 035c 0000     		.short	0
 5022 035e 0070     		.short	28672
 5023 0360 0000     		.short	0
 5024 0362 0000     		.short	0
 5025 0364 0000     		.short	0
 5026 0366 0020     		.short	8192
 5027 0368 0010     		.short	4096
 5028 036a 0008     		.short	2048
 5029 036c 0010     		.short	4096
 5030 036e 0020     		.short	8192
 5031 0370 0000     		.short	0
 5032 0372 0060     		.short	24576
 5033 0374 0090     		.short	-28672
 5034 0376 0090     		.short	-28672
 5035 0378 0020     		.short	8192
 5036 037a 0020     		.short	8192
 5037 037c 0000     		.short	0
 5038 037e 0020     		.short	8192
 5039 0380 0070     		.short	28672
 5040 0382 0088     		.short	-30720
 5041 0384 0098     		.short	-26624
 5042 0386 00A8     		.short	-22528
 5043 0388 00B0     		.short	-20480
 5044 038a 0080     		.short	-32768
 5045 038c 0070     		.short	28672
 5046 038e 0070     		.short	28672
 5047 0390 0088     		.short	-30720
 5048 0392 0088     		.short	-30720
 5049 0394 00F8     		.short	-2048
 5050 0396 0088     		.short	-30720
 5051 0398 0088     		.short	-30720
 5052 039a 0088     		.short	-30720
 5053 039c 00F0     		.short	-4096
 5054 039e 0088     		.short	-30720
 5055 03a0 0088     		.short	-30720
 5056 03a2 00F0     		.short	-4096
 5057 03a4 0088     		.short	-30720
 5058 03a6 0088     		.short	-30720
 5059 03a8 00F0     		.short	-4096
 5060 03aa 0078     		.short	30720
 5061 03ac 0080     		.short	-32768
 5062 03ae 0080     		.short	-32768
 5063 03b0 0080     		.short	-32768
 5064 03b2 0080     		.short	-32768
 5065 03b4 0080     		.short	-32768
 5066 03b6 0078     		.short	30720
 5067 03b8 00E0     		.short	-8192
 5068 03ba 0090     		.short	-28672
 5069 03bc 0088     		.short	-30720
ARM GAS  C:\Users\arist\AppData\Local\Temp\ccSK2xlW.s 			page 121


 5070 03be 0088     		.short	-30720
 5071 03c0 0088     		.short	-30720
 5072 03c2 0090     		.short	-28672
 5073 03c4 00E0     		.short	-8192
 5074 03c6 0078     		.short	30720
 5075 03c8 0080     		.short	-32768
 5076 03ca 0080     		.short	-32768
 5077 03cc 00F0     		.short	-4096
 5078 03ce 0080     		.short	-32768
 5079 03d0 0080     		.short	-32768
 5080 03d2 0078     		.short	30720
 5081 03d4 0078     		.short	30720
 5082 03d6 0080     		.short	-32768
 5083 03d8 0080     		.short	-32768
 5084 03da 00F0     		.short	-4096
 5085 03dc 0080     		.short	-32768
 5086 03de 0080     		.short	-32768
 5087 03e0 0080     		.short	-32768
 5088 03e2 0070     		.short	28672
 5089 03e4 0088     		.short	-30720
 5090 03e6 0080     		.short	-32768
 5091 03e8 00B8     		.short	-18432
 5092 03ea 0088     		.short	-30720
 5093 03ec 0088     		.short	-30720
 5094 03ee 0070     		.short	28672
 5095 03f0 0088     		.short	-30720
 5096 03f2 0088     		.short	-30720
 5097 03f4 0088     		.short	-30720
 5098 03f6 0070     		.short	28672
 5099 03f8 0088     		.short	-30720
 5100 03fa 0088     		.short	-30720
 5101 03fc 0088     		.short	-30720
 5102 03fe 00F8     		.short	-2048
 5103 0400 0020     		.short	8192
 5104 0402 0020     		.short	8192
 5105 0404 0020     		.short	8192
 5106 0406 0020     		.short	8192
 5107 0408 0020     		.short	8192
 5108 040a 00F8     		.short	-2048
 5109 040c 00F8     		.short	-2048
 5110 040e 0020     		.short	8192
 5111 0410 0020     		.short	8192
 5112 0412 0020     		.short	8192
 5113 0414 00A0     		.short	-24576
 5114 0416 00A0     		.short	-24576
 5115 0418 0040     		.short	16384
 5116 041a 0090     		.short	-28672
 5117 041c 0090     		.short	-28672
 5118 041e 00A0     		.short	-24576
 5119 0420 00C0     		.short	-16384
 5120 0422 00A0     		.short	-24576
 5121 0424 0090     		.short	-28672
 5122 0426 0088     		.short	-30720
 5123 0428 0080     		.short	-32768
 5124 042a 0080     		.short	-32768
 5125 042c 0080     		.short	-32768
 5126 042e 0080     		.short	-32768
ARM GAS  C:\Users\arist\AppData\Local\Temp\ccSK2xlW.s 			page 122


 5127 0430 0080     		.short	-32768
 5128 0432 0080     		.short	-32768
 5129 0434 00F8     		.short	-2048
 5130 0436 0088     		.short	-30720
 5131 0438 00D8     		.short	-10240
 5132 043a 00A8     		.short	-22528
 5133 043c 00A8     		.short	-22528
 5134 043e 0088     		.short	-30720
 5135 0440 0088     		.short	-30720
 5136 0442 0088     		.short	-30720
 5137 0444 0088     		.short	-30720
 5138 0446 0088     		.short	-30720
 5139 0448 00C8     		.short	-14336
 5140 044a 00A8     		.short	-22528
 5141 044c 0098     		.short	-26624
 5142 044e 0088     		.short	-30720
 5143 0450 0088     		.short	-30720
 5144 0452 0070     		.short	28672
 5145 0454 0088     		.short	-30720
 5146 0456 0088     		.short	-30720
 5147 0458 0088     		.short	-30720
 5148 045a 0088     		.short	-30720
 5149 045c 0088     		.short	-30720
 5150 045e 0070     		.short	28672
 5151 0460 00F0     		.short	-4096
 5152 0462 0088     		.short	-30720
 5153 0464 0088     		.short	-30720
 5154 0466 00F0     		.short	-4096
 5155 0468 0080     		.short	-32768
 5156 046a 0080     		.short	-32768
 5157 046c 0080     		.short	-32768
 5158 046e 0070     		.short	28672
 5159 0470 0088     		.short	-30720
 5160 0472 0088     		.short	-30720
 5161 0474 0088     		.short	-30720
 5162 0476 00A8     		.short	-22528
 5163 0478 0070     		.short	28672
 5164 047a 0018     		.short	6144
 5165 047c 00F0     		.short	-4096
 5166 047e 0088     		.short	-30720
 5167 0480 0088     		.short	-30720
 5168 0482 00F0     		.short	-4096
 5169 0484 00A0     		.short	-24576
 5170 0486 0090     		.short	-28672
 5171 0488 0088     		.short	-30720
 5172 048a 0078     		.short	30720
 5173 048c 0080     		.short	-32768
 5174 048e 0080     		.short	-32768
 5175 0490 0070     		.short	28672
 5176 0492 0008     		.short	2048
 5177 0494 0008     		.short	2048
 5178 0496 00F0     		.short	-4096
 5179 0498 00F8     		.short	-2048
 5180 049a 0020     		.short	8192
 5181 049c 0020     		.short	8192
 5182 049e 0020     		.short	8192
 5183 04a0 0020     		.short	8192
ARM GAS  C:\Users\arist\AppData\Local\Temp\ccSK2xlW.s 			page 123


 5184 04a2 0020     		.short	8192
 5185 04a4 0020     		.short	8192
 5186 04a6 0088     		.short	-30720
 5187 04a8 0088     		.short	-30720
 5188 04aa 0088     		.short	-30720
 5189 04ac 0088     		.short	-30720
 5190 04ae 0088     		.short	-30720
 5191 04b0 0088     		.short	-30720
 5192 04b2 0070     		.short	28672
 5193 04b4 0088     		.short	-30720
 5194 04b6 0088     		.short	-30720
 5195 04b8 0088     		.short	-30720
 5196 04ba 0088     		.short	-30720
 5197 04bc 0088     		.short	-30720
 5198 04be 0050     		.short	20480
 5199 04c0 0020     		.short	8192
 5200 04c2 0088     		.short	-30720
 5201 04c4 0088     		.short	-30720
 5202 04c6 0088     		.short	-30720
 5203 04c8 00A8     		.short	-22528
 5204 04ca 00A8     		.short	-22528
 5205 04cc 00A8     		.short	-22528
 5206 04ce 0050     		.short	20480
 5207 04d0 0088     		.short	-30720
 5208 04d2 0088     		.short	-30720
 5209 04d4 0050     		.short	20480
 5210 04d6 0020     		.short	8192
 5211 04d8 0050     		.short	20480
 5212 04da 0088     		.short	-30720
 5213 04dc 0088     		.short	-30720
 5214 04de 0088     		.short	-30720
 5215 04e0 0088     		.short	-30720
 5216 04e2 0050     		.short	20480
 5217 04e4 0020     		.short	8192
 5218 04e6 0020     		.short	8192
 5219 04e8 0020     		.short	8192
 5220 04ea 0070     		.short	28672
 5221 04ec 00F8     		.short	-2048
 5222 04ee 0008     		.short	2048
 5223 04f0 0010     		.short	4096
 5224 04f2 0020     		.short	8192
 5225 04f4 0040     		.short	16384
 5226 04f6 0080     		.short	-32768
 5227 04f8 00F8     		.short	-2048
 5228 04fa 0070     		.short	28672
 5229 04fc 0040     		.short	16384
 5230 04fe 0040     		.short	16384
 5231 0500 0040     		.short	16384
 5232 0502 0040     		.short	16384
 5233 0504 0040     		.short	16384
 5234 0506 0070     		.short	28672
 5235 0508 0000     		.short	0
 5236 050a 0080     		.short	-32768
 5237 050c 0040     		.short	16384
 5238 050e 0020     		.short	8192
 5239 0510 0010     		.short	4096
 5240 0512 0008     		.short	2048
ARM GAS  C:\Users\arist\AppData\Local\Temp\ccSK2xlW.s 			page 124


 5241 0514 0000     		.short	0
 5242 0516 0020     		.short	8192
 5243 0518 0050     		.short	20480
 5244 051a 0000     		.short	0
 5245 051c 0000     		.short	0
 5246 051e 0000     		.short	0
 5247 0520 0000     		.short	0
 5248 0522 0000     		.short	0
 5249 0524 0000     		.short	0
 5250 0526 0000     		.short	0
 5251 0528 0000     		.short	0
 5252 052a 0000     		.short	0
 5253 052c 0000     		.short	0
 5254 052e 0000     		.short	0
 5255 0530 00F8     		.short	-2048
 5256 0532 0020     		.short	8192
 5257 0534 0010     		.short	4096
 5258 0536 0000     		.short	0
 5259 0538 0000     		.short	0
 5260 053a 0000     		.short	0
 5261 053c 0000     		.short	0
 5262 053e 0000     		.short	0
 5263 0540 0000     		.short	0
 5264 0542 0000     		.short	0
 5265 0544 0070     		.short	28672
 5266 0546 0008     		.short	2048
 5267 0548 0078     		.short	30720
 5268 054a 0088     		.short	-30720
 5269 054c 0070     		.short	28672
 5270 054e 0080     		.short	-32768
 5271 0550 0080     		.short	-32768
 5272 0552 00B0     		.short	-20480
 5273 0554 00C8     		.short	-14336
 5274 0556 0088     		.short	-30720
 5275 0558 0088     		.short	-30720
 5276 055a 0070     		.short	28672
 5277 055c 0000     		.short	0
 5278 055e 0000     		.short	0
 5279 0560 0078     		.short	30720
 5280 0562 0080     		.short	-32768
 5281 0564 0080     		.short	-32768
 5282 0566 0080     		.short	-32768
 5283 0568 0078     		.short	30720
 5284 056a 0008     		.short	2048
 5285 056c 0008     		.short	2048
 5286 056e 0068     		.short	26624
 5287 0570 0098     		.short	-26624
 5288 0572 0088     		.short	-30720
 5289 0574 0088     		.short	-30720
 5290 0576 0070     		.short	28672
 5291 0578 0000     		.short	0
 5292 057a 0000     		.short	0
 5293 057c 0070     		.short	28672
 5294 057e 0088     		.short	-30720
 5295 0580 00F0     		.short	-4096
 5296 0582 0080     		.short	-32768
 5297 0584 0070     		.short	28672
ARM GAS  C:\Users\arist\AppData\Local\Temp\ccSK2xlW.s 			page 125


 5298 0586 0018     		.short	6144
 5299 0588 0020     		.short	8192
 5300 058a 0070     		.short	28672
 5301 058c 0020     		.short	8192
 5302 058e 0020     		.short	8192
 5303 0590 0020     		.short	8192
 5304 0592 0070     		.short	28672
 5305 0594 0000     		.short	0
 5306 0596 0070     		.short	28672
 5307 0598 0088     		.short	-30720
 5308 059a 0088     		.short	-30720
 5309 059c 0078     		.short	30720
 5310 059e 0008     		.short	2048
 5311 05a0 0070     		.short	28672
 5312 05a2 0080     		.short	-32768
 5313 05a4 0080     		.short	-32768
 5314 05a6 00B0     		.short	-20480
 5315 05a8 00C8     		.short	-14336
 5316 05aa 0088     		.short	-30720
 5317 05ac 0088     		.short	-30720
 5318 05ae 0088     		.short	-30720
 5319 05b0 0000     		.short	0
 5320 05b2 0020     		.short	8192
 5321 05b4 0000     		.short	0
 5322 05b6 0060     		.short	24576
 5323 05b8 0020     		.short	8192
 5324 05ba 0020     		.short	8192
 5325 05bc 0070     		.short	28672
 5326 05be 0000     		.short	0
 5327 05c0 0010     		.short	4096
 5328 05c2 0000     		.short	0
 5329 05c4 0070     		.short	28672
 5330 05c6 0010     		.short	4096
 5331 05c8 0090     		.short	-28672
 5332 05ca 0060     		.short	24576
 5333 05cc 0080     		.short	-32768
 5334 05ce 0080     		.short	-32768
 5335 05d0 0090     		.short	-28672
 5336 05d2 00A0     		.short	-24576
 5337 05d4 00C0     		.short	-16384
 5338 05d6 00A0     		.short	-24576
 5339 05d8 0090     		.short	-28672
 5340 05da 0060     		.short	24576
 5341 05dc 0020     		.short	8192
 5342 05de 0020     		.short	8192
 5343 05e0 0020     		.short	8192
 5344 05e2 0020     		.short	8192
 5345 05e4 0020     		.short	8192
 5346 05e6 0070     		.short	28672
 5347 05e8 0000     		.short	0
 5348 05ea 0000     		.short	0
 5349 05ec 0050     		.short	20480
 5350 05ee 00A8     		.short	-22528
 5351 05f0 00A8     		.short	-22528
 5352 05f2 00A8     		.short	-22528
 5353 05f4 00A8     		.short	-22528
 5354 05f6 0000     		.short	0
ARM GAS  C:\Users\arist\AppData\Local\Temp\ccSK2xlW.s 			page 126


 5355 05f8 0000     		.short	0
 5356 05fa 00B0     		.short	-20480
 5357 05fc 00C8     		.short	-14336
 5358 05fe 0088     		.short	-30720
 5359 0600 0088     		.short	-30720
 5360 0602 0088     		.short	-30720
 5361 0604 0000     		.short	0
 5362 0606 0000     		.short	0
 5363 0608 0070     		.short	28672
 5364 060a 0088     		.short	-30720
 5365 060c 0088     		.short	-30720
 5366 060e 0088     		.short	-30720
 5367 0610 0070     		.short	28672
 5368 0612 0000     		.short	0
 5369 0614 0000     		.short	0
 5370 0616 0070     		.short	28672
 5371 0618 0088     		.short	-30720
 5372 061a 0088     		.short	-30720
 5373 061c 00F0     		.short	-4096
 5374 061e 0080     		.short	-32768
 5375 0620 0000     		.short	0
 5376 0622 0000     		.short	0
 5377 0624 0070     		.short	28672
 5378 0626 0088     		.short	-30720
 5379 0628 0088     		.short	-30720
 5380 062a 0078     		.short	30720
 5381 062c 0008     		.short	2048
 5382 062e 0000     		.short	0
 5383 0630 0000     		.short	0
 5384 0632 0068     		.short	26624
 5385 0634 0030     		.short	12288
 5386 0636 0020     		.short	8192
 5387 0638 0020     		.short	8192
 5388 063a 0070     		.short	28672
 5389 063c 0000     		.short	0
 5390 063e 0000     		.short	0
 5391 0640 0078     		.short	30720
 5392 0642 0080     		.short	-32768
 5393 0644 0070     		.short	28672
 5394 0646 0008     		.short	2048
 5395 0648 00F0     		.short	-4096
 5396 064a 0000     		.short	0
 5397 064c 0040     		.short	16384
 5398 064e 00F0     		.short	-4096
 5399 0650 0040     		.short	16384
 5400 0652 0040     		.short	16384
 5401 0654 0040     		.short	16384
 5402 0656 0030     		.short	12288
 5403 0658 0000     		.short	0
 5404 065a 0000     		.short	0
 5405 065c 0088     		.short	-30720
 5406 065e 0088     		.short	-30720
 5407 0660 0088     		.short	-30720
 5408 0662 0098     		.short	-26624
 5409 0664 0068     		.short	26624
 5410 0666 0000     		.short	0
 5411 0668 0000     		.short	0
ARM GAS  C:\Users\arist\AppData\Local\Temp\ccSK2xlW.s 			page 127


 5412 066a 0088     		.short	-30720
 5413 066c 0088     		.short	-30720
 5414 066e 0088     		.short	-30720
 5415 0670 0050     		.short	20480
 5416 0672 0020     		.short	8192
 5417 0674 0000     		.short	0
 5418 0676 0000     		.short	0
 5419 0678 0088     		.short	-30720
 5420 067a 0088     		.short	-30720
 5421 067c 00A8     		.short	-22528
 5422 067e 00A8     		.short	-22528
 5423 0680 0050     		.short	20480
 5424 0682 0000     		.short	0
 5425 0684 0000     		.short	0
 5426 0686 0088     		.short	-30720
 5427 0688 0050     		.short	20480
 5428 068a 0020     		.short	8192
 5429 068c 0050     		.short	20480
 5430 068e 0088     		.short	-30720
 5431 0690 0000     		.short	0
 5432 0692 0000     		.short	0
 5433 0694 0088     		.short	-30720
 5434 0696 0050     		.short	20480
 5435 0698 0020     		.short	8192
 5436 069a 0020     		.short	8192
 5437 069c 00C0     		.short	-16384
 5438 069e 0000     		.short	0
 5439 06a0 0000     		.short	0
 5440 06a2 00F8     		.short	-2048
 5441 06a4 0010     		.short	4096
 5442 06a6 0020     		.short	8192
 5443 06a8 0040     		.short	16384
 5444 06aa 00F8     		.short	-2048
 5445 06ac 0010     		.short	4096
 5446 06ae 0020     		.short	8192
 5447 06b0 0020     		.short	8192
 5448 06b2 0040     		.short	16384
 5449 06b4 0020     		.short	8192
 5450 06b6 0020     		.short	8192
 5451 06b8 0010     		.short	4096
 5452 06ba 0020     		.short	8192
 5453 06bc 0020     		.short	8192
 5454 06be 0020     		.short	8192
 5455 06c0 0020     		.short	8192
 5456 06c2 0020     		.short	8192
 5457 06c4 0020     		.short	8192
 5458 06c6 0020     		.short	8192
 5459 06c8 0040     		.short	16384
 5460 06ca 0020     		.short	8192
 5461 06cc 0020     		.short	8192
 5462 06ce 0010     		.short	4096
 5463 06d0 0020     		.short	8192
 5464 06d2 0020     		.short	8192
 5465 06d4 0040     		.short	16384
 5466 06d6 0000     		.short	0
 5467 06d8 0000     		.short	0
 5468 06da 0040     		.short	16384
ARM GAS  C:\Users\arist\AppData\Local\Temp\ccSK2xlW.s 			page 128


 5469 06dc 00A8     		.short	-22528
 5470 06de 0010     		.short	4096
 5471 06e0 0000     		.short	0
 5472 06e2 0000     		.short	0
 5473 06e4 0078     		.short	30720
 5474 06e6 0080     		.short	-32768
 5475 06e8 0080     		.short	-32768
 5476 06ea 0080     		.short	-32768
 5477 06ec 0080     		.short	-32768
 5478 06ee 0078     		.short	30720
 5479 06f0 0020     		.short	8192
 5480 06f2 0050     		.short	20480
 5481 06f4 0000     		.short	0
 5482 06f6 0088     		.short	-30720
 5483 06f8 0088     		.short	-30720
 5484 06fa 0088     		.short	-30720
 5485 06fc 0098     		.short	-26624
 5486 06fe 0068     		.short	26624
 5487 0700 0010     		.short	4096
 5488 0702 0020     		.short	8192
 5489 0704 0070     		.short	28672
 5490 0706 0088     		.short	-30720
 5491 0708 00F0     		.short	-4096
 5492 070a 0080     		.short	-32768
 5493 070c 0070     		.short	28672
 5494 070e 0020     		.short	8192
 5495 0710 0050     		.short	20480
 5496 0712 0070     		.short	28672
 5497 0714 0008     		.short	2048
 5498 0716 0078     		.short	30720
 5499 0718 0088     		.short	-30720
 5500 071a 0070     		.short	28672
 5501 071c 0050     		.short	20480
 5502 071e 0000     		.short	0
 5503 0720 0070     		.short	28672
 5504 0722 0008     		.short	2048
 5505 0724 0078     		.short	30720
 5506 0726 0088     		.short	-30720
 5507 0728 0070     		.short	28672
 5508 072a 0040     		.short	16384
 5509 072c 0020     		.short	8192
 5510 072e 0070     		.short	28672
 5511 0730 0008     		.short	2048
 5512 0732 0078     		.short	30720
 5513 0734 0088     		.short	-30720
 5514 0736 0070     		.short	28672
 5515 0738 0020     		.short	8192
 5516 073a 0000     		.short	0
 5517 073c 0070     		.short	28672
 5518 073e 0008     		.short	2048
 5519 0740 0078     		.short	30720
 5520 0742 0088     		.short	-30720
 5521 0744 0070     		.short	28672
 5522 0746 0000     		.short	0
 5523 0748 0000     		.short	0
 5524 074a 0078     		.short	30720
 5525 074c 0080     		.short	-32768
ARM GAS  C:\Users\arist\AppData\Local\Temp\ccSK2xlW.s 			page 129


 5526 074e 0080     		.short	-32768
 5527 0750 0078     		.short	30720
 5528 0752 0020     		.short	8192
 5529 0754 0020     		.short	8192
 5530 0756 0050     		.short	20480
 5531 0758 0070     		.short	28672
 5532 075a 0088     		.short	-30720
 5533 075c 00F0     		.short	-4096
 5534 075e 0080     		.short	-32768
 5535 0760 0070     		.short	28672
 5536 0762 0050     		.short	20480
 5537 0764 0000     		.short	0
 5538 0766 0070     		.short	28672
 5539 0768 0088     		.short	-30720
 5540 076a 00F0     		.short	-4096
 5541 076c 0080     		.short	-32768
 5542 076e 0070     		.short	28672
 5543 0770 0040     		.short	16384
 5544 0772 0020     		.short	8192
 5545 0774 0070     		.short	28672
 5546 0776 0088     		.short	-30720
 5547 0778 00F0     		.short	-4096
 5548 077a 0080     		.short	-32768
 5549 077c 0070     		.short	28672
 5550 077e 0050     		.short	20480
 5551 0780 0000     		.short	0
 5552 0782 0000     		.short	0
 5553 0784 0060     		.short	24576
 5554 0786 0020     		.short	8192
 5555 0788 0020     		.short	8192
 5556 078a 0070     		.short	28672
 5557 078c 0020     		.short	8192
 5558 078e 0050     		.short	20480
 5559 0790 0000     		.short	0
 5560 0792 0060     		.short	24576
 5561 0794 0020     		.short	8192
 5562 0796 0020     		.short	8192
 5563 0798 0070     		.short	28672
 5564 079a 0040     		.short	16384
 5565 079c 0020     		.short	8192
 5566 079e 0000     		.short	0
 5567 07a0 0060     		.short	24576
 5568 07a2 0020     		.short	8192
 5569 07a4 0020     		.short	8192
 5570 07a6 0070     		.short	28672
 5571 07a8 0050     		.short	20480
 5572 07aa 0000     		.short	0
 5573 07ac 0070     		.short	28672
 5574 07ae 0088     		.short	-30720
 5575 07b0 00F8     		.short	-2048
 5576 07b2 0088     		.short	-30720
 5577 07b4 0088     		.short	-30720
 5578 07b6 0020     		.short	8192
 5579 07b8 0000     		.short	0
 5580 07ba 0070     		.short	28672
 5581 07bc 0088     		.short	-30720
 5582 07be 00F8     		.short	-2048
ARM GAS  C:\Users\arist\AppData\Local\Temp\ccSK2xlW.s 			page 130


 5583 07c0 0088     		.short	-30720
 5584 07c2 0088     		.short	-30720
 5585 07c4 0010     		.short	4096
 5586 07c6 0020     		.short	8192
 5587 07c8 00F8     		.short	-2048
 5588 07ca 0080     		.short	-32768
 5589 07cc 00F0     		.short	-4096
 5590 07ce 0080     		.short	-32768
 5591 07d0 00F8     		.short	-2048
 5592 07d2 0000     		.short	0
 5593 07d4 0000     		.short	0
 5594 07d6 00D0     		.short	-12288
 5595 07d8 0028     		.short	10240
 5596 07da 0070     		.short	28672
 5597 07dc 00A0     		.short	-24576
 5598 07de 0058     		.short	22528
 5599 07e0 0078     		.short	30720
 5600 07e2 00A0     		.short	-24576
 5601 07e4 00A0     		.short	-24576
 5602 07e6 00F8     		.short	-2048
 5603 07e8 00A0     		.short	-24576
 5604 07ea 00A0     		.short	-24576
 5605 07ec 00B8     		.short	-18432
 5606 07ee 0020     		.short	8192
 5607 07f0 0050     		.short	20480
 5608 07f2 0070     		.short	28672
 5609 07f4 0088     		.short	-30720
 5610 07f6 0088     		.short	-30720
 5611 07f8 0088     		.short	-30720
 5612 07fa 0070     		.short	28672
 5613 07fc 0050     		.short	20480
 5614 07fe 0000     		.short	0
 5615 0800 0070     		.short	28672
 5616 0802 0088     		.short	-30720
 5617 0804 0088     		.short	-30720
 5618 0806 0088     		.short	-30720
 5619 0808 0070     		.short	28672
 5620 080a 0040     		.short	16384
 5621 080c 0020     		.short	8192
 5622 080e 0070     		.short	28672
 5623 0810 0088     		.short	-30720
 5624 0812 0088     		.short	-30720
 5625 0814 0088     		.short	-30720
 5626 0816 0070     		.short	28672
 5627 0818 0020     		.short	8192
 5628 081a 0050     		.short	20480
 5629 081c 0088     		.short	-30720
 5630 081e 0088     		.short	-30720
 5631 0820 0088     		.short	-30720
 5632 0822 0098     		.short	-26624
 5633 0824 0068     		.short	26624
 5634 0826 0040     		.short	16384
 5635 0828 0020     		.short	8192
 5636 082a 0088     		.short	-30720
 5637 082c 0088     		.short	-30720
 5638 082e 0088     		.short	-30720
 5639 0830 0098     		.short	-26624
ARM GAS  C:\Users\arist\AppData\Local\Temp\ccSK2xlW.s 			page 131


 5640 0832 0068     		.short	26624
 5641 0834 0050     		.short	20480
 5642 0836 0000     		.short	0
 5643 0838 0088     		.short	-30720
 5644 083a 0050     		.short	20480
 5645 083c 0020     		.short	8192
 5646 083e 0020     		.short	8192
 5647 0840 00C0     		.short	-16384
 5648 0842 0050     		.short	20480
 5649 0844 0070     		.short	28672
 5650 0846 0088     		.short	-30720
 5651 0848 0088     		.short	-30720
 5652 084a 0088     		.short	-30720
 5653 084c 0088     		.short	-30720
 5654 084e 0070     		.short	28672
 5655 0850 0050     		.short	20480
 5656 0852 0088     		.short	-30720
 5657 0854 0088     		.short	-30720
 5658 0856 0088     		.short	-30720
 5659 0858 0088     		.short	-30720
 5660 085a 0088     		.short	-30720
 5661 085c 0070     		.short	28672
 5662 085e 0000     		.short	0
 5663 0860 0000     		.short	0
 5664 0862 0070     		.short	28672
 5665 0864 0098     		.short	-26624
 5666 0866 00A8     		.short	-22528
 5667 0868 00C8     		.short	-14336
 5668 086a 0070     		.short	28672
 5669 086c 0030     		.short	12288
 5670 086e 0040     		.short	16384
 5671 0870 0020     		.short	8192
 5672 0872 00F0     		.short	-4096
 5673 0874 0040     		.short	16384
 5674 0876 0080     		.short	-32768
 5675 0878 00F8     		.short	-2048
 5676 087a 0070     		.short	28672
 5677 087c 0088     		.short	-30720
 5678 087e 0098     		.short	-26624
 5679 0880 00A8     		.short	-22528
 5680 0882 00C8     		.short	-14336
 5681 0884 0088     		.short	-30720
 5682 0886 0070     		.short	28672
 5683 0888 0050     		.short	20480
 5684 088a 0020     		.short	8192
 5685 088c 0050     		.short	20480
 5686 088e 0000     		.short	0
 5687 0890 0000     		.short	0
 5688 0892 0000     		.short	0
 5689 0894 0000     		.short	0
 5690 0896 0018     		.short	6144
 5691 0898 0020     		.short	8192
 5692 089a 0020     		.short	8192
 5693 089c 0070     		.short	28672
 5694 089e 0020     		.short	8192
 5695 08a0 0020     		.short	8192
 5696 08a2 00C0     		.short	-16384
ARM GAS  C:\Users\arist\AppData\Local\Temp\ccSK2xlW.s 			page 132


 5697 08a4 0010     		.short	4096
 5698 08a6 0020     		.short	8192
 5699 08a8 0070     		.short	28672
 5700 08aa 0008     		.short	2048
 5701 08ac 0078     		.short	30720
 5702 08ae 0088     		.short	-30720
 5703 08b0 0070     		.short	28672
 5704 08b2 0010     		.short	4096
 5705 08b4 0020     		.short	8192
 5706 08b6 0000     		.short	0
 5707 08b8 0060     		.short	24576
 5708 08ba 0020     		.short	8192
 5709 08bc 0020     		.short	8192
 5710 08be 0070     		.short	28672
 5711 08c0 0010     		.short	4096
 5712 08c2 0020     		.short	8192
 5713 08c4 0070     		.short	28672
 5714 08c6 0088     		.short	-30720
 5715 08c8 0088     		.short	-30720
 5716 08ca 0088     		.short	-30720
 5717 08cc 0070     		.short	28672
 5718 08ce 0010     		.short	4096
 5719 08d0 0020     		.short	8192
 5720 08d2 0088     		.short	-30720
 5721 08d4 0088     		.short	-30720
 5722 08d6 0088     		.short	-30720
 5723 08d8 0098     		.short	-26624
 5724 08da 0068     		.short	26624
 5725 08dc 0028     		.short	10240
 5726 08de 0050     		.short	20480
 5727 08e0 00B0     		.short	-20480
 5728 08e2 00C8     		.short	-14336
 5729 08e4 0088     		.short	-30720
 5730 08e6 0088     		.short	-30720
 5731 08e8 0088     		.short	-30720
 5732 08ea 0028     		.short	10240
 5733 08ec 0050     		.short	20480
 5734 08ee 0088     		.short	-30720
 5735 08f0 00C8     		.short	-14336
 5736 08f2 00A8     		.short	-22528
 5737 08f4 0098     		.short	-26624
 5738 08f6 0088     		.short	-30720
 5739 08f8 0060     		.short	24576
 5740 08fa 0010     		.short	4096
 5741 08fc 0030     		.short	12288
 5742 08fe 0050     		.short	20480
 5743 0900 0020     		.short	8192
 5744 0902 0000     		.short	0
 5745 0904 0000     		.short	0
 5746 0906 0020     		.short	8192
 5747 0908 0050     		.short	20480
 5748 090a 0020     		.short	8192
 5749 090c 0000     		.short	0
 5750 090e 0000     		.short	0
 5751 0910 0000     		.short	0
 5752 0912 0000     		.short	0
 5753 0914 0020     		.short	8192
ARM GAS  C:\Users\arist\AppData\Local\Temp\ccSK2xlW.s 			page 133


 5754 0916 0000     		.short	0
 5755 0918 0020     		.short	8192
 5756 091a 0020     		.short	8192
 5757 091c 0090     		.short	-28672
 5758 091e 0090     		.short	-28672
 5759 0920 0060     		.short	24576
 5760 0922 0000     		.short	0
 5761 0924 0070     		.short	28672
 5762 0926 00A8     		.short	-22528
 5763 0928 00B8     		.short	-18432
 5764 092a 00A8     		.short	-22528
 5765 092c 0070     		.short	28672
 5766 092e 0000     		.short	0
 5767 0930 0000     		.short	0
 5768 0932 0000     		.short	0
 5769 0934 0000     		.short	0
 5770 0936 00F8     		.short	-2048
 5771 0938 0008     		.short	2048
 5772 093a 0000     		.short	0
 5773 093c 0000     		.short	0
 5774 093e 0000     		.short	0
 5775 0940 0048     		.short	18432
 5776 0942 0010     		.short	4096
 5777 0944 0020     		.short	8192
 5778 0946 0048     		.short	18432
 5779 0948 0088     		.short	-30720
 5780 094a 0000     		.short	0
 5781 094c 0000     		.short	0
 5782 094e 0048     		.short	18432
 5783 0950 0010     		.short	4096
 5784 0952 0020     		.short	8192
 5785 0954 0058     		.short	22528
 5786 0956 0098     		.short	-26624
 5787 0958 0000     		.short	0
 5788 095a 0000     		.short	0
 5789 095c 0000     		.short	0
 5790 095e 0020     		.short	8192
 5791 0960 0000     		.short	0
 5792 0962 0020     		.short	8192
 5793 0964 0020     		.short	8192
 5794 0966 0020     		.short	8192
 5795 0968 0000     		.short	0
 5796 096a 0028     		.short	10240
 5797 096c 0050     		.short	20480
 5798 096e 00A0     		.short	-24576
 5799 0970 0050     		.short	20480
 5800 0972 0028     		.short	10240
 5801 0974 0000     		.short	0
 5802 0976 0000     		.short	0
 5803 0978 00A0     		.short	-24576
 5804 097a 0050     		.short	20480
 5805 097c 0028     		.short	10240
 5806 097e 0050     		.short	20480
 5807 0980 00A0     		.short	-24576
 5808 0982 0000     		.short	0
 5809 0984 00A8     		.short	-22528
 5810 0986 0050     		.short	20480
ARM GAS  C:\Users\arist\AppData\Local\Temp\ccSK2xlW.s 			page 134


 5811 0988 00A8     		.short	-22528
 5812 098a 0050     		.short	20480
 5813 098c 00A8     		.short	-22528
 5814 098e 0050     		.short	20480
 5815 0990 00A8     		.short	-22528
 5816 0992 00F8     		.short	-2048
 5817 0994 0000     		.short	0
 5818 0996 0000     		.short	0
 5819 0998 00F8     		.short	-2048
 5820 099a 0000     		.short	0
 5821 099c 0000     		.short	0
 5822 099e 00F8     		.short	-2048
 5823 09a0 00F8     		.short	-2048
 5824 09a2 0000     		.short	0
 5825 09a4 00F8     		.short	-2048
 5826 09a6 0000     		.short	0
 5827 09a8 00F8     		.short	-2048
 5828 09aa 0000     		.short	0
 5829 09ac 00F8     		.short	-2048
 5830 09ae 0020     		.short	8192
 5831 09b0 0020     		.short	8192
 5832 09b2 0020     		.short	8192
 5833 09b4 0020     		.short	8192
 5834 09b6 0020     		.short	8192
 5835 09b8 0020     		.short	8192
 5836 09ba 0020     		.short	8192
 5837 09bc 0020     		.short	8192
 5838 09be 0020     		.short	8192
 5839 09c0 0020     		.short	8192
 5840 09c2 00E0     		.short	-8192
 5841 09c4 0020     		.short	8192
 5842 09c6 0020     		.short	8192
 5843 09c8 0020     		.short	8192
 5844 09ca 0010     		.short	4096
 5845 09cc 0020     		.short	8192
 5846 09ce 0070     		.short	28672
 5847 09d0 0088     		.short	-30720
 5848 09d2 00F8     		.short	-2048
 5849 09d4 0088     		.short	-30720
 5850 09d6 0088     		.short	-30720
 5851 09d8 0020     		.short	8192
 5852 09da 0050     		.short	20480
 5853 09dc 0070     		.short	28672
 5854 09de 0088     		.short	-30720
 5855 09e0 00F8     		.short	-2048
 5856 09e2 0088     		.short	-30720
 5857 09e4 0088     		.short	-30720
 5858 09e6 0040     		.short	16384
 5859 09e8 0020     		.short	8192
 5860 09ea 0070     		.short	28672
 5861 09ec 0088     		.short	-30720
 5862 09ee 00F8     		.short	-2048
 5863 09f0 0088     		.short	-30720
 5864 09f2 0088     		.short	-30720
 5865 09f4 0000     		.short	0
 5866 09f6 0070     		.short	28672
 5867 09f8 00A8     		.short	-22528
ARM GAS  C:\Users\arist\AppData\Local\Temp\ccSK2xlW.s 			page 135


 5868 09fa 00C8     		.short	-14336
 5869 09fc 00A8     		.short	-22528
 5870 09fe 0070     		.short	28672
 5871 0a00 0000     		.short	0
 5872 0a02 0050     		.short	20480
 5873 0a04 0050     		.short	20480
 5874 0a06 00D0     		.short	-12288
 5875 0a08 0010     		.short	4096
 5876 0a0a 00D0     		.short	-12288
 5877 0a0c 0050     		.short	20480
 5878 0a0e 0050     		.short	20480
 5879 0a10 0050     		.short	20480
 5880 0a12 0050     		.short	20480
 5881 0a14 0050     		.short	20480
 5882 0a16 0050     		.short	20480
 5883 0a18 0050     		.short	20480
 5884 0a1a 0050     		.short	20480
 5885 0a1c 0050     		.short	20480
 5886 0a1e 0000     		.short	0
 5887 0a20 0000     		.short	0
 5888 0a22 00F0     		.short	-4096
 5889 0a24 0010     		.short	4096
 5890 0a26 00D0     		.short	-12288
 5891 0a28 0050     		.short	20480
 5892 0a2a 0050     		.short	20480
 5893 0a2c 0050     		.short	20480
 5894 0a2e 0050     		.short	20480
 5895 0a30 00D0     		.short	-12288
 5896 0a32 0001     		.short	256
 5897 0a34 00F0     		.short	-4096
 5898 0a36 0000     		.short	0
 5899 0a38 0000     		.short	0
 5900 0a3a 0002     		.short	512
 5901 0a3c 0078     		.short	30720
 5902 0a3e 0080     		.short	-32768
 5903 0a40 0080     		.short	-32768
 5904 0a42 0080     		.short	-32768
 5905 0a44 0078     		.short	30720
 5906 0a46 0020     		.short	8192
 5907 0a48 0050     		.short	20480
 5908 0a4a 0050     		.short	20480
 5909 0a4c 0020     		.short	8192
 5910 0a4e 0070     		.short	28672
 5911 0a50 0020     		.short	8192
 5912 0a52 0070     		.short	28672
 5913 0a54 0020     		.short	8192
 5914 0a56 0000     		.short	0
 5915 0a58 0000     		.short	0
 5916 0a5a 0000     		.short	0
 5917 0a5c 00E0     		.short	-8192
 5918 0a5e 0020     		.short	8192
 5919 0a60 0020     		.short	8192
 5920 0a62 0020     		.short	8192
 5921 0a64 0020     		.short	8192
 5922 0a66 0020     		.short	8192
 5923 0a68 0020     		.short	8192
 5924 0a6a 0038     		.short	14336
ARM GAS  C:\Users\arist\AppData\Local\Temp\ccSK2xlW.s 			page 136


 5925 0a6c 0000     		.short	0
 5926 0a6e 0000     		.short	0
 5927 0a70 0000     		.short	0
 5928 0a72 0020     		.short	8192
 5929 0a74 0020     		.short	8192
 5930 0a76 0020     		.short	8192
 5931 0a78 00F8     		.short	-2048
 5932 0a7a 0000     		.short	0
 5933 0a7c 0000     		.short	0
 5934 0a7e 0000     		.short	0
 5935 0a80 0000     		.short	0
 5936 0a82 0000     		.short	0
 5937 0a84 0000     		.short	0
 5938 0a86 00F8     		.short	-2048
 5939 0a88 0020     		.short	8192
 5940 0a8a 0020     		.short	8192
 5941 0a8c 0020     		.short	8192
 5942 0a8e 0020     		.short	8192
 5943 0a90 0020     		.short	8192
 5944 0a92 0020     		.short	8192
 5945 0a94 0038     		.short	14336
 5946 0a96 0020     		.short	8192
 5947 0a98 0020     		.short	8192
 5948 0a9a 0020     		.short	8192
 5949 0a9c 0000     		.short	0
 5950 0a9e 0000     		.short	0
 5951 0aa0 0000     		.short	0
 5952 0aa2 00F8     		.short	-2048
 5953 0aa4 0000     		.short	0
 5954 0aa6 0000     		.short	0
 5955 0aa8 0000     		.short	0
 5956 0aaa 0020     		.short	8192
 5957 0aac 0020     		.short	8192
 5958 0aae 0020     		.short	8192
 5959 0ab0 00F8     		.short	-2048
 5960 0ab2 0020     		.short	8192
 5961 0ab4 0020     		.short	8192
 5962 0ab6 0020     		.short	8192
 5963 0ab8 0028     		.short	10240
 5964 0aba 0050     		.short	20480
 5965 0abc 0070     		.short	28672
 5966 0abe 0008     		.short	2048
 5967 0ac0 0078     		.short	30720
 5968 0ac2 0088     		.short	-30720
 5969 0ac4 0070     		.short	28672
 5970 0ac6 0028     		.short	10240
 5971 0ac8 0050     		.short	20480
 5972 0aca 0070     		.short	28672
 5973 0acc 0088     		.short	-30720
 5974 0ace 00F8     		.short	-2048
 5975 0ad0 0088     		.short	-30720
 5976 0ad2 0088     		.short	-30720
 5977 0ad4 0050     		.short	20480
 5978 0ad6 0050     		.short	20480
 5979 0ad8 0058     		.short	22528
 5980 0ada 0040     		.short	16384
 5981 0adc 0078     		.short	30720
ARM GAS  C:\Users\arist\AppData\Local\Temp\ccSK2xlW.s 			page 137


 5982 0ade 0000     		.short	0
 5983 0ae0 0000     		.short	0
 5984 0ae2 0000     		.short	0
 5985 0ae4 0000     		.short	0
 5986 0ae6 0078     		.short	30720
 5987 0ae8 0040     		.short	16384
 5988 0aea 0058     		.short	22528
 5989 0aec 0050     		.short	20480
 5990 0aee 0050     		.short	20480
 5991 0af0 0050     		.short	20480
 5992 0af2 0050     		.short	20480
 5993 0af4 00D8     		.short	-10240
 5994 0af6 0000     		.short	0
 5995 0af8 00F8     		.short	-2048
 5996 0afa 0000     		.short	0
 5997 0afc 0000     		.short	0
 5998 0afe 0000     		.short	0
 5999 0b00 0000     		.short	0
 6000 0b02 00F8     		.short	-2048
 6001 0b04 0000     		.short	0
 6002 0b06 00D8     		.short	-10240
 6003 0b08 0050     		.short	20480
 6004 0b0a 0050     		.short	20480
 6005 0b0c 0050     		.short	20480
 6006 0b0e 0050     		.short	20480
 6007 0b10 0058     		.short	22528
 6008 0b12 0040     		.short	16384
 6009 0b14 0058     		.short	22528
 6010 0b16 0050     		.short	20480
 6011 0b18 0050     		.short	20480
 6012 0b1a 0000     		.short	0
 6013 0b1c 0000     		.short	0
 6014 0b1e 00F8     		.short	-2048
 6015 0b20 0000     		.short	0
 6016 0b22 00F8     		.short	-2048
 6017 0b24 0000     		.short	0
 6018 0b26 0000     		.short	0
 6019 0b28 0050     		.short	20480
 6020 0b2a 0050     		.short	20480
 6021 0b2c 00D8     		.short	-10240
 6022 0b2e 0000     		.short	0
 6023 0b30 00D8     		.short	-10240
 6024 0b32 0050     		.short	20480
 6025 0b34 0050     		.short	20480
 6026 0b36 00F8     		.short	-2048
 6027 0b38 0050     		.short	20480
 6028 0b3a 0050     		.short	20480
 6029 0b3c 00F8     		.short	-2048
 6030 0b3e 0000     		.short	0
 6031 0b40 0000     		.short	0
 6032 0b42 0000     		.short	0
 6033 0b44 0050     		.short	20480
 6034 0b46 0020     		.short	8192
 6035 0b48 0070     		.short	28672
 6036 0b4a 0088     		.short	-30720
 6037 0b4c 0088     		.short	-30720
 6038 0b4e 0088     		.short	-30720
ARM GAS  C:\Users\arist\AppData\Local\Temp\ccSK2xlW.s 			page 138


 6039 0b50 0070     		.short	28672
 6040 0b52 0070     		.short	28672
 6041 0b54 0048     		.short	18432
 6042 0b56 0048     		.short	18432
 6043 0b58 00E8     		.short	-6144
 6044 0b5a 0048     		.short	18432
 6045 0b5c 0048     		.short	18432
 6046 0b5e 0070     		.short	28672
 6047 0b60 0020     		.short	8192
 6048 0b62 0050     		.short	20480
 6049 0b64 00F8     		.short	-2048
 6050 0b66 0080     		.short	-32768
 6051 0b68 00F0     		.short	-4096
 6052 0b6a 0080     		.short	-32768
 6053 0b6c 00F8     		.short	-2048
 6054 0b6e 0050     		.short	20480
 6055 0b70 0000     		.short	0
 6056 0b72 00F8     		.short	-2048
 6057 0b74 0080     		.short	-32768
 6058 0b76 00F0     		.short	-4096
 6059 0b78 0080     		.short	-32768
 6060 0b7a 00F8     		.short	-2048
 6061 0b7c 0040     		.short	16384
 6062 0b7e 0020     		.short	8192
 6063 0b80 00F8     		.short	-2048
 6064 0b82 0080     		.short	-32768
 6065 0b84 00F0     		.short	-4096
 6066 0b86 0080     		.short	-32768
 6067 0b88 00F8     		.short	-2048
 6068 0b8a 0000     		.short	0
 6069 0b8c 0000     		.short	0
 6070 0b8e 0000     		.short	0
 6071 0b90 0060     		.short	24576
 6072 0b92 0020     		.short	8192
 6073 0b94 0020     		.short	8192
 6074 0b96 0070     		.short	28672
 6075 0b98 0010     		.short	4096
 6076 0b9a 0020     		.short	8192
 6077 0b9c 00F8     		.short	-2048
 6078 0b9e 0020     		.short	8192
 6079 0ba0 0020     		.short	8192
 6080 0ba2 0020     		.short	8192
 6081 0ba4 00F8     		.short	-2048
 6082 0ba6 0020     		.short	8192
 6083 0ba8 0050     		.short	20480
 6084 0baa 00F8     		.short	-2048
 6085 0bac 0020     		.short	8192
 6086 0bae 0020     		.short	8192
 6087 0bb0 0020     		.short	8192
 6088 0bb2 00F8     		.short	-2048
 6089 0bb4 0050     		.short	20480
 6090 0bb6 0000     		.short	0
 6091 0bb8 00F8     		.short	-2048
 6092 0bba 0020     		.short	8192
 6093 0bbc 0020     		.short	8192
 6094 0bbe 0020     		.short	8192
 6095 0bc0 00F8     		.short	-2048
ARM GAS  C:\Users\arist\AppData\Local\Temp\ccSK2xlW.s 			page 139


 6096 0bc2 0020     		.short	8192
 6097 0bc4 0020     		.short	8192
 6098 0bc6 0020     		.short	8192
 6099 0bc8 00E0     		.short	-8192
 6100 0bca 0000     		.short	0
 6101 0bcc 0000     		.short	0
 6102 0bce 0000     		.short	0
 6103 0bd0 0000     		.short	0
 6104 0bd2 0000     		.short	0
 6105 0bd4 0000     		.short	0
 6106 0bd6 0038     		.short	14336
 6107 0bd8 0020     		.short	8192
 6108 0bda 0020     		.short	8192
 6109 0bdc 0020     		.short	8192
 6110 0bde 00F8     		.short	-2048
 6111 0be0 00F8     		.short	-2048
 6112 0be2 00F8     		.short	-2048
 6113 0be4 00F8     		.short	-2048
 6114 0be6 00F8     		.short	-2048
 6115 0be8 00F8     		.short	-2048
 6116 0bea 00F8     		.short	-2048
 6117 0bec 0000     		.short	0
 6118 0bee 0000     		.short	0
 6119 0bf0 0000     		.short	0
 6120 0bf2 0000     		.short	0
 6121 0bf4 00F8     		.short	-2048
 6122 0bf6 00F8     		.short	-2048
 6123 0bf8 00F8     		.short	-2048
 6124 0bfa 0000     		.short	0
 6125 0bfc 0020     		.short	8192
 6126 0bfe 0020     		.short	8192
 6127 0c00 0000     		.short	0
 6128 0c02 0020     		.short	8192
 6129 0c04 0020     		.short	8192
 6130 0c06 0000     		.short	0
 6131 0c08 0000     		.short	0
 6132 0c0a 0000     		.short	0
 6133 0c0c 00F8     		.short	-2048
 6134 0c0e 00F8     		.short	-2048
 6135 0c10 00F8     		.short	-2048
 6136 0c12 0000     		.short	0
 6137 0c14 0000     		.short	0
 6138 0c16 00F8     		.short	-2048
 6139 0c18 00F8     		.short	-2048
 6140 0c1a 00F8     		.short	-2048
 6141 0c1c 00F8     		.short	-2048
 6142 0c1e 0000     		.short	0
 6143 0c20 0000     		.short	0
 6144 0c22 0000     		.short	0
 6145 0c24 0010     		.short	4096
 6146 0c26 0020     		.short	8192
 6147 0c28 0078     		.short	30720
 6148 0c2a 0088     		.short	-30720
 6149 0c2c 0088     		.short	-30720
 6150 0c2e 0088     		.short	-30720
 6151 0c30 0070     		.short	28672
 6152 0c32 00E0     		.short	-8192
ARM GAS  C:\Users\arist\AppData\Local\Temp\ccSK2xlW.s 			page 140


 6153 0c34 0090     		.short	-28672
 6154 0c36 00E0     		.short	-8192
 6155 0c38 0090     		.short	-28672
 6156 0c3a 0088     		.short	-30720
 6157 0c3c 0088     		.short	-30720
 6158 0c3e 00F0     		.short	-4096
 6159 0c40 0020     		.short	8192
 6160 0c42 0050     		.short	20480
 6161 0c44 0078     		.short	30720
 6162 0c46 0088     		.short	-30720
 6163 0c48 0088     		.short	-30720
 6164 0c4a 0088     		.short	-30720
 6165 0c4c 0070     		.short	28672
 6166 0c4e 0040     		.short	16384
 6167 0c50 0020     		.short	8192
 6168 0c52 0078     		.short	30720
 6169 0c54 0088     		.short	-30720
 6170 0c56 0088     		.short	-30720
 6171 0c58 0088     		.short	-30720
 6172 0c5a 0070     		.short	28672
 6173 0c5c 0028     		.short	10240
 6174 0c5e 0050     		.short	20480
 6175 0c60 0078     		.short	30720
 6176 0c62 0088     		.short	-30720
 6177 0c64 0088     		.short	-30720
 6178 0c66 0088     		.short	-30720
 6179 0c68 0070     		.short	28672
 6180 0c6a 0028     		.short	10240
 6181 0c6c 0050     		.short	20480
 6182 0c6e 0078     		.short	30720
 6183 0c70 0088     		.short	-30720
 6184 0c72 0088     		.short	-30720
 6185 0c74 0088     		.short	-30720
 6186 0c76 0070     		.short	28672
 6187 0c78 0000     		.short	0
 6188 0c7a 0000     		.short	0
 6189 0c7c 0088     		.short	-30720
 6190 0c7e 0088     		.short	-30720
 6191 0c80 00C8     		.short	-14336
 6192 0c82 00B0     		.short	-20480
 6193 0c84 0080     		.short	-32768
 6194 0c86 00C0     		.short	-16384
 6195 0c88 0050     		.short	20480
 6196 0c8a 0068     		.short	26624
 6197 0c8c 0068     		.short	26624
 6198 0c8e 0050     		.short	20480
 6199 0c90 0040     		.short	16384
 6200 0c92 00E0     		.short	-8192
 6201 0c94 00E0     		.short	-8192
 6202 0c96 0040     		.short	16384
 6203 0c98 0070     		.short	28672
 6204 0c9a 0048     		.short	18432
 6205 0c9c 0070     		.short	28672
 6206 0c9e 0040     		.short	16384
 6207 0ca0 00E0     		.short	-8192
 6208 0ca2 0010     		.short	4096
 6209 0ca4 00A8     		.short	-22528
ARM GAS  C:\Users\arist\AppData\Local\Temp\ccSK2xlW.s 			page 141


 6210 0ca6 0088     		.short	-30720
 6211 0ca8 0088     		.short	-30720
 6212 0caa 0088     		.short	-30720
 6213 0cac 0088     		.short	-30720
 6214 0cae 0070     		.short	28672
 6215 0cb0 0020     		.short	8192
 6216 0cb2 0050     		.short	20480
 6217 0cb4 0088     		.short	-30720
 6218 0cb6 0088     		.short	-30720
 6219 0cb8 0088     		.short	-30720
 6220 0cba 0088     		.short	-30720
 6221 0cbc 0070     		.short	28672
 6222 0cbe 0040     		.short	16384
 6223 0cc0 00A8     		.short	-22528
 6224 0cc2 0088     		.short	-30720
 6225 0cc4 0088     		.short	-30720
 6226 0cc6 0088     		.short	-30720
 6227 0cc8 0088     		.short	-30720
 6228 0cca 0070     		.short	28672
 6229 0ccc 0010     		.short	4096
 6230 0cce 0020     		.short	8192
 6231 0cd0 0088     		.short	-30720
 6232 0cd2 0050     		.short	20480
 6233 0cd4 0020     		.short	8192
 6234 0cd6 0020     		.short	8192
 6235 0cd8 00C0     		.short	-16384
 6236 0cda 0010     		.short	4096
 6237 0cdc 0020     		.short	8192
 6238 0cde 0088     		.short	-30720
 6239 0ce0 0050     		.short	20480
 6240 0ce2 0020     		.short	8192
 6241 0ce4 0020     		.short	8192
 6242 0ce6 0070     		.short	28672
 6243 0ce8 00F8     		.short	-2048
 6244 0cea 0000     		.short	0
 6245 0cec 0000     		.short	0
 6246 0cee 0000     		.short	0
 6247 0cf0 0000     		.short	0
 6248 0cf2 0000     		.short	0
 6249 0cf4 0000     		.short	0
 6250 0cf6 0010     		.short	4096
 6251 0cf8 0020     		.short	8192
 6252 0cfa 0000     		.short	0
 6253 0cfc 0000     		.short	0
 6254 0cfe 0000     		.short	0
 6255 0d00 0000     		.short	0
 6256 0d02 0008     		.short	2048
 6257 0d04 0000     		.short	0
 6258 0d06 0000     		.short	0
 6259 0d08 0000     		.short	0
 6260 0d0a 0070     		.short	28672
 6261 0d0c 0000     		.short	0
 6262 0d0e 0000     		.short	0
 6263 0d10 0000     		.short	0
 6264 0d12 0020     		.short	8192
 6265 0d14 0020     		.short	8192
 6266 0d16 00F8     		.short	-2048
ARM GAS  C:\Users\arist\AppData\Local\Temp\ccSK2xlW.s 			page 142


 6267 0d18 0020     		.short	8192
 6268 0d1a 0020     		.short	8192
 6269 0d1c 0000     		.short	0
 6270 0d1e 00F8     		.short	-2048
 6271 0d20 0000     		.short	0
 6272 0d22 0000     		.short	0
 6273 0d24 0000     		.short	0
 6274 0d26 0000     		.short	0
 6275 0d28 00F8     		.short	-2048
 6276 0d2a 0000     		.short	0
 6277 0d2c 00F8     		.short	-2048
 6278 0d2e 0000     		.short	0
 6279 0d30 0048     		.short	18432
 6280 0d32 00D0     		.short	-12288
 6281 0d34 0020     		.short	8192
 6282 0d36 0058     		.short	22528
 6283 0d38 0098     		.short	-26624
 6284 0d3a 0000     		.short	0
 6285 0d3c 0078     		.short	30720
 6286 0d3e 0098     		.short	-26624
 6287 0d40 0098     		.short	-26624
 6288 0d42 0078     		.short	30720
 6289 0d44 0018     		.short	6144
 6290 0d46 0018     		.short	6144
 6291 0d48 0078     		.short	30720
 6292 0d4a 0078     		.short	30720
 6293 0d4c 00A0     		.short	-24576
 6294 0d4e 0090     		.short	-28672
 6295 0d50 0088     		.short	-30720
 6296 0d52 0048     		.short	18432
 6297 0d54 0028     		.short	10240
 6298 0d56 00F0     		.short	-4096
 6299 0d58 0000     		.short	0
 6300 0d5a 0020     		.short	8192
 6301 0d5c 0000     		.short	0
 6302 0d5e 00F8     		.short	-2048
 6303 0d60 0000     		.short	0
 6304 0d62 0020     		.short	8192
 6305 0d64 0000     		.short	0
 6306 0d66 0000     		.short	0
 6307 0d68 0000     		.short	0
 6308 0d6a 0000     		.short	0
 6309 0d6c 0000     		.short	0
 6310 0d6e 0030     		.short	12288
 6311 0d70 0030     		.short	12288
 6312 0d72 0060     		.short	24576
 6313 0d74 0020     		.short	8192
 6314 0d76 0050     		.short	20480
 6315 0d78 0020     		.short	8192
 6316 0d7a 0000     		.short	0
 6317 0d7c 0000     		.short	0
 6318 0d7e 0000     		.short	0
 6319 0d80 0000     		.short	0
 6320 0d82 0050     		.short	20480
 6321 0d84 0000     		.short	0
 6322 0d86 0000     		.short	0
 6323 0d88 0000     		.short	0
ARM GAS  C:\Users\arist\AppData\Local\Temp\ccSK2xlW.s 			page 143


 6324 0d8a 0000     		.short	0
 6325 0d8c 0000     		.short	0
 6326 0d8e 0000     		.short	0
 6327 0d90 0000     		.short	0
 6328 0d92 0030     		.short	12288
 6329 0d94 0030     		.short	12288
 6330 0d96 0000     		.short	0
 6331 0d98 0000     		.short	0
 6332 0d9a 0000     		.short	0
 6333 0d9c 0000     		.short	0
 6334 0d9e 0020     		.short	8192
 6335 0da0 0060     		.short	24576
 6336 0da2 0020     		.short	8192
 6337 0da4 0020     		.short	8192
 6338 0da6 0070     		.short	28672
 6339 0da8 0000     		.short	0
 6340 0daa 0000     		.short	0
 6341 0dac 0060     		.short	24576
 6342 0dae 0010     		.short	4096
 6343 0db0 0020     		.short	8192
 6344 0db2 0010     		.short	4096
 6345 0db4 0030     		.short	12288
 6346 0db6 0000     		.short	0
 6347 0db8 0000     		.short	0
 6348 0dba 0060     		.short	24576
 6349 0dbc 0010     		.short	4096
 6350 0dbe 0030     		.short	12288
 6351 0dc0 0040     		.short	16384
 6352 0dc2 0070     		.short	28672
 6353 0dc4 0000     		.short	0
 6354 0dc6 0000     		.short	0
 6355 0dc8 00F8     		.short	-2048
 6356 0dca 00F8     		.short	-2048
 6357 0dcc 00F8     		.short	-2048
 6358 0dce 00F8     		.short	-2048
 6359 0dd0 0000     		.short	0
 6360 0dd2 0000     		.short	0
 6361 0dd4 0000     		.short	0
 6362 0dd6 00000000 		.space	42
 6362      00000000 
 6362      00000000 
 6362      00000000 
 6362      00000000 
 6363              		.global	font_m
 6364              		.section	.data.font_m,"aw"
 6365              		.align	2
 6368              	font_m:
 6369 0000 C0FF     		.short	-64
 6370 0002 C0FF     		.short	-64
 6371 0004 C0FF     		.short	-64
 6372 0006 C0FF     		.short	-64
 6373 0008 C0FF     		.short	-64
 6374 000a C0FF     		.short	-64
 6375 000c C0FF     		.short	-64
 6376 000e C0FF     		.short	-64
 6377 0010 C0FF     		.short	-64
 6378 0012 C0FF     		.short	-64
ARM GAS  C:\Users\arist\AppData\Local\Temp\ccSK2xlW.s 			page 144


 6379 0014 C0FF     		.short	-64
 6380 0016 C0FF     		.short	-64
 6381 0018 C0FF     		.short	-64
 6382 001a C0FF     		.short	-64
 6383 001c 0000     		.short	0
 6384 001e 001E     		.short	7680
 6385 0020 0021     		.short	8448
 6386 0022 8040     		.short	16512
 6387 0024 40B3     		.short	-19648
 6388 0026 40B3     		.short	-19648
 6389 0028 4080     		.short	-32704
 6390 002a 4080     		.short	-32704
 6391 002c 40A1     		.short	-24256
 6392 002e 409E     		.short	-25024
 6393 0030 8040     		.short	16512
 6394 0032 0021     		.short	8448
 6395 0034 001E     		.short	7680
 6396 0036 0000     		.short	0
 6397 0038 0000     		.short	0
 6398 003a 001E     		.short	7680
 6399 003c 003F     		.short	16128
 6400 003e 807F     		.short	32640
 6401 0040 C0CC     		.short	-13120
 6402 0042 C0CC     		.short	-13120
 6403 0044 C0FF     		.short	-64
 6404 0046 C0FF     		.short	-64
 6405 0048 C0DE     		.short	-8512
 6406 004a C0E1     		.short	-7744
 6407 004c 807F     		.short	32640
 6408 004e 003F     		.short	16128
 6409 0050 001E     		.short	7680
 6410 0052 0000     		.short	0
 6411 0054 0000     		.short	0
 6412 0056 8061     		.short	24960
 6413 0058 C0F3     		.short	-3136
 6414 005a C0FF     		.short	-64
 6415 005c C0FF     		.short	-64
 6416 005e C0FF     		.short	-64
 6417 0060 C0FF     		.short	-64
 6418 0062 807F     		.short	32640
 6419 0064 807F     		.short	32640
 6420 0066 003F     		.short	16128
 6421 0068 003F     		.short	16128
 6422 006a 001E     		.short	7680
 6423 006c 000C     		.short	3072
 6424 006e 0000     		.short	0
 6425 0070 0000     		.short	0
 6426 0072 0000     		.short	0
 6427 0074 000C     		.short	3072
 6428 0076 001E     		.short	7680
 6429 0078 003F     		.short	16128
 6430 007a 807F     		.short	32640
 6431 007c C0FF     		.short	-64
 6432 007e C0FF     		.short	-64
 6433 0080 807F     		.short	32640
 6434 0082 003F     		.short	16128
 6435 0084 001E     		.short	7680
ARM GAS  C:\Users\arist\AppData\Local\Temp\ccSK2xlW.s 			page 145


 6436 0086 000C     		.short	3072
 6437 0088 0000     		.short	0
 6438 008a 0000     		.short	0
 6439 008c 0000     		.short	0
 6440 008e 000C     		.short	3072
 6441 0090 001E     		.short	7680
 6442 0092 001E     		.short	7680
 6443 0094 001E     		.short	7680
 6444 0096 806D     		.short	28032
 6445 0098 C0FF     		.short	-64
 6446 009a C0FF     		.short	-64
 6447 009c C0FF     		.short	-64
 6448 009e 806D     		.short	28032
 6449 00a0 000C     		.short	3072
 6450 00a2 001E     		.short	7680
 6451 00a4 003F     		.short	16128
 6452 00a6 0000     		.short	0
 6453 00a8 0000     		.short	0
 6454 00aa 000C     		.short	3072
 6455 00ac 001E     		.short	7680
 6456 00ae 003F     		.short	16128
 6457 00b0 003F     		.short	16128
 6458 00b2 807F     		.short	32640
 6459 00b4 807F     		.short	32640
 6460 00b6 C0FF     		.short	-64
 6461 00b8 C0FF     		.short	-64
 6462 00ba C0FF     		.short	-64
 6463 00bc 806D     		.short	28032
 6464 00be 001E     		.short	7680
 6465 00c0 003F     		.short	16128
 6466 00c2 0000     		.short	0
 6467 00c4 0000     		.short	0
 6468 00c6 0000     		.short	0
 6469 00c8 0000     		.short	0
 6470 00ca 001E     		.short	7680
 6471 00cc 003F     		.short	16128
 6472 00ce 807F     		.short	32640
 6473 00d0 807F     		.short	32640
 6474 00d2 807F     		.short	32640
 6475 00d4 807F     		.short	32640
 6476 00d6 003F     		.short	16128
 6477 00d8 001E     		.short	7680
 6478 00da 0000     		.short	0
 6479 00dc 0000     		.short	0
 6480 00de 0000     		.short	0
 6481 00e0 C0FF     		.short	-64
 6482 00e2 C0FF     		.short	-64
 6483 00e4 C0FF     		.short	-64
 6484 00e6 C0E1     		.short	-7744
 6485 00e8 C0C0     		.short	-16192
 6486 00ea 7080     		.short	-32656
 6487 00ec 7080     		.short	-32656
 6488 00ee 7080     		.short	-32656
 6489 00f0 7080     		.short	-32656
 6490 00f2 C0C0     		.short	-16192
 6491 00f4 C0E1     		.short	-7744
 6492 00f6 C0FF     		.short	-64
ARM GAS  C:\Users\arist\AppData\Local\Temp\ccSK2xlW.s 			page 146


 6493 00f8 C0FF     		.short	-64
 6494 00fa C0FF     		.short	-64
 6495 00fc 0000     		.short	0
 6496 00fe 0000     		.short	0
 6497 0100 0000     		.short	0
 6498 0102 001E     		.short	7680
 6499 0104 0021     		.short	8448
 6500 0106 8040     		.short	16512
 6501 0108 8040     		.short	16512
 6502 010a 8040     		.short	16512
 6503 010c 8040     		.short	16512
 6504 010e 0021     		.short	8448
 6505 0110 001E     		.short	7680
 6506 0112 0000     		.short	0
 6507 0114 0000     		.short	0
 6508 0116 0000     		.short	0
 6509 0118 C0FF     		.short	-64
 6510 011a C0FF     		.short	-64
 6511 011c C0FF     		.short	-64
 6512 011e C0E1     		.short	-7744
 6513 0120 C0DE     		.short	-8512
 6514 0122 70BF     		.short	-16528
 6515 0124 70BF     		.short	-16528
 6516 0126 70BF     		.short	-16528
 6517 0128 70BF     		.short	-16528
 6518 012a C0DE     		.short	-8512
 6519 012c C0E1     		.short	-7744
 6520 012e C0FF     		.short	-64
 6521 0130 C0FF     		.short	-64
 6522 0132 C0FF     		.short	-64
 6523 0134 0000     		.short	0
 6524 0136 C003     		.short	960
 6525 0138 C000     		.short	192
 6526 013a 4001     		.short	320
 6527 013c 403E     		.short	15936
 6528 013e 0042     		.short	16896
 6529 0140 0081     		.short	-32512
 6530 0142 0081     		.short	-32512
 6531 0144 0081     		.short	-32512
 6532 0146 0081     		.short	-32512
 6533 0148 0042     		.short	16896
 6534 014a 403E     		.short	15936
 6535 014c 0000     		.short	0
 6536 014e 0000     		.short	0
 6537 0150 0000     		.short	0
 6538 0152 0000     		.short	0
 6539 0154 001C     		.short	7168
 6540 0156 0022     		.short	8704
 6541 0158 0041     		.short	16640
 6542 015a 0041     		.short	16640
 6543 015c 0041     		.short	16640
 6544 015e 0022     		.short	8704
 6545 0160 001C     		.short	7168
 6546 0162 0008     		.short	2048
 6547 0164 0008     		.short	2048
 6548 0166 003E     		.short	15872
 6549 0168 0008     		.short	2048
ARM GAS  C:\Users\arist\AppData\Local\Temp\ccSK2xlW.s 			page 147


 6550 016a 0000     		.short	0
 6551 016c 0000     		.short	0
 6552 016e 0004     		.short	1024
 6553 0170 0006     		.short	1536
 6554 0172 0006     		.short	1536
 6555 0174 0005     		.short	1280
 6556 0176 0005     		.short	1280
 6557 0178 8004     		.short	1152
 6558 017a 8004     		.short	1152
 6559 017c 003C     		.short	15360
 6560 017e 0044     		.short	17408
 6561 0180 0044     		.short	17408
 6562 0182 0044     		.short	17408
 6563 0184 0038     		.short	14336
 6564 0186 0000     		.short	0
 6565 0188 0000     		.short	0
 6566 018a C000     		.short	192
 6567 018c C001     		.short	448
 6568 018e 4003     		.short	832
 6569 0190 4006     		.short	1600
 6570 0192 800C     		.short	3200
 6571 0194 C00B     		.short	3008
 6572 0196 400C     		.short	3136
 6573 0198 807C     		.short	31872
 6574 019a 808C     		.short	-29568
 6575 019c 808B     		.short	-29824
 6576 019e 0088     		.short	-30720
 6577 01a0 0070     		.short	28672
 6578 01a2 0000     		.short	0
 6579 01a4 0000     		.short	0
 6580 01a6 0000     		.short	0
 6581 01a8 0000     		.short	0
 6582 01aa 0008     		.short	2048
 6583 01ac 0049     		.short	18688
 6584 01ae 003E     		.short	15872
 6585 01b0 0022     		.short	8704
 6586 01b2 80E3     		.short	-7296
 6587 01b4 0022     		.short	8704
 6588 01b6 003E     		.short	15872
 6589 01b8 0049     		.short	18688
 6590 01ba 0008     		.short	2048
 6591 01bc 0000     		.short	0
 6592 01be 0000     		.short	0
 6593 01c0 0000     		.short	0
 6594 01c2 0020     		.short	8192
 6595 01c4 0030     		.short	12288
 6596 01c6 0030     		.short	12288
 6597 01c8 003C     		.short	15360
 6598 01ca 003E     		.short	15872
 6599 01cc 003F     		.short	16128
 6600 01ce 003F     		.short	16128
 6601 01d0 003E     		.short	15872
 6602 01d2 003C     		.short	15360
 6603 01d4 0038     		.short	14336
 6604 01d6 0030     		.short	12288
 6605 01d8 0020     		.short	8192
 6606 01da 0000     		.short	0
ARM GAS  C:\Users\arist\AppData\Local\Temp\ccSK2xlW.s 			page 148


 6607 01dc 0000     		.short	0
 6608 01de 0001     		.short	256
 6609 01e0 0003     		.short	768
 6610 01e2 0007     		.short	1792
 6611 01e4 000F     		.short	3840
 6612 01e6 001F     		.short	7936
 6613 01e8 003F     		.short	16128
 6614 01ea 003F     		.short	16128
 6615 01ec 001F     		.short	7936
 6616 01ee 000F     		.short	3840
 6617 01f0 0007     		.short	1792
 6618 01f2 0003     		.short	768
 6619 01f4 0001     		.short	256
 6620 01f6 0000     		.short	0
 6621 01f8 0000     		.short	0
 6622 01fa 0000     		.short	0
 6623 01fc 0008     		.short	2048
 6624 01fe 001C     		.short	7168
 6625 0200 002A     		.short	10752
 6626 0202 0008     		.short	2048
 6627 0204 0008     		.short	2048
 6628 0206 0008     		.short	2048
 6629 0208 0008     		.short	2048
 6630 020a 002A     		.short	10752
 6631 020c 001C     		.short	7168
 6632 020e 0008     		.short	2048
 6633 0210 0000     		.short	0
 6634 0212 0000     		.short	0
 6635 0214 0000     		.short	0
 6636 0216 0000     		.short	0
 6637 0218 0012     		.short	4608
 6638 021a 0012     		.short	4608
 6639 021c 0012     		.short	4608
 6640 021e 0012     		.short	4608
 6641 0220 0012     		.short	4608
 6642 0222 0012     		.short	4608
 6643 0224 0012     		.short	4608
 6644 0226 0012     		.short	4608
 6645 0228 0000     		.short	0
 6646 022a 0012     		.short	4608
 6647 022c 0000     		.short	0
 6648 022e 0000     		.short	0
 6649 0230 0000     		.short	0
 6650 0232 0000     		.short	0
 6651 0234 0033     		.short	13056
 6652 0236 0033     		.short	13056
 6653 0238 0033     		.short	13056
 6654 023a 0033     		.short	13056
 6655 023c 0033     		.short	13056
 6656 023e 0033     		.short	13056
 6657 0240 0033     		.short	13056
 6658 0242 0033     		.short	13056
 6659 0244 0033     		.short	13056
 6660 0246 0033     		.short	13056
 6661 0248 0000     		.short	0
 6662 024a 0000     		.short	0
 6663 024c 0000     		.short	0
ARM GAS  C:\Users\arist\AppData\Local\Temp\ccSK2xlW.s 			page 149


 6664 024e 0000     		.short	0
 6665 0250 0008     		.short	2048
 6666 0252 0008     		.short	2048
 6667 0254 0049     		.short	18688
 6668 0256 8088     		.short	-30592
 6669 0258 8088     		.short	-30592
 6670 025a 8088     		.short	-30592
 6671 025c 8080     		.short	-32640
 6672 025e 8080     		.short	-32640
 6673 0260 0041     		.short	16640
 6674 0262 003E     		.short	15872
 6675 0264 0000     		.short	0
 6676 0266 0000     		.short	0
 6677 0268 0000     		.short	0
 6678 026a 0000     		.short	0
 6679 026c 8007     		.short	1920
 6680 026e 0006     		.short	1536
 6681 0270 0045     		.short	17664
 6682 0272 8084     		.short	-31616
 6683 0274 8080     		.short	-32640
 6684 0276 8080     		.short	-32640
 6685 0278 8080     		.short	-32640
 6686 027a 8080     		.short	-32640
 6687 027c 0041     		.short	16640
 6688 027e 003E     		.short	15872
 6689 0280 0000     		.short	0
 6690 0282 0000     		.short	0
 6691 0284 0000     		.short	0
 6692 0286 0000     		.short	0
 6693 0288 0008     		.short	2048
 6694 028a 001C     		.short	7168
 6695 028c 002A     		.short	10752
 6696 028e 0008     		.short	2048
 6697 0290 0008     		.short	2048
 6698 0292 0008     		.short	2048
 6699 0294 002A     		.short	10752
 6700 0296 001C     		.short	7168
 6701 0298 0008     		.short	2048
 6702 029a 003E     		.short	15872
 6703 029c 0000     		.short	0
 6704 029e 0000     		.short	0
 6705 02a0 0000     		.short	0
 6706 02a2 0000     		.short	0
 6707 02a4 0008     		.short	2048
 6708 02a6 001C     		.short	7168
 6709 02a8 002A     		.short	10752
 6710 02aa 0008     		.short	2048
 6711 02ac 0008     		.short	2048
 6712 02ae 0008     		.short	2048
 6713 02b0 0008     		.short	2048
 6714 02b2 0008     		.short	2048
 6715 02b4 0008     		.short	2048
 6716 02b6 0008     		.short	2048
 6717 02b8 0000     		.short	0
 6718 02ba 0000     		.short	0
 6719 02bc 0000     		.short	0
 6720 02be 0000     		.short	0
ARM GAS  C:\Users\arist\AppData\Local\Temp\ccSK2xlW.s 			page 150


 6721 02c0 0008     		.short	2048
 6722 02c2 0008     		.short	2048
 6723 02c4 0008     		.short	2048
 6724 02c6 0008     		.short	2048
 6725 02c8 0008     		.short	2048
 6726 02ca 0008     		.short	2048
 6727 02cc 0008     		.short	2048
 6728 02ce 002A     		.short	10752
 6729 02d0 001C     		.short	7168
 6730 02d2 0008     		.short	2048
 6731 02d4 0000     		.short	0
 6732 02d6 0000     		.short	0
 6733 02d8 0000     		.short	0
 6734 02da 0000     		.short	0
 6735 02dc 0000     		.short	0
 6736 02de 0000     		.short	0
 6737 02e0 0002     		.short	512
 6738 02e2 0001     		.short	256
 6739 02e4 807F     		.short	32640
 6740 02e6 0001     		.short	256
 6741 02e8 0002     		.short	512
 6742 02ea 0000     		.short	0
 6743 02ec 0000     		.short	0
 6744 02ee 0000     		.short	0
 6745 02f0 0000     		.short	0
 6746 02f2 0000     		.short	0
 6747 02f4 0000     		.short	0
 6748 02f6 0000     		.short	0
 6749 02f8 0000     		.short	0
 6750 02fa 0000     		.short	0
 6751 02fc 0001     		.short	256
 6752 02fe 0002     		.short	512
 6753 0300 807F     		.short	32640
 6754 0302 0002     		.short	512
 6755 0304 0001     		.short	256
 6756 0306 0000     		.short	0
 6757 0308 0000     		.short	0
 6758 030a 0000     		.short	0
 6759 030c 0000     		.short	0
 6760 030e 0000     		.short	0
 6761 0310 0000     		.short	0
 6762 0312 0040     		.short	16384
 6763 0314 0040     		.short	16384
 6764 0316 0040     		.short	16384
 6765 0318 0040     		.short	16384
 6766 031a 0040     		.short	16384
 6767 031c 0040     		.short	16384
 6768 031e 0040     		.short	16384
 6769 0320 0040     		.short	16384
 6770 0322 0040     		.short	16384
 6771 0324 0040     		.short	16384
 6772 0326 0040     		.short	16384
 6773 0328 807F     		.short	32640
 6774 032a 0000     		.short	0
 6775 032c 0000     		.short	0
 6776 032e 0000     		.short	0
 6777 0330 0000     		.short	0
ARM GAS  C:\Users\arist\AppData\Local\Temp\ccSK2xlW.s 			page 151


 6778 0332 0000     		.short	0
 6779 0334 2001     		.short	288
 6780 0336 0021     		.short	8448
 6781 0338 807F     		.short	32640
 6782 033a 0021     		.short	8448
 6783 033c 0012     		.short	4608
 6784 033e 0000     		.short	0
 6785 0340 0000     		.short	0
 6786 0342 0000     		.short	0
 6787 0344 0000     		.short	0
 6788 0346 0000     		.short	0
 6789 0348 0000     		.short	0
 6790 034a 0000     		.short	0
 6791 034c 0000     		.short	0
 6792 034e 0000     		.short	0
 6793 0350 000C     		.short	3072
 6794 0352 E001     		.short	480
 6795 0354 003F     		.short	16128
 6796 0356 807F     		.short	32640
 6797 0358 C0FF     		.short	-64
 6798 035a C0FF     		.short	-64
 6799 035c 0000     		.short	0
 6800 035e 0000     		.short	0
 6801 0360 0000     		.short	0
 6802 0362 0000     		.short	0
 6803 0364 0000     		.short	0
 6804 0366 0000     		.short	0
 6805 0368 0000     		.short	0
 6806 036a 0000     		.short	0
 6807 036c C0FF     		.short	-64
 6808 036e C0FF     		.short	-64
 6809 0370 807F     		.short	32640
 6810 0372 003F     		.short	16128
 6811 0374 E001     		.short	480
 6812 0376 000C     		.short	3072
 6813 0378 0000     		.short	0
 6814 037a 0000     		.short	0
 6815 037c 0000     		.short	0
 6816 037e 0000     		.short	0
 6817 0380 0000     		.short	0
 6818 0382 0000     		.short	0
 6819 0384 0000     		.short	0
 6820 0386 0000     		.short	0
 6821 0388 0000     		.short	0
 6822 038a 0000     		.short	0
 6823 038c 0000     		.short	0
 6824 038e 0000     		.short	0
 6825 0390 0000     		.short	0
 6826 0392 0000     		.short	0
 6827 0394 0000     		.short	0
 6828 0396 0000     		.short	0
 6829 0398 0000     		.short	0
 6830 039a 0000     		.short	0
 6831 039c 0000     		.short	0
 6832 039e 0000     		.short	0
 6833 03a0 0008     		.short	2048
 6834 03a2 0008     		.short	2048
ARM GAS  C:\Users\arist\AppData\Local\Temp\ccSK2xlW.s 			page 152


 6835 03a4 0008     		.short	2048
 6836 03a6 0008     		.short	2048
 6837 03a8 0008     		.short	2048
 6838 03aa 0008     		.short	2048
 6839 03ac 0008     		.short	2048
 6840 03ae 0008     		.short	2048
 6841 03b0 0000     		.short	0
 6842 03b2 0008     		.short	2048
 6843 03b4 0000     		.short	0
 6844 03b6 0000     		.short	0
 6845 03b8 0012     		.short	4608
 6846 03ba 0012     		.short	4608
 6847 03bc 0012     		.short	4608
 6848 03be 0012     		.short	4608
 6849 03c0 0000     		.short	0
 6850 03c2 0000     		.short	0
 6851 03c4 0000     		.short	0
 6852 03c6 0000     		.short	0
 6853 03c8 0000     		.short	0
 6854 03ca 0000     		.short	0
 6855 03cc 0000     		.short	0
 6856 03ce 0000     		.short	0
 6857 03d0 0000     		.short	0
 6858 03d2 0000     		.short	0
 6859 03d4 0000     		.short	0
 6860 03d6 0000     		.short	0
 6861 03d8 0000     		.short	0
 6862 03da 0012     		.short	4608
 6863 03dc 0012     		.short	4608
 6864 03de 807F     		.short	32640
 6865 03e0 0012     		.short	4608
 6866 03e2 0012     		.short	4608
 6867 03e4 807F     		.short	32640
 6868 03e6 0012     		.short	4608
 6869 03e8 0012     		.short	4608
 6870 03ea 0000     		.short	0
 6871 03ec 0000     		.short	0
 6872 03ee 0000     		.short	0
 6873 03f0 0000     		.short	0
 6874 03f2 0008     		.short	2048
 6875 03f4 0008     		.short	2048
 6876 03f6 003F     		.short	16128
 6877 03f8 0048     		.short	18432
 6878 03fa 0048     		.short	18432
 6879 03fc 003C     		.short	15360
 6880 03fe 000A     		.short	2560
 6881 0400 0009     		.short	2304
 6882 0402 0009     		.short	2304
 6883 0404 007E     		.short	32256
 6884 0406 0008     		.short	2048
 6885 0408 0008     		.short	2048
 6886 040a 0000     		.short	0
 6887 040c 0000     		.short	0
 6888 040e 0000     		.short	0
 6889 0410 0070     		.short	28672
 6890 0412 8088     		.short	-30592
 6891 0414 0089     		.short	-30464
ARM GAS  C:\Users\arist\AppData\Local\Temp\ccSK2xlW.s 			page 153


 6892 0416 008A     		.short	-30208
 6893 0418 0074     		.short	29696
 6894 041a 0008     		.short	2048
 6895 041c 0017     		.short	5888
 6896 041e 8028     		.short	10368
 6897 0420 8048     		.short	18560
 6898 0422 8088     		.short	-30592
 6899 0424 0007     		.short	1792
 6900 0426 0000     		.short	0
 6901 0428 0000     		.short	0
 6902 042a 001C     		.short	7168
 6903 042c 0044     		.short	17408
 6904 042e 0044     		.short	17408
 6905 0430 0044     		.short	17408
 6906 0432 0044     		.short	17408
 6907 0434 001C     		.short	7168
 6908 0436 0038     		.short	14336
 6909 0438 0048     		.short	18432
 6910 043a 4084     		.short	-31680
 6911 043c 8082     		.short	-32128
 6912 043e 0081     		.short	-32512
 6913 0440 8042     		.short	17024
 6914 0442 403C     		.short	15424
 6915 0444 0008     		.short	2048
 6916 0446 0008     		.short	2048
 6917 0448 0008     		.short	2048
 6918 044a 0008     		.short	2048
 6919 044c 0000     		.short	0
 6920 044e 0000     		.short	0
 6921 0450 0000     		.short	0
 6922 0452 0000     		.short	0
 6923 0454 0000     		.short	0
 6924 0456 0000     		.short	0
 6925 0458 0000     		.short	0
 6926 045a 0000     		.short	0
 6927 045c 0000     		.short	0
 6928 045e 0000     		.short	0
 6929 0460 0006     		.short	1536
 6930 0462 0008     		.short	2048
 6931 0464 0010     		.short	4096
 6932 0466 0010     		.short	4096
 6933 0468 0020     		.short	8192
 6934 046a 0020     		.short	8192
 6935 046c 0020     		.short	8192
 6936 046e 0020     		.short	8192
 6937 0470 0020     		.short	8192
 6938 0472 0020     		.short	8192
 6939 0474 0010     		.short	4096
 6940 0476 0010     		.short	4096
 6941 0478 0008     		.short	2048
 6942 047a 0006     		.short	1536
 6943 047c 0018     		.short	6144
 6944 047e 0004     		.short	1024
 6945 0480 0002     		.short	512
 6946 0482 0002     		.short	512
 6947 0484 0001     		.short	256
 6948 0486 0001     		.short	256
ARM GAS  C:\Users\arist\AppData\Local\Temp\ccSK2xlW.s 			page 154


 6949 0488 0001     		.short	256
 6950 048a 0001     		.short	256
 6951 048c 0001     		.short	256
 6952 048e 0001     		.short	256
 6953 0490 0002     		.short	512
 6954 0492 0002     		.short	512
 6955 0494 0004     		.short	1024
 6956 0496 0018     		.short	6144
 6957 0498 0000     		.short	0
 6958 049a 002A     		.short	10752
 6959 049c 001C     		.short	7168
 6960 049e 003E     		.short	15872
 6961 04a0 001C     		.short	7168
 6962 04a2 002A     		.short	10752
 6963 04a4 0000     		.short	0
 6964 04a6 0000     		.short	0
 6965 04a8 0000     		.short	0
 6966 04aa 0000     		.short	0
 6967 04ac 0000     		.short	0
 6968 04ae 0000     		.short	0
 6969 04b0 0000     		.short	0
 6970 04b2 0000     		.short	0
 6971 04b4 0000     		.short	0
 6972 04b6 0000     		.short	0
 6973 04b8 0000     		.short	0
 6974 04ba 0008     		.short	2048
 6975 04bc 0008     		.short	2048
 6976 04be 0008     		.short	2048
 6977 04c0 007F     		.short	32512
 6978 04c2 0008     		.short	2048
 6979 04c4 0008     		.short	2048
 6980 04c6 0008     		.short	2048
 6981 04c8 0000     		.short	0
 6982 04ca 0000     		.short	0
 6983 04cc 0000     		.short	0
 6984 04ce 0000     		.short	0
 6985 04d0 0000     		.short	0
 6986 04d2 0000     		.short	0
 6987 04d4 0000     		.short	0
 6988 04d6 0000     		.short	0
 6989 04d8 0000     		.short	0
 6990 04da 0000     		.short	0
 6991 04dc 0000     		.short	0
 6992 04de 0000     		.short	0
 6993 04e0 0000     		.short	0
 6994 04e2 0000     		.short	0
 6995 04e4 0000     		.short	0
 6996 04e6 0004     		.short	1024
 6997 04e8 0004     		.short	1024
 6998 04ea 0008     		.short	2048
 6999 04ec 0000     		.short	0
 7000 04ee 0000     		.short	0
 7001 04f0 0000     		.short	0
 7002 04f2 0000     		.short	0
 7003 04f4 0000     		.short	0
 7004 04f6 0000     		.short	0
 7005 04f8 007F     		.short	32512
ARM GAS  C:\Users\arist\AppData\Local\Temp\ccSK2xlW.s 			page 155


 7006 04fa 0000     		.short	0
 7007 04fc 0000     		.short	0
 7008 04fe 0000     		.short	0
 7009 0500 0000     		.short	0
 7010 0502 0000     		.short	0
 7011 0504 0000     		.short	0
 7012 0506 0000     		.short	0
 7013 0508 0000     		.short	0
 7014 050a 0000     		.short	0
 7015 050c 0000     		.short	0
 7016 050e 0000     		.short	0
 7017 0510 0000     		.short	0
 7018 0512 0000     		.short	0
 7019 0514 0000     		.short	0
 7020 0516 0000     		.short	0
 7021 0518 0000     		.short	0
 7022 051a 0000     		.short	0
 7023 051c 0000     		.short	0
 7024 051e 0000     		.short	0
 7025 0520 000C     		.short	3072
 7026 0522 000C     		.short	3072
 7027 0524 0000     		.short	0
 7028 0526 8000     		.short	128
 7029 0528 8000     		.short	128
 7030 052a 0001     		.short	256
 7031 052c 0002     		.short	512
 7032 052e 0004     		.short	1024
 7033 0530 0004     		.short	1024
 7034 0532 0008     		.short	2048
 7035 0534 0010     		.short	4096
 7036 0536 0010     		.short	4096
 7037 0538 0020     		.short	8192
 7038 053a 0004     		.short	1024
 7039 053c 0004     		.short	1024
 7040 053e 0000     		.short	0
 7041 0540 0000     		.short	0
 7042 0542 003E     		.short	15872
 7043 0544 0041     		.short	16640
 7044 0546 8080     		.short	-32640
 7045 0548 8081     		.short	-32384
 7046 054a 8082     		.short	-32128
 7047 054c 8084     		.short	-31616
 7048 054e 8088     		.short	-30592
 7049 0550 8090     		.short	-28544
 7050 0552 80A0     		.short	-24448
 7051 0554 80C0     		.short	-16256
 7052 0556 8080     		.short	-32640
 7053 0558 0041     		.short	16640
 7054 055a 003E     		.short	15872
 7055 055c 0000     		.short	0
 7056 055e 0008     		.short	2048
 7057 0560 0018     		.short	6144
 7058 0562 0028     		.short	10240
 7059 0564 0048     		.short	18432
 7060 0566 0088     		.short	-30720
 7061 0568 0008     		.short	2048
 7062 056a 0008     		.short	2048
ARM GAS  C:\Users\arist\AppData\Local\Temp\ccSK2xlW.s 			page 156


 7063 056c 0008     		.short	2048
 7064 056e 0008     		.short	2048
 7065 0570 0008     		.short	2048
 7066 0572 0008     		.short	2048
 7067 0574 0008     		.short	2048
 7068 0576 80FF     		.short	-128
 7069 0578 0000     		.short	0
 7070 057a 003E     		.short	15872
 7071 057c 0041     		.short	16640
 7072 057e 8080     		.short	-32640
 7073 0580 8080     		.short	-32640
 7074 0582 8000     		.short	128
 7075 0584 0001     		.short	256
 7076 0586 0002     		.short	512
 7077 0588 0004     		.short	1024
 7078 058a 0008     		.short	2048
 7079 058c 0010     		.short	4096
 7080 058e 0020     		.short	8192
 7081 0590 0040     		.short	16384
 7082 0592 80FF     		.short	-128
 7083 0594 0000     		.short	0
 7084 0596 003E     		.short	15872
 7085 0598 0041     		.short	16640
 7086 059a 8080     		.short	-32640
 7087 059c 8080     		.short	-32640
 7088 059e 8000     		.short	128
 7089 05a0 0001     		.short	256
 7090 05a2 000E     		.short	3584
 7091 05a4 0001     		.short	256
 7092 05a6 8000     		.short	128
 7093 05a8 8080     		.short	-32640
 7094 05aa 8080     		.short	-32640
 7095 05ac 0041     		.short	16640
 7096 05ae 003E     		.short	15872
 7097 05b0 0000     		.short	0
 7098 05b2 0002     		.short	512
 7099 05b4 0006     		.short	1536
 7100 05b6 000A     		.short	2560
 7101 05b8 0012     		.short	4608
 7102 05ba 0022     		.short	8704
 7103 05bc 0042     		.short	16896
 7104 05be 0082     		.short	-32256
 7105 05c0 80FF     		.short	-128
 7106 05c2 0002     		.short	512
 7107 05c4 0002     		.short	512
 7108 05c6 0002     		.short	512
 7109 05c8 0002     		.short	512
 7110 05ca 0002     		.short	512
 7111 05cc 0000     		.short	0
 7112 05ce 80FF     		.short	-128
 7113 05d0 0080     		.short	-32768
 7114 05d2 0080     		.short	-32768
 7115 05d4 0080     		.short	-32768
 7116 05d6 0080     		.short	-32768
 7117 05d8 007E     		.short	32256
 7118 05da 0001     		.short	256
 7119 05dc 8000     		.short	128
ARM GAS  C:\Users\arist\AppData\Local\Temp\ccSK2xlW.s 			page 157


 7120 05de 8000     		.short	128
 7121 05e0 8080     		.short	-32640
 7122 05e2 8080     		.short	-32640
 7123 05e4 0041     		.short	16640
 7124 05e6 003E     		.short	15872
 7125 05e8 0000     		.short	0
 7126 05ea 003F     		.short	16128
 7127 05ec 8040     		.short	16512
 7128 05ee 0080     		.short	-32768
 7129 05f0 0080     		.short	-32768
 7130 05f2 0080     		.short	-32768
 7131 05f4 00BE     		.short	-16896
 7132 05f6 00C1     		.short	-16128
 7133 05f8 8080     		.short	-32640
 7134 05fa 8080     		.short	-32640
 7135 05fc 8080     		.short	-32640
 7136 05fe 8080     		.short	-32640
 7137 0600 0041     		.short	16640
 7138 0602 003E     		.short	15872
 7139 0604 0000     		.short	0
 7140 0606 00FF     		.short	-256
 7141 0608 8000     		.short	128
 7142 060a 8000     		.short	128
 7143 060c 8000     		.short	128
 7144 060e 0001     		.short	256
 7145 0610 0002     		.short	512
 7146 0612 0004     		.short	1024
 7147 0614 0008     		.short	2048
 7148 0616 0008     		.short	2048
 7149 0618 0008     		.short	2048
 7150 061a 0008     		.short	2048
 7151 061c 0008     		.short	2048
 7152 061e 0008     		.short	2048
 7153 0620 0000     		.short	0
 7154 0622 003E     		.short	15872
 7155 0624 0041     		.short	16640
 7156 0626 8080     		.short	-32640
 7157 0628 8080     		.short	-32640
 7158 062a 8080     		.short	-32640
 7159 062c 0041     		.short	16640
 7160 062e 003E     		.short	15872
 7161 0630 0041     		.short	16640
 7162 0632 8080     		.short	-32640
 7163 0634 8080     		.short	-32640
 7164 0636 8080     		.short	-32640
 7165 0638 0041     		.short	16640
 7166 063a 003E     		.short	15872
 7167 063c 0000     		.short	0
 7168 063e 003E     		.short	15872
 7169 0640 0041     		.short	16640
 7170 0642 8080     		.short	-32640
 7171 0644 8080     		.short	-32640
 7172 0646 8080     		.short	-32640
 7173 0648 8080     		.short	-32640
 7174 064a 8041     		.short	16768
 7175 064c 803E     		.short	16000
 7176 064e 8000     		.short	128
ARM GAS  C:\Users\arist\AppData\Local\Temp\ccSK2xlW.s 			page 158


 7177 0650 8000     		.short	128
 7178 0652 8000     		.short	128
 7179 0654 0081     		.short	-32512
 7180 0656 007E     		.short	32256
 7181 0658 0000     		.short	0
 7182 065a 0000     		.short	0
 7183 065c 0000     		.short	0
 7184 065e 0000     		.short	0
 7185 0660 0018     		.short	6144
 7186 0662 0018     		.short	6144
 7187 0664 0000     		.short	0
 7188 0666 0000     		.short	0
 7189 0668 0000     		.short	0
 7190 066a 0000     		.short	0
 7191 066c 0018     		.short	6144
 7192 066e 0018     		.short	6144
 7193 0670 0000     		.short	0
 7194 0672 0000     		.short	0
 7195 0674 0000     		.short	0
 7196 0676 0000     		.short	0
 7197 0678 0000     		.short	0
 7198 067a 0000     		.short	0
 7199 067c 0018     		.short	6144
 7200 067e 0018     		.short	6144
 7201 0680 0000     		.short	0
 7202 0682 0000     		.short	0
 7203 0684 0000     		.short	0
 7204 0686 0018     		.short	6144
 7205 0688 0018     		.short	6144
 7206 068a 0008     		.short	2048
 7207 068c 0008     		.short	2048
 7208 068e 0010     		.short	4096
 7209 0690 0000     		.short	0
 7210 0692 0000     		.short	0
 7211 0694 0002     		.short	512
 7212 0696 0004     		.short	1024
 7213 0698 0008     		.short	2048
 7214 069a 0010     		.short	4096
 7215 069c 0020     		.short	8192
 7216 069e 0040     		.short	16384
 7217 06a0 0020     		.short	8192
 7218 06a2 0010     		.short	4096
 7219 06a4 0008     		.short	2048
 7220 06a6 0004     		.short	1024
 7221 06a8 0002     		.short	512
 7222 06aa 0000     		.short	0
 7223 06ac 0000     		.short	0
 7224 06ae 0000     		.short	0
 7225 06b0 0000     		.short	0
 7226 06b2 0000     		.short	0
 7227 06b4 0000     		.short	0
 7228 06b6 007F     		.short	32512
 7229 06b8 0000     		.short	0
 7230 06ba 0000     		.short	0
 7231 06bc 007F     		.short	32512
 7232 06be 0000     		.short	0
 7233 06c0 0000     		.short	0
ARM GAS  C:\Users\arist\AppData\Local\Temp\ccSK2xlW.s 			page 159


 7234 06c2 0000     		.short	0
 7235 06c4 0000     		.short	0
 7236 06c6 0000     		.short	0
 7237 06c8 0000     		.short	0
 7238 06ca 0000     		.short	0
 7239 06cc 0040     		.short	16384
 7240 06ce 0020     		.short	8192
 7241 06d0 0010     		.short	4096
 7242 06d2 0008     		.short	2048
 7243 06d4 0004     		.short	1024
 7244 06d6 0002     		.short	512
 7245 06d8 0004     		.short	1024
 7246 06da 0008     		.short	2048
 7247 06dc 0010     		.short	4096
 7248 06de 0020     		.short	8192
 7249 06e0 0040     		.short	16384
 7250 06e2 0000     		.short	0
 7251 06e4 003E     		.short	15872
 7252 06e6 0041     		.short	16640
 7253 06e8 8080     		.short	-32640
 7254 06ea 8080     		.short	-32640
 7255 06ec 8000     		.short	128
 7256 06ee 0001     		.short	256
 7257 06f0 0002     		.short	512
 7258 06f2 0004     		.short	1024
 7259 06f4 0008     		.short	2048
 7260 06f6 0008     		.short	2048
 7261 06f8 0008     		.short	2048
 7262 06fa 0000     		.short	0
 7263 06fc 0000     		.short	0
 7264 06fe 0008     		.short	2048
 7265 0700 003E     		.short	15872
 7266 0702 0041     		.short	16640
 7267 0704 8080     		.short	-32640
 7268 0706 4080     		.short	-32704
 7269 0708 4080     		.short	-32704
 7270 070a 4080     		.short	-32704
 7271 070c 408E     		.short	-29120
 7272 070e 4092     		.short	-28096
 7273 0710 40A2     		.short	-24000
 7274 0712 40A2     		.short	-24000
 7275 0714 4092     		.short	-28096
 7276 0716 808F     		.short	-28800
 7277 0718 0040     		.short	16384
 7278 071a 003F     		.short	16128
 7279 071c 003F     		.short	16128
 7280 071e 8040     		.short	16512
 7281 0720 4080     		.short	-32704
 7282 0722 4080     		.short	-32704
 7283 0724 4080     		.short	-32704
 7284 0726 4080     		.short	-32704
 7285 0728 4080     		.short	-32704
 7286 072a C0FF     		.short	-64
 7287 072c 4080     		.short	-32704
 7288 072e 4080     		.short	-32704
 7289 0730 4080     		.short	-32704
 7290 0732 4080     		.short	-32704
ARM GAS  C:\Users\arist\AppData\Local\Temp\ccSK2xlW.s 			page 160


 7291 0734 4080     		.short	-32704
 7292 0736 4080     		.short	-32704
 7293 0738 00FF     		.short	-256
 7294 073a 8080     		.short	-32640
 7295 073c 4080     		.short	-32704
 7296 073e 4080     		.short	-32704
 7297 0740 4080     		.short	-32704
 7298 0742 8080     		.short	-32640
 7299 0744 80FF     		.short	-128
 7300 0746 8080     		.short	-32640
 7301 0748 4080     		.short	-32704
 7302 074a 4080     		.short	-32704
 7303 074c 4080     		.short	-32704
 7304 074e 4080     		.short	-32704
 7305 0750 8080     		.short	-32640
 7306 0752 00FF     		.short	-256
 7307 0754 803F     		.short	16256
 7308 0756 4040     		.short	16448
 7309 0758 0080     		.short	-32768
 7310 075a 0080     		.short	-32768
 7311 075c 0080     		.short	-32768
 7312 075e 0080     		.short	-32768
 7313 0760 0080     		.short	-32768
 7314 0762 0080     		.short	-32768
 7315 0764 0080     		.short	-32768
 7316 0766 0080     		.short	-32768
 7317 0768 0080     		.short	-32768
 7318 076a 0080     		.short	-32768
 7319 076c 4040     		.short	16448
 7320 076e 803F     		.short	16256
 7321 0770 00FE     		.short	-512
 7322 0772 0081     		.short	-32512
 7323 0774 8080     		.short	-32640
 7324 0776 4080     		.short	-32704
 7325 0778 4080     		.short	-32704
 7326 077a 4080     		.short	-32704
 7327 077c 4080     		.short	-32704
 7328 077e 4080     		.short	-32704
 7329 0780 4080     		.short	-32704
 7330 0782 4080     		.short	-32704
 7331 0784 4080     		.short	-32704
 7332 0786 4080     		.short	-32704
 7333 0788 8080     		.short	-32640
 7334 078a 00FF     		.short	-256
 7335 078c C07F     		.short	32704
 7336 078e 0080     		.short	-32768
 7337 0790 0080     		.short	-32768
 7338 0792 0080     		.short	-32768
 7339 0794 0080     		.short	-32768
 7340 0796 0080     		.short	-32768
 7341 0798 007C     		.short	31744
 7342 079a 0080     		.short	-32768
 7343 079c 0080     		.short	-32768
 7344 079e 0080     		.short	-32768
 7345 07a0 0080     		.short	-32768
 7346 07a2 0080     		.short	-32768
 7347 07a4 0080     		.short	-32768
ARM GAS  C:\Users\arist\AppData\Local\Temp\ccSK2xlW.s 			page 161


 7348 07a6 C07F     		.short	32704
 7349 07a8 C07F     		.short	32704
 7350 07aa 0080     		.short	-32768
 7351 07ac 0080     		.short	-32768
 7352 07ae 0080     		.short	-32768
 7353 07b0 0080     		.short	-32768
 7354 07b2 0080     		.short	-32768
 7355 07b4 007C     		.short	31744
 7356 07b6 0080     		.short	-32768
 7357 07b8 0080     		.short	-32768
 7358 07ba 0080     		.short	-32768
 7359 07bc 0080     		.short	-32768
 7360 07be 0080     		.short	-32768
 7361 07c0 0080     		.short	-32768
 7362 07c2 0080     		.short	-32768
 7363 07c4 003F     		.short	16128
 7364 07c6 8040     		.short	16512
 7365 07c8 4080     		.short	-32704
 7366 07ca 0080     		.short	-32768
 7367 07cc 0080     		.short	-32768
 7368 07ce 0080     		.short	-32768
 7369 07d0 0080     		.short	-32768
 7370 07d2 C08F     		.short	-28736
 7371 07d4 4080     		.short	-32704
 7372 07d6 4080     		.short	-32704
 7373 07d8 4080     		.short	-32704
 7374 07da 4080     		.short	-32704
 7375 07dc 8040     		.short	16512
 7376 07de 003F     		.short	16128
 7377 07e0 4080     		.short	-32704
 7378 07e2 4080     		.short	-32704
 7379 07e4 4080     		.short	-32704
 7380 07e6 4080     		.short	-32704
 7381 07e8 4080     		.short	-32704
 7382 07ea 4080     		.short	-32704
 7383 07ec 807F     		.short	32640
 7384 07ee 4080     		.short	-32704
 7385 07f0 4080     		.short	-32704
 7386 07f2 4080     		.short	-32704
 7387 07f4 4080     		.short	-32704
 7388 07f6 4080     		.short	-32704
 7389 07f8 4080     		.short	-32704
 7390 07fa 4080     		.short	-32704
 7391 07fc 007F     		.short	32512
 7392 07fe 0008     		.short	2048
 7393 0800 0008     		.short	2048
 7394 0802 0008     		.short	2048
 7395 0804 0008     		.short	2048
 7396 0806 0008     		.short	2048
 7397 0808 0008     		.short	2048
 7398 080a 0008     		.short	2048
 7399 080c 0008     		.short	2048
 7400 080e 0008     		.short	2048
 7401 0810 0008     		.short	2048
 7402 0812 0008     		.short	2048
 7403 0814 0008     		.short	2048
 7404 0816 007F     		.short	32512
ARM GAS  C:\Users\arist\AppData\Local\Temp\ccSK2xlW.s 			page 162


 7405 0818 C0FF     		.short	-64
 7406 081a 0002     		.short	512
 7407 081c 0002     		.short	512
 7408 081e 0002     		.short	512
 7409 0820 0002     		.short	512
 7410 0822 0002     		.short	512
 7411 0824 0002     		.short	512
 7412 0826 0002     		.short	512
 7413 0828 0002     		.short	512
 7414 082a 0082     		.short	-32256
 7415 082c 0082     		.short	-32256
 7416 082e 0082     		.short	-32256
 7417 0830 0044     		.short	17408
 7418 0832 0038     		.short	14336
 7419 0834 0081     		.short	-32512
 7420 0836 0081     		.short	-32512
 7421 0838 0081     		.short	-32512
 7422 083a 0082     		.short	-32256
 7423 083c 0084     		.short	-31744
 7424 083e 0088     		.short	-30720
 7425 0840 00F0     		.short	-4096
 7426 0842 0088     		.short	-30720
 7427 0844 0084     		.short	-31744
 7428 0846 0082     		.short	-32256
 7429 0848 0081     		.short	-32512
 7430 084a 8080     		.short	-32640
 7431 084c 4080     		.short	-32704
 7432 084e 4080     		.short	-32704
 7433 0850 0080     		.short	-32768
 7434 0852 0080     		.short	-32768
 7435 0854 0080     		.short	-32768
 7436 0856 0080     		.short	-32768
 7437 0858 0080     		.short	-32768
 7438 085a 0080     		.short	-32768
 7439 085c 0080     		.short	-32768
 7440 085e 0080     		.short	-32768
 7441 0860 0080     		.short	-32768
 7442 0862 0080     		.short	-32768
 7443 0864 0080     		.short	-32768
 7444 0866 0080     		.short	-32768
 7445 0868 0080     		.short	-32768
 7446 086a C0FF     		.short	-64
 7447 086c 4080     		.short	-32704
 7448 086e C0C0     		.short	-16192
 7449 0870 40A1     		.short	-24256
 7450 0872 40A1     		.short	-24256
 7451 0874 4092     		.short	-28096
 7452 0876 4092     		.short	-28096
 7453 0878 408C     		.short	-29632
 7454 087a 4080     		.short	-32704
 7455 087c 4080     		.short	-32704
 7456 087e 4080     		.short	-32704
 7457 0880 4080     		.short	-32704
 7458 0882 4080     		.short	-32704
 7459 0884 4080     		.short	-32704
 7460 0886 4080     		.short	-32704
 7461 0888 4080     		.short	-32704
ARM GAS  C:\Users\arist\AppData\Local\Temp\ccSK2xlW.s 			page 163


 7462 088a 4080     		.short	-32704
 7463 088c 40C0     		.short	-16320
 7464 088e 40A0     		.short	-24512
 7465 0890 4090     		.short	-28608
 7466 0892 4088     		.short	-30656
 7467 0894 4084     		.short	-31680
 7468 0896 4082     		.short	-32192
 7469 0898 4081     		.short	-32448
 7470 089a C080     		.short	-32576
 7471 089c 4080     		.short	-32704
 7472 089e 4080     		.short	-32704
 7473 08a0 4080     		.short	-32704
 7474 08a2 4080     		.short	-32704
 7475 08a4 003F     		.short	16128
 7476 08a6 8040     		.short	16512
 7477 08a8 4080     		.short	-32704
 7478 08aa 4080     		.short	-32704
 7479 08ac 4080     		.short	-32704
 7480 08ae 4080     		.short	-32704
 7481 08b0 4080     		.short	-32704
 7482 08b2 4080     		.short	-32704
 7483 08b4 4080     		.short	-32704
 7484 08b6 4080     		.short	-32704
 7485 08b8 4080     		.short	-32704
 7486 08ba 4080     		.short	-32704
 7487 08bc 8040     		.short	16512
 7488 08be 003F     		.short	16128
 7489 08c0 00FF     		.short	-256
 7490 08c2 8080     		.short	-32640
 7491 08c4 4080     		.short	-32704
 7492 08c6 4080     		.short	-32704
 7493 08c8 4080     		.short	-32704
 7494 08ca 4080     		.short	-32704
 7495 08cc 8080     		.short	-32640
 7496 08ce 00FF     		.short	-256
 7497 08d0 0080     		.short	-32768
 7498 08d2 0080     		.short	-32768
 7499 08d4 0080     		.short	-32768
 7500 08d6 0080     		.short	-32768
 7501 08d8 0080     		.short	-32768
 7502 08da 0080     		.short	-32768
 7503 08dc 003F     		.short	16128
 7504 08de 8040     		.short	16512
 7505 08e0 4080     		.short	-32704
 7506 08e2 4080     		.short	-32704
 7507 08e4 4080     		.short	-32704
 7508 08e6 4080     		.short	-32704
 7509 08e8 4080     		.short	-32704
 7510 08ea 4080     		.short	-32704
 7511 08ec 4080     		.short	-32704
 7512 08ee 4088     		.short	-30656
 7513 08f0 8048     		.short	18560
 7514 08f2 003F     		.short	16128
 7515 08f4 0004     		.short	1024
 7516 08f6 C003     		.short	960
 7517 08f8 00FF     		.short	-256
 7518 08fa 8080     		.short	-32640
ARM GAS  C:\Users\arist\AppData\Local\Temp\ccSK2xlW.s 			page 164


 7519 08fc 4080     		.short	-32704
 7520 08fe 4080     		.short	-32704
 7521 0900 4080     		.short	-32704
 7522 0902 4080     		.short	-32704
 7523 0904 8080     		.short	-32640
 7524 0906 00FF     		.short	-256
 7525 0908 0088     		.short	-30720
 7526 090a 0084     		.short	-31744
 7527 090c 0082     		.short	-32256
 7528 090e 0081     		.short	-32512
 7529 0910 8080     		.short	-32640
 7530 0912 4080     		.short	-32704
 7531 0914 C03F     		.short	16320
 7532 0916 0040     		.short	16384
 7533 0918 0080     		.short	-32768
 7534 091a 0080     		.short	-32768
 7535 091c 0080     		.short	-32768
 7536 091e 0040     		.short	16384
 7537 0920 0038     		.short	14336
 7538 0922 0007     		.short	1792
 7539 0924 8000     		.short	128
 7540 0926 4000     		.short	64
 7541 0928 4000     		.short	64
 7542 092a 4000     		.short	64
 7543 092c 8000     		.short	128
 7544 092e 00FF     		.short	-256
 7545 0930 80FF     		.short	-128
 7546 0932 0008     		.short	2048
 7547 0934 0008     		.short	2048
 7548 0936 0008     		.short	2048
 7549 0938 0008     		.short	2048
 7550 093a 0008     		.short	2048
 7551 093c 0008     		.short	2048
 7552 093e 0008     		.short	2048
 7553 0940 0008     		.short	2048
 7554 0942 0008     		.short	2048
 7555 0944 0008     		.short	2048
 7556 0946 0008     		.short	2048
 7557 0948 0008     		.short	2048
 7558 094a 0008     		.short	2048
 7559 094c 4080     		.short	-32704
 7560 094e 4080     		.short	-32704
 7561 0950 4080     		.short	-32704
 7562 0952 4080     		.short	-32704
 7563 0954 4080     		.short	-32704
 7564 0956 4080     		.short	-32704
 7565 0958 4080     		.short	-32704
 7566 095a 4080     		.short	-32704
 7567 095c 4080     		.short	-32704
 7568 095e 4080     		.short	-32704
 7569 0960 4080     		.short	-32704
 7570 0962 4080     		.short	-32704
 7571 0964 8040     		.short	16512
 7572 0966 003F     		.short	16128
 7573 0968 4080     		.short	-32704
 7574 096a 4080     		.short	-32704
 7575 096c 4080     		.short	-32704
ARM GAS  C:\Users\arist\AppData\Local\Temp\ccSK2xlW.s 			page 165


 7576 096e 4080     		.short	-32704
 7577 0970 4080     		.short	-32704
 7578 0972 4080     		.short	-32704
 7579 0974 4080     		.short	-32704
 7580 0976 4080     		.short	-32704
 7581 0978 4080     		.short	-32704
 7582 097a 8040     		.short	16512
 7583 097c 0021     		.short	8448
 7584 097e 0021     		.short	8448
 7585 0980 0012     		.short	4608
 7586 0982 000C     		.short	3072
 7587 0984 4080     		.short	-32704
 7588 0986 4080     		.short	-32704
 7589 0988 4080     		.short	-32704
 7590 098a 4080     		.short	-32704
 7591 098c 4080     		.short	-32704
 7592 098e 4080     		.short	-32704
 7593 0990 4080     		.short	-32704
 7594 0992 4080     		.short	-32704
 7595 0994 4080     		.short	-32704
 7596 0996 4080     		.short	-32704
 7597 0998 4080     		.short	-32704
 7598 099a 408C     		.short	-29632
 7599 099c 8052     		.short	21120
 7600 099e 0021     		.short	8448
 7601 09a0 4080     		.short	-32704
 7602 09a2 4080     		.short	-32704
 7603 09a4 4080     		.short	-32704
 7604 09a6 8040     		.short	16512
 7605 09a8 0021     		.short	8448
 7606 09aa 0012     		.short	4608
 7607 09ac 000C     		.short	3072
 7608 09ae 000C     		.short	3072
 7609 09b0 0012     		.short	4608
 7610 09b2 0021     		.short	8448
 7611 09b4 8040     		.short	16512
 7612 09b6 4080     		.short	-32704
 7613 09b8 4080     		.short	-32704
 7614 09ba 4080     		.short	-32704
 7615 09bc 8080     		.short	-32640
 7616 09be 8080     		.short	-32640
 7617 09c0 8080     		.short	-32640
 7618 09c2 8080     		.short	-32640
 7619 09c4 0041     		.short	16640
 7620 09c6 0022     		.short	8704
 7621 09c8 0014     		.short	5120
 7622 09ca 0008     		.short	2048
 7623 09cc 0008     		.short	2048
 7624 09ce 0008     		.short	2048
 7625 09d0 0008     		.short	2048
 7626 09d2 0008     		.short	2048
 7627 09d4 0008     		.short	2048
 7628 09d6 007F     		.short	32512
 7629 09d8 C0FF     		.short	-64
 7630 09da 4000     		.short	64
 7631 09dc 4000     		.short	64
 7632 09de 8000     		.short	128
ARM GAS  C:\Users\arist\AppData\Local\Temp\ccSK2xlW.s 			page 166


 7633 09e0 0001     		.short	256
 7634 09e2 0002     		.short	512
 7635 09e4 0004     		.short	1024
 7636 09e6 0008     		.short	2048
 7637 09e8 0010     		.short	4096
 7638 09ea 0020     		.short	8192
 7639 09ec 0040     		.short	16384
 7640 09ee 0080     		.short	-32768
 7641 09f0 0080     		.short	-32768
 7642 09f2 C0FF     		.short	-64
 7643 09f4 003F     		.short	16128
 7644 09f6 0020     		.short	8192
 7645 09f8 0020     		.short	8192
 7646 09fa 0020     		.short	8192
 7647 09fc 0020     		.short	8192
 7648 09fe 0020     		.short	8192
 7649 0a00 0020     		.short	8192
 7650 0a02 0020     		.short	8192
 7651 0a04 0020     		.short	8192
 7652 0a06 0020     		.short	8192
 7653 0a08 0020     		.short	8192
 7654 0a0a 0020     		.short	8192
 7655 0a0c 0020     		.short	8192
 7656 0a0e 003F     		.short	16128
 7657 0a10 0000     		.short	0
 7658 0a12 0040     		.short	16384
 7659 0a14 0040     		.short	16384
 7660 0a16 0020     		.short	8192
 7661 0a18 0010     		.short	4096
 7662 0a1a 0010     		.short	4096
 7663 0a1c 0008     		.short	2048
 7664 0a1e 0004     		.short	1024
 7665 0a20 0002     		.short	512
 7666 0a22 0002     		.short	512
 7667 0a24 0001     		.short	256
 7668 0a26 8000     		.short	128
 7669 0a28 8000     		.short	128
 7670 0a2a 0000     		.short	0
 7671 0a2c 003F     		.short	16128
 7672 0a2e 0001     		.short	256
 7673 0a30 0001     		.short	256
 7674 0a32 0001     		.short	256
 7675 0a34 0001     		.short	256
 7676 0a36 0001     		.short	256
 7677 0a38 0001     		.short	256
 7678 0a3a 0001     		.short	256
 7679 0a3c 0001     		.short	256
 7680 0a3e 0001     		.short	256
 7681 0a40 0001     		.short	256
 7682 0a42 0001     		.short	256
 7683 0a44 0001     		.short	256
 7684 0a46 003F     		.short	16128
 7685 0a48 000C     		.short	3072
 7686 0a4a 0012     		.short	4608
 7687 0a4c 0021     		.short	8448
 7688 0a4e 0000     		.short	0
 7689 0a50 0000     		.short	0
ARM GAS  C:\Users\arist\AppData\Local\Temp\ccSK2xlW.s 			page 167


 7690 0a52 0000     		.short	0
 7691 0a54 0000     		.short	0
 7692 0a56 0000     		.short	0
 7693 0a58 0000     		.short	0
 7694 0a5a 0000     		.short	0
 7695 0a5c 0000     		.short	0
 7696 0a5e 0000     		.short	0
 7697 0a60 0000     		.short	0
 7698 0a62 0000     		.short	0
 7699 0a64 0000     		.short	0
 7700 0a66 0000     		.short	0
 7701 0a68 0000     		.short	0
 7702 0a6a 0000     		.short	0
 7703 0a6c 0000     		.short	0
 7704 0a6e 0000     		.short	0
 7705 0a70 0000     		.short	0
 7706 0a72 0000     		.short	0
 7707 0a74 0000     		.short	0
 7708 0a76 0000     		.short	0
 7709 0a78 0000     		.short	0
 7710 0a7a 0000     		.short	0
 7711 0a7c 0000     		.short	0
 7712 0a7e 807F     		.short	32640
 7713 0a80 0008     		.short	2048
 7714 0a82 0008     		.short	2048
 7715 0a84 0008     		.short	2048
 7716 0a86 0008     		.short	2048
 7717 0a88 0000     		.short	0
 7718 0a8a 0000     		.short	0
 7719 0a8c 0000     		.short	0
 7720 0a8e 0000     		.short	0
 7721 0a90 0000     		.short	0
 7722 0a92 0000     		.short	0
 7723 0a94 0000     		.short	0
 7724 0a96 0000     		.short	0
 7725 0a98 0000     		.short	0
 7726 0a9a 0000     		.short	0
 7727 0a9c 0000     		.short	0
 7728 0a9e 0000     		.short	0
 7729 0aa0 0000     		.short	0
 7730 0aa2 0000     		.short	0
 7731 0aa4 003E     		.short	15872
 7732 0aa6 0041     		.short	16640
 7733 0aa8 8000     		.short	128
 7734 0aaa 803E     		.short	16000
 7735 0aac 8041     		.short	16768
 7736 0aae 8080     		.short	-32640
 7737 0ab0 8080     		.short	-32640
 7738 0ab2 8080     		.short	-32640
 7739 0ab4 0041     		.short	16640
 7740 0ab6 003E     		.short	15872
 7741 0ab8 0080     		.short	-32768
 7742 0aba 0080     		.short	-32768
 7743 0abc 0080     		.short	-32768
 7744 0abe 0080     		.short	-32768
 7745 0ac0 00BE     		.short	-16896
 7746 0ac2 00C1     		.short	-16128
ARM GAS  C:\Users\arist\AppData\Local\Temp\ccSK2xlW.s 			page 168


 7747 0ac4 8080     		.short	-32640
 7748 0ac6 8080     		.short	-32640
 7749 0ac8 8080     		.short	-32640
 7750 0aca 8080     		.short	-32640
 7751 0acc 8080     		.short	-32640
 7752 0ace 8080     		.short	-32640
 7753 0ad0 0041     		.short	16640
 7754 0ad2 003E     		.short	15872
 7755 0ad4 0000     		.short	0
 7756 0ad6 0000     		.short	0
 7757 0ad8 0000     		.short	0
 7758 0ada 0000     		.short	0
 7759 0adc 003F     		.short	16128
 7760 0ade 0040     		.short	16384
 7761 0ae0 0080     		.short	-32768
 7762 0ae2 0080     		.short	-32768
 7763 0ae4 0080     		.short	-32768
 7764 0ae6 0080     		.short	-32768
 7765 0ae8 0080     		.short	-32768
 7766 0aea 0080     		.short	-32768
 7767 0aec 0040     		.short	16384
 7768 0aee 003F     		.short	16128
 7769 0af0 8000     		.short	128
 7770 0af2 8000     		.short	128
 7771 0af4 8000     		.short	128
 7772 0af6 8000     		.short	128
 7773 0af8 803E     		.short	16000
 7774 0afa 8041     		.short	16768
 7775 0afc 8080     		.short	-32640
 7776 0afe 8080     		.short	-32640
 7777 0b00 8080     		.short	-32640
 7778 0b02 8080     		.short	-32640
 7779 0b04 8080     		.short	-32640
 7780 0b06 8080     		.short	-32640
 7781 0b08 0041     		.short	16640
 7782 0b0a 003E     		.short	15872
 7783 0b0c 0000     		.short	0
 7784 0b0e 0000     		.short	0
 7785 0b10 0000     		.short	0
 7786 0b12 0000     		.short	0
 7787 0b14 003E     		.short	15872
 7788 0b16 0041     		.short	16640
 7789 0b18 8080     		.short	-32640
 7790 0b1a 8080     		.short	-32640
 7791 0b1c 8080     		.short	-32640
 7792 0b1e 00C1     		.short	-16128
 7793 0b20 00BE     		.short	-16896
 7794 0b22 0080     		.short	-32768
 7795 0b24 8040     		.short	16512
 7796 0b26 003F     		.short	16128
 7797 0b28 0006     		.short	1536
 7798 0b2a 0009     		.short	2304
 7799 0b2c 8010     		.short	4224
 7800 0b2e 8010     		.short	4224
 7801 0b30 0010     		.short	4096
 7802 0b32 007C     		.short	31744
 7803 0b34 0010     		.short	4096
ARM GAS  C:\Users\arist\AppData\Local\Temp\ccSK2xlW.s 			page 169


 7804 0b36 0010     		.short	4096
 7805 0b38 0010     		.short	4096
 7806 0b3a 0010     		.short	4096
 7807 0b3c 0010     		.short	4096
 7808 0b3e 0010     		.short	4096
 7809 0b40 0010     		.short	4096
 7810 0b42 007C     		.short	31744
 7811 0b44 0000     		.short	0
 7812 0b46 0000     		.short	0
 7813 0b48 0000     		.short	0
 7814 0b4a 0000     		.short	0
 7815 0b4c 803E     		.short	16000
 7816 0b4e 8041     		.short	16768
 7817 0b50 8080     		.short	-32640
 7818 0b52 8080     		.short	-32640
 7819 0b54 8080     		.short	-32640
 7820 0b56 8041     		.short	16768
 7821 0b58 803E     		.short	16000
 7822 0b5a 8000     		.short	128
 7823 0b5c 0041     		.short	16640
 7824 0b5e 003E     		.short	15872
 7825 0b60 0080     		.short	-32768
 7826 0b62 0080     		.short	-32768
 7827 0b64 0080     		.short	-32768
 7828 0b66 0080     		.short	-32768
 7829 0b68 009E     		.short	-25088
 7830 0b6a 00A1     		.short	-24320
 7831 0b6c 80C0     		.short	-16256
 7832 0b6e 8080     		.short	-32640
 7833 0b70 8080     		.short	-32640
 7834 0b72 8080     		.short	-32640
 7835 0b74 8080     		.short	-32640
 7836 0b76 8080     		.short	-32640
 7837 0b78 8080     		.short	-32640
 7838 0b7a 8080     		.short	-32640
 7839 0b7c 0000     		.short	0
 7840 0b7e 0000     		.short	0
 7841 0b80 0000     		.short	0
 7842 0b82 0000     		.short	0
 7843 0b84 0008     		.short	2048
 7844 0b86 0000     		.short	0
 7845 0b88 0000     		.short	0
 7846 0b8a 0038     		.short	14336
 7847 0b8c 0008     		.short	2048
 7848 0b8e 0008     		.short	2048
 7849 0b90 0008     		.short	2048
 7850 0b92 0008     		.short	2048
 7851 0b94 0008     		.short	2048
 7852 0b96 003E     		.short	15872
 7853 0b98 0000     		.short	0
 7854 0b9a 0000     		.short	0
 7855 0b9c 0000     		.short	0
 7856 0b9e 0000     		.short	0
 7857 0ba0 0002     		.short	512
 7858 0ba2 0000     		.short	0
 7859 0ba4 003E     		.short	15872
 7860 0ba6 0002     		.short	512
ARM GAS  C:\Users\arist\AppData\Local\Temp\ccSK2xlW.s 			page 170


 7861 0ba8 0002     		.short	512
 7862 0baa 0002     		.short	512
 7863 0bac 0042     		.short	16896
 7864 0bae 0042     		.short	16896
 7865 0bb0 0022     		.short	8704
 7866 0bb2 0018     		.short	6144
 7867 0bb4 0080     		.short	-32768
 7868 0bb6 0080     		.short	-32768
 7869 0bb8 0080     		.short	-32768
 7870 0bba 0080     		.short	-32768
 7871 0bbc 0081     		.short	-32512
 7872 0bbe 0082     		.short	-32256
 7873 0bc0 0084     		.short	-31744
 7874 0bc2 0088     		.short	-30720
 7875 0bc4 0090     		.short	-28672
 7876 0bc6 00F8     		.short	-2048
 7877 0bc8 0084     		.short	-31744
 7878 0bca 0082     		.short	-32256
 7879 0bcc 0081     		.short	-32512
 7880 0bce 8080     		.short	-32640
 7881 0bd0 0000     		.short	0
 7882 0bd2 0038     		.short	14336
 7883 0bd4 0008     		.short	2048
 7884 0bd6 0008     		.short	2048
 7885 0bd8 0008     		.short	2048
 7886 0bda 0008     		.short	2048
 7887 0bdc 0008     		.short	2048
 7888 0bde 0008     		.short	2048
 7889 0be0 0008     		.short	2048
 7890 0be2 0008     		.short	2048
 7891 0be4 0008     		.short	2048
 7892 0be6 0008     		.short	2048
 7893 0be8 0008     		.short	2048
 7894 0bea 003E     		.short	15872
 7895 0bec 0000     		.short	0
 7896 0bee 0000     		.short	0
 7897 0bf0 0000     		.short	0
 7898 0bf2 0000     		.short	0
 7899 0bf4 0036     		.short	13824
 7900 0bf6 0049     		.short	18688
 7901 0bf8 8088     		.short	-30592
 7902 0bfa 8088     		.short	-30592
 7903 0bfc 8088     		.short	-30592
 7904 0bfe 8080     		.short	-32640
 7905 0c00 8080     		.short	-32640
 7906 0c02 8080     		.short	-32640
 7907 0c04 8080     		.short	-32640
 7908 0c06 8080     		.short	-32640
 7909 0c08 0000     		.short	0
 7910 0c0a 0000     		.short	0
 7911 0c0c 0000     		.short	0
 7912 0c0e 0000     		.short	0
 7913 0c10 009E     		.short	-25088
 7914 0c12 00A1     		.short	-24320
 7915 0c14 80C0     		.short	-16256
 7916 0c16 8080     		.short	-32640
 7917 0c18 8080     		.short	-32640
ARM GAS  C:\Users\arist\AppData\Local\Temp\ccSK2xlW.s 			page 171


 7918 0c1a 8080     		.short	-32640
 7919 0c1c 8080     		.short	-32640
 7920 0c1e 8080     		.short	-32640
 7921 0c20 8080     		.short	-32640
 7922 0c22 8080     		.short	-32640
 7923 0c24 0000     		.short	0
 7924 0c26 0000     		.short	0
 7925 0c28 0000     		.short	0
 7926 0c2a 0000     		.short	0
 7927 0c2c 003E     		.short	15872
 7928 0c2e 0041     		.short	16640
 7929 0c30 8080     		.short	-32640
 7930 0c32 8080     		.short	-32640
 7931 0c34 8080     		.short	-32640
 7932 0c36 8080     		.short	-32640
 7933 0c38 8080     		.short	-32640
 7934 0c3a 8080     		.short	-32640
 7935 0c3c 0041     		.short	16640
 7936 0c3e 003E     		.short	15872
 7937 0c40 0000     		.short	0
 7938 0c42 0000     		.short	0
 7939 0c44 0000     		.short	0
 7940 0c46 0000     		.short	0
 7941 0c48 00BE     		.short	-16896
 7942 0c4a 00C1     		.short	-16128
 7943 0c4c 8080     		.short	-32640
 7944 0c4e 8080     		.short	-32640
 7945 0c50 8080     		.short	-32640
 7946 0c52 00C1     		.short	-16128
 7947 0c54 00BE     		.short	-16896
 7948 0c56 0080     		.short	-32768
 7949 0c58 0080     		.short	-32768
 7950 0c5a 0080     		.short	-32768
 7951 0c5c 0000     		.short	0
 7952 0c5e 0000     		.short	0
 7953 0c60 0000     		.short	0
 7954 0c62 0000     		.short	0
 7955 0c64 803E     		.short	16000
 7956 0c66 8041     		.short	16768
 7957 0c68 8080     		.short	-32640
 7958 0c6a 8080     		.short	-32640
 7959 0c6c 8080     		.short	-32640
 7960 0c6e 8041     		.short	16768
 7961 0c70 803E     		.short	16000
 7962 0c72 8000     		.short	128
 7963 0c74 8000     		.short	128
 7964 0c76 8000     		.short	128
 7965 0c78 0000     		.short	0
 7966 0c7a 0000     		.short	0
 7967 0c7c 0000     		.short	0
 7968 0c7e 0000     		.short	0
 7969 0c80 8027     		.short	10112
 7970 0c82 4028     		.short	10304
 7971 0c84 4010     		.short	4160
 7972 0c86 0010     		.short	4096
 7973 0c88 0010     		.short	4096
 7974 0c8a 0010     		.short	4096
ARM GAS  C:\Users\arist\AppData\Local\Temp\ccSK2xlW.s 			page 172


 7975 0c8c 0010     		.short	4096
 7976 0c8e 0010     		.short	4096
 7977 0c90 0010     		.short	4096
 7978 0c92 007C     		.short	31744
 7979 0c94 0000     		.short	0
 7980 0c96 0000     		.short	0
 7981 0c98 0000     		.short	0
 7982 0c9a 0000     		.short	0
 7983 0c9c 803F     		.short	16256
 7984 0c9e 0040     		.short	16384
 7985 0ca0 0080     		.short	-32768
 7986 0ca2 0080     		.short	-32768
 7987 0ca4 0078     		.short	30720
 7988 0ca6 000F     		.short	3840
 7989 0ca8 8000     		.short	128
 7990 0caa 8000     		.short	128
 7991 0cac 0001     		.short	256
 7992 0cae 00FE     		.short	-512
 7993 0cb0 0000     		.short	0
 7994 0cb2 0000     		.short	0
 7995 0cb4 0008     		.short	2048
 7996 0cb6 0018     		.short	6144
 7997 0cb8 807F     		.short	32640
 7998 0cba 0008     		.short	2048
 7999 0cbc 0008     		.short	2048
 8000 0cbe 0008     		.short	2048
 8001 0cc0 0008     		.short	2048
 8002 0cc2 0008     		.short	2048
 8003 0cc4 0008     		.short	2048
 8004 0cc6 0008     		.short	2048
 8005 0cc8 0008     		.short	2048
 8006 0cca 0007     		.short	1792
 8007 0ccc 0000     		.short	0
 8008 0cce 0000     		.short	0
 8009 0cd0 0000     		.short	0
 8010 0cd2 0000     		.short	0
 8011 0cd4 8080     		.short	-32640
 8012 0cd6 8080     		.short	-32640
 8013 0cd8 8080     		.short	-32640
 8014 0cda 8080     		.short	-32640
 8015 0cdc 8080     		.short	-32640
 8016 0cde 8080     		.short	-32640
 8017 0ce0 8080     		.short	-32640
 8018 0ce2 8080     		.short	-32640
 8019 0ce4 0041     		.short	16640
 8020 0ce6 003E     		.short	15872
 8021 0ce8 0000     		.short	0
 8022 0cea 0000     		.short	0
 8023 0cec 0000     		.short	0
 8024 0cee 0000     		.short	0
 8025 0cf0 8080     		.short	-32640
 8026 0cf2 8080     		.short	-32640
 8027 0cf4 8080     		.short	-32640
 8028 0cf6 8080     		.short	-32640
 8029 0cf8 8080     		.short	-32640
 8030 0cfa 8080     		.short	-32640
 8031 0cfc 0041     		.short	16640
ARM GAS  C:\Users\arist\AppData\Local\Temp\ccSK2xlW.s 			page 173


 8032 0cfe 0022     		.short	8704
 8033 0d00 0014     		.short	5120
 8034 0d02 0008     		.short	2048
 8035 0d04 0000     		.short	0
 8036 0d06 0000     		.short	0
 8037 0d08 0000     		.short	0
 8038 0d0a 0000     		.short	0
 8039 0d0c 8080     		.short	-32640
 8040 0d0e 8080     		.short	-32640
 8041 0d10 8080     		.short	-32640
 8042 0d12 8080     		.short	-32640
 8043 0d14 8080     		.short	-32640
 8044 0d16 8088     		.short	-30592
 8045 0d18 8088     		.short	-30592
 8046 0d1a 8088     		.short	-30592
 8047 0d1c 0055     		.short	21760
 8048 0d1e 0022     		.short	8704
 8049 0d20 0000     		.short	0
 8050 0d22 0000     		.short	0
 8051 0d24 0000     		.short	0
 8052 0d26 0000     		.short	0
 8053 0d28 8080     		.short	-32640
 8054 0d2a 8080     		.short	-32640
 8055 0d2c 0041     		.short	16640
 8056 0d2e 0022     		.short	8704
 8057 0d30 001C     		.short	7168
 8058 0d32 001C     		.short	7168
 8059 0d34 0022     		.short	8704
 8060 0d36 0041     		.short	16640
 8061 0d38 8080     		.short	-32640
 8062 0d3a 8080     		.short	-32640
 8063 0d3c 0000     		.short	0
 8064 0d3e 0000     		.short	0
 8065 0d40 0000     		.short	0
 8066 0d42 0000     		.short	0
 8067 0d44 8080     		.short	-32640
 8068 0d46 8080     		.short	-32640
 8069 0d48 0041     		.short	16640
 8070 0d4a 0022     		.short	8704
 8071 0d4c 0014     		.short	5120
 8072 0d4e 0008     		.short	2048
 8073 0d50 0008     		.short	2048
 8074 0d52 0008     		.short	2048
 8075 0d54 0008     		.short	2048
 8076 0d56 0070     		.short	28672
 8077 0d58 0000     		.short	0
 8078 0d5a 0000     		.short	0
 8079 0d5c 0000     		.short	0
 8080 0d5e 0000     		.short	0
 8081 0d60 80FF     		.short	-128
 8082 0d62 8000     		.short	128
 8083 0d64 0001     		.short	256
 8084 0d66 0002     		.short	512
 8085 0d68 0004     		.short	1024
 8086 0d6a 0018     		.short	6144
 8087 0d6c 0020     		.short	8192
 8088 0d6e 0040     		.short	16384
ARM GAS  C:\Users\arist\AppData\Local\Temp\ccSK2xlW.s 			page 174


 8089 0d70 0080     		.short	-32768
 8090 0d72 80FF     		.short	-128
 8091 0d74 000E     		.short	3584
 8092 0d76 0010     		.short	4096
 8093 0d78 0010     		.short	4096
 8094 0d7a 0020     		.short	8192
 8095 0d7c 0020     		.short	8192
 8096 0d7e 0020     		.short	8192
 8097 0d80 0040     		.short	16384
 8098 0d82 0040     		.short	16384
 8099 0d84 0020     		.short	8192
 8100 0d86 0020     		.short	8192
 8101 0d88 0020     		.short	8192
 8102 0d8a 0010     		.short	4096
 8103 0d8c 0010     		.short	4096
 8104 0d8e 000E     		.short	3584
 8105 0d90 0008     		.short	2048
 8106 0d92 0008     		.short	2048
 8107 0d94 0008     		.short	2048
 8108 0d96 0008     		.short	2048
 8109 0d98 0008     		.short	2048
 8110 0d9a 0008     		.short	2048
 8111 0d9c 0008     		.short	2048
 8112 0d9e 0008     		.short	2048
 8113 0da0 0008     		.short	2048
 8114 0da2 0008     		.short	2048
 8115 0da4 0008     		.short	2048
 8116 0da6 0008     		.short	2048
 8117 0da8 0008     		.short	2048
 8118 0daa 0008     		.short	2048
 8119 0dac 001C     		.short	7168
 8120 0dae 0002     		.short	512
 8121 0db0 0002     		.short	512
 8122 0db2 0001     		.short	256
 8123 0db4 0001     		.short	256
 8124 0db6 0001     		.short	256
 8125 0db8 8000     		.short	128
 8126 0dba 8000     		.short	128
 8127 0dbc 0001     		.short	256
 8128 0dbe 0001     		.short	256
 8129 0dc0 0001     		.short	256
 8130 0dc2 0002     		.short	512
 8131 0dc4 0002     		.short	512
 8132 0dc6 001C     		.short	7168
 8133 0dc8 0000     		.short	0
 8134 0dca 0000     		.short	0
 8135 0dcc 0000     		.short	0
 8136 0dce 0000     		.short	0
 8137 0dd0 0000     		.short	0
 8138 0dd2 8070     		.short	28800
 8139 0dd4 8088     		.short	-30592
 8140 0dd6 0087     		.short	-30976
 8141 0dd8 0000     		.short	0
 8142 0dda 0000     		.short	0
 8143 0ddc 0000     		.short	0
 8144 0dde 0000     		.short	0
 8145 0de0 0000     		.short	0
ARM GAS  C:\Users\arist\AppData\Local\Temp\ccSK2xlW.s 			page 175


 8146 0de2 0000     		.short	0
 8147 0de4 0078     		.short	30720
 8148 0de6 0080     		.short	-32768
 8149 0de8 0080     		.short	-32768
 8150 0dea 0080     		.short	-32768
 8151 0dec 0080     		.short	-32768
 8152 0dee 0078     		.short	30720
 8153 0df0 0020     		.short	8192
 8154 0df2 00000000 		.space	14
 8154      00000000 
 8154      00000000 
 8154      0000
 8155 0e00 0050     		.short	20480
 8156 0e02 0000     		.short	0
 8157 0e04 0088     		.short	-30720
 8158 0e06 0088     		.short	-30720
 8159 0e08 0088     		.short	-30720
 8160 0e0a 0098     		.short	-26624
 8161 0e0c 0068     		.short	26624
 8162 0e0e 00000000 		.space	14
 8162      00000000 
 8162      00000000 
 8162      0000
 8163 0e1c 0010     		.short	4096
 8164 0e1e 0020     		.short	8192
 8165 0e20 0070     		.short	28672
 8166 0e22 0088     		.short	-30720
 8167 0e24 00F0     		.short	-4096
 8168 0e26 0080     		.short	-32768
 8169 0e28 0070     		.short	28672
 8170 0e2a 00000000 		.space	14
 8170      00000000 
 8170      00000000 
 8170      0000
 8171 0e38 0020     		.short	8192
 8172 0e3a 0050     		.short	20480
 8173 0e3c 0070     		.short	28672
 8174 0e3e 0008     		.short	2048
 8175 0e40 0078     		.short	30720
 8176 0e42 0088     		.short	-30720
 8177 0e44 0070     		.short	28672
 8178 0e46 00000000 		.space	14
 8178      00000000 
 8178      00000000 
 8178      0000
 8179 0e54 0050     		.short	20480
 8180 0e56 0000     		.short	0
 8181 0e58 0070     		.short	28672
 8182 0e5a 0008     		.short	2048
 8183 0e5c 0078     		.short	30720
 8184 0e5e 0088     		.short	-30720
 8185 0e60 0070     		.short	28672
 8186 0e62 00000000 		.space	14
 8186      00000000 
 8186      00000000 
 8186      0000
 8187 0e70 0040     		.short	16384
ARM GAS  C:\Users\arist\AppData\Local\Temp\ccSK2xlW.s 			page 176


 8188 0e72 0020     		.short	8192
 8189 0e74 0070     		.short	28672
 8190 0e76 0008     		.short	2048
 8191 0e78 0078     		.short	30720
 8192 0e7a 0088     		.short	-30720
 8193 0e7c 0070     		.short	28672
 8194 0e7e 00000000 		.space	14
 8194      00000000 
 8194      00000000 
 8194      0000
 8195 0e8c 0020     		.short	8192
 8196 0e8e 0000     		.short	0
 8197 0e90 0070     		.short	28672
 8198 0e92 0008     		.short	2048
 8199 0e94 0078     		.short	30720
 8200 0e96 0088     		.short	-30720
 8201 0e98 0070     		.short	28672
 8202 0e9a 00000000 		.space	14
 8202      00000000 
 8202      00000000 
 8202      0000
 8203 0ea8 0000     		.short	0
 8204 0eaa 0000     		.short	0
 8205 0eac 0078     		.short	30720
 8206 0eae 0080     		.short	-32768
 8207 0eb0 0080     		.short	-32768
 8208 0eb2 0078     		.short	30720
 8209 0eb4 0020     		.short	8192
 8210 0eb6 00000000 		.space	14
 8210      00000000 
 8210      00000000 
 8210      0000
 8211 0ec4 0020     		.short	8192
 8212 0ec6 0050     		.short	20480
 8213 0ec8 0070     		.short	28672
 8214 0eca 0088     		.short	-30720
 8215 0ecc 00F0     		.short	-4096
 8216 0ece 0080     		.short	-32768
 8217 0ed0 0070     		.short	28672
 8218 0ed2 00000000 		.space	14
 8218      00000000 
 8218      00000000 
 8218      0000
 8219 0ee0 0050     		.short	20480
 8220 0ee2 0000     		.short	0
 8221 0ee4 0070     		.short	28672
 8222 0ee6 0088     		.short	-30720
 8223 0ee8 00F0     		.short	-4096
 8224 0eea 0080     		.short	-32768
 8225 0eec 0070     		.short	28672
 8226 0eee 00000000 		.space	14
 8226      00000000 
 8226      00000000 
 8226      0000
 8227 0efc 0040     		.short	16384
 8228 0efe 0020     		.short	8192
 8229 0f00 0070     		.short	28672
ARM GAS  C:\Users\arist\AppData\Local\Temp\ccSK2xlW.s 			page 177


 8230 0f02 0088     		.short	-30720
 8231 0f04 00F0     		.short	-4096
 8232 0f06 0080     		.short	-32768
 8233 0f08 0070     		.short	28672
 8234 0f0a 00000000 		.space	14
 8234      00000000 
 8234      00000000 
 8234      0000
 8235 0f18 0050     		.short	20480
 8236 0f1a 0000     		.short	0
 8237 0f1c 0000     		.short	0
 8238 0f1e 0060     		.short	24576
 8239 0f20 0020     		.short	8192
 8240 0f22 0020     		.short	8192
 8241 0f24 0070     		.short	28672
 8242 0f26 00000000 		.space	14
 8242      00000000 
 8242      00000000 
 8242      0000
 8243 0f34 0020     		.short	8192
 8244 0f36 0050     		.short	20480
 8245 0f38 0000     		.short	0
 8246 0f3a 0060     		.short	24576
 8247 0f3c 0020     		.short	8192
 8248 0f3e 0020     		.short	8192
 8249 0f40 0070     		.short	28672
 8250 0f42 00000000 		.space	14
 8250      00000000 
 8250      00000000 
 8250      0000
 8251 0f50 0040     		.short	16384
 8252 0f52 0020     		.short	8192
 8253 0f54 0000     		.short	0
 8254 0f56 0060     		.short	24576
 8255 0f58 0020     		.short	8192
 8256 0f5a 0020     		.short	8192
 8257 0f5c 0070     		.short	28672
 8258 0f5e 00000000 		.space	14
 8258      00000000 
 8258      00000000 
 8258      0000
 8259 0f6c 0050     		.short	20480
 8260 0f6e 0000     		.short	0
 8261 0f70 0070     		.short	28672
 8262 0f72 0088     		.short	-30720
 8263 0f74 00F8     		.short	-2048
 8264 0f76 0088     		.short	-30720
 8265 0f78 0088     		.short	-30720
 8266 0f7a 00000000 		.space	14
 8266      00000000 
 8266      00000000 
 8266      0000
 8267 0f88 0020     		.short	8192
 8268 0f8a 0000     		.short	0
 8269 0f8c 0070     		.short	28672
 8270 0f8e 0088     		.short	-30720
 8271 0f90 00F8     		.short	-2048
ARM GAS  C:\Users\arist\AppData\Local\Temp\ccSK2xlW.s 			page 178


 8272 0f92 0088     		.short	-30720
 8273 0f94 0088     		.short	-30720
 8274 0f96 00000000 		.space	14
 8274      00000000 
 8274      00000000 
 8274      0000
 8275 0fa4 0010     		.short	4096
 8276 0fa6 0020     		.short	8192
 8277 0fa8 00F8     		.short	-2048
 8278 0faa 0080     		.short	-32768
 8279 0fac 00F0     		.short	-4096
 8280 0fae 0080     		.short	-32768
 8281 0fb0 00F8     		.short	-2048
 8282 0fb2 00000000 		.space	14
 8282      00000000 
 8282      00000000 
 8282      0000
 8283 0fc0 0000     		.short	0
 8284 0fc2 0000     		.short	0
 8285 0fc4 00D0     		.short	-12288
 8286 0fc6 0028     		.short	10240
 8287 0fc8 0070     		.short	28672
 8288 0fca 00A0     		.short	-24576
 8289 0fcc 0058     		.short	22528
 8290 0fce 00000000 		.space	14
 8290      00000000 
 8290      00000000 
 8290      0000
 8291 0fdc 0078     		.short	30720
 8292 0fde 00A0     		.short	-24576
 8293 0fe0 00A0     		.short	-24576
 8294 0fe2 00F8     		.short	-2048
 8295 0fe4 00A0     		.short	-24576
 8296 0fe6 00A0     		.short	-24576
 8297 0fe8 00B8     		.short	-18432
 8298 0fea 00000000 		.space	14
 8298      00000000 
 8298      00000000 
 8298      0000
 8299 0ff8 0020     		.short	8192
 8300 0ffa 0050     		.short	20480
 8301 0ffc 0070     		.short	28672
 8302 0ffe 0088     		.short	-30720
 8303 1000 0088     		.short	-30720
 8304 1002 0088     		.short	-30720
 8305 1004 0070     		.short	28672
 8306 1006 00000000 		.space	14
 8306      00000000 
 8306      00000000 
 8306      0000
 8307 1014 0050     		.short	20480
 8308 1016 0000     		.short	0
 8309 1018 0070     		.short	28672
 8310 101a 0088     		.short	-30720
 8311 101c 0088     		.short	-30720
 8312 101e 0088     		.short	-30720
 8313 1020 0070     		.short	28672
ARM GAS  C:\Users\arist\AppData\Local\Temp\ccSK2xlW.s 			page 179


 8314 1022 00000000 		.space	14
 8314      00000000 
 8314      00000000 
 8314      0000
 8315 1030 0040     		.short	16384
 8316 1032 0020     		.short	8192
 8317 1034 0070     		.short	28672
 8318 1036 0088     		.short	-30720
 8319 1038 0088     		.short	-30720
 8320 103a 0088     		.short	-30720
 8321 103c 0070     		.short	28672
 8322 103e 00000000 		.space	14
 8322      00000000 
 8322      00000000 
 8322      0000
 8323 104c 0020     		.short	8192
 8324 104e 0050     		.short	20480
 8325 1050 0088     		.short	-30720
 8326 1052 0088     		.short	-30720
 8327 1054 0088     		.short	-30720
 8328 1056 0098     		.short	-26624
 8329 1058 0068     		.short	26624
 8330 105a 00000000 		.space	14
 8330      00000000 
 8330      00000000 
 8330      0000
 8331 1068 0040     		.short	16384
 8332 106a 0020     		.short	8192
 8333 106c 0088     		.short	-30720
 8334 106e 0088     		.short	-30720
 8335 1070 0088     		.short	-30720
 8336 1072 0098     		.short	-26624
 8337 1074 0068     		.short	26624
 8338 1076 00000000 		.space	14
 8338      00000000 
 8338      00000000 
 8338      0000
 8339 1084 0050     		.short	20480
 8340 1086 0000     		.short	0
 8341 1088 0088     		.short	-30720
 8342 108a 0050     		.short	20480
 8343 108c 0020     		.short	8192
 8344 108e 0020     		.short	8192
 8345 1090 00C0     		.short	-16384
 8346 1092 00000000 		.space	14
 8346      00000000 
 8346      00000000 
 8346      0000
 8347 10a0 0050     		.short	20480
 8348 10a2 0070     		.short	28672
 8349 10a4 0088     		.short	-30720
 8350 10a6 0088     		.short	-30720
 8351 10a8 0088     		.short	-30720
 8352 10aa 0088     		.short	-30720
 8353 10ac 0070     		.short	28672
 8354 10ae 00000000 		.space	14
 8354      00000000 
ARM GAS  C:\Users\arist\AppData\Local\Temp\ccSK2xlW.s 			page 180


 8354      00000000 
 8354      0000
 8355 10bc 0050     		.short	20480
 8356 10be 0088     		.short	-30720
 8357 10c0 0088     		.short	-30720
 8358 10c2 0088     		.short	-30720
 8359 10c4 0088     		.short	-30720
 8360 10c6 0088     		.short	-30720
 8361 10c8 0070     		.short	28672
 8362 10ca 00000000 		.space	14
 8362      00000000 
 8362      00000000 
 8362      0000
 8363 10d8 0000     		.short	0
 8364 10da 0000     		.short	0
 8365 10dc 0070     		.short	28672
 8366 10de 0098     		.short	-26624
 8367 10e0 00A8     		.short	-22528
 8368 10e2 00C8     		.short	-14336
 8369 10e4 0070     		.short	28672
 8370 10e6 00000000 		.space	14
 8370      00000000 
 8370      00000000 
 8370      0000
 8371 10f4 0030     		.short	12288
 8372 10f6 0040     		.short	16384
 8373 10f8 0020     		.short	8192
 8374 10fa 00F0     		.short	-4096
 8375 10fc 0040     		.short	16384
 8376 10fe 0080     		.short	-32768
 8377 1100 00F8     		.short	-2048
 8378 1102 00000000 		.space	14
 8378      00000000 
 8378      00000000 
 8378      0000
 8379 1110 0070     		.short	28672
 8380 1112 0088     		.short	-30720
 8381 1114 0098     		.short	-26624
 8382 1116 00A8     		.short	-22528
 8383 1118 00C8     		.short	-14336
 8384 111a 0088     		.short	-30720
 8385 111c 0070     		.short	28672
 8386 111e 00000000 		.space	14
 8386      00000000 
 8386      00000000 
 8386      0000
 8387 112c 0050     		.short	20480
 8388 112e 0020     		.short	8192
 8389 1130 0050     		.short	20480
 8390 1132 0000     		.short	0
 8391 1134 0000     		.short	0
 8392 1136 0000     		.short	0
 8393 1138 0000     		.short	0
 8394 113a 00000000 		.space	14
 8394      00000000 
 8394      00000000 
 8394      0000
ARM GAS  C:\Users\arist\AppData\Local\Temp\ccSK2xlW.s 			page 181


 8395 1148 0018     		.short	6144
 8396 114a 0020     		.short	8192
 8397 114c 0020     		.short	8192
 8398 114e 0070     		.short	28672
 8399 1150 0020     		.short	8192
 8400 1152 0020     		.short	8192
 8401 1154 00C0     		.short	-16384
 8402 1156 00000000 		.space	14
 8402      00000000 
 8402      00000000 
 8402      0000
 8403 1164 0010     		.short	4096
 8404 1166 0020     		.short	8192
 8405 1168 0070     		.short	28672
 8406 116a 0008     		.short	2048
 8407 116c 0078     		.short	30720
 8408 116e 0088     		.short	-30720
 8409 1170 0070     		.short	28672
 8410 1172 00000000 		.space	14
 8410      00000000 
 8410      00000000 
 8410      0000
 8411 1180 0010     		.short	4096
 8412 1182 0020     		.short	8192
 8413 1184 0000     		.short	0
 8414 1186 0060     		.short	24576
 8415 1188 0020     		.short	8192
 8416 118a 0020     		.short	8192
 8417 118c 0070     		.short	28672
 8418 118e 00000000 		.space	14
 8418      00000000 
 8418      00000000 
 8418      0000
 8419 119c 0010     		.short	4096
 8420 119e 0020     		.short	8192
 8421 11a0 0070     		.short	28672
 8422 11a2 0088     		.short	-30720
 8423 11a4 0088     		.short	-30720
 8424 11a6 0088     		.short	-30720
 8425 11a8 0070     		.short	28672
 8426 11aa 00000000 		.space	14
 8426      00000000 
 8426      00000000 
 8426      0000
 8427 11b8 0010     		.short	4096
 8428 11ba 0020     		.short	8192
 8429 11bc 0088     		.short	-30720
 8430 11be 0088     		.short	-30720
 8431 11c0 0088     		.short	-30720
 8432 11c2 0098     		.short	-26624
 8433 11c4 0068     		.short	26624
 8434 11c6 00000000 		.space	14
 8434      00000000 
 8434      00000000 
 8434      0000
 8435 11d4 0028     		.short	10240
 8436 11d6 0050     		.short	20480
ARM GAS  C:\Users\arist\AppData\Local\Temp\ccSK2xlW.s 			page 182


 8437 11d8 00B0     		.short	-20480
 8438 11da 00C8     		.short	-14336
 8439 11dc 0088     		.short	-30720
 8440 11de 0088     		.short	-30720
 8441 11e0 0088     		.short	-30720
 8442 11e2 00000000 		.space	14
 8442      00000000 
 8442      00000000 
 8442      0000
 8443 11f0 0028     		.short	10240
 8444 11f2 0050     		.short	20480
 8445 11f4 0088     		.short	-30720
 8446 11f6 00C8     		.short	-14336
 8447 11f8 00A8     		.short	-22528
 8448 11fa 0098     		.short	-26624
 8449 11fc 0088     		.short	-30720
 8450 11fe 00000000 		.space	14
 8450      00000000 
 8450      00000000 
 8450      0000
 8451 120c 0060     		.short	24576
 8452 120e 0010     		.short	4096
 8453 1210 0030     		.short	12288
 8454 1212 0050     		.short	20480
 8455 1214 0020     		.short	8192
 8456 1216 0000     		.short	0
 8457 1218 0000     		.short	0
 8458 121a 00000000 		.space	14
 8458      00000000 
 8458      00000000 
 8458      0000
 8459 1228 0020     		.short	8192
 8460 122a 0050     		.short	20480
 8461 122c 0020     		.short	8192
 8462 122e 0000     		.short	0
 8463 1230 0000     		.short	0
 8464 1232 0000     		.short	0
 8465 1234 0000     		.short	0
 8466 1236 00000000 		.space	14
 8466      00000000 
 8466      00000000 
 8466      0000
 8467 1244 0020     		.short	8192
 8468 1246 0000     		.short	0
 8469 1248 0020     		.short	8192
 8470 124a 0020     		.short	8192
 8471 124c 0090     		.short	-28672
 8472 124e 0090     		.short	-28672
 8473 1250 0060     		.short	24576
 8474 1252 00000000 		.space	14
 8474      00000000 
 8474      00000000 
 8474      0000
 8475 1260 0000     		.short	0
 8476 1262 0070     		.short	28672
 8477 1264 00A8     		.short	-22528
 8478 1266 00B8     		.short	-18432
ARM GAS  C:\Users\arist\AppData\Local\Temp\ccSK2xlW.s 			page 183


 8479 1268 00A8     		.short	-22528
 8480 126a 0070     		.short	28672
 8481 126c 0000     		.short	0
 8482 126e 00000000 		.space	14
 8482      00000000 
 8482      00000000 
 8482      0000
 8483 127c 0000     		.short	0
 8484 127e 0000     		.short	0
 8485 1280 0000     		.short	0
 8486 1282 00F8     		.short	-2048
 8487 1284 0008     		.short	2048
 8488 1286 0000     		.short	0
 8489 1288 0000     		.short	0
 8490 128a 00000000 		.space	14
 8490      00000000 
 8490      00000000 
 8490      0000
 8491 1298 0000     		.short	0
 8492 129a 0048     		.short	18432
 8493 129c 0010     		.short	4096
 8494 129e 0020     		.short	8192
 8495 12a0 0048     		.short	18432
 8496 12a2 0088     		.short	-30720
 8497 12a4 0000     		.short	0
 8498 12a6 00000000 		.space	14
 8498      00000000 
 8498      00000000 
 8498      0000
 8499 12b4 0000     		.short	0
 8500 12b6 0048     		.short	18432
 8501 12b8 0010     		.short	4096
 8502 12ba 0020     		.short	8192
 8503 12bc 0058     		.short	22528
 8504 12be 0098     		.short	-26624
 8505 12c0 0000     		.short	0
 8506 12c2 00000000 		.space	14
 8506      00000000 
 8506      00000000 
 8506      0000
 8507 12d0 0000     		.short	0
 8508 12d2 0000     		.short	0
 8509 12d4 0020     		.short	8192
 8510 12d6 0000     		.short	0
 8511 12d8 0020     		.short	8192
 8512 12da 0020     		.short	8192
 8513 12dc 0020     		.short	8192
 8514 12de 00000000 		.space	14
 8514      00000000 
 8514      00000000 
 8514      0000
 8515 12ec 0000     		.short	0
 8516 12ee 0028     		.short	10240
 8517 12f0 0050     		.short	20480
 8518 12f2 00A0     		.short	-24576
 8519 12f4 0050     		.short	20480
 8520 12f6 0028     		.short	10240
ARM GAS  C:\Users\arist\AppData\Local\Temp\ccSK2xlW.s 			page 184


 8521 12f8 0000     		.short	0
 8522 12fa 00000000 		.space	14
 8522      00000000 
 8522      00000000 
 8522      0000
 8523 1308 0000     		.short	0
 8524 130a 00A0     		.short	-24576
 8525 130c 0050     		.short	20480
 8526 130e 0028     		.short	10240
 8527 1310 0050     		.short	20480
 8528 1312 00A0     		.short	-24576
 8529 1314 0000     		.short	0
 8530 1316 00000000 		.space	14
 8530      00000000 
 8530      00000000 
 8530      0000
 8531 1324 00A8     		.short	-22528
 8532 1326 0050     		.short	20480
 8533 1328 00A8     		.short	-22528
 8534 132a 0050     		.short	20480
 8535 132c 00A8     		.short	-22528
 8536 132e 0050     		.short	20480
 8537 1330 00A8     		.short	-22528
 8538 1332 00000000 		.space	14
 8538      00000000 
 8538      00000000 
 8538      0000
 8539 1340 00F8     		.short	-2048
 8540 1342 0000     		.short	0
 8541 1344 0000     		.short	0
 8542 1346 00F8     		.short	-2048
 8543 1348 0000     		.short	0
 8544 134a 0000     		.short	0
 8545 134c 00F8     		.short	-2048
 8546 134e 00000000 		.space	14
 8546      00000000 
 8546      00000000 
 8546      0000
 8547 135c 00F8     		.short	-2048
 8548 135e 0000     		.short	0
 8549 1360 00F8     		.short	-2048
 8550 1362 0000     		.short	0
 8551 1364 00F8     		.short	-2048
 8552 1366 0000     		.short	0
 8553 1368 00F8     		.short	-2048
 8554 136a 00000000 		.space	14
 8554      00000000 
 8554      00000000 
 8554      0000
 8555 1378 0020     		.short	8192
 8556 137a 0020     		.short	8192
 8557 137c 0020     		.short	8192
 8558 137e 0020     		.short	8192
 8559 1380 0020     		.short	8192
 8560 1382 0020     		.short	8192
 8561 1384 0020     		.short	8192
 8562 1386 00000000 		.space	14
ARM GAS  C:\Users\arist\AppData\Local\Temp\ccSK2xlW.s 			page 185


 8562      00000000 
 8562      00000000 
 8562      0000
 8563 1394 0020     		.short	8192
 8564 1396 0020     		.short	8192
 8565 1398 0020     		.short	8192
 8566 139a 00E0     		.short	-8192
 8567 139c 0020     		.short	8192
 8568 139e 0020     		.short	8192
 8569 13a0 0020     		.short	8192
 8570 13a2 00000000 		.space	14
 8570      00000000 
 8570      00000000 
 8570      0000
 8571 13b0 0010     		.short	4096
 8572 13b2 0020     		.short	8192
 8573 13b4 0070     		.short	28672
 8574 13b6 0088     		.short	-30720
 8575 13b8 00F8     		.short	-2048
 8576 13ba 0088     		.short	-30720
 8577 13bc 0088     		.short	-30720
 8578 13be 00000000 		.space	14
 8578      00000000 
 8578      00000000 
 8578      0000
 8579 13cc 0020     		.short	8192
 8580 13ce 0050     		.short	20480
 8581 13d0 0070     		.short	28672
 8582 13d2 0088     		.short	-30720
 8583 13d4 00F8     		.short	-2048
 8584 13d6 0088     		.short	-30720
 8585 13d8 0088     		.short	-30720
 8586 13da 00000000 		.space	14
 8586      00000000 
 8586      00000000 
 8586      0000
 8587 13e8 0040     		.short	16384
 8588 13ea 0020     		.short	8192
 8589 13ec 0070     		.short	28672
 8590 13ee 0088     		.short	-30720
 8591 13f0 00F8     		.short	-2048
 8592 13f2 0088     		.short	-30720
 8593 13f4 0088     		.short	-30720
 8594 13f6 00000000 		.space	14
 8594      00000000 
 8594      00000000 
 8594      0000
 8595 1404 0000     		.short	0
 8596 1406 0070     		.short	28672
 8597 1408 00A8     		.short	-22528
 8598 140a 00C8     		.short	-14336
 8599 140c 00A8     		.short	-22528
 8600 140e 0070     		.short	28672
 8601 1410 0000     		.short	0
 8602 1412 00000000 		.space	14
 8602      00000000 
 8602      00000000 
ARM GAS  C:\Users\arist\AppData\Local\Temp\ccSK2xlW.s 			page 186


 8602      0000
 8603 1420 0050     		.short	20480
 8604 1422 0050     		.short	20480
 8605 1424 00D0     		.short	-12288
 8606 1426 0010     		.short	4096
 8607 1428 00D0     		.short	-12288
 8608 142a 0050     		.short	20480
 8609 142c 0050     		.short	20480
 8610 142e 00000000 		.space	14
 8610      00000000 
 8610      00000000 
 8610      0000
 8611 143c 0050     		.short	20480
 8612 143e 0050     		.short	20480
 8613 1440 0050     		.short	20480
 8614 1442 0050     		.short	20480
 8615 1444 0050     		.short	20480
 8616 1446 0050     		.short	20480
 8617 1448 0050     		.short	20480
 8618 144a 00000000 		.space	14
 8618      00000000 
 8618      00000000 
 8618      0000
 8619 1458 0000     		.short	0
 8620 145a 0000     		.short	0
 8621 145c 00F0     		.short	-4096
 8622 145e 0010     		.short	4096
 8623 1460 00D0     		.short	-12288
 8624 1462 0050     		.short	20480
 8625 1464 0050     		.short	20480
 8626 1466 00000000 		.space	14
 8626      00000000 
 8626      00000000 
 8626      0000
 8627 1474 0050     		.short	20480
 8628 1476 0050     		.short	20480
 8629 1478 00D0     		.short	-12288
 8630 147a 0001     		.short	256
 8631 147c 00F0     		.short	-4096
 8632 147e 0000     		.short	0
 8633 1480 0000     		.short	0
 8634 1482 00000000 		.space	14
 8634      00000000 
 8634      00000000 
 8634      0000
 8635 1490 0002     		.short	512
 8636 1492 0078     		.short	30720
 8637 1494 0080     		.short	-32768
 8638 1496 0080     		.short	-32768
 8639 1498 0080     		.short	-32768
 8640 149a 0078     		.short	30720
 8641 149c 0020     		.short	8192
 8642 149e 00000000 		.space	14
 8642      00000000 
 8642      00000000 
 8642      0000
 8643 14ac 0050     		.short	20480
ARM GAS  C:\Users\arist\AppData\Local\Temp\ccSK2xlW.s 			page 187


 8644 14ae 0050     		.short	20480
 8645 14b0 0020     		.short	8192
 8646 14b2 0070     		.short	28672
 8647 14b4 0020     		.short	8192
 8648 14b6 0070     		.short	28672
 8649 14b8 0020     		.short	8192
 8650 14ba 00000000 		.space	14
 8650      00000000 
 8650      00000000 
 8650      0000
 8651 14c8 0000     		.short	0
 8652 14ca 0000     		.short	0
 8653 14cc 0000     		.short	0
 8654 14ce 00E0     		.short	-8192
 8655 14d0 0020     		.short	8192
 8656 14d2 0020     		.short	8192
 8657 14d4 0020     		.short	8192
 8658 14d6 00000000 		.space	14
 8658      00000000 
 8658      00000000 
 8658      0000
 8659 14e4 0020     		.short	8192
 8660 14e6 0020     		.short	8192
 8661 14e8 0020     		.short	8192
 8662 14ea 0038     		.short	14336
 8663 14ec 0000     		.short	0
 8664 14ee 0000     		.short	0
 8665 14f0 0000     		.short	0
 8666 14f2 00000000 		.space	14
 8666      00000000 
 8666      00000000 
 8666      0000
 8667 1500 0020     		.short	8192
 8668 1502 0020     		.short	8192
 8669 1504 0020     		.short	8192
 8670 1506 00F8     		.short	-2048
 8671 1508 0000     		.short	0
 8672 150a 0000     		.short	0
 8673 150c 0000     		.short	0
 8674 150e 00000000 		.space	14
 8674      00000000 
 8674      00000000 
 8674      0000
 8675 151c 0000     		.short	0
 8676 151e 0000     		.short	0
 8677 1520 0000     		.short	0
 8678 1522 00F8     		.short	-2048
 8679 1524 0020     		.short	8192
 8680 1526 0020     		.short	8192
 8681 1528 0020     		.short	8192
 8682 152a 00000000 		.space	14
 8682      00000000 
 8682      00000000 
 8682      0000
 8683 1538 0020     		.short	8192
 8684 153a 0020     		.short	8192
 8685 153c 0020     		.short	8192
ARM GAS  C:\Users\arist\AppData\Local\Temp\ccSK2xlW.s 			page 188


 8686 153e 0038     		.short	14336
 8687 1540 0020     		.short	8192
 8688 1542 0020     		.short	8192
 8689 1544 0020     		.short	8192
 8690 1546 00000000 		.space	14
 8690      00000000 
 8690      00000000 
 8690      0000
 8691 1554 0000     		.short	0
 8692 1556 0000     		.short	0
 8693 1558 0000     		.short	0
 8694 155a 00F8     		.short	-2048
 8695 155c 0000     		.short	0
 8696 155e 0000     		.short	0
 8697 1560 0000     		.short	0
 8698 1562 00000000 		.space	14
 8698      00000000 
 8698      00000000 
 8698      0000
 8699 1570 0020     		.short	8192
 8700 1572 0020     		.short	8192
 8701 1574 0020     		.short	8192
 8702 1576 00F8     		.short	-2048
 8703 1578 0020     		.short	8192
 8704 157a 0020     		.short	8192
 8705 157c 0020     		.short	8192
 8706 157e 00000000 		.space	14
 8706      00000000 
 8706      00000000 
 8706      0000
 8707 158c 0028     		.short	10240
 8708 158e 0050     		.short	20480
 8709 1590 0070     		.short	28672
 8710 1592 0008     		.short	2048
 8711 1594 0078     		.short	30720
 8712 1596 0088     		.short	-30720
 8713 1598 0070     		.short	28672
 8714 159a 00000000 		.space	14
 8714      00000000 
 8714      00000000 
 8714      0000
 8715 15a8 0028     		.short	10240
 8716 15aa 0050     		.short	20480
 8717 15ac 0070     		.short	28672
 8718 15ae 0088     		.short	-30720
 8719 15b0 00F8     		.short	-2048
 8720 15b2 0088     		.short	-30720
 8721 15b4 0088     		.short	-30720
 8722 15b6 00000000 		.space	14
 8722      00000000 
 8722      00000000 
 8722      0000
 8723 15c4 0050     		.short	20480
 8724 15c6 0050     		.short	20480
 8725 15c8 0058     		.short	22528
 8726 15ca 0040     		.short	16384
 8727 15cc 0078     		.short	30720
ARM GAS  C:\Users\arist\AppData\Local\Temp\ccSK2xlW.s 			page 189


 8728 15ce 0000     		.short	0
 8729 15d0 0000     		.short	0
 8730 15d2 00000000 		.space	14
 8730      00000000 
 8730      00000000 
 8730      0000
 8731 15e0 0000     		.short	0
 8732 15e2 0000     		.short	0
 8733 15e4 0078     		.short	30720
 8734 15e6 0040     		.short	16384
 8735 15e8 0058     		.short	22528
 8736 15ea 0050     		.short	20480
 8737 15ec 0050     		.short	20480
 8738 15ee 00000000 		.space	14
 8738      00000000 
 8738      00000000 
 8738      0000
 8739 15fc 0050     		.short	20480
 8740 15fe 0050     		.short	20480
 8741 1600 00D8     		.short	-10240
 8742 1602 0000     		.short	0
 8743 1604 00F8     		.short	-2048
 8744 1606 0000     		.short	0
 8745 1608 0000     		.short	0
 8746 160a 00000000 		.space	14
 8746      00000000 
 8746      00000000 
 8746      0000
 8747 1618 0000     		.short	0
 8748 161a 0000     		.short	0
 8749 161c 00F8     		.short	-2048
 8750 161e 0000     		.short	0
 8751 1620 00D8     		.short	-10240
 8752 1622 0050     		.short	20480
 8753 1624 0050     		.short	20480
 8754 1626 00000000 		.space	14
 8754      00000000 
 8754      00000000 
 8754      0000
 8755 1634 0050     		.short	20480
 8756 1636 0050     		.short	20480
 8757 1638 0058     		.short	22528
 8758 163a 0040     		.short	16384
 8759 163c 0058     		.short	22528
 8760 163e 0050     		.short	20480
 8761 1640 0050     		.short	20480
 8762 1642 00000000 		.space	14
 8762      00000000 
 8762      00000000 
 8762      0000
 8763 1650 0000     		.short	0
 8764 1652 0000     		.short	0
 8765 1654 00F8     		.short	-2048
 8766 1656 0000     		.short	0
 8767 1658 00F8     		.short	-2048
 8768 165a 0000     		.short	0
 8769 165c 0000     		.short	0
ARM GAS  C:\Users\arist\AppData\Local\Temp\ccSK2xlW.s 			page 190


 8770 165e 00000000 		.space	14
 8770      00000000 
 8770      00000000 
 8770      0000
 8771 166c 0050     		.short	20480
 8772 166e 0050     		.short	20480
 8773 1670 00D8     		.short	-10240
 8774 1672 0000     		.short	0
 8775 1674 00D8     		.short	-10240
 8776 1676 0050     		.short	20480
 8777 1678 0050     		.short	20480
 8778 167a 00000000 		.space	14
 8778      00000000 
 8778      00000000 
 8778      0000
 8779 1688 00F8     		.short	-2048
 8780 168a 0050     		.short	20480
 8781 168c 0050     		.short	20480
 8782 168e 00F8     		.short	-2048
 8783 1690 0000     		.short	0
 8784 1692 0000     		.short	0
 8785 1694 0000     		.short	0
 8786 1696 00000000 		.space	14
 8786      00000000 
 8786      00000000 
 8786      0000
 8787 16a4 0050     		.short	20480
 8788 16a6 0020     		.short	8192
 8789 16a8 0070     		.short	28672
 8790 16aa 0088     		.short	-30720
 8791 16ac 0088     		.short	-30720
 8792 16ae 0088     		.short	-30720
 8793 16b0 0070     		.short	28672
 8794 16b2 00000000 		.space	14
 8794      00000000 
 8794      00000000 
 8794      0000
 8795 16c0 0070     		.short	28672
 8796 16c2 0048     		.short	18432
 8797 16c4 0048     		.short	18432
 8798 16c6 00E8     		.short	-6144
 8799 16c8 0048     		.short	18432
 8800 16ca 0048     		.short	18432
 8801 16cc 0070     		.short	28672
 8802 16ce 00000000 		.space	14
 8802      00000000 
 8802      00000000 
 8802      0000
 8803 16dc 0020     		.short	8192
 8804 16de 0050     		.short	20480
 8805 16e0 00F8     		.short	-2048
 8806 16e2 0080     		.short	-32768
 8807 16e4 00F0     		.short	-4096
 8808 16e6 0080     		.short	-32768
 8809 16e8 00F8     		.short	-2048
 8810 16ea 00000000 		.space	14
 8810      00000000 
ARM GAS  C:\Users\arist\AppData\Local\Temp\ccSK2xlW.s 			page 191


 8810      00000000 
 8810      0000
 8811 16f8 0050     		.short	20480
 8812 16fa 0000     		.short	0
 8813 16fc 00F8     		.short	-2048
 8814 16fe 0080     		.short	-32768
 8815 1700 00F0     		.short	-4096
 8816 1702 0080     		.short	-32768
 8817 1704 00F8     		.short	-2048
 8818 1706 00000000 		.space	14
 8818      00000000 
 8818      00000000 
 8818      0000
 8819 1714 0040     		.short	16384
 8820 1716 0020     		.short	8192
 8821 1718 00F8     		.short	-2048
 8822 171a 0080     		.short	-32768
 8823 171c 00F0     		.short	-4096
 8824 171e 0080     		.short	-32768
 8825 1720 00F8     		.short	-2048
 8826 1722 00000000 		.space	14
 8826      00000000 
 8826      00000000 
 8826      0000
 8827 1730 0000     		.short	0
 8828 1732 0000     		.short	0
 8829 1734 0000     		.short	0
 8830 1736 0060     		.short	24576
 8831 1738 0020     		.short	8192
 8832 173a 0020     		.short	8192
 8833 173c 0070     		.short	28672
 8834 173e 00000000 		.space	14
 8834      00000000 
 8834      00000000 
 8834      0000
 8835 174c 0010     		.short	4096
 8836 174e 0020     		.short	8192
 8837 1750 00F8     		.short	-2048
 8838 1752 0020     		.short	8192
 8839 1754 0020     		.short	8192
 8840 1756 0020     		.short	8192
 8841 1758 00F8     		.short	-2048
 8842 175a 00000000 		.space	14
 8842      00000000 
 8842      00000000 
 8842      0000
 8843 1768 0020     		.short	8192
 8844 176a 0050     		.short	20480
 8845 176c 00F8     		.short	-2048
 8846 176e 0020     		.short	8192
 8847 1770 0020     		.short	8192
 8848 1772 0020     		.short	8192
 8849 1774 00F8     		.short	-2048
 8850 1776 00000000 		.space	14
 8850      00000000 
 8850      00000000 
 8850      0000
ARM GAS  C:\Users\arist\AppData\Local\Temp\ccSK2xlW.s 			page 192


 8851 1784 0050     		.short	20480
 8852 1786 0000     		.short	0
 8853 1788 00F8     		.short	-2048
 8854 178a 0020     		.short	8192
 8855 178c 0020     		.short	8192
 8856 178e 0020     		.short	8192
 8857 1790 00F8     		.short	-2048
 8858 1792 00000000 		.space	14
 8858      00000000 
 8858      00000000 
 8858      0000
 8859 17a0 0020     		.short	8192
 8860 17a2 0020     		.short	8192
 8861 17a4 0020     		.short	8192
 8862 17a6 00E0     		.short	-8192
 8863 17a8 0000     		.short	0
 8864 17aa 0000     		.short	0
 8865 17ac 0000     		.short	0
 8866 17ae 00000000 		.space	14
 8866      00000000 
 8866      00000000 
 8866      0000
 8867 17bc 0000     		.short	0
 8868 17be 0000     		.short	0
 8869 17c0 0000     		.short	0
 8870 17c2 0038     		.short	14336
 8871 17c4 0020     		.short	8192
 8872 17c6 0020     		.short	8192
 8873 17c8 0020     		.short	8192
 8874 17ca 00000000 		.space	14
 8874      00000000 
 8874      00000000 
 8874      0000
 8875 17d8 00F8     		.short	-2048
 8876 17da 00F8     		.short	-2048
 8877 17dc 00F8     		.short	-2048
 8878 17de 00F8     		.short	-2048
 8879 17e0 00F8     		.short	-2048
 8880 17e2 00F8     		.short	-2048
 8881 17e4 00F8     		.short	-2048
 8882 17e6 00000000 		.space	14
 8882      00000000 
 8882      00000000 
 8882      0000
 8883 17f4 0000     		.short	0
 8884 17f6 0000     		.short	0
 8885 17f8 0000     		.short	0
 8886 17fa 0000     		.short	0
 8887 17fc 00F8     		.short	-2048
 8888 17fe 00F8     		.short	-2048
 8889 1800 00F8     		.short	-2048
 8890 1802 00000000 		.space	14
 8890      00000000 
 8890      00000000 
 8890      0000
 8891 1810 0000     		.short	0
 8892 1812 0020     		.short	8192
ARM GAS  C:\Users\arist\AppData\Local\Temp\ccSK2xlW.s 			page 193


 8893 1814 0020     		.short	8192
 8894 1816 0000     		.short	0
 8895 1818 0020     		.short	8192
 8896 181a 0020     		.short	8192
 8897 181c 0000     		.short	0
 8898 181e 00000000 		.space	14
 8898      00000000 
 8898      00000000 
 8898      0000
 8899 182c 0000     		.short	0
 8900 182e 0000     		.short	0
 8901 1830 00F8     		.short	-2048
 8902 1832 00F8     		.short	-2048
 8903 1834 00F8     		.short	-2048
 8904 1836 0000     		.short	0
 8905 1838 0000     		.short	0
 8906 183a 00000000 		.space	14
 8906      00000000 
 8906      00000000 
 8906      0000
 8907 1848 00F8     		.short	-2048
 8908 184a 00F8     		.short	-2048
 8909 184c 00F8     		.short	-2048
 8910 184e 00F8     		.short	-2048
 8911 1850 0000     		.short	0
 8912 1852 0000     		.short	0
 8913 1854 0000     		.short	0
 8914 1856 00000000 		.space	14
 8914      00000000 
 8914      00000000 
 8914      0000
 8915 1864 0010     		.short	4096
 8916 1866 0020     		.short	8192
 8917 1868 0078     		.short	30720
 8918 186a 0088     		.short	-30720
 8919 186c 0088     		.short	-30720
 8920 186e 0088     		.short	-30720
 8921 1870 0070     		.short	28672
 8922 1872 00000000 		.space	14
 8922      00000000 
 8922      00000000 
 8922      0000
 8923 1880 00E0     		.short	-8192
 8924 1882 0090     		.short	-28672
 8925 1884 00E0     		.short	-8192
 8926 1886 0090     		.short	-28672
 8927 1888 0088     		.short	-30720
 8928 188a 0088     		.short	-30720
 8929 188c 00F0     		.short	-4096
 8930 188e 00000000 		.space	14
 8930      00000000 
 8930      00000000 
 8930      0000
 8931 189c 0020     		.short	8192
 8932 189e 0050     		.short	20480
 8933 18a0 0078     		.short	30720
 8934 18a2 0088     		.short	-30720
ARM GAS  C:\Users\arist\AppData\Local\Temp\ccSK2xlW.s 			page 194


 8935 18a4 0088     		.short	-30720
 8936 18a6 0088     		.short	-30720
 8937 18a8 0070     		.short	28672
 8938 18aa 00000000 		.space	14
 8938      00000000 
 8938      00000000 
 8938      0000
 8939 18b8 0040     		.short	16384
 8940 18ba 0020     		.short	8192
 8941 18bc 0078     		.short	30720
 8942 18be 0088     		.short	-30720
 8943 18c0 0088     		.short	-30720
 8944 18c2 0088     		.short	-30720
 8945 18c4 0070     		.short	28672
 8946 18c6 00000000 		.space	14
 8946      00000000 
 8946      00000000 
 8946      0000
 8947 18d4 0028     		.short	10240
 8948 18d6 0050     		.short	20480
 8949 18d8 0078     		.short	30720
 8950 18da 0088     		.short	-30720
 8951 18dc 0088     		.short	-30720
 8952 18de 0088     		.short	-30720
 8953 18e0 0070     		.short	28672
 8954 18e2 00000000 		.space	14
 8954      00000000 
 8954      00000000 
 8954      0000
 8955 18f0 0028     		.short	10240
 8956 18f2 0050     		.short	20480
 8957 18f4 0078     		.short	30720
 8958 18f6 0088     		.short	-30720
 8959 18f8 0088     		.short	-30720
 8960 18fa 0088     		.short	-30720
 8961 18fc 0070     		.short	28672
 8962 18fe 00000000 		.space	14
 8962      00000000 
 8962      00000000 
 8962      0000
 8963 190c 0000     		.short	0
 8964 190e 0000     		.short	0
 8965 1910 0088     		.short	-30720
 8966 1912 0088     		.short	-30720
 8967 1914 00C8     		.short	-14336
 8968 1916 00B0     		.short	-20480
 8969 1918 0080     		.short	-32768
 8970 191a 00000000 		.space	14
 8970      00000000 
 8970      00000000 
 8970      0000
 8971 1928 00C0     		.short	-16384
 8972 192a 0050     		.short	20480
 8973 192c 0068     		.short	26624
 8974 192e 0068     		.short	26624
 8975 1930 0050     		.short	20480
 8976 1932 0040     		.short	16384
ARM GAS  C:\Users\arist\AppData\Local\Temp\ccSK2xlW.s 			page 195


 8977 1934 00E0     		.short	-8192
 8978 1936 00000000 		.space	14
 8978      00000000 
 8978      00000000 
 8978      0000
 8979 1944 00E0     		.short	-8192
 8980 1946 0040     		.short	16384
 8981 1948 0070     		.short	28672
 8982 194a 0048     		.short	18432
 8983 194c 0070     		.short	28672
 8984 194e 0040     		.short	16384
 8985 1950 00E0     		.short	-8192
 8986 1952 00000000 		.space	14
 8986      00000000 
 8986      00000000 
 8986      0000
 8987 1960 0010     		.short	4096
 8988 1962 00A8     		.short	-22528
 8989 1964 0088     		.short	-30720
 8990 1966 0088     		.short	-30720
 8991 1968 0088     		.short	-30720
 8992 196a 0088     		.short	-30720
 8993 196c 0070     		.short	28672
 8994 196e 00000000 		.space	14
 8994      00000000 
 8994      00000000 
 8994      0000
 8995 197c 0020     		.short	8192
 8996 197e 0050     		.short	20480
 8997 1980 0088     		.short	-30720
 8998 1982 0088     		.short	-30720
 8999 1984 0088     		.short	-30720
 9000 1986 0088     		.short	-30720
 9001 1988 0070     		.short	28672
 9002 198a 00000000 		.space	14
 9002      00000000 
 9002      00000000 
 9002      0000
 9003 1998 0040     		.short	16384
 9004 199a 00A8     		.short	-22528
 9005 199c 0088     		.short	-30720
 9006 199e 0088     		.short	-30720
 9007 19a0 0088     		.short	-30720
 9008 19a2 0088     		.short	-30720
 9009 19a4 0070     		.short	28672
 9010 19a6 00000000 		.space	14
 9010      00000000 
 9010      00000000 
 9010      0000
 9011 19b4 0010     		.short	4096
 9012 19b6 0020     		.short	8192
 9013 19b8 0088     		.short	-30720
 9014 19ba 0050     		.short	20480
 9015 19bc 0020     		.short	8192
 9016 19be 0020     		.short	8192
 9017 19c0 00C0     		.short	-16384
 9018 19c2 00000000 		.space	14
ARM GAS  C:\Users\arist\AppData\Local\Temp\ccSK2xlW.s 			page 196


 9018      00000000 
 9018      00000000 
 9018      0000
 9019 19d0 0010     		.short	4096
 9020 19d2 0020     		.short	8192
 9021 19d4 0088     		.short	-30720
 9022 19d6 0050     		.short	20480
 9023 19d8 0020     		.short	8192
 9024 19da 0020     		.short	8192
 9025 19dc 0070     		.short	28672
 9026 19de 00000000 		.space	14
 9026      00000000 
 9026      00000000 
 9026      0000
 9027 19ec 00F8     		.short	-2048
 9028 19ee 0000     		.short	0
 9029 19f0 0000     		.short	0
 9030 19f2 0000     		.short	0
 9031 19f4 0000     		.short	0
 9032 19f6 0000     		.short	0
 9033 19f8 0000     		.short	0
 9034 19fa 00000000 		.space	14
 9034      00000000 
 9034      00000000 
 9034      0000
 9035 1a08 0010     		.short	4096
 9036 1a0a 0020     		.short	8192
 9037 1a0c 0000     		.short	0
 9038 1a0e 0000     		.short	0
 9039 1a10 0000     		.short	0
 9040 1a12 0000     		.short	0
 9041 1a14 0008     		.short	2048
 9042 1a16 00000000 		.space	14
 9042      00000000 
 9042      00000000 
 9042      0000
 9043 1a24 0000     		.short	0
 9044 1a26 0000     		.short	0
 9045 1a28 0000     		.short	0
 9046 1a2a 0070     		.short	28672
 9047 1a2c 0000     		.short	0
 9048 1a2e 0000     		.short	0
 9049 1a30 0000     		.short	0
 9050 1a32 00000000 		.space	14
 9050      00000000 
 9050      00000000 
 9050      0000
 9051 1a40 0020     		.short	8192
 9052 1a42 0020     		.short	8192
 9053 1a44 00F8     		.short	-2048
 9054 1a46 0020     		.short	8192
 9055 1a48 0020     		.short	8192
 9056 1a4a 0000     		.short	0
 9057 1a4c 00F8     		.short	-2048
 9058 1a4e 00000000 		.space	14
 9058      00000000 
 9058      00000000 
ARM GAS  C:\Users\arist\AppData\Local\Temp\ccSK2xlW.s 			page 197


 9058      0000
 9059 1a5c 0000     		.short	0
 9060 1a5e 0000     		.short	0
 9061 1a60 0000     		.short	0
 9062 1a62 0000     		.short	0
 9063 1a64 00F8     		.short	-2048
 9064 1a66 0000     		.short	0
 9065 1a68 00F8     		.short	-2048
 9066 1a6a 00000000 		.space	14
 9066      00000000 
 9066      00000000 
 9066      0000
 9067 1a78 0000     		.short	0
 9068 1a7a 0048     		.short	18432
 9069 1a7c 00D0     		.short	-12288
 9070 1a7e 0020     		.short	8192
 9071 1a80 0058     		.short	22528
 9072 1a82 0098     		.short	-26624
 9073 1a84 0000     		.short	0
 9074 1a86 00000000 		.space	14
 9074      00000000 
 9074      00000000 
 9074      0000
 9075 1a94 0078     		.short	30720
 9076 1a96 0098     		.short	-26624
 9077 1a98 0098     		.short	-26624
 9078 1a9a 0078     		.short	30720
 9079 1a9c 0018     		.short	6144
 9080 1a9e 0018     		.short	6144
 9081 1aa0 0078     		.short	30720
 9082 1aa2 00000000 		.space	14
 9082      00000000 
 9082      00000000 
 9082      0000
 9083 1ab0 0078     		.short	30720
 9084 1ab2 00A0     		.short	-24576
 9085 1ab4 0090     		.short	-28672
 9086 1ab6 0088     		.short	-30720
 9087 1ab8 0048     		.short	18432
 9088 1aba 0028     		.short	10240
 9089 1abc 00F0     		.short	-4096
 9090 1abe 00000000 		.space	14
 9090      00000000 
 9090      00000000 
 9090      0000
 9091 1acc 0000     		.short	0
 9092 1ace 0020     		.short	8192
 9093 1ad0 0000     		.short	0
 9094 1ad2 00F8     		.short	-2048
 9095 1ad4 0000     		.short	0
 9096 1ad6 0020     		.short	8192
 9097 1ad8 0000     		.short	0
 9098 1ada 00000000 		.space	14
 9098      00000000 
 9098      00000000 
 9098      0000
 9099 1ae8 0000     		.short	0
ARM GAS  C:\Users\arist\AppData\Local\Temp\ccSK2xlW.s 			page 198


 9100 1aea 0000     		.short	0
 9101 1aec 0000     		.short	0
 9102 1aee 0000     		.short	0
 9103 1af0 0030     		.short	12288
 9104 1af2 0030     		.short	12288
 9105 1af4 0060     		.short	24576
 9106 1af6 00000000 		.space	14
 9106      00000000 
 9106      00000000 
 9106      0000
 9107 1b04 0020     		.short	8192
 9108 1b06 0050     		.short	20480
 9109 1b08 0020     		.short	8192
 9110 1b0a 0000     		.short	0
 9111 1b0c 0000     		.short	0
 9112 1b0e 0000     		.short	0
 9113 1b10 0000     		.short	0
 9114 1b12 00000000 		.space	14
 9114      00000000 
 9114      00000000 
 9114      0000
 9115 1b20 0050     		.short	20480
 9116 1b22 0000     		.short	0
 9117 1b24 0000     		.short	0
 9118 1b26 0000     		.short	0
 9119 1b28 0000     		.short	0
 9120 1b2a 0000     		.short	0
 9121 1b2c 0000     		.short	0
 9122 1b2e 00000000 		.space	14
 9122      00000000 
 9122      00000000 
 9122      0000
 9123 1b3c 0000     		.short	0
 9124 1b3e 0030     		.short	12288
 9125 1b40 0030     		.short	12288
 9126 1b42 0000     		.short	0
 9127 1b44 0000     		.short	0
 9128 1b46 0000     		.short	0
 9129 1b48 0000     		.short	0
 9130 1b4a 00000000 		.space	14
 9130      00000000 
 9130      00000000 
 9130      0000
 9131 1b58 0020     		.short	8192
 9132 1b5a 0060     		.short	24576
 9133 1b5c 0020     		.short	8192
 9134 1b5e 0020     		.short	8192
 9135 1b60 0070     		.short	28672
 9136 1b62 0000     		.short	0
 9137 1b64 0000     		.short	0
 9138 1b66 00000000 		.space	14
 9138      00000000 
 9138      00000000 
 9138      0000
 9139 1b74 0060     		.short	24576
 9140 1b76 0010     		.short	4096
 9141 1b78 0020     		.short	8192
ARM GAS  C:\Users\arist\AppData\Local\Temp\ccSK2xlW.s 			page 199


 9142 1b7a 0010     		.short	4096
 9143 1b7c 0030     		.short	12288
 9144 1b7e 0000     		.short	0
 9145 1b80 0000     		.short	0
 9146 1b82 00000000 		.space	14
 9146      00000000 
 9146      00000000 
 9146      0000
 9147 1b90 0060     		.short	24576
 9148 1b92 0010     		.short	4096
 9149 1b94 0030     		.short	12288
 9150 1b96 0040     		.short	16384
 9151 1b98 0070     		.short	28672
 9152 1b9a 0000     		.short	0
 9153 1b9c 0000     		.short	0
 9154 1b9e 00000000 		.space	14
 9154      00000000 
 9154      00000000 
 9154      0000
 9155 1bac 00F8     		.short	-2048
 9156 1bae 00F8     		.short	-2048
 9157 1bb0 00F8     		.short	-2048
 9158 1bb2 00F8     		.short	-2048
 9159 1bb4 0000     		.short	0
 9160 1bb6 0000     		.short	0
 9161 1bb8 0000     		.short	0
 9162 1bba 00000000 		.space	14
 9162      00000000 
 9162      00000000 
 9162      0000
 9163 1bc8 00000000 		.space	56
 9163      00000000 
 9163      00000000 
 9163      00000000 
 9163      00000000 
 9164              		.global	font_s
 9165              		.section	.data.font_s,"aw"
 9166              		.align	2
 9169              	font_s:
 9170 0000 00F8     		.short	-2048
 9171 0002 00F8     		.short	-2048
 9172 0004 00F8     		.short	-2048
 9173 0006 00F8     		.short	-2048
 9174 0008 00F8     		.short	-2048
 9175 000a 00F8     		.short	-2048
 9176 000c 00F8     		.short	-2048
 9177 000e 0070     		.short	28672
 9178 0010 0088     		.short	-30720
 9179 0012 00D8     		.short	-10240
 9180 0014 0088     		.short	-30720
 9181 0016 00A8     		.short	-22528
 9182 0018 0088     		.short	-30720
 9183 001a 0070     		.short	28672
 9184 001c 0070     		.short	28672
 9185 001e 00F8     		.short	-2048
 9186 0020 00A8     		.short	-22528
 9187 0022 00F8     		.short	-2048
ARM GAS  C:\Users\arist\AppData\Local\Temp\ccSK2xlW.s 			page 200


 9188 0024 00D8     		.short	-10240
 9189 0026 00F8     		.short	-2048
 9190 0028 0070     		.short	28672
 9191 002a 0050     		.short	20480
 9192 002c 00F8     		.short	-2048
 9193 002e 00F8     		.short	-2048
 9194 0030 00F8     		.short	-2048
 9195 0032 0070     		.short	28672
 9196 0034 0020     		.short	8192
 9197 0036 0000     		.short	0
 9198 0038 0000     		.short	0
 9199 003a 0020     		.short	8192
 9200 003c 0070     		.short	28672
 9201 003e 00F8     		.short	-2048
 9202 0040 0070     		.short	28672
 9203 0042 0020     		.short	8192
 9204 0044 0000     		.short	0
 9205 0046 0070     		.short	28672
 9206 0048 0070     		.short	28672
 9207 004a 00F8     		.short	-2048
 9208 004c 00F8     		.short	-2048
 9209 004e 0020     		.short	8192
 9210 0050 00F8     		.short	-2048
 9211 0052 0000     		.short	0
 9212 0054 0020     		.short	8192
 9213 0056 0070     		.short	28672
 9214 0058 00F8     		.short	-2048
 9215 005a 00F8     		.short	-2048
 9216 005c 00F8     		.short	-2048
 9217 005e 0020     		.short	8192
 9218 0060 00F8     		.short	-2048
 9219 0062 0000     		.short	0
 9220 0064 0000     		.short	0
 9221 0066 0070     		.short	28672
 9222 0068 0070     		.short	28672
 9223 006a 0070     		.short	28672
 9224 006c 0000     		.short	0
 9225 006e 0000     		.short	0
 9226 0070 0000     		.short	0
 9227 0072 00F8     		.short	-2048
 9228 0074 0088     		.short	-30720
 9229 0076 0088     		.short	-30720
 9230 0078 0088     		.short	-30720
 9231 007a 00F8     		.short	-2048
 9232 007c 0000     		.short	0
 9233 007e 0000     		.short	0
 9234 0080 0070     		.short	28672
 9235 0082 0088     		.short	-30720
 9236 0084 0088     		.short	-30720
 9237 0086 0088     		.short	-30720
 9238 0088 0070     		.short	28672
 9239 008a 0000     		.short	0
 9240 008c 00F8     		.short	-2048
 9241 008e 0088     		.short	-30720
 9242 0090 0070     		.short	28672
 9243 0092 0070     		.short	28672
 9244 0094 0070     		.short	28672
ARM GAS  C:\Users\arist\AppData\Local\Temp\ccSK2xlW.s 			page 201


 9245 0096 0088     		.short	-30720
 9246 0098 00F8     		.short	-2048
 9247 009a 0000     		.short	0
 9248 009c 0038     		.short	14336
 9249 009e 0018     		.short	6144
 9250 00a0 0068     		.short	26624
 9251 00a2 00A0     		.short	-24576
 9252 00a4 0040     		.short	16384
 9253 00a6 0000     		.short	0
 9254 00a8 0070     		.short	28672
 9255 00aa 0088     		.short	-30720
 9256 00ac 0088     		.short	-30720
 9257 00ae 0070     		.short	28672
 9258 00b0 0020     		.short	8192
 9259 00b2 0070     		.short	28672
 9260 00b4 0020     		.short	8192
 9261 00b6 0020     		.short	8192
 9262 00b8 0030     		.short	12288
 9263 00ba 0028     		.short	10240
 9264 00bc 0020     		.short	8192
 9265 00be 0060     		.short	24576
 9266 00c0 00E0     		.short	-8192
 9267 00c2 0040     		.short	16384
 9268 00c4 0008     		.short	2048
 9269 00c6 0018     		.short	6144
 9270 00c8 0028     		.short	10240
 9271 00ca 0048     		.short	18432
 9272 00cc 0058     		.short	22528
 9273 00ce 00D8     		.short	-10240
 9274 00d0 00C0     		.short	-16384
 9275 00d2 0000     		.short	0
 9276 00d4 00A8     		.short	-22528
 9277 00d6 0070     		.short	28672
 9278 00d8 00D8     		.short	-10240
 9279 00da 0070     		.short	28672
 9280 00dc 00A8     		.short	-22528
 9281 00de 0000     		.short	0
 9282 00e0 0000     		.short	0
 9283 00e2 0040     		.short	16384
 9284 00e4 0060     		.short	24576
 9285 00e6 0070     		.short	28672
 9286 00e8 0060     		.short	24576
 9287 00ea 0040     		.short	16384
 9288 00ec 0000     		.short	0
 9289 00ee 0000     		.short	0
 9290 00f0 0010     		.short	4096
 9291 00f2 0030     		.short	12288
 9292 00f4 0070     		.short	28672
 9293 00f6 0030     		.short	12288
 9294 00f8 0010     		.short	4096
 9295 00fa 0000     		.short	0
 9296 00fc 0020     		.short	8192
 9297 00fe 0070     		.short	28672
 9298 0100 0020     		.short	8192
 9299 0102 0020     		.short	8192
 9300 0104 0070     		.short	28672
 9301 0106 0020     		.short	8192
ARM GAS  C:\Users\arist\AppData\Local\Temp\ccSK2xlW.s 			page 202


 9302 0108 0000     		.short	0
 9303 010a 0050     		.short	20480
 9304 010c 0050     		.short	20480
 9305 010e 0050     		.short	20480
 9306 0110 0050     		.short	20480
 9307 0112 0050     		.short	20480
 9308 0114 0000     		.short	0
 9309 0116 0050     		.short	20480
 9310 0118 00D8     		.short	-10240
 9311 011a 00D8     		.short	-10240
 9312 011c 00D8     		.short	-10240
 9313 011e 00D8     		.short	-10240
 9314 0120 00D8     		.short	-10240
 9315 0122 00D8     		.short	-10240
 9316 0124 00D8     		.short	-10240
 9317 0126 0000     		.short	0
 9318 0128 0020     		.short	8192
 9319 012a 00A8     		.short	-22528
 9320 012c 00A8     		.short	-22528
 9321 012e 0088     		.short	-30720
 9322 0130 0070     		.short	28672
 9323 0132 0000     		.short	0
 9324 0134 0000     		.short	0
 9325 0136 0038     		.short	14336
 9326 0138 0030     		.short	12288
 9327 013a 00A8     		.short	-22528
 9328 013c 0088     		.short	-30720
 9329 013e 0088     		.short	-30720
 9330 0140 0070     		.short	28672
 9331 0142 0000     		.short	0
 9332 0144 0020     		.short	8192
 9333 0146 0070     		.short	28672
 9334 0148 0020     		.short	8192
 9335 014a 0070     		.short	28672
 9336 014c 0020     		.short	8192
 9337 014e 0070     		.short	28672
 9338 0150 0000     		.short	0
 9339 0152 0020     		.short	8192
 9340 0154 0070     		.short	28672
 9341 0156 0020     		.short	8192
 9342 0158 0020     		.short	8192
 9343 015a 0020     		.short	8192
 9344 015c 0000     		.short	0
 9345 015e 0000     		.short	0
 9346 0160 0020     		.short	8192
 9347 0162 0020     		.short	8192
 9348 0164 0020     		.short	8192
 9349 0166 0070     		.short	28672
 9350 0168 0020     		.short	8192
 9351 016a 0000     		.short	0
 9352 016c 0000     		.short	0
 9353 016e 0000     		.short	0
 9354 0170 0010     		.short	4096
 9355 0172 00F8     		.short	-2048
 9356 0174 0010     		.short	4096
 9357 0176 0000     		.short	0
 9358 0178 0000     		.short	0
ARM GAS  C:\Users\arist\AppData\Local\Temp\ccSK2xlW.s 			page 203


 9359 017a 0000     		.short	0
 9360 017c 0000     		.short	0
 9361 017e 0040     		.short	16384
 9362 0180 00F8     		.short	-2048
 9363 0182 0040     		.short	16384
 9364 0184 0000     		.short	0
 9365 0186 0000     		.short	0
 9366 0188 0080     		.short	-32768
 9367 018a 0080     		.short	-32768
 9368 018c 0080     		.short	-32768
 9369 018e 0080     		.short	-32768
 9370 0190 0080     		.short	-32768
 9371 0192 0080     		.short	-32768
 9372 0194 00F8     		.short	-2048
 9373 0196 0000     		.short	0
 9374 0198 0000     		.short	0
 9375 019a 0050     		.short	20480
 9376 019c 00F8     		.short	-2048
 9377 019e 0050     		.short	20480
 9378 01a0 0000     		.short	0
 9379 01a2 0000     		.short	0
 9380 01a4 0000     		.short	0
 9381 01a6 0000     		.short	0
 9382 01a8 0020     		.short	8192
 9383 01aa 0070     		.short	28672
 9384 01ac 00F8     		.short	-2048
 9385 01ae 0000     		.short	0
 9386 01b0 0000     		.short	0
 9387 01b2 0000     		.short	0
 9388 01b4 0000     		.short	0
 9389 01b6 00F8     		.short	-2048
 9390 01b8 0070     		.short	28672
 9391 01ba 0020     		.short	8192
 9392 01bc 0000     		.short	0
 9393 01be 0000     		.short	0
 9394 01c0 0000     		.short	0
 9395 01c2 0000     		.short	0
 9396 01c4 0000     		.short	0
 9397 01c6 0000     		.short	0
 9398 01c8 0000     		.short	0
 9399 01ca 0000     		.short	0
 9400 01cc 0000     		.short	0
 9401 01ce 0020     		.short	8192
 9402 01d0 0020     		.short	8192
 9403 01d2 0020     		.short	8192
 9404 01d4 0020     		.short	8192
 9405 01d6 0020     		.short	8192
 9406 01d8 0000     		.short	0
 9407 01da 0020     		.short	8192
 9408 01dc 0050     		.short	20480
 9409 01de 0050     		.short	20480
 9410 01e0 0050     		.short	20480
 9411 01e2 0000     		.short	0
 9412 01e4 0000     		.short	0
 9413 01e6 0000     		.short	0
 9414 01e8 0000     		.short	0
 9415 01ea 0000     		.short	0
ARM GAS  C:\Users\arist\AppData\Local\Temp\ccSK2xlW.s 			page 204


 9416 01ec 0050     		.short	20480
 9417 01ee 00F8     		.short	-2048
 9418 01f0 0050     		.short	20480
 9419 01f2 00F8     		.short	-2048
 9420 01f4 0050     		.short	20480
 9421 01f6 0000     		.short	0
 9422 01f8 0020     		.short	8192
 9423 01fa 0070     		.short	28672
 9424 01fc 0080     		.short	-32768
 9425 01fe 0070     		.short	28672
 9426 0200 0008     		.short	2048
 9427 0202 0070     		.short	28672
 9428 0204 0020     		.short	8192
 9429 0206 0000     		.short	0
 9430 0208 00C8     		.short	-14336
 9431 020a 00D0     		.short	-12288
 9432 020c 0020     		.short	8192
 9433 020e 0058     		.short	22528
 9434 0210 0098     		.short	-26624
 9435 0212 0000     		.short	0
 9436 0214 0020     		.short	8192
 9437 0216 0050     		.short	20480
 9438 0218 0050     		.short	20480
 9439 021a 0020     		.short	8192
 9440 021c 0050     		.short	20480
 9441 021e 00F8     		.short	-2048
 9442 0220 0010     		.short	4096
 9443 0222 0020     		.short	8192
 9444 0224 0020     		.short	8192
 9445 0226 0020     		.short	8192
 9446 0228 0000     		.short	0
 9447 022a 0000     		.short	0
 9448 022c 0000     		.short	0
 9449 022e 0000     		.short	0
 9450 0230 0010     		.short	4096
 9451 0232 0020     		.short	8192
 9452 0234 0040     		.short	16384
 9453 0236 0040     		.short	16384
 9454 0238 0040     		.short	16384
 9455 023a 0020     		.short	8192
 9456 023c 0010     		.short	4096
 9457 023e 0040     		.short	16384
 9458 0240 0020     		.short	8192
 9459 0242 0010     		.short	4096
 9460 0244 0010     		.short	4096
 9461 0246 0010     		.short	4096
 9462 0248 0020     		.short	8192
 9463 024a 0040     		.short	16384
 9464 024c 0000     		.short	0
 9465 024e 0020     		.short	8192
 9466 0250 0070     		.short	28672
 9467 0252 0020     		.short	8192
 9468 0254 0050     		.short	20480
 9469 0256 0000     		.short	0
 9470 0258 0000     		.short	0
 9471 025a 0000     		.short	0
 9472 025c 0020     		.short	8192
ARM GAS  C:\Users\arist\AppData\Local\Temp\ccSK2xlW.s 			page 205


 9473 025e 0020     		.short	8192
 9474 0260 00F8     		.short	-2048
 9475 0262 0020     		.short	8192
 9476 0264 0020     		.short	8192
 9477 0266 0000     		.short	0
 9478 0268 0000     		.short	0
 9479 026a 0000     		.short	0
 9480 026c 0000     		.short	0
 9481 026e 0000     		.short	0
 9482 0270 0020     		.short	8192
 9483 0272 0020     		.short	8192
 9484 0274 0040     		.short	16384
 9485 0276 0000     		.short	0
 9486 0278 0000     		.short	0
 9487 027a 0000     		.short	0
 9488 027c 00F8     		.short	-2048
 9489 027e 0000     		.short	0
 9490 0280 0000     		.short	0
 9491 0282 0000     		.short	0
 9492 0284 0000     		.short	0
 9493 0286 0000     		.short	0
 9494 0288 0000     		.short	0
 9495 028a 0000     		.short	0
 9496 028c 0000     		.short	0
 9497 028e 0000     		.short	0
 9498 0290 0020     		.short	8192
 9499 0292 0000     		.short	0
 9500 0294 0008     		.short	2048
 9501 0296 0010     		.short	4096
 9502 0298 0020     		.short	8192
 9503 029a 0040     		.short	16384
 9504 029c 0080     		.short	-32768
 9505 029e 0000     		.short	0
 9506 02a0 0060     		.short	24576
 9507 02a2 0090     		.short	-28672
 9508 02a4 0090     		.short	-28672
 9509 02a6 0090     		.short	-28672
 9510 02a8 0090     		.short	-28672
 9511 02aa 0090     		.short	-28672
 9512 02ac 0060     		.short	24576
 9513 02ae 0020     		.short	8192
 9514 02b0 0060     		.short	24576
 9515 02b2 0020     		.short	8192
 9516 02b4 0020     		.short	8192
 9517 02b6 0020     		.short	8192
 9518 02b8 0020     		.short	8192
 9519 02ba 0070     		.short	28672
 9520 02bc 0060     		.short	24576
 9521 02be 0090     		.short	-28672
 9522 02c0 0010     		.short	4096
 9523 02c2 0020     		.short	8192
 9524 02c4 0040     		.short	16384
 9525 02c6 0080     		.short	-32768
 9526 02c8 00F0     		.short	-4096
 9527 02ca 0060     		.short	24576
 9528 02cc 0090     		.short	-28672
 9529 02ce 0010     		.short	4096
ARM GAS  C:\Users\arist\AppData\Local\Temp\ccSK2xlW.s 			page 206


 9530 02d0 0020     		.short	8192
 9531 02d2 0010     		.short	4096
 9532 02d4 0090     		.short	-28672
 9533 02d6 0060     		.short	24576
 9534 02d8 0020     		.short	8192
 9535 02da 0060     		.short	24576
 9536 02dc 00A0     		.short	-24576
 9537 02de 00F0     		.short	-4096
 9538 02e0 0020     		.short	8192
 9539 02e2 0020     		.short	8192
 9540 02e4 0070     		.short	28672
 9541 02e6 00F0     		.short	-4096
 9542 02e8 0080     		.short	-32768
 9543 02ea 0080     		.short	-32768
 9544 02ec 0060     		.short	24576
 9545 02ee 0010     		.short	4096
 9546 02f0 0090     		.short	-28672
 9547 02f2 0060     		.short	24576
 9548 02f4 0060     		.short	24576
 9549 02f6 0090     		.short	-28672
 9550 02f8 0080     		.short	-32768
 9551 02fa 00E0     		.short	-8192
 9552 02fc 0090     		.short	-28672
 9553 02fe 0090     		.short	-28672
 9554 0300 0060     		.short	24576
 9555 0302 00E0     		.short	-8192
 9556 0304 0010     		.short	4096
 9557 0306 0010     		.short	4096
 9558 0308 0020     		.short	8192
 9559 030a 0040     		.short	16384
 9560 030c 0040     		.short	16384
 9561 030e 0040     		.short	16384
 9562 0310 0060     		.short	24576
 9563 0312 0090     		.short	-28672
 9564 0314 0090     		.short	-28672
 9565 0316 0060     		.short	24576
 9566 0318 0090     		.short	-28672
 9567 031a 0090     		.short	-28672
 9568 031c 0060     		.short	24576
 9569 031e 0060     		.short	24576
 9570 0320 0090     		.short	-28672
 9571 0322 0090     		.short	-28672
 9572 0324 0070     		.short	28672
 9573 0326 0010     		.short	4096
 9574 0328 0090     		.short	-28672
 9575 032a 0060     		.short	24576
 9576 032c 0000     		.short	0
 9577 032e 0000     		.short	0
 9578 0330 0020     		.short	8192
 9579 0332 0000     		.short	0
 9580 0334 0020     		.short	8192
 9581 0336 0000     		.short	0
 9582 0338 0000     		.short	0
 9583 033a 0000     		.short	0
 9584 033c 0000     		.short	0
 9585 033e 0020     		.short	8192
 9586 0340 0000     		.short	0
ARM GAS  C:\Users\arist\AppData\Local\Temp\ccSK2xlW.s 			page 207


 9587 0342 0020     		.short	8192
 9588 0344 0020     		.short	8192
 9589 0346 0040     		.short	16384
 9590 0348 0000     		.short	0
 9591 034a 0020     		.short	8192
 9592 034c 0040     		.short	16384
 9593 034e 0080     		.short	-32768
 9594 0350 0040     		.short	16384
 9595 0352 0020     		.short	8192
 9596 0354 0000     		.short	0
 9597 0356 0000     		.short	0
 9598 0358 0000     		.short	0
 9599 035a 0070     		.short	28672
 9600 035c 0000     		.short	0
 9601 035e 0070     		.short	28672
 9602 0360 0000     		.short	0
 9603 0362 0000     		.short	0
 9604 0364 0000     		.short	0
 9605 0366 0020     		.short	8192
 9606 0368 0010     		.short	4096
 9607 036a 0008     		.short	2048
 9608 036c 0010     		.short	4096
 9609 036e 0020     		.short	8192
 9610 0370 0000     		.short	0
 9611 0372 0060     		.short	24576
 9612 0374 0090     		.short	-28672
 9613 0376 0090     		.short	-28672
 9614 0378 0020     		.short	8192
 9615 037a 0020     		.short	8192
 9616 037c 0000     		.short	0
 9617 037e 0020     		.short	8192
 9618 0380 0070     		.short	28672
 9619 0382 0088     		.short	-30720
 9620 0384 0098     		.short	-26624
 9621 0386 00A8     		.short	-22528
 9622 0388 00B0     		.short	-20480
 9623 038a 0080     		.short	-32768
 9624 038c 0070     		.short	28672
 9625 038e 0070     		.short	28672
 9626 0390 0088     		.short	-30720
 9627 0392 0088     		.short	-30720
 9628 0394 00F8     		.short	-2048
 9629 0396 0088     		.short	-30720
 9630 0398 0088     		.short	-30720
 9631 039a 0088     		.short	-30720
 9632 039c 00F0     		.short	-4096
 9633 039e 0088     		.short	-30720
 9634 03a0 0088     		.short	-30720
 9635 03a2 00F0     		.short	-4096
 9636 03a4 0088     		.short	-30720
 9637 03a6 0088     		.short	-30720
 9638 03a8 00F0     		.short	-4096
 9639 03aa 0078     		.short	30720
 9640 03ac 0080     		.short	-32768
 9641 03ae 0080     		.short	-32768
 9642 03b0 0080     		.short	-32768
 9643 03b2 0080     		.short	-32768
ARM GAS  C:\Users\arist\AppData\Local\Temp\ccSK2xlW.s 			page 208


 9644 03b4 0080     		.short	-32768
 9645 03b6 0078     		.short	30720
 9646 03b8 00E0     		.short	-8192
 9647 03ba 0090     		.short	-28672
 9648 03bc 0088     		.short	-30720
 9649 03be 0088     		.short	-30720
 9650 03c0 0088     		.short	-30720
 9651 03c2 0090     		.short	-28672
 9652 03c4 00E0     		.short	-8192
 9653 03c6 0078     		.short	30720
 9654 03c8 0080     		.short	-32768
 9655 03ca 0080     		.short	-32768
 9656 03cc 00F0     		.short	-4096
 9657 03ce 0080     		.short	-32768
 9658 03d0 0080     		.short	-32768
 9659 03d2 0078     		.short	30720
 9660 03d4 0078     		.short	30720
 9661 03d6 0080     		.short	-32768
 9662 03d8 0080     		.short	-32768
 9663 03da 00F0     		.short	-4096
 9664 03dc 0080     		.short	-32768
 9665 03de 0080     		.short	-32768
 9666 03e0 0080     		.short	-32768
 9667 03e2 0070     		.short	28672
 9668 03e4 0088     		.short	-30720
 9669 03e6 0080     		.short	-32768
 9670 03e8 00B8     		.short	-18432
 9671 03ea 0088     		.short	-30720
 9672 03ec 0088     		.short	-30720
 9673 03ee 0070     		.short	28672
 9674 03f0 0088     		.short	-30720
 9675 03f2 0088     		.short	-30720
 9676 03f4 0088     		.short	-30720
 9677 03f6 0070     		.short	28672
 9678 03f8 0088     		.short	-30720
 9679 03fa 0088     		.short	-30720
 9680 03fc 0088     		.short	-30720
 9681 03fe 00F8     		.short	-2048
 9682 0400 0020     		.short	8192
 9683 0402 0020     		.short	8192
 9684 0404 0020     		.short	8192
 9685 0406 0020     		.short	8192
 9686 0408 0020     		.short	8192
 9687 040a 00F8     		.short	-2048
 9688 040c 00F8     		.short	-2048
 9689 040e 0020     		.short	8192
 9690 0410 0020     		.short	8192
 9691 0412 0020     		.short	8192
 9692 0414 00A0     		.short	-24576
 9693 0416 00A0     		.short	-24576
 9694 0418 0040     		.short	16384
 9695 041a 0090     		.short	-28672
 9696 041c 0090     		.short	-28672
 9697 041e 00A0     		.short	-24576
 9698 0420 00C0     		.short	-16384
 9699 0422 00A0     		.short	-24576
 9700 0424 0090     		.short	-28672
ARM GAS  C:\Users\arist\AppData\Local\Temp\ccSK2xlW.s 			page 209


 9701 0426 0088     		.short	-30720
 9702 0428 0080     		.short	-32768
 9703 042a 0080     		.short	-32768
 9704 042c 0080     		.short	-32768
 9705 042e 0080     		.short	-32768
 9706 0430 0080     		.short	-32768
 9707 0432 0080     		.short	-32768
 9708 0434 00F8     		.short	-2048
 9709 0436 0088     		.short	-30720
 9710 0438 00D8     		.short	-10240
 9711 043a 00A8     		.short	-22528
 9712 043c 00A8     		.short	-22528
 9713 043e 0088     		.short	-30720
 9714 0440 0088     		.short	-30720
 9715 0442 0088     		.short	-30720
 9716 0444 0088     		.short	-30720
 9717 0446 0088     		.short	-30720
 9718 0448 00C8     		.short	-14336
 9719 044a 00A8     		.short	-22528
 9720 044c 0098     		.short	-26624
 9721 044e 0088     		.short	-30720
 9722 0450 0088     		.short	-30720
 9723 0452 0070     		.short	28672
 9724 0454 0088     		.short	-30720
 9725 0456 0088     		.short	-30720
 9726 0458 0088     		.short	-30720
 9727 045a 0088     		.short	-30720
 9728 045c 0088     		.short	-30720
 9729 045e 0070     		.short	28672
 9730 0460 00F0     		.short	-4096
 9731 0462 0088     		.short	-30720
 9732 0464 0088     		.short	-30720
 9733 0466 00F0     		.short	-4096
 9734 0468 0080     		.short	-32768
 9735 046a 0080     		.short	-32768
 9736 046c 0080     		.short	-32768
 9737 046e 0070     		.short	28672
 9738 0470 0088     		.short	-30720
 9739 0472 0088     		.short	-30720
 9740 0474 0088     		.short	-30720
 9741 0476 00A8     		.short	-22528
 9742 0478 0070     		.short	28672
 9743 047a 0018     		.short	6144
 9744 047c 00F0     		.short	-4096
 9745 047e 0088     		.short	-30720
 9746 0480 0088     		.short	-30720
 9747 0482 00F0     		.short	-4096
 9748 0484 00A0     		.short	-24576
 9749 0486 0090     		.short	-28672
 9750 0488 0088     		.short	-30720
 9751 048a 0078     		.short	30720
 9752 048c 0080     		.short	-32768
 9753 048e 0080     		.short	-32768
 9754 0490 0070     		.short	28672
 9755 0492 0008     		.short	2048
 9756 0494 0008     		.short	2048
 9757 0496 00F0     		.short	-4096
ARM GAS  C:\Users\arist\AppData\Local\Temp\ccSK2xlW.s 			page 210


 9758 0498 00F8     		.short	-2048
 9759 049a 0020     		.short	8192
 9760 049c 0020     		.short	8192
 9761 049e 0020     		.short	8192
 9762 04a0 0020     		.short	8192
 9763 04a2 0020     		.short	8192
 9764 04a4 0020     		.short	8192
 9765 04a6 0088     		.short	-30720
 9766 04a8 0088     		.short	-30720
 9767 04aa 0088     		.short	-30720
 9768 04ac 0088     		.short	-30720
 9769 04ae 0088     		.short	-30720
 9770 04b0 0088     		.short	-30720
 9771 04b2 0070     		.short	28672
 9772 04b4 0088     		.short	-30720
 9773 04b6 0088     		.short	-30720
 9774 04b8 0088     		.short	-30720
 9775 04ba 0088     		.short	-30720
 9776 04bc 0088     		.short	-30720
 9777 04be 0050     		.short	20480
 9778 04c0 0020     		.short	8192
 9779 04c2 0088     		.short	-30720
 9780 04c4 0088     		.short	-30720
 9781 04c6 0088     		.short	-30720
 9782 04c8 00A8     		.short	-22528
 9783 04ca 00A8     		.short	-22528
 9784 04cc 00A8     		.short	-22528
 9785 04ce 0050     		.short	20480
 9786 04d0 0088     		.short	-30720
 9787 04d2 0088     		.short	-30720
 9788 04d4 0050     		.short	20480
 9789 04d6 0020     		.short	8192
 9790 04d8 0050     		.short	20480
 9791 04da 0088     		.short	-30720
 9792 04dc 0088     		.short	-30720
 9793 04de 0088     		.short	-30720
 9794 04e0 0088     		.short	-30720
 9795 04e2 0050     		.short	20480
 9796 04e4 0020     		.short	8192
 9797 04e6 0020     		.short	8192
 9798 04e8 0020     		.short	8192
 9799 04ea 0070     		.short	28672
 9800 04ec 00F8     		.short	-2048
 9801 04ee 0008     		.short	2048
 9802 04f0 0010     		.short	4096
 9803 04f2 0020     		.short	8192
 9804 04f4 0040     		.short	16384
 9805 04f6 0080     		.short	-32768
 9806 04f8 00F8     		.short	-2048
 9807 04fa 0070     		.short	28672
 9808 04fc 0040     		.short	16384
 9809 04fe 0040     		.short	16384
 9810 0500 0040     		.short	16384
 9811 0502 0040     		.short	16384
 9812 0504 0040     		.short	16384
 9813 0506 0070     		.short	28672
 9814 0508 0000     		.short	0
ARM GAS  C:\Users\arist\AppData\Local\Temp\ccSK2xlW.s 			page 211


 9815 050a 0080     		.short	-32768
 9816 050c 0040     		.short	16384
 9817 050e 0020     		.short	8192
 9818 0510 0010     		.short	4096
 9819 0512 0008     		.short	2048
 9820 0514 0000     		.short	0
 9821 0516 0070     		.short	28672
 9822 0518 0010     		.short	4096
 9823 051a 0010     		.short	4096
 9824 051c 0010     		.short	4096
 9825 051e 0010     		.short	4096
 9826 0520 0010     		.short	4096
 9827 0522 0070     		.short	28672
 9828 0524 0020     		.short	8192
 9829 0526 0050     		.short	20480
 9830 0528 0000     		.short	0
 9831 052a 0000     		.short	0
 9832 052c 0000     		.short	0
 9833 052e 0000     		.short	0
 9834 0530 0000     		.short	0
 9835 0532 0000     		.short	0
 9836 0534 0000     		.short	0
 9837 0536 0000     		.short	0
 9838 0538 0000     		.short	0
 9839 053a 0000     		.short	0
 9840 053c 0000     		.short	0
 9841 053e 00F8     		.short	-2048
 9842 0540 0020     		.short	8192
 9843 0542 0010     		.short	4096
 9844 0544 0000     		.short	0
 9845 0546 0000     		.short	0
 9846 0548 0000     		.short	0
 9847 054a 0000     		.short	0
 9848 054c 0000     		.short	0
 9849 054e 0000     		.short	0
 9850 0550 0000     		.short	0
 9851 0552 0070     		.short	28672
 9852 0554 0008     		.short	2048
 9853 0556 0078     		.short	30720
 9854 0558 0088     		.short	-30720
 9855 055a 0070     		.short	28672
 9856 055c 0080     		.short	-32768
 9857 055e 0080     		.short	-32768
 9858 0560 00B0     		.short	-20480
 9859 0562 00C8     		.short	-14336
 9860 0564 0088     		.short	-30720
 9861 0566 0088     		.short	-30720
 9862 0568 0070     		.short	28672
 9863 056a 0000     		.short	0
 9864 056c 0000     		.short	0
 9865 056e 0078     		.short	30720
 9866 0570 0080     		.short	-32768
 9867 0572 0080     		.short	-32768
 9868 0574 0080     		.short	-32768
 9869 0576 0078     		.short	30720
 9870 0578 0008     		.short	2048
 9871 057a 0008     		.short	2048
ARM GAS  C:\Users\arist\AppData\Local\Temp\ccSK2xlW.s 			page 212


 9872 057c 0068     		.short	26624
 9873 057e 0098     		.short	-26624
 9874 0580 0088     		.short	-30720
 9875 0582 0088     		.short	-30720
 9876 0584 0070     		.short	28672
 9877 0586 0000     		.short	0
 9878 0588 0000     		.short	0
 9879 058a 0070     		.short	28672
 9880 058c 0088     		.short	-30720
 9881 058e 00F0     		.short	-4096
 9882 0590 0080     		.short	-32768
 9883 0592 0070     		.short	28672
 9884 0594 0018     		.short	6144
 9885 0596 0020     		.short	8192
 9886 0598 0070     		.short	28672
 9887 059a 0020     		.short	8192
 9888 059c 0020     		.short	8192
 9889 059e 0020     		.short	8192
 9890 05a0 0070     		.short	28672
 9891 05a2 0000     		.short	0
 9892 05a4 0070     		.short	28672
 9893 05a6 0088     		.short	-30720
 9894 05a8 0088     		.short	-30720
 9895 05aa 0078     		.short	30720
 9896 05ac 0008     		.short	2048
 9897 05ae 0070     		.short	28672
 9898 05b0 0080     		.short	-32768
 9899 05b2 0080     		.short	-32768
 9900 05b4 00B0     		.short	-20480
 9901 05b6 00C8     		.short	-14336
 9902 05b8 0088     		.short	-30720
 9903 05ba 0088     		.short	-30720
 9904 05bc 0088     		.short	-30720
 9905 05be 0000     		.short	0
 9906 05c0 0020     		.short	8192
 9907 05c2 0000     		.short	0
 9908 05c4 0060     		.short	24576
 9909 05c6 0020     		.short	8192
 9910 05c8 0020     		.short	8192
 9911 05ca 0070     		.short	28672
 9912 05cc 0000     		.short	0
 9913 05ce 0010     		.short	4096
 9914 05d0 0000     		.short	0
 9915 05d2 0070     		.short	28672
 9916 05d4 0010     		.short	4096
 9917 05d6 0090     		.short	-28672
 9918 05d8 0060     		.short	24576
 9919 05da 0080     		.short	-32768
 9920 05dc 0080     		.short	-32768
 9921 05de 0090     		.short	-28672
 9922 05e0 00A0     		.short	-24576
 9923 05e2 00C0     		.short	-16384
 9924 05e4 00A0     		.short	-24576
 9925 05e6 0090     		.short	-28672
 9926 05e8 0060     		.short	24576
 9927 05ea 0020     		.short	8192
 9928 05ec 0020     		.short	8192
ARM GAS  C:\Users\arist\AppData\Local\Temp\ccSK2xlW.s 			page 213


 9929 05ee 0020     		.short	8192
 9930 05f0 0020     		.short	8192
 9931 05f2 0020     		.short	8192
 9932 05f4 0070     		.short	28672
 9933 05f6 0000     		.short	0
 9934 05f8 0000     		.short	0
 9935 05fa 0050     		.short	20480
 9936 05fc 00A8     		.short	-22528
 9937 05fe 00A8     		.short	-22528
 9938 0600 00A8     		.short	-22528
 9939 0602 00A8     		.short	-22528
 9940 0604 0000     		.short	0
 9941 0606 0000     		.short	0
 9942 0608 00B0     		.short	-20480
 9943 060a 00C8     		.short	-14336
 9944 060c 0088     		.short	-30720
 9945 060e 0088     		.short	-30720
 9946 0610 0088     		.short	-30720
 9947 0612 0000     		.short	0
 9948 0614 0000     		.short	0
 9949 0616 0070     		.short	28672
 9950 0618 0088     		.short	-30720
 9951 061a 0088     		.short	-30720
 9952 061c 0088     		.short	-30720
 9953 061e 0070     		.short	28672
 9954 0620 0000     		.short	0
 9955 0622 0000     		.short	0
 9956 0624 0070     		.short	28672
 9957 0626 0088     		.short	-30720
 9958 0628 0088     		.short	-30720
 9959 062a 00F0     		.short	-4096
 9960 062c 0080     		.short	-32768
 9961 062e 0000     		.short	0
 9962 0630 0000     		.short	0
 9963 0632 0070     		.short	28672
 9964 0634 0088     		.short	-30720
 9965 0636 0088     		.short	-30720
 9966 0638 0078     		.short	30720
 9967 063a 0008     		.short	2048
 9968 063c 0000     		.short	0
 9969 063e 0000     		.short	0
 9970 0640 0068     		.short	26624
 9971 0642 0030     		.short	12288
 9972 0644 0020     		.short	8192
 9973 0646 0020     		.short	8192
 9974 0648 0070     		.short	28672
 9975 064a 0000     		.short	0
 9976 064c 0000     		.short	0
 9977 064e 0078     		.short	30720
 9978 0650 0080     		.short	-32768
 9979 0652 0070     		.short	28672
 9980 0654 0008     		.short	2048
 9981 0656 00F0     		.short	-4096
 9982 0658 0000     		.short	0
 9983 065a 0040     		.short	16384
 9984 065c 00F0     		.short	-4096
 9985 065e 0040     		.short	16384
ARM GAS  C:\Users\arist\AppData\Local\Temp\ccSK2xlW.s 			page 214


 9986 0660 0040     		.short	16384
 9987 0662 0040     		.short	16384
 9988 0664 0030     		.short	12288
 9989 0666 0000     		.short	0
 9990 0668 0000     		.short	0
 9991 066a 0088     		.short	-30720
 9992 066c 0088     		.short	-30720
 9993 066e 0088     		.short	-30720
 9994 0670 0098     		.short	-26624
 9995 0672 0068     		.short	26624
 9996 0674 0000     		.short	0
 9997 0676 0000     		.short	0
 9998 0678 0088     		.short	-30720
 9999 067a 0088     		.short	-30720
 10000 067c 0088     		.short	-30720
 10001 067e 0050     		.short	20480
 10002 0680 0020     		.short	8192
 10003 0682 0000     		.short	0
 10004 0684 0000     		.short	0
 10005 0686 0088     		.short	-30720
 10006 0688 0088     		.short	-30720
 10007 068a 00A8     		.short	-22528
 10008 068c 00A8     		.short	-22528
 10009 068e 0050     		.short	20480
 10010 0690 0000     		.short	0
 10011 0692 0000     		.short	0
 10012 0694 0088     		.short	-30720
 10013 0696 0050     		.short	20480
 10014 0698 0020     		.short	8192
 10015 069a 0050     		.short	20480
 10016 069c 0088     		.short	-30720
 10017 069e 0000     		.short	0
 10018 06a0 0000     		.short	0
 10019 06a2 0088     		.short	-30720
 10020 06a4 0050     		.short	20480
 10021 06a6 0020     		.short	8192
 10022 06a8 0020     		.short	8192
 10023 06aa 00C0     		.short	-16384
 10024 06ac 0000     		.short	0
 10025 06ae 0000     		.short	0
 10026 06b0 00F8     		.short	-2048
 10027 06b2 0010     		.short	4096
 10028 06b4 0020     		.short	8192
 10029 06b6 0040     		.short	16384
 10030 06b8 00F8     		.short	-2048
 10031 06ba 0010     		.short	4096
 10032 06bc 0020     		.short	8192
 10033 06be 0020     		.short	8192
 10034 06c0 0040     		.short	16384
 10035 06c2 0020     		.short	8192
 10036 06c4 0020     		.short	8192
 10037 06c6 0010     		.short	4096
 10038 06c8 0020     		.short	8192
 10039 06ca 0020     		.short	8192
 10040 06cc 0020     		.short	8192
 10041 06ce 0020     		.short	8192
 10042 06d0 0020     		.short	8192
ARM GAS  C:\Users\arist\AppData\Local\Temp\ccSK2xlW.s 			page 215


 10043 06d2 0020     		.short	8192
 10044 06d4 0020     		.short	8192
 10045 06d6 0040     		.short	16384
 10046 06d8 0020     		.short	8192
 10047 06da 0020     		.short	8192
 10048 06dc 0010     		.short	4096
 10049 06de 0020     		.short	8192
 10050 06e0 0020     		.short	8192
 10051 06e2 0040     		.short	16384
 10052 06e4 0000     		.short	0
 10053 06e6 0000     		.short	0
 10054 06e8 0040     		.short	16384
 10055 06ea 00A8     		.short	-22528
 10056 06ec 0010     		.short	4096
 10057 06ee 0000     		.short	0
 10058 06f0 0000     		.short	0
 10059 06f2 0078     		.short	30720
 10060 06f4 0080     		.short	-32768
 10061 06f6 0080     		.short	-32768
 10062 06f8 0080     		.short	-32768
 10063 06fa 0080     		.short	-32768
 10064 06fc 0078     		.short	30720
 10065 06fe 0020     		.short	8192
 10066 0700 0050     		.short	20480
 10067 0702 0000     		.short	0
 10068 0704 0088     		.short	-30720
 10069 0706 0088     		.short	-30720
 10070 0708 0088     		.short	-30720
 10071 070a 0098     		.short	-26624
 10072 070c 0068     		.short	26624
 10073 070e 0010     		.short	4096
 10074 0710 0020     		.short	8192
 10075 0712 0070     		.short	28672
 10076 0714 0088     		.short	-30720
 10077 0716 00F0     		.short	-4096
 10078 0718 0080     		.short	-32768
 10079 071a 0070     		.short	28672
 10080 071c 0020     		.short	8192
 10081 071e 0050     		.short	20480
 10082 0720 0070     		.short	28672
 10083 0722 0008     		.short	2048
 10084 0724 0078     		.short	30720
 10085 0726 0088     		.short	-30720
 10086 0728 0070     		.short	28672
 10087 072a 0050     		.short	20480
 10088 072c 0000     		.short	0
 10089 072e 0070     		.short	28672
 10090 0730 0008     		.short	2048
 10091 0732 0078     		.short	30720
 10092 0734 0088     		.short	-30720
 10093 0736 0070     		.short	28672
 10094 0738 0040     		.short	16384
 10095 073a 0020     		.short	8192
 10096 073c 0070     		.short	28672
 10097 073e 0008     		.short	2048
 10098 0740 0078     		.short	30720
 10099 0742 0088     		.short	-30720
ARM GAS  C:\Users\arist\AppData\Local\Temp\ccSK2xlW.s 			page 216


 10100 0744 0070     		.short	28672
 10101 0746 0020     		.short	8192
 10102 0748 0000     		.short	0
 10103 074a 0070     		.short	28672
 10104 074c 0008     		.short	2048
 10105 074e 0078     		.short	30720
 10106 0750 0088     		.short	-30720
 10107 0752 0070     		.short	28672
 10108 0754 0000     		.short	0
 10109 0756 0000     		.short	0
 10110 0758 0078     		.short	30720
 10111 075a 0080     		.short	-32768
 10112 075c 0080     		.short	-32768
 10113 075e 0078     		.short	30720
 10114 0760 0020     		.short	8192
 10115 0762 0020     		.short	8192
 10116 0764 0050     		.short	20480
 10117 0766 0070     		.short	28672
 10118 0768 0088     		.short	-30720
 10119 076a 00F0     		.short	-4096
 10120 076c 0080     		.short	-32768
 10121 076e 0070     		.short	28672
 10122 0770 0050     		.short	20480
 10123 0772 0000     		.short	0
 10124 0774 0070     		.short	28672
 10125 0776 0088     		.short	-30720
 10126 0778 00F0     		.short	-4096
 10127 077a 0080     		.short	-32768
 10128 077c 0070     		.short	28672
 10129 077e 0040     		.short	16384
 10130 0780 0020     		.short	8192
 10131 0782 0070     		.short	28672
 10132 0784 0088     		.short	-30720
 10133 0786 00F0     		.short	-4096
 10134 0788 0080     		.short	-32768
 10135 078a 0070     		.short	28672
 10136 078c 0050     		.short	20480
 10137 078e 0000     		.short	0
 10138 0790 0000     		.short	0
 10139 0792 0060     		.short	24576
 10140 0794 0020     		.short	8192
 10141 0796 0020     		.short	8192
 10142 0798 0070     		.short	28672
 10143 079a 0020     		.short	8192
 10144 079c 0050     		.short	20480
 10145 079e 0000     		.short	0
 10146 07a0 0060     		.short	24576
 10147 07a2 0020     		.short	8192
 10148 07a4 0020     		.short	8192
 10149 07a6 0070     		.short	28672
 10150 07a8 0040     		.short	16384
 10151 07aa 0020     		.short	8192
 10152 07ac 0000     		.short	0
 10153 07ae 0060     		.short	24576
 10154 07b0 0020     		.short	8192
 10155 07b2 0020     		.short	8192
 10156 07b4 0070     		.short	28672
ARM GAS  C:\Users\arist\AppData\Local\Temp\ccSK2xlW.s 			page 217


 10157 07b6 0050     		.short	20480
 10158 07b8 0000     		.short	0
 10159 07ba 0070     		.short	28672
 10160 07bc 0088     		.short	-30720
 10161 07be 00F8     		.short	-2048
 10162 07c0 0088     		.short	-30720
 10163 07c2 0088     		.short	-30720
 10164 07c4 0020     		.short	8192
 10165 07c6 0000     		.short	0
 10166 07c8 0070     		.short	28672
 10167 07ca 0088     		.short	-30720
 10168 07cc 00F8     		.short	-2048
 10169 07ce 0088     		.short	-30720
 10170 07d0 0088     		.short	-30720
 10171 07d2 0010     		.short	4096
 10172 07d4 0020     		.short	8192
 10173 07d6 00F8     		.short	-2048
 10174 07d8 0080     		.short	-32768
 10175 07da 00F0     		.short	-4096
 10176 07dc 0080     		.short	-32768
 10177 07de 00F8     		.short	-2048
 10178 07e0 0000     		.short	0
 10179 07e2 0000     		.short	0
 10180 07e4 00D0     		.short	-12288
 10181 07e6 0028     		.short	10240
 10182 07e8 0070     		.short	28672
 10183 07ea 00A0     		.short	-24576
 10184 07ec 0058     		.short	22528
 10185 07ee 0078     		.short	30720
 10186 07f0 00A0     		.short	-24576
 10187 07f2 00A0     		.short	-24576
 10188 07f4 00F8     		.short	-2048
 10189 07f6 00A0     		.short	-24576
 10190 07f8 00A0     		.short	-24576
 10191 07fa 00B8     		.short	-18432
 10192 07fc 0020     		.short	8192
 10193 07fe 0050     		.short	20480
 10194 0800 0070     		.short	28672
 10195 0802 0088     		.short	-30720
 10196 0804 0088     		.short	-30720
 10197 0806 0088     		.short	-30720
 10198 0808 0070     		.short	28672
 10199 080a 0050     		.short	20480
 10200 080c 0000     		.short	0
 10201 080e 0070     		.short	28672
 10202 0810 0088     		.short	-30720
 10203 0812 0088     		.short	-30720
 10204 0814 0088     		.short	-30720
 10205 0816 0070     		.short	28672
 10206 0818 0040     		.short	16384
 10207 081a 0020     		.short	8192
 10208 081c 0070     		.short	28672
 10209 081e 0088     		.short	-30720
 10210 0820 0088     		.short	-30720
 10211 0822 0088     		.short	-30720
 10212 0824 0070     		.short	28672
 10213 0826 0020     		.short	8192
ARM GAS  C:\Users\arist\AppData\Local\Temp\ccSK2xlW.s 			page 218


 10214 0828 0050     		.short	20480
 10215 082a 0088     		.short	-30720
 10216 082c 0088     		.short	-30720
 10217 082e 0088     		.short	-30720
 10218 0830 0098     		.short	-26624
 10219 0832 0068     		.short	26624
 10220 0834 0040     		.short	16384
 10221 0836 0020     		.short	8192
 10222 0838 0088     		.short	-30720
 10223 083a 0088     		.short	-30720
 10224 083c 0088     		.short	-30720
 10225 083e 0098     		.short	-26624
 10226 0840 0068     		.short	26624
 10227 0842 0050     		.short	20480
 10228 0844 0000     		.short	0
 10229 0846 0088     		.short	-30720
 10230 0848 0050     		.short	20480
 10231 084a 0020     		.short	8192
 10232 084c 0020     		.short	8192
 10233 084e 00C0     		.short	-16384
 10234 0850 0050     		.short	20480
 10235 0852 0070     		.short	28672
 10236 0854 0088     		.short	-30720
 10237 0856 0088     		.short	-30720
 10238 0858 0088     		.short	-30720
 10239 085a 0088     		.short	-30720
 10240 085c 0070     		.short	28672
 10241 085e 0050     		.short	20480
 10242 0860 0088     		.short	-30720
 10243 0862 0088     		.short	-30720
 10244 0864 0088     		.short	-30720
 10245 0866 0088     		.short	-30720
 10246 0868 0088     		.short	-30720
 10247 086a 0070     		.short	28672
 10248 086c 0000     		.short	0
 10249 086e 0000     		.short	0
 10250 0870 0070     		.short	28672
 10251 0872 0098     		.short	-26624
 10252 0874 00A8     		.short	-22528
 10253 0876 00C8     		.short	-14336
 10254 0878 0070     		.short	28672
 10255 087a 0030     		.short	12288
 10256 087c 0040     		.short	16384
 10257 087e 0020     		.short	8192
 10258 0880 00F0     		.short	-4096
 10259 0882 0040     		.short	16384
 10260 0884 0080     		.short	-32768
 10261 0886 00F8     		.short	-2048
 10262 0888 0070     		.short	28672
 10263 088a 0088     		.short	-30720
 10264 088c 0098     		.short	-26624
 10265 088e 00A8     		.short	-22528
 10266 0890 00C8     		.short	-14336
 10267 0892 0088     		.short	-30720
 10268 0894 0070     		.short	28672
 10269 0896 0050     		.short	20480
 10270 0898 0020     		.short	8192
ARM GAS  C:\Users\arist\AppData\Local\Temp\ccSK2xlW.s 			page 219


 10271 089a 0050     		.short	20480
 10272 089c 0000     		.short	0
 10273 089e 0000     		.short	0
 10274 08a0 0000     		.short	0
 10275 08a2 0000     		.short	0
 10276 08a4 0018     		.short	6144
 10277 08a6 0020     		.short	8192
 10278 08a8 0020     		.short	8192
 10279 08aa 0070     		.short	28672
 10280 08ac 0020     		.short	8192
 10281 08ae 0020     		.short	8192
 10282 08b0 00C0     		.short	-16384
 10283 08b2 0010     		.short	4096
 10284 08b4 0020     		.short	8192
 10285 08b6 0070     		.short	28672
 10286 08b8 0008     		.short	2048
 10287 08ba 0078     		.short	30720
 10288 08bc 0088     		.short	-30720
 10289 08be 0070     		.short	28672
 10290 08c0 0010     		.short	4096
 10291 08c2 0020     		.short	8192
 10292 08c4 0000     		.short	0
 10293 08c6 0060     		.short	24576
 10294 08c8 0020     		.short	8192
 10295 08ca 0020     		.short	8192
 10296 08cc 0070     		.short	28672
 10297 08ce 0010     		.short	4096
 10298 08d0 0020     		.short	8192
 10299 08d2 0070     		.short	28672
 10300 08d4 0088     		.short	-30720
 10301 08d6 0088     		.short	-30720
 10302 08d8 0088     		.short	-30720
 10303 08da 0070     		.short	28672
 10304 08dc 0010     		.short	4096
 10305 08de 0020     		.short	8192
 10306 08e0 0088     		.short	-30720
 10307 08e2 0088     		.short	-30720
 10308 08e4 0088     		.short	-30720
 10309 08e6 0098     		.short	-26624
 10310 08e8 0068     		.short	26624
 10311 08ea 0028     		.short	10240
 10312 08ec 0050     		.short	20480
 10313 08ee 00B0     		.short	-20480
 10314 08f0 00C8     		.short	-14336
 10315 08f2 0088     		.short	-30720
 10316 08f4 0088     		.short	-30720
 10317 08f6 0088     		.short	-30720
 10318 08f8 0028     		.short	10240
 10319 08fa 0050     		.short	20480
 10320 08fc 0088     		.short	-30720
 10321 08fe 00C8     		.short	-14336
 10322 0900 00A8     		.short	-22528
 10323 0902 0098     		.short	-26624
 10324 0904 0088     		.short	-30720
 10325 0906 0060     		.short	24576
 10326 0908 0010     		.short	4096
 10327 090a 0030     		.short	12288
ARM GAS  C:\Users\arist\AppData\Local\Temp\ccSK2xlW.s 			page 220


 10328 090c 0050     		.short	20480
 10329 090e 0020     		.short	8192
 10330 0910 0000     		.short	0
 10331 0912 0000     		.short	0
 10332 0914 0020     		.short	8192
 10333 0916 0050     		.short	20480
 10334 0918 0020     		.short	8192
 10335 091a 0000     		.short	0
 10336 091c 0000     		.short	0
 10337 091e 0000     		.short	0
 10338 0920 0000     		.short	0
 10339 0922 0020     		.short	8192
 10340 0924 0000     		.short	0
 10341 0926 0020     		.short	8192
 10342 0928 0020     		.short	8192
 10343 092a 0090     		.short	-28672
 10344 092c 0090     		.short	-28672
 10345 092e 0060     		.short	24576
 10346 0930 0000     		.short	0
 10347 0932 0070     		.short	28672
 10348 0934 00A8     		.short	-22528
 10349 0936 00B8     		.short	-18432
 10350 0938 00A8     		.short	-22528
 10351 093a 0070     		.short	28672
 10352 093c 0000     		.short	0
 10353 093e 0000     		.short	0
 10354 0940 0000     		.short	0
 10355 0942 0000     		.short	0
 10356 0944 00F8     		.short	-2048
 10357 0946 0008     		.short	2048
 10358 0948 0000     		.short	0
 10359 094a 0000     		.short	0
 10360 094c 0000     		.short	0
 10361 094e 0048     		.short	18432
 10362 0950 0010     		.short	4096
 10363 0952 0020     		.short	8192
 10364 0954 0048     		.short	18432
 10365 0956 0088     		.short	-30720
 10366 0958 0000     		.short	0
 10367 095a 0000     		.short	0
 10368 095c 0048     		.short	18432
 10369 095e 0010     		.short	4096
 10370 0960 0020     		.short	8192
 10371 0962 0058     		.short	22528
 10372 0964 0098     		.short	-26624
 10373 0966 0000     		.short	0
 10374 0968 0000     		.short	0
 10375 096a 0000     		.short	0
 10376 096c 0020     		.short	8192
 10377 096e 0000     		.short	0
 10378 0970 0020     		.short	8192
 10379 0972 0020     		.short	8192
 10380 0974 0020     		.short	8192
 10381 0976 0000     		.short	0
 10382 0978 0028     		.short	10240
 10383 097a 0050     		.short	20480
 10384 097c 00A0     		.short	-24576
ARM GAS  C:\Users\arist\AppData\Local\Temp\ccSK2xlW.s 			page 221


 10385 097e 0050     		.short	20480
 10386 0980 0028     		.short	10240
 10387 0982 0000     		.short	0
 10388 0984 0000     		.short	0
 10389 0986 00A0     		.short	-24576
 10390 0988 0050     		.short	20480
 10391 098a 0028     		.short	10240
 10392 098c 0050     		.short	20480
 10393 098e 00A0     		.short	-24576
 10394 0990 0000     		.short	0
 10395 0992 00A8     		.short	-22528
 10396 0994 0050     		.short	20480
 10397 0996 00A8     		.short	-22528
 10398 0998 0050     		.short	20480
 10399 099a 00A8     		.short	-22528
 10400 099c 0050     		.short	20480
 10401 099e 00A8     		.short	-22528
 10402 09a0 00F8     		.short	-2048
 10403 09a2 0000     		.short	0
 10404 09a4 0000     		.short	0
 10405 09a6 00F8     		.short	-2048
 10406 09a8 0000     		.short	0
 10407 09aa 0000     		.short	0
 10408 09ac 00F8     		.short	-2048
 10409 09ae 00F8     		.short	-2048
 10410 09b0 0000     		.short	0
 10411 09b2 00F8     		.short	-2048
 10412 09b4 0000     		.short	0
 10413 09b6 00F8     		.short	-2048
 10414 09b8 0000     		.short	0
 10415 09ba 00F8     		.short	-2048
 10416 09bc 0020     		.short	8192
 10417 09be 0020     		.short	8192
 10418 09c0 0020     		.short	8192
 10419 09c2 0020     		.short	8192
 10420 09c4 0020     		.short	8192
 10421 09c6 0020     		.short	8192
 10422 09c8 0020     		.short	8192
 10423 09ca 0020     		.short	8192
 10424 09cc 0020     		.short	8192
 10425 09ce 0020     		.short	8192
 10426 09d0 00E0     		.short	-8192
 10427 09d2 0020     		.short	8192
 10428 09d4 0020     		.short	8192
 10429 09d6 0020     		.short	8192
 10430 09d8 0010     		.short	4096
 10431 09da 0020     		.short	8192
 10432 09dc 0070     		.short	28672
 10433 09de 0088     		.short	-30720
 10434 09e0 00F8     		.short	-2048
 10435 09e2 0088     		.short	-30720
 10436 09e4 0088     		.short	-30720
 10437 09e6 0020     		.short	8192
 10438 09e8 0050     		.short	20480
 10439 09ea 0070     		.short	28672
 10440 09ec 0088     		.short	-30720
 10441 09ee 00F8     		.short	-2048
ARM GAS  C:\Users\arist\AppData\Local\Temp\ccSK2xlW.s 			page 222


 10442 09f0 0088     		.short	-30720
 10443 09f2 0088     		.short	-30720
 10444 09f4 0040     		.short	16384
 10445 09f6 0020     		.short	8192
 10446 09f8 0070     		.short	28672
 10447 09fa 0088     		.short	-30720
 10448 09fc 00F8     		.short	-2048
 10449 09fe 0088     		.short	-30720
 10450 0a00 0088     		.short	-30720
 10451 0a02 0000     		.short	0
 10452 0a04 0070     		.short	28672
 10453 0a06 00A8     		.short	-22528
 10454 0a08 00C8     		.short	-14336
 10455 0a0a 00A8     		.short	-22528
 10456 0a0c 0070     		.short	28672
 10457 0a0e 0000     		.short	0
 10458 0a10 0050     		.short	20480
 10459 0a12 0050     		.short	20480
 10460 0a14 00D0     		.short	-12288
 10461 0a16 0010     		.short	4096
 10462 0a18 00D0     		.short	-12288
 10463 0a1a 0050     		.short	20480
 10464 0a1c 0050     		.short	20480
 10465 0a1e 0050     		.short	20480
 10466 0a20 0050     		.short	20480
 10467 0a22 0050     		.short	20480
 10468 0a24 0050     		.short	20480
 10469 0a26 0050     		.short	20480
 10470 0a28 0050     		.short	20480
 10471 0a2a 0050     		.short	20480
 10472 0a2c 0000     		.short	0
 10473 0a2e 0000     		.short	0
 10474 0a30 00F0     		.short	-4096
 10475 0a32 0010     		.short	4096
 10476 0a34 00D0     		.short	-12288
 10477 0a36 0050     		.short	20480
 10478 0a38 0050     		.short	20480
 10479 0a3a 0050     		.short	20480
 10480 0a3c 0050     		.short	20480
 10481 0a3e 00D0     		.short	-12288
 10482 0a40 0001     		.short	256
 10483 0a42 00F0     		.short	-4096
 10484 0a44 0000     		.short	0
 10485 0a46 0000     		.short	0
 10486 0a48 0002     		.short	512
 10487 0a4a 0078     		.short	30720
 10488 0a4c 0080     		.short	-32768
 10489 0a4e 0080     		.short	-32768
 10490 0a50 0080     		.short	-32768
 10491 0a52 0078     		.short	30720
 10492 0a54 0020     		.short	8192
 10493 0a56 0050     		.short	20480
 10494 0a58 0050     		.short	20480
 10495 0a5a 0020     		.short	8192
 10496 0a5c 0070     		.short	28672
 10497 0a5e 0020     		.short	8192
 10498 0a60 0070     		.short	28672
ARM GAS  C:\Users\arist\AppData\Local\Temp\ccSK2xlW.s 			page 223


 10499 0a62 0020     		.short	8192
 10500 0a64 0000     		.short	0
 10501 0a66 0000     		.short	0
 10502 0a68 0000     		.short	0
 10503 0a6a 00E0     		.short	-8192
 10504 0a6c 0020     		.short	8192
 10505 0a6e 0020     		.short	8192
 10506 0a70 0020     		.short	8192
 10507 0a72 0020     		.short	8192
 10508 0a74 0020     		.short	8192
 10509 0a76 0020     		.short	8192
 10510 0a78 0038     		.short	14336
 10511 0a7a 0000     		.short	0
 10512 0a7c 0000     		.short	0
 10513 0a7e 0000     		.short	0
 10514 0a80 0020     		.short	8192
 10515 0a82 0020     		.short	8192
 10516 0a84 0020     		.short	8192
 10517 0a86 00F8     		.short	-2048
 10518 0a88 0000     		.short	0
 10519 0a8a 0000     		.short	0
 10520 0a8c 0000     		.short	0
 10521 0a8e 0000     		.short	0
 10522 0a90 0000     		.short	0
 10523 0a92 0000     		.short	0
 10524 0a94 00F8     		.short	-2048
 10525 0a96 0020     		.short	8192
 10526 0a98 0020     		.short	8192
 10527 0a9a 0020     		.short	8192
 10528 0a9c 0020     		.short	8192
 10529 0a9e 0020     		.short	8192
 10530 0aa0 0020     		.short	8192
 10531 0aa2 0038     		.short	14336
 10532 0aa4 0020     		.short	8192
 10533 0aa6 0020     		.short	8192
 10534 0aa8 0020     		.short	8192
 10535 0aaa 0000     		.short	0
 10536 0aac 0000     		.short	0
 10537 0aae 0000     		.short	0
 10538 0ab0 00F8     		.short	-2048
 10539 0ab2 0000     		.short	0
 10540 0ab4 0000     		.short	0
 10541 0ab6 0000     		.short	0
 10542 0ab8 0020     		.short	8192
 10543 0aba 0020     		.short	8192
 10544 0abc 0020     		.short	8192
 10545 0abe 00F8     		.short	-2048
 10546 0ac0 0020     		.short	8192
 10547 0ac2 0020     		.short	8192
 10548 0ac4 0020     		.short	8192
 10549 0ac6 0028     		.short	10240
 10550 0ac8 0050     		.short	20480
 10551 0aca 0070     		.short	28672
 10552 0acc 0008     		.short	2048
 10553 0ace 0078     		.short	30720
 10554 0ad0 0088     		.short	-30720
 10555 0ad2 0070     		.short	28672
ARM GAS  C:\Users\arist\AppData\Local\Temp\ccSK2xlW.s 			page 224


 10556 0ad4 0028     		.short	10240
 10557 0ad6 0050     		.short	20480
 10558 0ad8 0070     		.short	28672
 10559 0ada 0088     		.short	-30720
 10560 0adc 00F8     		.short	-2048
 10561 0ade 0088     		.short	-30720
 10562 0ae0 0088     		.short	-30720
 10563 0ae2 0050     		.short	20480
 10564 0ae4 0050     		.short	20480
 10565 0ae6 0058     		.short	22528
 10566 0ae8 0040     		.short	16384
 10567 0aea 0078     		.short	30720
 10568 0aec 0000     		.short	0
 10569 0aee 0000     		.short	0
 10570 0af0 0000     		.short	0
 10571 0af2 0000     		.short	0
 10572 0af4 0078     		.short	30720
 10573 0af6 0040     		.short	16384
 10574 0af8 0058     		.short	22528
 10575 0afa 0050     		.short	20480
 10576 0afc 0050     		.short	20480
 10577 0afe 0050     		.short	20480
 10578 0b00 0050     		.short	20480
 10579 0b02 00D8     		.short	-10240
 10580 0b04 0000     		.short	0
 10581 0b06 00F8     		.short	-2048
 10582 0b08 0000     		.short	0
 10583 0b0a 0000     		.short	0
 10584 0b0c 0000     		.short	0
 10585 0b0e 0000     		.short	0
 10586 0b10 00F8     		.short	-2048
 10587 0b12 0000     		.short	0
 10588 0b14 00D8     		.short	-10240
 10589 0b16 0050     		.short	20480
 10590 0b18 0050     		.short	20480
 10591 0b1a 0050     		.short	20480
 10592 0b1c 0050     		.short	20480
 10593 0b1e 0058     		.short	22528
 10594 0b20 0040     		.short	16384
 10595 0b22 0058     		.short	22528
 10596 0b24 0050     		.short	20480
 10597 0b26 0050     		.short	20480
 10598 0b28 0000     		.short	0
 10599 0b2a 0000     		.short	0
 10600 0b2c 00F8     		.short	-2048
 10601 0b2e 0000     		.short	0
 10602 0b30 00F8     		.short	-2048
 10603 0b32 0000     		.short	0
 10604 0b34 0000     		.short	0
 10605 0b36 0050     		.short	20480
 10606 0b38 0050     		.short	20480
 10607 0b3a 00D8     		.short	-10240
 10608 0b3c 0000     		.short	0
 10609 0b3e 00D8     		.short	-10240
 10610 0b40 0050     		.short	20480
 10611 0b42 0050     		.short	20480
 10612 0b44 00F8     		.short	-2048
ARM GAS  C:\Users\arist\AppData\Local\Temp\ccSK2xlW.s 			page 225


 10613 0b46 0050     		.short	20480
 10614 0b48 0050     		.short	20480
 10615 0b4a 00F8     		.short	-2048
 10616 0b4c 0000     		.short	0
 10617 0b4e 0000     		.short	0
 10618 0b50 0000     		.short	0
 10619 0b52 0050     		.short	20480
 10620 0b54 0020     		.short	8192
 10621 0b56 0070     		.short	28672
 10622 0b58 0088     		.short	-30720
 10623 0b5a 0088     		.short	-30720
 10624 0b5c 0088     		.short	-30720
 10625 0b5e 0070     		.short	28672
 10626 0b60 0070     		.short	28672
 10627 0b62 0048     		.short	18432
 10628 0b64 0048     		.short	18432
 10629 0b66 00E8     		.short	-6144
 10630 0b68 0048     		.short	18432
 10631 0b6a 0048     		.short	18432
 10632 0b6c 0070     		.short	28672
 10633 0b6e 0020     		.short	8192
 10634 0b70 0050     		.short	20480
 10635 0b72 00F8     		.short	-2048
 10636 0b74 0080     		.short	-32768
 10637 0b76 00F0     		.short	-4096
 10638 0b78 0080     		.short	-32768
 10639 0b7a 00F8     		.short	-2048
 10640 0b7c 0050     		.short	20480
 10641 0b7e 0000     		.short	0
 10642 0b80 00F8     		.short	-2048
 10643 0b82 0080     		.short	-32768
 10644 0b84 00F0     		.short	-4096
 10645 0b86 0080     		.short	-32768
 10646 0b88 00F8     		.short	-2048
 10647 0b8a 0040     		.short	16384
 10648 0b8c 0020     		.short	8192
 10649 0b8e 00F8     		.short	-2048
 10650 0b90 0080     		.short	-32768
 10651 0b92 00F0     		.short	-4096
 10652 0b94 0080     		.short	-32768
 10653 0b96 00F8     		.short	-2048
 10654 0b98 0000     		.short	0
 10655 0b9a 0000     		.short	0
 10656 0b9c 0000     		.short	0
 10657 0b9e 0060     		.short	24576
 10658 0ba0 0020     		.short	8192
 10659 0ba2 0020     		.short	8192
 10660 0ba4 0070     		.short	28672
 10661 0ba6 0010     		.short	4096
 10662 0ba8 0020     		.short	8192
 10663 0baa 00F8     		.short	-2048
 10664 0bac 0020     		.short	8192
 10665 0bae 0020     		.short	8192
 10666 0bb0 0020     		.short	8192
 10667 0bb2 00F8     		.short	-2048
 10668 0bb4 0020     		.short	8192
 10669 0bb6 0050     		.short	20480
ARM GAS  C:\Users\arist\AppData\Local\Temp\ccSK2xlW.s 			page 226


 10670 0bb8 00F8     		.short	-2048
 10671 0bba 0020     		.short	8192
 10672 0bbc 0020     		.short	8192
 10673 0bbe 0020     		.short	8192
 10674 0bc0 00F8     		.short	-2048
 10675 0bc2 0050     		.short	20480
 10676 0bc4 0000     		.short	0
 10677 0bc6 00F8     		.short	-2048
 10678 0bc8 0020     		.short	8192
 10679 0bca 0020     		.short	8192
 10680 0bcc 0020     		.short	8192
 10681 0bce 00F8     		.short	-2048
 10682 0bd0 0020     		.short	8192
 10683 0bd2 0020     		.short	8192
 10684 0bd4 0020     		.short	8192
 10685 0bd6 00E0     		.short	-8192
 10686 0bd8 0000     		.short	0
 10687 0bda 0000     		.short	0
 10688 0bdc 0000     		.short	0
 10689 0bde 0000     		.short	0
 10690 0be0 0000     		.short	0
 10691 0be2 0000     		.short	0
 10692 0be4 0038     		.short	14336
 10693 0be6 0020     		.short	8192
 10694 0be8 0020     		.short	8192
 10695 0bea 0020     		.short	8192
 10696 0bec 00F8     		.short	-2048
 10697 0bee 00F8     		.short	-2048
 10698 0bf0 00F8     		.short	-2048
 10699 0bf2 00F8     		.short	-2048
 10700 0bf4 00F8     		.short	-2048
 10701 0bf6 00F8     		.short	-2048
 10702 0bf8 00F8     		.short	-2048
 10703 0bfa 0000     		.short	0
 10704 0bfc 0000     		.short	0
 10705 0bfe 0000     		.short	0
 10706 0c00 0000     		.short	0
 10707 0c02 00F8     		.short	-2048
 10708 0c04 00F8     		.short	-2048
 10709 0c06 00F8     		.short	-2048
 10710 0c08 0000     		.short	0
 10711 0c0a 0020     		.short	8192
 10712 0c0c 0020     		.short	8192
 10713 0c0e 0000     		.short	0
 10714 0c10 0020     		.short	8192
 10715 0c12 0020     		.short	8192
 10716 0c14 0000     		.short	0
 10717 0c16 0000     		.short	0
 10718 0c18 0000     		.short	0
 10719 0c1a 00F8     		.short	-2048
 10720 0c1c 00F8     		.short	-2048
 10721 0c1e 00F8     		.short	-2048
 10722 0c20 0000     		.short	0
 10723 0c22 0000     		.short	0
 10724 0c24 00F8     		.short	-2048
 10725 0c26 00F8     		.short	-2048
 10726 0c28 00F8     		.short	-2048
ARM GAS  C:\Users\arist\AppData\Local\Temp\ccSK2xlW.s 			page 227


 10727 0c2a 00F8     		.short	-2048
 10728 0c2c 0000     		.short	0
 10729 0c2e 0000     		.short	0
 10730 0c30 0000     		.short	0
 10731 0c32 0010     		.short	4096
 10732 0c34 0020     		.short	8192
 10733 0c36 0078     		.short	30720
 10734 0c38 0088     		.short	-30720
 10735 0c3a 0088     		.short	-30720
 10736 0c3c 0088     		.short	-30720
 10737 0c3e 0070     		.short	28672
 10738 0c40 00E0     		.short	-8192
 10739 0c42 0090     		.short	-28672
 10740 0c44 00E0     		.short	-8192
 10741 0c46 0090     		.short	-28672
 10742 0c48 0088     		.short	-30720
 10743 0c4a 0088     		.short	-30720
 10744 0c4c 00F0     		.short	-4096
 10745 0c4e 0020     		.short	8192
 10746 0c50 0050     		.short	20480
 10747 0c52 0078     		.short	30720
 10748 0c54 0088     		.short	-30720
 10749 0c56 0088     		.short	-30720
 10750 0c58 0088     		.short	-30720
 10751 0c5a 0070     		.short	28672
 10752 0c5c 0040     		.short	16384
 10753 0c5e 0020     		.short	8192
 10754 0c60 0078     		.short	30720
 10755 0c62 0088     		.short	-30720
 10756 0c64 0088     		.short	-30720
 10757 0c66 0088     		.short	-30720
 10758 0c68 0070     		.short	28672
 10759 0c6a 0028     		.short	10240
 10760 0c6c 0050     		.short	20480
 10761 0c6e 0078     		.short	30720
 10762 0c70 0088     		.short	-30720
 10763 0c72 0088     		.short	-30720
 10764 0c74 0088     		.short	-30720
 10765 0c76 0070     		.short	28672
 10766 0c78 0028     		.short	10240
 10767 0c7a 0050     		.short	20480
 10768 0c7c 0078     		.short	30720
 10769 0c7e 0088     		.short	-30720
 10770 0c80 0088     		.short	-30720
 10771 0c82 0088     		.short	-30720
 10772 0c84 0070     		.short	28672
 10773 0c86 0000     		.short	0
 10774 0c88 0000     		.short	0
 10775 0c8a 0088     		.short	-30720
 10776 0c8c 0088     		.short	-30720
 10777 0c8e 00C8     		.short	-14336
 10778 0c90 00B0     		.short	-20480
 10779 0c92 0080     		.short	-32768
 10780 0c94 00C0     		.short	-16384
 10781 0c96 0050     		.short	20480
 10782 0c98 0068     		.short	26624
 10783 0c9a 0068     		.short	26624
ARM GAS  C:\Users\arist\AppData\Local\Temp\ccSK2xlW.s 			page 228


 10784 0c9c 0050     		.short	20480
 10785 0c9e 0040     		.short	16384
 10786 0ca0 00E0     		.short	-8192
 10787 0ca2 00E0     		.short	-8192
 10788 0ca4 0040     		.short	16384
 10789 0ca6 0070     		.short	28672
 10790 0ca8 0048     		.short	18432
 10791 0caa 0070     		.short	28672
 10792 0cac 0040     		.short	16384
 10793 0cae 00E0     		.short	-8192
 10794 0cb0 0010     		.short	4096
 10795 0cb2 00A8     		.short	-22528
 10796 0cb4 0088     		.short	-30720
 10797 0cb6 0088     		.short	-30720
 10798 0cb8 0088     		.short	-30720
 10799 0cba 0088     		.short	-30720
 10800 0cbc 0070     		.short	28672
 10801 0cbe 0020     		.short	8192
 10802 0cc0 0050     		.short	20480
 10803 0cc2 0088     		.short	-30720
 10804 0cc4 0088     		.short	-30720
 10805 0cc6 0088     		.short	-30720
 10806 0cc8 0088     		.short	-30720
 10807 0cca 0070     		.short	28672
 10808 0ccc 0040     		.short	16384
 10809 0cce 00A8     		.short	-22528
 10810 0cd0 0088     		.short	-30720
 10811 0cd2 0088     		.short	-30720
 10812 0cd4 0088     		.short	-30720
 10813 0cd6 0088     		.short	-30720
 10814 0cd8 0070     		.short	28672
 10815 0cda 0010     		.short	4096
 10816 0cdc 0020     		.short	8192
 10817 0cde 0088     		.short	-30720
 10818 0ce0 0050     		.short	20480
 10819 0ce2 0020     		.short	8192
 10820 0ce4 0020     		.short	8192
 10821 0ce6 00C0     		.short	-16384
 10822 0ce8 0010     		.short	4096
 10823 0cea 0020     		.short	8192
 10824 0cec 0088     		.short	-30720
 10825 0cee 0050     		.short	20480
 10826 0cf0 0020     		.short	8192
 10827 0cf2 0020     		.short	8192
 10828 0cf4 0070     		.short	28672
 10829 0cf6 00F8     		.short	-2048
 10830 0cf8 0000     		.short	0
 10831 0cfa 0000     		.short	0
 10832 0cfc 0000     		.short	0
 10833 0cfe 0000     		.short	0
 10834 0d00 0000     		.short	0
 10835 0d02 0000     		.short	0
 10836 0d04 0010     		.short	4096
 10837 0d06 0020     		.short	8192
 10838 0d08 0000     		.short	0
 10839 0d0a 0000     		.short	0
 10840 0d0c 0000     		.short	0
ARM GAS  C:\Users\arist\AppData\Local\Temp\ccSK2xlW.s 			page 229


 10841 0d0e 0000     		.short	0
 10842 0d10 0008     		.short	2048
 10843 0d12 0000     		.short	0
 10844 0d14 0000     		.short	0
 10845 0d16 0000     		.short	0
 10846 0d18 0070     		.short	28672
 10847 0d1a 0000     		.short	0
 10848 0d1c 0000     		.short	0
 10849 0d1e 0000     		.short	0
 10850 0d20 0020     		.short	8192
 10851 0d22 0020     		.short	8192
 10852 0d24 00F8     		.short	-2048
 10853 0d26 0020     		.short	8192
 10854 0d28 0020     		.short	8192
 10855 0d2a 0000     		.short	0
 10856 0d2c 00F8     		.short	-2048
 10857 0d2e 0000     		.short	0
 10858 0d30 0000     		.short	0
 10859 0d32 0000     		.short	0
 10860 0d34 0000     		.short	0
 10861 0d36 00F8     		.short	-2048
 10862 0d38 0000     		.short	0
 10863 0d3a 00F8     		.short	-2048
 10864 0d3c 0000     		.short	0
 10865 0d3e 0048     		.short	18432
 10866 0d40 00D0     		.short	-12288
 10867 0d42 0020     		.short	8192
 10868 0d44 0058     		.short	22528
 10869 0d46 0098     		.short	-26624
 10870 0d48 0000     		.short	0
 10871 0d4a 0078     		.short	30720
 10872 0d4c 0098     		.short	-26624
 10873 0d4e 0098     		.short	-26624
 10874 0d50 0078     		.short	30720
 10875 0d52 0018     		.short	6144
 10876 0d54 0018     		.short	6144
 10877 0d56 0078     		.short	30720
 10878 0d58 0078     		.short	30720
 10879 0d5a 00A0     		.short	-24576
 10880 0d5c 0090     		.short	-28672
 10881 0d5e 0088     		.short	-30720
 10882 0d60 0048     		.short	18432
 10883 0d62 0028     		.short	10240
 10884 0d64 00F0     		.short	-4096
 10885 0d66 0000     		.short	0
 10886 0d68 0020     		.short	8192
 10887 0d6a 0000     		.short	0
 10888 0d6c 00F8     		.short	-2048
 10889 0d6e 0000     		.short	0
 10890 0d70 0020     		.short	8192
 10891 0d72 0000     		.short	0
 10892 0d74 0000     		.short	0
 10893 0d76 0000     		.short	0
 10894 0d78 0000     		.short	0
 10895 0d7a 0000     		.short	0
 10896 0d7c 0030     		.short	12288
 10897 0d7e 0030     		.short	12288
ARM GAS  C:\Users\arist\AppData\Local\Temp\ccSK2xlW.s 			page 230


 10898 0d80 0060     		.short	24576
 10899 0d82 0020     		.short	8192
 10900 0d84 0050     		.short	20480
 10901 0d86 0020     		.short	8192
 10902 0d88 0000     		.short	0
 10903 0d8a 0000     		.short	0
 10904 0d8c 0000     		.short	0
 10905 0d8e 0000     		.short	0
 10906 0d90 0050     		.short	20480
 10907 0d92 0000     		.short	0
 10908 0d94 0000     		.short	0
 10909 0d96 0000     		.short	0
 10910 0d98 0000     		.short	0
 10911 0d9a 0000     		.short	0
 10912 0d9c 0000     		.short	0
 10913 0d9e 0000     		.short	0
 10914 0da0 0030     		.short	12288
 10915 0da2 0030     		.short	12288
 10916 0da4 0000     		.short	0
 10917 0da6 0000     		.short	0
 10918 0da8 0000     		.short	0
 10919 0daa 0000     		.short	0
 10920 0dac 0020     		.short	8192
 10921 0dae 0060     		.short	24576
 10922 0db0 0020     		.short	8192
 10923 0db2 0020     		.short	8192
 10924 0db4 0070     		.short	28672
 10925 0db6 0000     		.short	0
 10926 0db8 0000     		.short	0
 10927 0dba 0060     		.short	24576
 10928 0dbc 0010     		.short	4096
 10929 0dbe 0020     		.short	8192
 10930 0dc0 0010     		.short	4096
 10931 0dc2 0030     		.short	12288
 10932 0dc4 0000     		.short	0
 10933 0dc6 0000     		.short	0
 10934 0dc8 0060     		.short	24576
 10935 0dca 0010     		.short	4096
 10936 0dcc 0030     		.short	12288
 10937 0dce 0040     		.short	16384
 10938 0dd0 0070     		.short	28672
 10939 0dd2 0000     		.short	0
 10940 0dd4 0000     		.short	0
 10941 0dd6 00F8     		.short	-2048
 10942 0dd8 00F8     		.short	-2048
 10943 0dda 00F8     		.short	-2048
 10944 0ddc 00F8     		.short	-2048
 10945 0dde 0000     		.short	0
 10946 0de0 0000     		.short	0
 10947 0de2 0000     		.short	0
 10948 0de4 00000000 		.space	28
 10948      00000000 
 10948      00000000 
 10948      00000000 
 10948      00000000 
 10949              		.global	font_width
 10950              		.section	.bss.font_width,"aw",%nobits
ARM GAS  C:\Users\arist\AppData\Local\Temp\ccSK2xlW.s 			page 231


 10953              	font_width:
 10954 0000 00       		.space	1
 10955              		.global	font_height
 10956              		.section	.bss.font_height,"aw",%nobits
 10959              	font_height:
 10960 0000 00       		.space	1
 10961              		.text
 10962              	.Letext0:
 10963              		.file 2 "c:\\users\\arist\\appdata\\roaming\\code\\user\\globalstorage\\bmd.stm32-for-vscode\\@xpa
 10964              		.file 3 "c:\\users\\arist\\appdata\\roaming\\code\\user\\globalstorage\\bmd.stm32-for-vscode\\@xpa
 10965              		.file 4 "c:\\users\\arist\\appdata\\roaming\\code\\user\\globalstorage\\bmd.stm32-for-vscode\\@xpa
 10966              		.file 5 "Core/Inc/GEVA.h"
 10967              		.file 6 "Core/Inc/GEVA_font.h"
 10968              		.file 7 "c:\\users\\arist\\appdata\\roaming\\code\\user\\globalstorage\\bmd.stm32-for-vscode\\@xpa
 10969              		.file 8 "c:\\users\\arist\\appdata\\roaming\\code\\user\\globalstorage\\bmd.stm32-for-vscode\\@xpa
ARM GAS  C:\Users\arist\AppData\Local\Temp\ccSK2xlW.s 			page 232


DEFINED SYMBOLS
                            *ABS*:00000000 GEVA.c
C:\Users\arist\AppData\Local\Temp\ccSK2xlW.s:21     .text.set_mode:00000000 $t
C:\Users\arist\AppData\Local\Temp\ccSK2xlW.s:27     .text.set_mode:00000000 set_mode
C:\Users\arist\AppData\Local\Temp\ccSK2xlW.s:80     .text.set_orientation:00000000 $t
C:\Users\arist\AppData\Local\Temp\ccSK2xlW.s:86     .text.set_orientation:00000000 set_orientation
C:\Users\arist\AppData\Local\Temp\ccSK2xlW.s:102    .text.set_orientation:0000000a $d
C:\Users\arist\AppData\Local\Temp\ccSK2xlW.s:106    .text.set_orientation:0000000e $t
C:\Users\arist\AppData\Local\Temp\ccSK2xlW.s:245    .text.clr_buffer:00000000 $t
C:\Users\arist\AppData\Local\Temp\ccSK2xlW.s:251    .text.clr_buffer:00000000 clr_buffer
C:\Users\arist\AppData\Local\Temp\ccSK2xlW.s:300    .text.byte_col_cnt:00000000 $t
C:\Users\arist\AppData\Local\Temp\ccSK2xlW.s:306    .text.byte_col_cnt:00000000 byte_col_cnt
C:\Users\arist\AppData\Local\Temp\ccSK2xlW.s:336    .text.buffer_byte_cnt:00000000 $t
C:\Users\arist\AppData\Local\Temp\ccSK2xlW.s:342    .text.buffer_byte_cnt:00000000 buffer_byte_cnt
C:\Users\arist\AppData\Local\Temp\ccSK2xlW.s:363    .text.init_buf:00000000 $t
C:\Users\arist\AppData\Local\Temp\ccSK2xlW.s:369    .text.init_buf:00000000 init_buf
C:\Users\arist\AppData\Local\Temp\ccSK2xlW.s:454    .text.get_buffer_index:00000000 $t
C:\Users\arist\AppData\Local\Temp\ccSK2xlW.s:460    .text.get_buffer_index:00000000 get_buffer_index
C:\Users\arist\AppData\Local\Temp\ccSK2xlW.s:481    .text.put_vbc:00000000 $t
C:\Users\arist\AppData\Local\Temp\ccSK2xlW.s:487    .text.put_vbc:00000000 put_vbc
C:\Users\arist\AppData\Local\Temp\ccSK2xlW.s:717    .text.normalize_pos:00000000 $t
C:\Users\arist\AppData\Local\Temp\ccSK2xlW.s:723    .text.normalize_pos:00000000 normalize_pos
C:\Users\arist\AppData\Local\Temp\ccSK2xlW.s:781    .text.put_pixel:00000000 $t
C:\Users\arist\AppData\Local\Temp\ccSK2xlW.s:787    .text.put_pixel:00000000 put_pixel
C:\Users\arist\AppData\Local\Temp\ccSK2xlW.s:930    .text.put_circle:00000000 $t
C:\Users\arist\AppData\Local\Temp\ccSK2xlW.s:936    .text.put_circle:00000000 put_circle
C:\Users\arist\AppData\Local\Temp\ccSK2xlW.s:1065   .text.reverse_byte:00000000 $t
C:\Users\arist\AppData\Local\Temp\ccSK2xlW.s:1071   .text.reverse_byte:00000000 reverse_byte
C:\Users\arist\AppData\Local\Temp\ccSK2xlW.s:1130   .text.reverse_byte:00000048 $d
C:\Users\arist\AppData\Local\Temp\ccSK2xlW.s:1137   .text.rotate_char:00000000 $t
C:\Users\arist\AppData\Local\Temp\ccSK2xlW.s:1143   .text.rotate_char:00000000 rotate_char
C:\Users\arist\AppData\Local\Temp\ccSK2xlW.s:1397   .text.rotate_char:000000e4 $d
C:\Users\arist\AppData\Local\Temp\ccSK2xlW.s:10959  .bss.font_height:00000000 font_height
C:\Users\arist\AppData\Local\Temp\ccSK2xlW.s:10953  .bss.font_width:00000000 font_width
C:\Users\arist\AppData\Local\Temp\ccSK2xlW.s:1403   .text.put_char:00000000 $t
C:\Users\arist\AppData\Local\Temp\ccSK2xlW.s:1409   .text.put_char:00000000 put_char
C:\Users\arist\AppData\Local\Temp\ccSK2xlW.s:1490   .text.put_char:00000048 $d
C:\Users\arist\AppData\Local\Temp\ccSK2xlW.s:1495   .text.put_char:0000004c $t
C:\Users\arist\AppData\Local\Temp\ccSK2xlW.s:1814   .text.put_char:000001a8 $d
C:\Users\arist\AppData\Local\Temp\ccSK2xlW.s:9169   .data.font_s:00000000 font_s
C:\Users\arist\AppData\Local\Temp\ccSK2xlW.s:6368   .data.font_m:00000000 font_m
C:\Users\arist\AppData\Local\Temp\ccSK2xlW.s:1822   .text.put_string:00000000 $t
C:\Users\arist\AppData\Local\Temp\ccSK2xlW.s:1828   .text.put_string:00000000 put_string
C:\Users\arist\AppData\Local\Temp\ccSK2xlW.s:1956   .text.put_string:00000074 $d
C:\Users\arist\AppData\Local\Temp\ccSK2xlW.s:1962   .text.modulo:00000000 $t
C:\Users\arist\AppData\Local\Temp\ccSK2xlW.s:1968   .text.modulo:00000000 modulo
C:\Users\arist\AppData\Local\Temp\ccSK2xlW.s:1989   .text.clear_sector:00000000 $t
C:\Users\arist\AppData\Local\Temp\ccSK2xlW.s:1995   .text.clear_sector:00000000 clear_sector
C:\Users\arist\AppData\Local\Temp\ccSK2xlW.s:2046   .text.clear_sector:00000022 $d
C:\Users\arist\AppData\Local\Temp\ccSK2xlW.s:2050   .text.clear_sector:00000026 $t
C:\Users\arist\AppData\Local\Temp\ccSK2xlW.s:2519   .text.calculate_y:00000000 $t
C:\Users\arist\AppData\Local\Temp\ccSK2xlW.s:2525   .text.calculate_y:00000000 calculate_y
C:\Users\arist\AppData\Local\Temp\ccSK2xlW.s:2556   .text.put_line:00000000 $t
C:\Users\arist\AppData\Local\Temp\ccSK2xlW.s:2562   .text.put_line:00000000 put_line
C:\Users\arist\AppData\Local\Temp\ccSK2xlW.s:2865   .text.put_rect:00000000 $t
C:\Users\arist\AppData\Local\Temp\ccSK2xlW.s:2871   .text.put_rect:00000000 put_rect
C:\Users\arist\AppData\Local\Temp\ccSK2xlW.s:2948   .text.put_triangle:00000000 $t
ARM GAS  C:\Users\arist\AppData\Local\Temp\ccSK2xlW.s 			page 233


C:\Users\arist\AppData\Local\Temp\ccSK2xlW.s:2954   .text.put_triangle:00000000 put_triangle
C:\Users\arist\AppData\Local\Temp\ccSK2xlW.s:3017   .text.put_pos_COL:00000000 $t
C:\Users\arist\AppData\Local\Temp\ccSK2xlW.s:3023   .text.put_pos_COL:00000000 put_pos_COL
C:\Users\arist\AppData\Local\Temp\ccSK2xlW.s:3220   .text.put_neg_COL:00000000 $t
C:\Users\arist\AppData\Local\Temp\ccSK2xlW.s:3226   .text.put_neg_COL:00000000 put_neg_COL
C:\Users\arist\AppData\Local\Temp\ccSK2xlW.s:3405   .text.update_COL:00000000 $t
C:\Users\arist\AppData\Local\Temp\ccSK2xlW.s:3411   .text.update_COL:00000000 update_COL
C:\Users\arist\AppData\Local\Temp\ccSK2xlW.s:3447   .text.update_BAR:00000000 $t
C:\Users\arist\AppData\Local\Temp\ccSK2xlW.s:3453   .text.update_BAR:00000000 update_BAR
C:\Users\arist\AppData\Local\Temp\ccSK2xlW.s:3651   .text.update_LINE:00000000 $t
C:\Users\arist\AppData\Local\Temp\ccSK2xlW.s:3657   .text.update_LINE:00000000 update_LINE
C:\Users\arist\AppData\Local\Temp\ccSK2xlW.s:3947   .text.update_LINE:00000164 $d
C:\Users\arist\AppData\Local\Temp\ccSK2xlW.s:4583   .bss.dx.7:00000000 dx.7
C:\Users\arist\AppData\Local\Temp\ccSK2xlW.s:4578   .bss.x_cnt.6:00000000 x_cnt.6
C:\Users\arist\AppData\Local\Temp\ccSK2xlW.s:4573   .bss.old_data.5:00000000 old_data.5
C:\Users\arist\AppData\Local\Temp\ccSK2xlW.s:4568   .bss.x.4:00000000 x.4
C:\Users\arist\AppData\Local\Temp\ccSK2xlW.s:3955   .text.update_SCATTER:00000000 $t
C:\Users\arist\AppData\Local\Temp\ccSK2xlW.s:3961   .text.update_SCATTER:00000000 update_SCATTER
C:\Users\arist\AppData\Local\Temp\ccSK2xlW.s:4238   .text.update_SCATTER:00000148 $d
C:\Users\arist\AppData\Local\Temp\ccSK2xlW.s:4563   .bss.dx.3:00000000 dx.3
C:\Users\arist\AppData\Local\Temp\ccSK2xlW.s:4558   .bss.x_cnt.2:00000000 x_cnt.2
C:\Users\arist\AppData\Local\Temp\ccSK2xlW.s:4553   .bss.old_data.1:00000000 old_data.1
C:\Users\arist\AppData\Local\Temp\ccSK2xlW.s:4548   .bss.x.0:00000000 x.0
C:\Users\arist\AppData\Local\Temp\ccSK2xlW.s:4246   .text.update_XY:00000000 $t
C:\Users\arist\AppData\Local\Temp\ccSK2xlW.s:4252   .text.update_XY:00000000 update_XY
C:\Users\arist\AppData\Local\Temp\ccSK2xlW.s:4456   .text.update_chart:00000000 $t
C:\Users\arist\AppData\Local\Temp\ccSK2xlW.s:4462   .text.update_chart:00000000 update_chart
C:\Users\arist\AppData\Local\Temp\ccSK2xlW.s:4487   .text.update_chart:00000010 $d
C:\Users\arist\AppData\Local\Temp\ccSK2xlW.s:4549   .bss.x.0:00000000 $d
C:\Users\arist\AppData\Local\Temp\ccSK2xlW.s:4554   .bss.old_data.1:00000000 $d
C:\Users\arist\AppData\Local\Temp\ccSK2xlW.s:4559   .bss.x_cnt.2:00000000 $d
C:\Users\arist\AppData\Local\Temp\ccSK2xlW.s:4564   .bss.dx.3:00000000 $d
C:\Users\arist\AppData\Local\Temp\ccSK2xlW.s:4569   .bss.x.4:00000000 $d
C:\Users\arist\AppData\Local\Temp\ccSK2xlW.s:4574   .bss.old_data.5:00000000 $d
C:\Users\arist\AppData\Local\Temp\ccSK2xlW.s:4579   .bss.x_cnt.6:00000000 $d
C:\Users\arist\AppData\Local\Temp\ccSK2xlW.s:4584   .bss.dx.7:00000000 $d
C:\Users\arist\AppData\Local\Temp\ccSK2xlW.s:4590   .data.font_l:00000000 font_l
C:\Users\arist\AppData\Local\Temp\ccSK2xlW.s:4587   .data.font_l:00000000 $d
C:\Users\arist\AppData\Local\Temp\ccSK2xlW.s:6365   .data.font_m:00000000 $d
C:\Users\arist\AppData\Local\Temp\ccSK2xlW.s:9166   .data.font_s:00000000 $d
C:\Users\arist\AppData\Local\Temp\ccSK2xlW.s:10954  .bss.font_width:00000000 $d
C:\Users\arist\AppData\Local\Temp\ccSK2xlW.s:10960  .bss.font_height:00000000 $d
C:\Users\arist\AppData\Local\Temp\ccSK2xlW.s:4492   .text.update_chart:00000015 $d
C:\Users\arist\AppData\Local\Temp\ccSK2xlW.s:4492   .text.update_chart:00000016 $t

UNDEFINED SYMBOLS
memset
malloc
memmove
free
strlen
