ARM GAS  C:\Users\arist\AppData\Local\Temp\ccSK2xlW.s 			page 1


   1              		.cpu cortex-m7
   2              		.arch armv7e-m
   3              		.fpu fpv5-sp-d16
   4              		.eabi_attribute 27, 1
   5              		.eabi_attribute 28, 1
   6              		.eabi_attribute 20, 1
   7              		.eabi_attribute 21, 1
   8              		.eabi_attribute 23, 3
   9              		.eabi_attribute 24, 1
  10              		.eabi_attribute 25, 1
  11              		.eabi_attribute 26, 1
  12              		.eabi_attribute 30, 1
  13              		.eabi_attribute 34, 1
  14              		.eabi_attribute 18, 4
  15              		.file	"GEVA.c"
  16              		.text
  17              	.Ltext0:
  18              		.cfi_sections	.debug_frame
  19              		.file 1 "Core/Src/GEVA.c"
  20              		.section	.text.set_mode,"ax",%progbits
  21              		.align	1
  22              		.global	set_mode
  23              		.syntax unified
  24              		.thumb
  25              		.thumb_func
  27              	set_mode:
  28              	.LVL0:
  29              	.LFB1:
   1:Core/Src/GEVA.c **** #include <string.h>
   2:Core/Src/GEVA.c **** #include "GEVA.h"
   3:Core/Src/GEVA.c **** #include "GEVA_font.h"
   4:Core/Src/GEVA.c **** 
   5:Core/Src/GEVA.c **** /*
   6:Core/Src/GEVA.c **** * TO-DO : better error handling
   7:Core/Src/GEVA.c **** */
   8:Core/Src/GEVA.c **** 
   9:Core/Src/GEVA.c **** //internal function
  10:Core/Src/GEVA.c **** uint8_t byte_col_cnt(uint8_t size_x);
  11:Core/Src/GEVA.c **** uint16_t buffer_byte_cnt(video_buffer* buf);
  12:Core/Src/GEVA.c **** uint16_t get_buffer_index(uint8_t pos_x, uint8_t pos_y, uint8_t row_byte_cnt);
  13:Core/Src/GEVA.c **** uint8_t* normalize_pos(uint8_t pos_x, uint8_t pos_y, video_buffer* buf);
  14:Core/Src/GEVA.c **** uint16_t* rotate_char(uint16_t *chr, video_buffer* buf);
  15:Core/Src/GEVA.c **** uint8_t calculate_y(uint8_t x, uint8_t x0, uint8_t x1, uint8_t y0, uint8_t y1);
  16:Core/Src/GEVA.c **** uint8_t modulo(int8_t n);
  17:Core/Src/GEVA.c **** uint16_t reverse_byte(uint16_t b);
  18:Core/Src/GEVA.c **** 
  19:Core/Src/GEVA.c **** uint8_t update_LINE(data_container* c, video_buffer* buf);
  20:Core/Src/GEVA.c **** uint8_t update_COL(data_container* c, video_buffer* buf);
  21:Core/Src/GEVA.c **** uint8_t update_BAR(data_container* c, video_buffer* buf);
  22:Core/Src/GEVA.c **** uint8_t update_SCATTER(data_container* c, video_buffer* buf);
  23:Core/Src/GEVA.c **** uint8_t update_XY(data_container* c, video_buffer* buf);
  24:Core/Src/GEVA.c **** 
  25:Core/Src/GEVA.c **** /*Initialize buffer memory
  26:Core/Src/GEVA.c **** * return error code
  27:Core/Src/GEVA.c **** * error code list:
  28:Core/Src/GEVA.c **** * 1 error allocating memory
  29:Core/Src/GEVA.c **** */
ARM GAS  C:\Users\arist\AppData\Local\Temp\ccSK2xlW.s 			page 2


  30:Core/Src/GEVA.c **** uint8_t init_buf(video_buffer *buf, uint8_t size_x, uint8_t size_y) {
  31:Core/Src/GEVA.c ****     uint8_t error = 0;
  32:Core/Src/GEVA.c ****     buf->size_x = size_x;
  33:Core/Src/GEVA.c ****     buf->size_y = size_y;
  34:Core/Src/GEVA.c ****     buf->byte_col_cnt = byte_col_cnt(size_x);
  35:Core/Src/GEVA.c ****     buf->byte_buffer_cnt = buffer_byte_cnt(buf);
  36:Core/Src/GEVA.c ****     buf->vid_buf = (uint8_t *)malloc(buf->byte_buffer_cnt);
  37:Core/Src/GEVA.c ****     
  38:Core/Src/GEVA.c ****     /*initialize default pointer values*/
  39:Core/Src/GEVA.c ****     buf->origin[0] = 0;
  40:Core/Src/GEVA.c ****     buf->origin[1] = 0;
  41:Core/Src/GEVA.c ****     buf->r_matrix[0] = 0;
  42:Core/Src/GEVA.c ****     buf->r_matrix[1] = 0;
  43:Core/Src/GEVA.c ****     buf->r_matrix[2] = 0;
  44:Core/Src/GEVA.c ****     buf->r_matrix[3] = 0;
  45:Core/Src/GEVA.c **** 
  46:Core/Src/GEVA.c ****     clr_buffer(buf);
  47:Core/Src/GEVA.c ****     set_mode(NORMAL, buf);
  48:Core/Src/GEVA.c ****     set_orientation(LANDSCAPE, buf);
  49:Core/Src/GEVA.c ****     return error;
  50:Core/Src/GEVA.c **** }
  51:Core/Src/GEVA.c **** 
  52:Core/Src/GEVA.c **** /* Set buffer mode between NORMAL and INVERTED and adjust buffer accordingly*/
  53:Core/Src/GEVA.c **** void set_mode(enum mode mode, video_buffer *buf) {
  30              		.loc 1 53 50 view -0
  31              		.cfi_startproc
  32              		@ args = 0, pretend = 0, frame = 0
  33              		@ frame_needed = 0, uses_anonymous_args = 0
  34              		@ link register save eliminated.
  54:Core/Src/GEVA.c ****     
  55:Core/Src/GEVA.c ****     buf->mode = mode;
  35              		.loc 1 55 5 view .LVU1
  36              		.loc 1 55 15 is_stmt 0 view .LVU2
  37 0000 0873     		strb	r0, [r1, #12]
  56:Core/Src/GEVA.c **** 
  57:Core/Src/GEVA.c ****     if (mode) {
  38              		.loc 1 57 5 is_stmt 1 view .LVU3
  39              		.loc 1 57 8 is_stmt 0 view .LVU4
  40 0002 50B9     		cbnz	r0, .L5
  41              	.LBB2:
  42 0004 7047     		bx	lr
  43              	.LVL1:
  44              	.L4:
  58:Core/Src/GEVA.c ****         for (uint16_t i = 0; i < buf->byte_buffer_cnt; i++) {
  59:Core/Src/GEVA.c ****             buf->vid_buf[i] = ~buf->vid_buf[i];
  45              		.loc 1 59 13 is_stmt 1 discriminator 3 view .LVU5
  46              		.loc 1 59 35 is_stmt 0 discriminator 3 view .LVU6
  47 0006 4868     		ldr	r0, [r1, #4]
  48              		.loc 1 59 44 discriminator 3 view .LVU7
  49 0008 C25C     		ldrb	r2, [r0, r3]	@ zero_extendqisi2
  50              		.loc 1 59 29 discriminator 3 view .LVU8
  51 000a D243     		mvns	r2, r2
  52 000c C254     		strb	r2, [r0, r3]
  58:Core/Src/GEVA.c ****         for (uint16_t i = 0; i < buf->byte_buffer_cnt; i++) {
  53              		.loc 1 58 57 is_stmt 1 discriminator 3 view .LVU9
  54 000e 0133     		adds	r3, r3, #1
  55              	.LVL2:
ARM GAS  C:\Users\arist\AppData\Local\Temp\ccSK2xlW.s 			page 3


  58:Core/Src/GEVA.c ****         for (uint16_t i = 0; i < buf->byte_buffer_cnt; i++) {
  56              		.loc 1 58 57 is_stmt 0 discriminator 3 view .LVU10
  57 0010 9BB2     		uxth	r3, r3
  58              	.LVL3:
  59              	.L2:
  58:Core/Src/GEVA.c ****         for (uint16_t i = 0; i < buf->byte_buffer_cnt; i++) {
  60              		.loc 1 58 32 is_stmt 1 discriminator 1 view .LVU11
  58:Core/Src/GEVA.c ****         for (uint16_t i = 0; i < buf->byte_buffer_cnt; i++) {
  61              		.loc 1 58 37 is_stmt 0 discriminator 1 view .LVU12
  62 0012 4A89     		ldrh	r2, [r1, #10]
  58:Core/Src/GEVA.c ****         for (uint16_t i = 0; i < buf->byte_buffer_cnt; i++) {
  63              		.loc 1 58 32 discriminator 1 view .LVU13
  64 0014 9A42     		cmp	r2, r3
  65 0016 F6D8     		bhi	.L4
  66              	.LBE2:
  60:Core/Src/GEVA.c ****         }
  61:Core/Src/GEVA.c ****     }
  62:Core/Src/GEVA.c **** }
  67              		.loc 1 62 1 view .LVU14
  68 0018 7047     		bx	lr
  69              	.LVL4:
  70              	.L5:
  71              	.LBB3:
  58:Core/Src/GEVA.c ****         for (uint16_t i = 0; i < buf->byte_buffer_cnt; i++) {
  72              		.loc 1 58 23 view .LVU15
  73 001a 0023     		movs	r3, #0
  74 001c F9E7     		b	.L2
  75              	.LBE3:
  76              		.cfi_endproc
  77              	.LFE1:
  79              		.section	.text.set_orientation,"ax",%progbits
  80              		.align	1
  81              		.global	set_orientation
  82              		.syntax unified
  83              		.thumb
  84              		.thumb_func
  86              	set_orientation:
  87              	.LVL5:
  88              	.LFB2:
  63:Core/Src/GEVA.c **** 
  64:Core/Src/GEVA.c **** /* Adjust rotation matrix according to orientation */
  65:Core/Src/GEVA.c **** void set_orientation(enum orientation o, video_buffer* buf) {
  89              		.loc 1 65 61 is_stmt 1 view -0
  90              		.cfi_startproc
  91              		@ args = 0, pretend = 0, frame = 0
  92              		@ frame_needed = 0, uses_anonymous_args = 0
  93              		@ link register save eliminated.
  66:Core/Src/GEVA.c ****     
  67:Core/Src/GEVA.c ****     buf->orient = o;
  94              		.loc 1 67 5 view .LVU17
  95              		.loc 1 67 17 is_stmt 0 view .LVU18
  96 0000 4873     		strb	r0, [r1, #13]
  68:Core/Src/GEVA.c ****     switch (o) {
  97              		.loc 1 68 5 is_stmt 1 view .LVU19
  98 0002 0328     		cmp	r0, #3
  99 0004 31D8     		bhi	.L7
 100 0006 DFE800F0 		tbb	[pc, r0]
ARM GAS  C:\Users\arist\AppData\Local\Temp\ccSK2xlW.s 			page 4


 101              	.L9:
 102 000a 02       		.byte	(.L12-.L9)/2
 103 000b 17       		.byte	(.L11-.L9)/2
 104 000c 0B       		.byte	(.L10-.L9)/2
 105 000d 24       		.byte	(.L8-.L9)/2
 106              		.p2align 1
 107              	.L12:
  69:Core/Src/GEVA.c **** 
  70:Core/Src/GEVA.c ****     case LANDSCAPE:
  71:Core/Src/GEVA.c ****         buf->origin[X] = 0;
 108              		.loc 1 71 9 view .LVU20
 109              		.loc 1 71 24 is_stmt 0 view .LVU21
 110 000e 0023     		movs	r3, #0
 111 0010 8B73     		strb	r3, [r1, #14]
  72:Core/Src/GEVA.c ****         buf->origin[Y] = 0;
 112              		.loc 1 72 9 is_stmt 1 view .LVU22
 113              		.loc 1 72 24 is_stmt 0 view .LVU23
 114 0012 CB73     		strb	r3, [r1, #15]
  73:Core/Src/GEVA.c ****         buf->r_matrix[_A] = 1;
 115              		.loc 1 73 9 is_stmt 1 view .LVU24
 116              		.loc 1 73 27 is_stmt 0 view .LVU25
 117 0014 0122     		movs	r2, #1
 118 0016 0A74     		strb	r2, [r1, #16]
  74:Core/Src/GEVA.c ****         buf->r_matrix[_B] = 0;
 119              		.loc 1 74 9 is_stmt 1 view .LVU26
 120              		.loc 1 74 27 is_stmt 0 view .LVU27
 121 0018 4B74     		strb	r3, [r1, #17]
  75:Core/Src/GEVA.c ****         buf->r_matrix[_C] = 0;
 122              		.loc 1 75 9 is_stmt 1 view .LVU28
 123              		.loc 1 75 27 is_stmt 0 view .LVU29
 124 001a 8B74     		strb	r3, [r1, #18]
  76:Core/Src/GEVA.c ****         buf->r_matrix[_D] = 1;
 125              		.loc 1 76 9 is_stmt 1 view .LVU30
 126              		.loc 1 76 27 is_stmt 0 view .LVU31
 127 001c CA74     		strb	r2, [r1, #19]
  77:Core/Src/GEVA.c **** 
  78:Core/Src/GEVA.c ****         break;
 128              		.loc 1 78 9 is_stmt 1 view .LVU32
 129 001e 7047     		bx	lr
 130              	.L10:
  79:Core/Src/GEVA.c ****     case PORTRAIT:
  80:Core/Src/GEVA.c ****         buf->origin[X] = buf->size_x-1;
 131              		.loc 1 80 9 view .LVU33
 132              		.loc 1 80 29 is_stmt 0 view .LVU34
 133 0020 0B78     		ldrb	r3, [r1]	@ zero_extendqisi2
 134              		.loc 1 80 37 view .LVU35
 135 0022 013B     		subs	r3, r3, #1
 136              		.loc 1 80 24 view .LVU36
 137 0024 8B73     		strb	r3, [r1, #14]
  81:Core/Src/GEVA.c ****         buf->origin[Y] = 0;
 138              		.loc 1 81 9 is_stmt 1 view .LVU37
 139              		.loc 1 81 24 is_stmt 0 view .LVU38
 140 0026 0023     		movs	r3, #0
 141 0028 CB73     		strb	r3, [r1, #15]
  82:Core/Src/GEVA.c ****         buf->r_matrix[_A] = 0;
 142              		.loc 1 82 9 is_stmt 1 view .LVU39
 143              		.loc 1 82 27 is_stmt 0 view .LVU40
ARM GAS  C:\Users\arist\AppData\Local\Temp\ccSK2xlW.s 			page 5


 144 002a 0B74     		strb	r3, [r1, #16]
  83:Core/Src/GEVA.c ****         buf->r_matrix[_B] = -1;
 145              		.loc 1 83 9 is_stmt 1 view .LVU41
 146              		.loc 1 83 27 is_stmt 0 view .LVU42
 147 002c FF22     		movs	r2, #255
 148 002e 4A74     		strb	r2, [r1, #17]
  84:Core/Src/GEVA.c ****         buf->r_matrix[_C] = 1;
 149              		.loc 1 84 9 is_stmt 1 view .LVU43
 150              		.loc 1 84 27 is_stmt 0 view .LVU44
 151 0030 0122     		movs	r2, #1
 152 0032 8A74     		strb	r2, [r1, #18]
  85:Core/Src/GEVA.c ****         buf->r_matrix[_D] = 0;
 153              		.loc 1 85 9 is_stmt 1 view .LVU45
 154              		.loc 1 85 27 is_stmt 0 view .LVU46
 155 0034 CB74     		strb	r3, [r1, #19]
  86:Core/Src/GEVA.c ****         break;
 156              		.loc 1 86 9 is_stmt 1 view .LVU47
 157 0036 7047     		bx	lr
 158              	.L11:
  87:Core/Src/GEVA.c ****     case LANDSCAPE_INVERTED:
  88:Core/Src/GEVA.c ****         buf->origin[X] = buf->size_x-1;
 159              		.loc 1 88 9 view .LVU48
 160              		.loc 1 88 29 is_stmt 0 view .LVU49
 161 0038 0B78     		ldrb	r3, [r1]	@ zero_extendqisi2
 162              		.loc 1 88 37 view .LVU50
 163 003a 013B     		subs	r3, r3, #1
 164              		.loc 1 88 24 view .LVU51
 165 003c 8B73     		strb	r3, [r1, #14]
  89:Core/Src/GEVA.c ****         buf->origin[Y] = buf->size_y-1;
 166              		.loc 1 89 9 is_stmt 1 view .LVU52
 167              		.loc 1 89 29 is_stmt 0 view .LVU53
 168 003e 4B78     		ldrb	r3, [r1, #1]	@ zero_extendqisi2
 169              		.loc 1 89 37 view .LVU54
 170 0040 013B     		subs	r3, r3, #1
 171              		.loc 1 89 24 view .LVU55
 172 0042 CB73     		strb	r3, [r1, #15]
  90:Core/Src/GEVA.c ****         buf->r_matrix[_A] = -1;
 173              		.loc 1 90 9 is_stmt 1 view .LVU56
 174              		.loc 1 90 27 is_stmt 0 view .LVU57
 175 0044 FF23     		movs	r3, #255
 176 0046 0B74     		strb	r3, [r1, #16]
  91:Core/Src/GEVA.c ****         buf->r_matrix[_B] = 0;
 177              		.loc 1 91 9 is_stmt 1 view .LVU58
 178              		.loc 1 91 27 is_stmt 0 view .LVU59
 179 0048 0022     		movs	r2, #0
 180 004a 4A74     		strb	r2, [r1, #17]
  92:Core/Src/GEVA.c ****         buf->r_matrix[_C] = 0;
 181              		.loc 1 92 9 is_stmt 1 view .LVU60
 182              		.loc 1 92 27 is_stmt 0 view .LVU61
 183 004c 8A74     		strb	r2, [r1, #18]
  93:Core/Src/GEVA.c ****         buf->r_matrix[_D] = -1;
 184              		.loc 1 93 9 is_stmt 1 view .LVU62
 185              		.loc 1 93 27 is_stmt 0 view .LVU63
 186 004e CB74     		strb	r3, [r1, #19]
  94:Core/Src/GEVA.c ****         break;
 187              		.loc 1 94 9 is_stmt 1 view .LVU64
 188 0050 7047     		bx	lr
ARM GAS  C:\Users\arist\AppData\Local\Temp\ccSK2xlW.s 			page 6


 189              	.L8:
  95:Core/Src/GEVA.c ****     case PORTRAIT_INVERTED:
  96:Core/Src/GEVA.c ****         buf->origin[X] = 0;
 190              		.loc 1 96 9 view .LVU65
 191              		.loc 1 96 24 is_stmt 0 view .LVU66
 192 0052 0023     		movs	r3, #0
 193 0054 8B73     		strb	r3, [r1, #14]
  97:Core/Src/GEVA.c ****         buf->origin[Y] = buf->size_y-1;
 194              		.loc 1 97 9 is_stmt 1 view .LVU67
 195              		.loc 1 97 29 is_stmt 0 view .LVU68
 196 0056 4A78     		ldrb	r2, [r1, #1]	@ zero_extendqisi2
 197              		.loc 1 97 37 view .LVU69
 198 0058 013A     		subs	r2, r2, #1
 199              		.loc 1 97 24 view .LVU70
 200 005a CA73     		strb	r2, [r1, #15]
  98:Core/Src/GEVA.c ****         buf->r_matrix[_A] = 0;
 201              		.loc 1 98 9 is_stmt 1 view .LVU71
 202              		.loc 1 98 27 is_stmt 0 view .LVU72
 203 005c 0B74     		strb	r3, [r1, #16]
  99:Core/Src/GEVA.c ****         buf->r_matrix[_B] = 1;
 204              		.loc 1 99 9 is_stmt 1 view .LVU73
 205              		.loc 1 99 27 is_stmt 0 view .LVU74
 206 005e 0122     		movs	r2, #1
 207 0060 4A74     		strb	r2, [r1, #17]
 100:Core/Src/GEVA.c ****         buf->r_matrix[_C] = -1;
 208              		.loc 1 100 9 is_stmt 1 view .LVU75
 209              		.loc 1 100 27 is_stmt 0 view .LVU76
 210 0062 FF22     		movs	r2, #255
 211 0064 8A74     		strb	r2, [r1, #18]
 101:Core/Src/GEVA.c ****         buf->r_matrix[_D] = 0;
 212              		.loc 1 101 9 is_stmt 1 view .LVU77
 213              		.loc 1 101 27 is_stmt 0 view .LVU78
 214 0066 CB74     		strb	r3, [r1, #19]
 102:Core/Src/GEVA.c ****         break;
 215              		.loc 1 102 9 is_stmt 1 view .LVU79
 216 0068 7047     		bx	lr
 217              	.L7:
 103:Core/Src/GEVA.c ****     default:
 104:Core/Src/GEVA.c ****         buf->origin[X] = 0;
 218              		.loc 1 104 9 view .LVU80
 219              		.loc 1 104 24 is_stmt 0 view .LVU81
 220 006a 0023     		movs	r3, #0
 221 006c 8B73     		strb	r3, [r1, #14]
 105:Core/Src/GEVA.c ****         buf->origin[Y] = 0;
 222              		.loc 1 105 9 is_stmt 1 view .LVU82
 223              		.loc 1 105 24 is_stmt 0 view .LVU83
 224 006e CB73     		strb	r3, [r1, #15]
 106:Core/Src/GEVA.c ****         buf->r_matrix[_A] = 1;
 225              		.loc 1 106 9 is_stmt 1 view .LVU84
 226              		.loc 1 106 27 is_stmt 0 view .LVU85
 227 0070 0122     		movs	r2, #1
 228 0072 0A74     		strb	r2, [r1, #16]
 107:Core/Src/GEVA.c ****         buf->r_matrix[_B] = 0;
 229              		.loc 1 107 9 is_stmt 1 view .LVU86
 230              		.loc 1 107 27 is_stmt 0 view .LVU87
 231 0074 4B74     		strb	r3, [r1, #17]
 108:Core/Src/GEVA.c ****         buf->r_matrix[_C] = 0;
ARM GAS  C:\Users\arist\AppData\Local\Temp\ccSK2xlW.s 			page 7


 232              		.loc 1 108 9 is_stmt 1 view .LVU88
 233              		.loc 1 108 27 is_stmt 0 view .LVU89
 234 0076 8B74     		strb	r3, [r1, #18]
 109:Core/Src/GEVA.c ****         buf->r_matrix[_D] = 1;
 235              		.loc 1 109 9 is_stmt 1 view .LVU90
 236              		.loc 1 109 27 is_stmt 0 view .LVU91
 237 0078 CA74     		strb	r2, [r1, #19]
 110:Core/Src/GEVA.c ****         break;
 238              		.loc 1 110 9 is_stmt 1 view .LVU92
 111:Core/Src/GEVA.c ****     }
 112:Core/Src/GEVA.c **** }
 239              		.loc 1 112 1 is_stmt 0 view .LVU93
 240 007a 7047     		bx	lr
 241              		.cfi_endproc
 242              	.LFE2:
 244              		.section	.text.clr_buffer,"ax",%progbits
 245              		.align	1
 246              		.global	clr_buffer
 247              		.syntax unified
 248              		.thumb
 249              		.thumb_func
 251              	clr_buffer:
 252              	.LVL6:
 253              	.LFB3:
 113:Core/Src/GEVA.c **** 
 114:Core/Src/GEVA.c **** /* ===========================================GRAPHIC FUNCTIONS====================================
 115:Core/Src/GEVA.c **** 
 116:Core/Src/GEVA.c **** /*Reset buffer to default value according to MODE*/
 117:Core/Src/GEVA.c **** 
 118:Core/Src/GEVA.c **** uint8_t clr_buffer(video_buffer* buf) {
 254              		.loc 1 118 39 is_stmt 1 view -0
 255              		.cfi_startproc
 256              		@ args = 0, pretend = 0, frame = 0
 257              		@ frame_needed = 0, uses_anonymous_args = 0
 258              		.loc 1 118 39 is_stmt 0 view .LVU95
 259 0000 08B5     		push	{r3, lr}
 260              		.cfi_def_cfa_offset 8
 261              		.cfi_offset 3, -8
 262              		.cfi_offset 14, -4
 263 0002 0346     		mov	r3, r0
 119:Core/Src/GEVA.c ****     
 120:Core/Src/GEVA.c ****     uint8_t def = (buf->mode == NORMAL) ? 0x00 : 0xff;
 264              		.loc 1 120 5 is_stmt 1 view .LVU96
 265              		.loc 1 120 23 is_stmt 0 view .LVU97
 266 0004 017B     		ldrb	r1, [r0, #12]	@ zero_extendqisi2
 267              		.loc 1 120 13 view .LVU98
 268 0006 01B1     		cbz	r1, .L15
 269 0008 FF21     		movs	r1, #255
 270              	.L15:
 271              	.LVL7:
 121:Core/Src/GEVA.c ****     uint8_t error = 1;
 272              		.loc 1 121 5 is_stmt 1 discriminator 4 view .LVU99
 122:Core/Src/GEVA.c ****     if (buf->vid_buf != NULL) {
 273              		.loc 1 122 5 discriminator 4 view .LVU100
 274              		.loc 1 122 12 is_stmt 0 discriminator 4 view .LVU101
 275 000a 5868     		ldr	r0, [r3, #4]
 276              	.LVL8:
ARM GAS  C:\Users\arist\AppData\Local\Temp\ccSK2xlW.s 			page 8


 277              		.loc 1 122 8 discriminator 4 view .LVU102
 278 000c 20B1     		cbz	r0, .L18
 123:Core/Src/GEVA.c ****         memset(buf->vid_buf, def, buf->byte_buffer_cnt);
 279              		.loc 1 123 9 is_stmt 1 view .LVU103
 280 000e 5A89     		ldrh	r2, [r3, #10]
 281 0010 FFF7FEFF 		bl	memset
 282              	.LVL9:
 124:Core/Src/GEVA.c ****         error = 0;
 283              		.loc 1 124 9 view .LVU104
 284              		.loc 1 124 15 is_stmt 0 view .LVU105
 285 0014 0020     		movs	r0, #0
 286              	.LVL10:
 287              	.L16:
 125:Core/Src/GEVA.c ****     }
 126:Core/Src/GEVA.c ****     return error;
 288              		.loc 1 126 5 is_stmt 1 view .LVU106
 127:Core/Src/GEVA.c **** }
 289              		.loc 1 127 1 is_stmt 0 view .LVU107
 290 0016 08BD     		pop	{r3, pc}
 291              	.LVL11:
 292              	.L18:
 121:Core/Src/GEVA.c ****     if (buf->vid_buf != NULL) {
 293              		.loc 1 121 13 view .LVU108
 294 0018 0120     		movs	r0, #1
 295 001a FCE7     		b	.L16
 296              		.cfi_endproc
 297              	.LFE3:
 299              		.section	.text.byte_col_cnt,"ax",%progbits
 300              		.align	1
 301              		.global	byte_col_cnt
 302              		.syntax unified
 303              		.thumb
 304              		.thumb_func
 306              	byte_col_cnt:
 307              	.LVL12:
 308              	.LFB14:
 128:Core/Src/GEVA.c **** 
 129:Core/Src/GEVA.c **** /* Draw pixel black or white in a specific location on the screen
 130:Core/Src/GEVA.c ****  * return error code
 131:Core/Src/GEVA.c ****  * error code list:
 132:Core/Src/GEVA.c ****  * 4 point out of scope
 133:Core/Src/GEVA.c ****  */
 134:Core/Src/GEVA.c **** uint8_t put_pixel(uint8_t pos_x, uint8_t pos_y, enum color color, video_buffer* buf) {
 135:Core/Src/GEVA.c **** 
 136:Core/Src/GEVA.c ****     uint8_t error = 0;
 137:Core/Src/GEVA.c ****     uint8_t *n_pos = normalize_pos(pos_x, pos_y, buf);
 138:Core/Src/GEVA.c **** 
 139:Core/Src/GEVA.c ****     if ((n_pos[Y] < 0) || (n_pos[Y] > buf->size_y - 1) || (n_pos[X] < 0) || (n_pos[X] > buf->size_x
 140:Core/Src/GEVA.c ****         error = 4;
 141:Core/Src/GEVA.c ****     else {
 142:Core/Src/GEVA.c ****         if (buf->mode & color)
 143:Core/Src/GEVA.c ****             color = CLEAR_C;
 144:Core/Src/GEVA.c ****         else if (buf->mode & ~color)
 145:Core/Src/GEVA.c ****             color = SET_C;
 146:Core/Src/GEVA.c **** 
 147:Core/Src/GEVA.c ****         if (color)
 148:Core/Src/GEVA.c ****             buf->vid_buf[get_buffer_index(n_pos[X], (buf->size_y - n_pos[Y] - 1), buf->byte_col_cnt
ARM GAS  C:\Users\arist\AppData\Local\Temp\ccSK2xlW.s 			page 9


 149:Core/Src/GEVA.c ****         else
 150:Core/Src/GEVA.c ****             buf->vid_buf[get_buffer_index(n_pos[X], (buf->size_y - n_pos[Y] - 1), buf->byte_col_cnt
 151:Core/Src/GEVA.c ****     }
 152:Core/Src/GEVA.c ****     free(n_pos);
 153:Core/Src/GEVA.c ****     return error;
 154:Core/Src/GEVA.c **** }
 155:Core/Src/GEVA.c **** 
 156:Core/Src/GEVA.c **** 
 157:Core/Src/GEVA.c **** /* Draw line between to points
 158:Core/Src/GEVA.c ****  * return error code
 159:Core/Src/GEVA.c ****  * error code list:
 160:Core/Src/GEVA.c ****  * 4 point out of scope
 161:Core/Src/GEVA.c **** */
 162:Core/Src/GEVA.c **** uint8_t put_line(uint8_t pos_x1, uint8_t pos_y1, uint8_t pos_x2, uint8_t pos_y2, video_buffer* buf)
 163:Core/Src/GEVA.c **** 
 164:Core/Src/GEVA.c ****     uint8_t error = 0;
 165:Core/Src/GEVA.c ****     uint8_t firstx = 0;
 166:Core/Src/GEVA.c ****     uint8_t lastx = 0;
 167:Core/Src/GEVA.c ****     uint8_t firsty = 0;
 168:Core/Src/GEVA.c ****     uint8_t lasty = 0;
 169:Core/Src/GEVA.c **** 
 170:Core/Src/GEVA.c ****     if (pos_x1 == pos_x2) { //vertical line
 171:Core/Src/GEVA.c **** 
 172:Core/Src/GEVA.c ****         uint8_t line_lenght = 0;
 173:Core/Src/GEVA.c **** 
 174:Core/Src/GEVA.c ****         if (pos_y1 > pos_y2) {
 175:Core/Src/GEVA.c ****             line_lenght = (pos_y1 - pos_y2) + 1;
 176:Core/Src/GEVA.c ****             firsty = pos_y2;
 177:Core/Src/GEVA.c ****         }
 178:Core/Src/GEVA.c ****         else {
 179:Core/Src/GEVA.c ****             line_lenght = (pos_y2 - pos_y1) + 1;
 180:Core/Src/GEVA.c ****             firsty = pos_y1;
 181:Core/Src/GEVA.c ****         }
 182:Core/Src/GEVA.c ****         for (uint8_t i = 0; i < line_lenght; i++) {
 183:Core/Src/GEVA.c ****             error = put_pixel(pos_x1, firsty + i, SET_C, buf);
 184:Core/Src/GEVA.c ****         }
 185:Core/Src/GEVA.c ****     }
 186:Core/Src/GEVA.c ****     else {
 187:Core/Src/GEVA.c ****         if (pos_x1 > pos_x2) {
 188:Core/Src/GEVA.c ****             firstx = pos_x2;
 189:Core/Src/GEVA.c ****             lastx = pos_x1;
 190:Core/Src/GEVA.c ****             firsty = pos_y2;
 191:Core/Src/GEVA.c ****             lasty = pos_y1;
 192:Core/Src/GEVA.c ****         }
 193:Core/Src/GEVA.c ****         else {
 194:Core/Src/GEVA.c ****             firstx = pos_x1;
 195:Core/Src/GEVA.c ****             lastx = pos_x2;
 196:Core/Src/GEVA.c ****             firsty = pos_y1;
 197:Core/Src/GEVA.c ****             lasty = pos_y2;
 198:Core/Src/GEVA.c ****         }
 199:Core/Src/GEVA.c **** 
 200:Core/Src/GEVA.c ****         int8_t slope_addendum = (firsty > lasty) ? -1 : 1;
 201:Core/Src/GEVA.c **** 
 202:Core/Src/GEVA.c ****         uint8_t y = firsty;
 203:Core/Src/GEVA.c ****         uint8_t nexty = 0;
 204:Core/Src/GEVA.c ****         int8_t y_todrw = 0;
 205:Core/Src/GEVA.c ****         uint8_t fill_y = 0;
ARM GAS  C:\Users\arist\AppData\Local\Temp\ccSK2xlW.s 			page 10


 206:Core/Src/GEVA.c **** 
 207:Core/Src/GEVA.c ****         for (uint8_t x = firstx; x < lastx + 1; x++) {
 208:Core/Src/GEVA.c **** 
 209:Core/Src/GEVA.c ****             y = calculate_y(x, firstx, lastx, firsty, lasty);
 210:Core/Src/GEVA.c ****             nexty = calculate_y(x + 1, firstx, lastx, firsty, lasty);
 211:Core/Src/GEVA.c ****             fill_y = 0;
 212:Core/Src/GEVA.c **** 
 213:Core/Src/GEVA.c ****             do { 
 214:Core/Src/GEVA.c ****                y_todrw = y + (slope_addendum * fill_y);
 215:Core/Src/GEVA.c ****               
 216:Core/Src/GEVA.c ****                if (y_todrw < 0)
 217:Core/Src/GEVA.c ****                    y_todrw = 0;
 218:Core/Src/GEVA.c **** 
 219:Core/Src/GEVA.c ****                error = put_pixel(x, y_todrw, SET_C, buf);
 220:Core/Src/GEVA.c ****                fill_y++;
 221:Core/Src/GEVA.c **** 
 222:Core/Src/GEVA.c ****                if (y_todrw == pos_y2 && pos_y1 != pos_y2)
 223:Core/Src/GEVA.c ****                    return error;
 224:Core/Src/GEVA.c **** 
 225:Core/Src/GEVA.c ****             } while ( fill_y < modulo(y - nexty));
 226:Core/Src/GEVA.c ****         }
 227:Core/Src/GEVA.c ****     }
 228:Core/Src/GEVA.c ****     return error;
 229:Core/Src/GEVA.c **** }
 230:Core/Src/GEVA.c **** 
 231:Core/Src/GEVA.c **** 
 232:Core/Src/GEVA.c **** /* Clear part of the display buffer memory
 233:Core/Src/GEVA.c ****  * return error code
 234:Core/Src/GEVA.c ****  * error code list:
 235:Core/Src/GEVA.c ****  * 
 236:Core/Src/GEVA.c ****  * 2 dimension mismatch
 237:Core/Src/GEVA.c ****  * 
 238:Core/Src/GEVA.c ****  * 4 starting point out of scope
 239:Core/Src/GEVA.c **** */
 240:Core/Src/GEVA.c **** uint8_t clear_sector(uint8_t pos_x, uint8_t pos_y, uint8_t width, uint8_t height, video_buffer* buf
 241:Core/Src/GEVA.c **** 
 242:Core/Src/GEVA.c ****     uint8_t error = 0;
 243:Core/Src/GEVA.c ****     uint8_t startx_ptr = 0; // pos_x;
 244:Core/Src/GEVA.c ****     uint8_t starty_ptr = 0; // pos_y;
 245:Core/Src/GEVA.c ****     uint8_t endx_ptr = 0;   //pos_x + width;
 246:Core/Src/GEVA.c ****     uint8_t endy_ptr = 0;   // pos_y + height;
 247:Core/Src/GEVA.c ****     uint8_t n_width = 0;    //normalized width
 248:Core/Src/GEVA.c ****     uint8_t* n_pos_ptr = normalize_pos(pos_x, pos_y, buf);
 249:Core/Src/GEVA.c ****     
 250:Core/Src/GEVA.c ****     switch (buf->orient) {
 251:Core/Src/GEVA.c **** 
 252:Core/Src/GEVA.c ****     case LANDSCAPE:
 253:Core/Src/GEVA.c ****         n_width = width;
 254:Core/Src/GEVA.c ****         startx_ptr = n_pos_ptr[X];
 255:Core/Src/GEVA.c ****         starty_ptr = n_pos_ptr[Y];
 256:Core/Src/GEVA.c ****         endx_ptr = startx_ptr + width;
 257:Core/Src/GEVA.c ****         endy_ptr = starty_ptr + height;
 258:Core/Src/GEVA.c ****         break;
 259:Core/Src/GEVA.c **** 
 260:Core/Src/GEVA.c ****     case LANDSCAPE_INVERTED:
 261:Core/Src/GEVA.c ****         n_width = width;
 262:Core/Src/GEVA.c ****         startx_ptr = n_pos_ptr[X] - width + 1;
ARM GAS  C:\Users\arist\AppData\Local\Temp\ccSK2xlW.s 			page 11


 263:Core/Src/GEVA.c ****         starty_ptr = n_pos_ptr[Y] - height + 1;
 264:Core/Src/GEVA.c ****         endx_ptr = n_pos_ptr[X] + 1;
 265:Core/Src/GEVA.c ****         endy_ptr = n_pos_ptr[Y] + 1;
 266:Core/Src/GEVA.c ****         break;
 267:Core/Src/GEVA.c **** 
 268:Core/Src/GEVA.c ****     case PORTRAIT:
 269:Core/Src/GEVA.c ****         n_width = height;
 270:Core/Src/GEVA.c ****         startx_ptr = n_pos_ptr[X] - height + 1;
 271:Core/Src/GEVA.c ****         starty_ptr = n_pos_ptr[Y];
 272:Core/Src/GEVA.c ****         endx_ptr = n_pos_ptr[X] + 1;
 273:Core/Src/GEVA.c ****         endy_ptr = starty_ptr + width;
 274:Core/Src/GEVA.c ****         break;
 275:Core/Src/GEVA.c **** 
 276:Core/Src/GEVA.c ****     case PORTRAIT_INVERTED:
 277:Core/Src/GEVA.c ****         startx_ptr = n_pos_ptr[X];
 278:Core/Src/GEVA.c ****         starty_ptr = n_pos_ptr[Y] - width + 1;
 279:Core/Src/GEVA.c ****         endx_ptr = startx_ptr + height;
 280:Core/Src/GEVA.c ****         endy_ptr = n_pos_ptr[Y] + 1;
 281:Core/Src/GEVA.c ****         break;
 282:Core/Src/GEVA.c **** 
 283:Core/Src/GEVA.c ****     default:
 284:Core/Src/GEVA.c ****         break;
 285:Core/Src/GEVA.c ****     }
 286:Core/Src/GEVA.c **** 
 287:Core/Src/GEVA.c ****     if (pos_x >= buf->size_x || pos_x < 0 || pos_y >= buf->size_y || pos_y < 0)
 288:Core/Src/GEVA.c ****         return 4;
 289:Core/Src/GEVA.c **** 
 290:Core/Src/GEVA.c ****     if (pos_y + height > buf->size_y || pos_x + width > buf->size_x)
 291:Core/Src/GEVA.c ****         error = 2;
 292:Core/Src/GEVA.c **** 
 293:Core/Src/GEVA.c ****     else {
 294:Core/Src/GEVA.c **** 
 295:Core/Src/GEVA.c ****         uint16_t start_byte_ptr = get_buffer_index(startx_ptr, buf->size_y - 1 - starty_ptr, buf->b
 296:Core/Src/GEVA.c ****         uint16_t buffer_byte_ptr = start_byte_ptr;
 297:Core/Src/GEVA.c ****         int16_t initial_shift = modulo(endx_ptr - startx_ptr);
 298:Core/Src/GEVA.c ****         int16_t to_shift = initial_shift;
 299:Core/Src/GEVA.c **** 
 300:Core/Src/GEVA.c ****         for (uint8_t row_clrd = 0; row_clrd < modulo(endy_ptr - starty_ptr); row_clrd++)
 301:Core/Src/GEVA.c ****         {
 302:Core/Src/GEVA.c ****             buffer_byte_ptr = start_byte_ptr - (buf->byte_col_cnt * row_clrd);
 303:Core/Src/GEVA.c ****             to_shift = initial_shift;
 304:Core/Src/GEVA.c **** 
 305:Core/Src/GEVA.c ****             if ( (startx_ptr % 8) + n_width > 7) {  // when multiple bytes are needed
 306:Core/Src/GEVA.c ****                 to_shift -= (8 - (startx_ptr % 8));
 307:Core/Src/GEVA.c ****                 
 308:Core/Src/GEVA.c ****                 if(buf->mode == NORMAL)
 309:Core/Src/GEVA.c ****                     buf->vid_buf[buffer_byte_ptr] &= 0xff << (8 - (startx_ptr % 8));
 310:Core/Src/GEVA.c ****                 else 
 311:Core/Src/GEVA.c ****                     buf->vid_buf[buffer_byte_ptr] |= 0xff >> (startx_ptr % 8);
 312:Core/Src/GEVA.c ****                 
 313:Core/Src/GEVA.c ****                 buffer_byte_ptr++;
 314:Core/Src/GEVA.c ****                 
 315:Core/Src/GEVA.c ****                 while (to_shift > 8) {
 316:Core/Src/GEVA.c ****                     if(buf->mode == NORMAL)
 317:Core/Src/GEVA.c ****                         buf->vid_buf[buffer_byte_ptr] = 0x00;
 318:Core/Src/GEVA.c ****                     else 
 319:Core/Src/GEVA.c ****                         buf->vid_buf[buffer_byte_ptr] = 0xff;
ARM GAS  C:\Users\arist\AppData\Local\Temp\ccSK2xlW.s 			page 12


 320:Core/Src/GEVA.c ****                         
 321:Core/Src/GEVA.c ****                     buffer_byte_ptr++;
 322:Core/Src/GEVA.c ****                     to_shift -= 8;
 323:Core/Src/GEVA.c ****                 }
 324:Core/Src/GEVA.c **** 
 325:Core/Src/GEVA.c ****                 if(buf->mode == NORMAL)
 326:Core/Src/GEVA.c ****                     buf->vid_buf[buffer_byte_ptr] &= 0xff >> to_shift;
 327:Core/Src/GEVA.c ****                 else 
 328:Core/Src/GEVA.c ****                     buf->vid_buf[buffer_byte_ptr] |= 0xff << (8 - (endx_ptr % 8));
 329:Core/Src/GEVA.c ****             }
 330:Core/Src/GEVA.c ****             else { // can do clear operation on a single byte because of sector dimensions
 331:Core/Src/GEVA.c ****                 if(buf->mode == NORMAL)
 332:Core/Src/GEVA.c ****                     buf->vid_buf[buffer_byte_ptr] &= ~((0xff >> startx_ptr % 8) & (0xff << (8 - (en
 333:Core/Src/GEVA.c ****                 else 
 334:Core/Src/GEVA.c ****                     buf->vid_buf[buffer_byte_ptr] |= (0xff >> startx_ptr % 8) & (0xff << (8 - (endx
 335:Core/Src/GEVA.c ****             }
 336:Core/Src/GEVA.c ****         }
 337:Core/Src/GEVA.c ****     }
 338:Core/Src/GEVA.c ****     free(n_pos_ptr);
 339:Core/Src/GEVA.c ****     return error;
 340:Core/Src/GEVA.c **** }
 341:Core/Src/GEVA.c **** 
 342:Core/Src/GEVA.c **** /*put character on screen
 343:Core/Src/GEVA.c ****  * return error code
 344:Core/Src/GEVA.c ****  * error code list:
 345:Core/Src/GEVA.c ****  * 
 346:Core/Src/GEVA.c ****  * 2 dimension mismatch
 347:Core/Src/GEVA.c ****  * 
 348:Core/Src/GEVA.c ****  * 4 starting point out of scope
 349:Core/Src/GEVA.c ****  * note: each letter needs a square of 7x7 pixels clear on the display (because of rotation) befor 
 350:Core/Src/GEVA.c **** */
 351:Core/Src/GEVA.c **** uint8_t put_char(uint8_t pos_x, uint8_t pos_y, uint8_t chr, enum fonts_size ff, video_buffer* buf) 
 352:Core/Src/GEVA.c ****     
 353:Core/Src/GEVA.c ****     uint8_t error = 0;
 354:Core/Src/GEVA.c ****     uint8_t* n_pos; 
 355:Core/Src/GEVA.c ****     uint16_t* c;
 356:Core/Src/GEVA.c ****     
 357:Core/Src/GEVA.c ****     switch(ff){ //font selection
 358:Core/Src/GEVA.c ****         case SMALL:
 359:Core/Src/GEVA.c ****             font_height = C_HEIGHT_S;
 360:Core/Src/GEVA.c ****             font_width = C_WIDTH_S;
 361:Core/Src/GEVA.c ****             c = font_s[chr];
 362:Core/Src/GEVA.c ****         break;
 363:Core/Src/GEVA.c ****         case MEDIUM:
 364:Core/Src/GEVA.c ****             font_height = C_HEIGHT_M;
 365:Core/Src/GEVA.c ****             font_width = C_WIDTH_M;
 366:Core/Src/GEVA.c ****             c = font_m[chr];
 367:Core/Src/GEVA.c ****         break; 
 368:Core/Src/GEVA.c ****         
 369:Core/Src/GEVA.c ****         case LARGE:
 370:Core/Src/GEVA.c ****         break; 
 371:Core/Src/GEVA.c **** 
 372:Core/Src/GEVA.c ****         default:
 373:Core/Src/GEVA.c ****             font_height = C_HEIGHT_S;
 374:Core/Src/GEVA.c ****             font_width = C_WIDTH_S;
 375:Core/Src/GEVA.c ****             c = font_s[chr];
 376:Core/Src/GEVA.c ****         break;
ARM GAS  C:\Users\arist\AppData\Local\Temp\ccSK2xlW.s 			page 13


 377:Core/Src/GEVA.c ****     }
 378:Core/Src/GEVA.c **** 
 379:Core/Src/GEVA.c ****     switch (buf->orient) {
 380:Core/Src/GEVA.c ****         case LANDSCAPE:
 381:Core/Src/GEVA.c ****             n_pos = normalize_pos(pos_x, pos_y, buf); 
 382:Core/Src/GEVA.c ****            break;
 383:Core/Src/GEVA.c **** 
 384:Core/Src/GEVA.c ****         case LANDSCAPE_INVERTED:
 385:Core/Src/GEVA.c ****             n_pos = normalize_pos(pos_x + font_width - 1, pos_y + font_height - 1, buf);
 386:Core/Src/GEVA.c ****                break;
 387:Core/Src/GEVA.c **** 
 388:Core/Src/GEVA.c ****         case PORTRAIT:
 389:Core/Src/GEVA.c ****             n_pos = normalize_pos(pos_x, pos_y + font_height, buf);
 390:Core/Src/GEVA.c ****             break;
 391:Core/Src/GEVA.c **** 
 392:Core/Src/GEVA.c ****         case PORTRAIT_INVERTED:
 393:Core/Src/GEVA.c ****             n_pos = normalize_pos(pos_x + font_height - 1, pos_y, buf);
 394:Core/Src/GEVA.c ****             break;
 395:Core/Src/GEVA.c **** 
 396:Core/Src/GEVA.c ****         default:
 397:Core/Src/GEVA.c ****             n_pos = normalize_pos(pos_x, pos_y, buf);
 398:Core/Src/GEVA.c ****             break;
 399:Core/Src/GEVA.c ****         }
 400:Core/Src/GEVA.c **** 
 401:Core/Src/GEVA.c ****     if (n_pos[X] >= buf->size_x || n_pos[X] < 0 || n_pos[Y] >= buf->size_y || n_pos[Y] < 0)
 402:Core/Src/GEVA.c ****         error = 4;
 403:Core/Src/GEVA.c ****     else if (n_pos[Y] + font_height > buf->size_y || n_pos[X] + font_width > buf->size_x)
 404:Core/Src/GEVA.c ****         error = 2;
 405:Core/Src/GEVA.c ****     else {
 406:Core/Src/GEVA.c ****         c = rotate_char(c, buf);
 407:Core/Src/GEVA.c ****             
 408:Core/Src/GEVA.c ****         uint16_t start_byte_ptr = get_buffer_index(n_pos[X], buf->size_y - 1 - n_pos[Y], buf->byte_
 409:Core/Src/GEVA.c ****         uint16_t buffer_byte_ptr = start_byte_ptr;
 410:Core/Src/GEVA.c ****         uint16_t temp = 0;
 411:Core/Src/GEVA.c ****         uint16_t clr = 0;
 412:Core/Src/GEVA.c ****         uint8_t shifter_a = n_pos[X] % 8;
 413:Core/Src/GEVA.c ****     
 414:Core/Src/GEVA.c ****         for (uint8_t i = 0; i < font_height; i++) {
 415:Core/Src/GEVA.c ****             buffer_byte_ptr = start_byte_ptr - (buf->byte_col_cnt * i);
 416:Core/Src/GEVA.c ****             temp = c[font_height - 1 - i] >> shifter_a;
 417:Core/Src/GEVA.c ****             buf->vid_buf[buffer_byte_ptr] |= (uint8_t)(temp >> 8);
 418:Core/Src/GEVA.c ****             buf->vid_buf[buffer_byte_ptr + 1] |= (uint8_t)temp; 
 419:Core/Src/GEVA.c ****             
 420:Core/Src/GEVA.c ****             if (shifter_a != 0){
 421:Core/Src/GEVA.c ****                     temp = c[font_height - i - 1];
 422:Core/Src/GEVA.c ****                     buf->vid_buf[buffer_byte_ptr + 2] |= (uint8_t)temp << (8 - shifter_a);
 423:Core/Src/GEVA.c ****                 }
 424:Core/Src/GEVA.c ****         }
 425:Core/Src/GEVA.c ****     } 
 426:Core/Src/GEVA.c ****     
 427:Core/Src/GEVA.c ****     free(n_pos);
 428:Core/Src/GEVA.c ****     return error;
 429:Core/Src/GEVA.c **** }
 430:Core/Src/GEVA.c **** 
 431:Core/Src/GEVA.c **** /*put character string on screen
 432:Core/Src/GEVA.c ****  * return error code
 433:Core/Src/GEVA.c ****  * error code list:
ARM GAS  C:\Users\arist\AppData\Local\Temp\ccSK2xlW.s 			page 14


 434:Core/Src/GEVA.c ****  * 1 empty string
 435:Core/Src/GEVA.c ****  * 2 dimension mismatch
 436:Core/Src/GEVA.c ****  *
 437:Core/Src/GEVA.c ****  * 4 starting point out of scope
 438:Core/Src/GEVA.c **** */
 439:Core/Src/GEVA.c **** uint8_t put_string(uint8_t pos_x, uint8_t pos_y, uint8_t* chr, enum fonts_size ff, video_buffer* bu
 440:Core/Src/GEVA.c ****     
 441:Core/Src/GEVA.c ****     uint8_t error = 1;
 442:Core/Src/GEVA.c ****     uint8_t i = 0;
 443:Core/Src/GEVA.c ****     uint8_t y_offset = pos_y;
 444:Core/Src/GEVA.c ****     uint8_t x_offset = pos_x;    
 445:Core/Src/GEVA.c **** 
 446:Core/Src/GEVA.c ****     if (chr != NULL) {
 447:Core/Src/GEVA.c ****         
 448:Core/Src/GEVA.c ****         while(i < strlen(chr)) {
 449:Core/Src/GEVA.c **** 
 450:Core/Src/GEVA.c ****             if (chr[i] == '\r')
 451:Core/Src/GEVA.c ****                 x_offset = pos_x;
 452:Core/Src/GEVA.c ****             else if (chr[i] == '\n')
 453:Core/Src/GEVA.c ****                 y_offset = y_offset - 1 - font_height;
 454:Core/Src/GEVA.c ****             else {
 455:Core/Src/GEVA.c ****                 error = put_char(x_offset, y_offset, chr[i], ff, buf);
 456:Core/Src/GEVA.c ****                 if (error != 0)
 457:Core/Src/GEVA.c ****                     break;
 458:Core/Src/GEVA.c ****                 x_offset += font_width + 1;
 459:Core/Src/GEVA.c ****             
 460:Core/Src/GEVA.c ****             }
 461:Core/Src/GEVA.c ****             i++;
 462:Core/Src/GEVA.c ****         }
 463:Core/Src/GEVA.c ****     }
 464:Core/Src/GEVA.c ****     return error;
 465:Core/Src/GEVA.c **** }
 466:Core/Src/GEVA.c **** 
 467:Core/Src/GEVA.c **** /* Load vbc file smaller than display size to buffer memory
 468:Core/Src/GEVA.c ****  * return error code
 469:Core/Src/GEVA.c ****  * error code list:
 470:Core/Src/GEVA.c ****  * 1 wrong file type
 471:Core/Src/GEVA.c ****  * 2 dimension mismatch
 472:Core/Src/GEVA.c ****  * 3 body bytes count mismatch
 473:Core/Src/GEVA.c ****  * 4 starting point out of scope
 474:Core/Src/GEVA.c ****  * note: starting position (x,y)  referenced to LANDSCAPE and rappresents lower left corner of the 
 475:Core/Src/GEVA.c **** */
 476:Core/Src/GEVA.c **** uint8_t put_vbc(vbc_file file, uint8_t x, uint8_t y, video_buffer* buf) {
 477:Core/Src/GEVA.c ****     uint8_t error = 0;
 478:Core/Src/GEVA.c ****     uint16_t vbc_body_byte = (((uint16_t)file.header.byte_cnt_h) << 8 | file.header.byte_cnt_l) - 5
 479:Core/Src/GEVA.c **** 
 480:Core/Src/GEVA.c ****     if (x > buf->size_x || x < 0 || y > buf->size_y || y < 0)
 481:Core/Src/GEVA.c ****         return 4;
 482:Core/Src/GEVA.c **** 
 483:Core/Src/GEVA.c ****     if (file.header.id != 0xA7)
 484:Core/Src/GEVA.c ****         error = 1;
 485:Core/Src/GEVA.c ****     else if (y + file.header.height > buf->size_y || x + file.header.width > buf->size_x)
 486:Core/Src/GEVA.c ****         error = 2;
 487:Core/Src/GEVA.c ****     else if (vbc_body_byte > buf->byte_buffer_cnt - get_buffer_index(x, y, buf->byte_col_cnt))
 488:Core/Src/GEVA.c ****         error = 3;
 489:Core/Src/GEVA.c ****     else if (vbc_body_byte == buf->byte_buffer_cnt) {
 490:Core/Src/GEVA.c ****         buf->vid_buf = file.body;
ARM GAS  C:\Users\arist\AppData\Local\Temp\ccSK2xlW.s 			page 15


 491:Core/Src/GEVA.c ****     }
 492:Core/Src/GEVA.c ****     else {
 493:Core/Src/GEVA.c ****         uint8_t byte_width = (file.header.width % 8 == 0) ? file.header.width / 8 : file.header.wid
 494:Core/Src/GEVA.c ****         uint16_t start_byte_ptr = get_buffer_index(x, buf->size_y - 1 - y, buf->byte_col_cnt);
 495:Core/Src/GEVA.c ****         uint16_t buffer_byte_ptr = start_byte_ptr;
 496:Core/Src/GEVA.c **** 
 497:Core/Src/GEVA.c ****         for (uint8_t row = 0; row < file.header.height - 1; row++) {
 498:Core/Src/GEVA.c ****             buffer_byte_ptr = start_byte_ptr - (buf->byte_col_cnt * row);
 499:Core/Src/GEVA.c ****             memmove(&buf->vid_buf[buffer_byte_ptr], &file.body[((file.header.height - 1) * byte_wid
 500:Core/Src/GEVA.c ****         }
 501:Core/Src/GEVA.c ****     }
 502:Core/Src/GEVA.c ****     return error;
 503:Core/Src/GEVA.c **** }
 504:Core/Src/GEVA.c **** 
 505:Core/Src/GEVA.c **** 
 506:Core/Src/GEVA.c **** /* ================================================SHAPES==========================================
 507:Core/Src/GEVA.c **** 
 508:Core/Src/GEVA.c **** /* Draw circle at specific location on the screen with specified radius
 509:Core/Src/GEVA.c ****  * return error code
 510:Core/Src/GEVA.c ****  * error code list:
 511:Core/Src/GEVA.c ****  * 4 point out of scope
 512:Core/Src/GEVA.c **** */
 513:Core/Src/GEVA.c **** uint8_t put_circle(uint8_t o_x, uint8_t o_y, uint8_t r, video_buffer* buf) {
 514:Core/Src/GEVA.c **** 
 515:Core/Src/GEVA.c ****     uint8_t error = 0;
 516:Core/Src/GEVA.c ****     uint16_t s = 0;
 517:Core/Src/GEVA.c ****     uint16_t rsqr = r * r;
 518:Core/Src/GEVA.c ****     
 519:Core/Src/GEVA.c ****     for (int16_t y = -r; y <= r; y++) {
 520:Core/Src/GEVA.c ****         for (int16_t x = -r; x <= r; x++) {
 521:Core/Src/GEVA.c ****             s = x * x + y * y;
 522:Core/Src/GEVA.c ****             if (s >= rsqr - r && s <= rsqr + r) {
 523:Core/Src/GEVA.c ****                 error = put_pixel(o_x + x, o_y + y, SET_C, buf);
 524:Core/Src/GEVA.c ****                // if (error)
 525:Core/Src/GEVA.c ****                 //    return error;
 526:Core/Src/GEVA.c ****             }
 527:Core/Src/GEVA.c ****         }
 528:Core/Src/GEVA.c ****     }
 529:Core/Src/GEVA.c ****     return error;
 530:Core/Src/GEVA.c **** }
 531:Core/Src/GEVA.c **** 
 532:Core/Src/GEVA.c **** /* Draw rectangular shape at specific location on the screen with specified height and width
 533:Core/Src/GEVA.c ****  * return error code
 534:Core/Src/GEVA.c ****  * error code list:
 535:Core/Src/GEVA.c ****  * 4 point out of scope
 536:Core/Src/GEVA.c ****  * note: the starting point of the shape is in the lower left corner
 537:Core/Src/GEVA.c **** */
 538:Core/Src/GEVA.c **** uint8_t put_rect(uint8_t o_x,uint8_t o_y, uint8_t width, uint8_t height, video_buffer* buf){
 539:Core/Src/GEVA.c ****     uint8_t error = 0;
 540:Core/Src/GEVA.c ****     error = put_line(o_x, o_y, o_x + width, o_y, buf);
 541:Core/Src/GEVA.c ****     error = put_line(o_x + width, o_y, o_x + width, o_y + height, buf);
 542:Core/Src/GEVA.c ****     error = put_line(o_x, o_y + height, o_x + width, o_y + height, buf);
 543:Core/Src/GEVA.c ****     error = put_line(o_x, o_y, o_x, o_y + height, buf);
 544:Core/Src/GEVA.c ****     return error;
 545:Core/Src/GEVA.c **** }
 546:Core/Src/GEVA.c **** 
 547:Core/Src/GEVA.c **** /* Draw triangle shape with specified vertices
ARM GAS  C:\Users\arist\AppData\Local\Temp\ccSK2xlW.s 			page 16


 548:Core/Src/GEVA.c ****  * return error code
 549:Core/Src/GEVA.c ****  * error code list:
 550:Core/Src/GEVA.c ****  * 4 point out of scope
 551:Core/Src/GEVA.c **** */
 552:Core/Src/GEVA.c **** uint8_t put_triangle(uint8_t a_x, uint8_t a_y, uint8_t b_x, uint8_t b_y, uint8_t c_x, uint8_t c_y, 
 553:Core/Src/GEVA.c ****     uint8_t error = 0;
 554:Core/Src/GEVA.c ****     error = put_line(a_x, a_y, b_x, b_y, buf);
 555:Core/Src/GEVA.c ****     error = put_line(a_x, a_y, c_x, c_y, buf);
 556:Core/Src/GEVA.c ****     error = put_line(b_x, b_y, c_x, c_y, buf);
 557:Core/Src/GEVA.c ****     return error;
 558:Core/Src/GEVA.c **** }
 559:Core/Src/GEVA.c **** 
 560:Core/Src/GEVA.c **** /* ========================================DATA VISUALIZATION======================================
 561:Core/Src/GEVA.c **** 
 562:Core/Src/GEVA.c **** uint8_t update_chart(float new_data, data_container* c, video_buffer* buf){
 563:Core/Src/GEVA.c ****     uint8_t error = 0;
 564:Core/Src/GEVA.c ****     c->data = new_data;
 565:Core/Src/GEVA.c **** 
 566:Core/Src/GEVA.c ****     switch (c->type) {
 567:Core/Src/GEVA.c ****     case COL:
 568:Core/Src/GEVA.c ****         error = update_COL(c,buf);
 569:Core/Src/GEVA.c ****         break;
 570:Core/Src/GEVA.c ****     case XY: //when calling update_XY new data is ignored: changing of data_container.xy_entry stru
 571:Core/Src/GEVA.c ****         error = update_XY(c, buf);
 572:Core/Src/GEVA.c ****         break;
 573:Core/Src/GEVA.c ****     case BAR:
 574:Core/Src/GEVA.c ****         error = update_BAR(c, buf);
 575:Core/Src/GEVA.c ****         break;
 576:Core/Src/GEVA.c ****     case LINE:
 577:Core/Src/GEVA.c ****         error = update_LINE(c,buf);
 578:Core/Src/GEVA.c ****         break;
 579:Core/Src/GEVA.c ****     case SCATTER:
 580:Core/Src/GEVA.c ****         error = update_SCATTER(c, buf);
 581:Core/Src/GEVA.c ****         break;
 582:Core/Src/GEVA.c ****     default:
 583:Core/Src/GEVA.c ****         break;
 584:Core/Src/GEVA.c **** 
 585:Core/Src/GEVA.c ****     }
 586:Core/Src/GEVA.c ****     return error;
 587:Core/Src/GEVA.c **** }
 588:Core/Src/GEVA.c **** 
 589:Core/Src/GEVA.c **** /* ===========================================INTERNAL FUNCTIONS===================================
 590:Core/Src/GEVA.c **** 
 591:Core/Src/GEVA.c **** /* Calculate the number of columns in number of bytes needed for the video buffer*/
 592:Core/Src/GEVA.c **** uint8_t byte_col_cnt(uint8_t size_x) {
 309              		.loc 1 592 38 is_stmt 1 view -0
 310              		.cfi_startproc
 311              		@ args = 0, pretend = 0, frame = 0
 312              		@ frame_needed = 0, uses_anonymous_args = 0
 313              		@ link register save eliminated.
 314              		.loc 1 592 38 is_stmt 0 view .LVU110
 315 0000 0346     		mov	r3, r0
 593:Core/Src/GEVA.c **** 
 594:Core/Src/GEVA.c ****     uint8_t col_n = (size_x / 8);
 316              		.loc 1 594 5 is_stmt 1 view .LVU111
 317              		.loc 1 594 13 is_stmt 0 view .LVU112
 318 0002 C008     		lsrs	r0, r0, #3
ARM GAS  C:\Users\arist\AppData\Local\Temp\ccSK2xlW.s 			page 17


 319              	.LVL13:
 595:Core/Src/GEVA.c **** 
 596:Core/Src/GEVA.c ****     if (size_x % 8)
 320              		.loc 1 596 5 is_stmt 1 view .LVU113
 321              		.loc 1 596 8 is_stmt 0 view .LVU114
 322 0004 13F0070F 		tst	r3, #7
 323 0008 00D0     		beq	.L21
 597:Core/Src/GEVA.c ****         col_n++;
 324              		.loc 1 597 9 is_stmt 1 view .LVU115
 325              		.loc 1 597 14 is_stmt 0 view .LVU116
 326 000a 0130     		adds	r0, r0, #1
 327              	.LVL14:
 328              	.L21:
 598:Core/Src/GEVA.c **** 
 599:Core/Src/GEVA.c ****     return col_n;
 329              		.loc 1 599 5 is_stmt 1 view .LVU117
 600:Core/Src/GEVA.c **** }
 330              		.loc 1 600 1 is_stmt 0 view .LVU118
 331 000c 7047     		bx	lr
 332              		.cfi_endproc
 333              	.LFE14:
 335              		.section	.text.buffer_byte_cnt,"ax",%progbits
 336              		.align	1
 337              		.global	buffer_byte_cnt
 338              		.syntax unified
 339              		.thumb
 340              		.thumb_func
 342              	buffer_byte_cnt:
 343              	.LVL15:
 344              	.LFB15:
 601:Core/Src/GEVA.c **** 
 602:Core/Src/GEVA.c **** /* Calculate the total number of bytes needed for the video buffer*/
 603:Core/Src/GEVA.c **** uint16_t buffer_byte_cnt(video_buffer* buf) {
 345              		.loc 1 603 45 is_stmt 1 view -0
 346              		.cfi_startproc
 347              		@ args = 0, pretend = 0, frame = 0
 348              		@ frame_needed = 0, uses_anonymous_args = 0
 349              		@ link register save eliminated.
 604:Core/Src/GEVA.c ****     
 605:Core/Src/GEVA.c ****     return buf->size_y * buf->byte_col_cnt;
 350              		.loc 1 605 5 view .LVU120
 351              		.loc 1 605 15 is_stmt 0 view .LVU121
 352 0000 4278     		ldrb	r2, [r0, #1]	@ zero_extendqisi2
 353              		.loc 1 605 29 view .LVU122
 354 0002 007A     		ldrb	r0, [r0, #8]	@ zero_extendqisi2
 355              	.LVL16:
 606:Core/Src/GEVA.c **** }
 356              		.loc 1 606 1 view .LVU123
 357 0004 02FB00F0 		mul	r0, r2, r0
 358 0008 7047     		bx	lr
 359              		.cfi_endproc
 360              	.LFE15:
 362              		.section	.text.init_buf,"ax",%progbits
 363              		.align	1
 364              		.global	init_buf
 365              		.syntax unified
 366              		.thumb
ARM GAS  C:\Users\arist\AppData\Local\Temp\ccSK2xlW.s 			page 18


 367              		.thumb_func
 369              	init_buf:
 370              	.LVL17:
 371              	.LFB0:
  30:Core/Src/GEVA.c ****     uint8_t error = 0;
 372              		.loc 1 30 69 is_stmt 1 view -0
 373              		.cfi_startproc
 374              		@ args = 0, pretend = 0, frame = 0
 375              		@ frame_needed = 0, uses_anonymous_args = 0
  30:Core/Src/GEVA.c ****     uint8_t error = 0;
 376              		.loc 1 30 69 is_stmt 0 view .LVU125
 377 0000 38B5     		push	{r3, r4, r5, lr}
 378              		.cfi_def_cfa_offset 16
 379              		.cfi_offset 3, -16
 380              		.cfi_offset 4, -12
 381              		.cfi_offset 5, -8
 382              		.cfi_offset 14, -4
 383 0002 0446     		mov	r4, r0
 384 0004 0846     		mov	r0, r1
 385              	.LVL18:
  31:Core/Src/GEVA.c ****     buf->size_x = size_x;
 386              		.loc 1 31 5 is_stmt 1 view .LVU126
  32:Core/Src/GEVA.c ****     buf->size_y = size_y;
 387              		.loc 1 32 5 view .LVU127
  32:Core/Src/GEVA.c ****     buf->size_y = size_y;
 388              		.loc 1 32 17 is_stmt 0 view .LVU128
 389 0006 2170     		strb	r1, [r4]
  33:Core/Src/GEVA.c ****     buf->byte_col_cnt = byte_col_cnt(size_x);
 390              		.loc 1 33 5 is_stmt 1 view .LVU129
  33:Core/Src/GEVA.c ****     buf->byte_col_cnt = byte_col_cnt(size_x);
 391              		.loc 1 33 17 is_stmt 0 view .LVU130
 392 0008 6270     		strb	r2, [r4, #1]
  34:Core/Src/GEVA.c ****     buf->byte_buffer_cnt = buffer_byte_cnt(buf);
 393              		.loc 1 34 5 is_stmt 1 view .LVU131
  34:Core/Src/GEVA.c ****     buf->byte_buffer_cnt = buffer_byte_cnt(buf);
 394              		.loc 1 34 25 is_stmt 0 view .LVU132
 395 000a FFF7FEFF 		bl	byte_col_cnt
 396              	.LVL19:
  34:Core/Src/GEVA.c ****     buf->byte_buffer_cnt = buffer_byte_cnt(buf);
 397              		.loc 1 34 23 view .LVU133
 398 000e 2072     		strb	r0, [r4, #8]
  35:Core/Src/GEVA.c ****     buf->vid_buf = (uint8_t *)malloc(buf->byte_buffer_cnt);
 399              		.loc 1 35 5 is_stmt 1 view .LVU134
  35:Core/Src/GEVA.c ****     buf->vid_buf = (uint8_t *)malloc(buf->byte_buffer_cnt);
 400              		.loc 1 35 28 is_stmt 0 view .LVU135
 401 0010 2046     		mov	r0, r4
 402 0012 FFF7FEFF 		bl	buffer_byte_cnt
 403              	.LVL20:
  35:Core/Src/GEVA.c ****     buf->vid_buf = (uint8_t *)malloc(buf->byte_buffer_cnt);
 404              		.loc 1 35 26 view .LVU136
 405 0016 6081     		strh	r0, [r4, #10]	@ movhi
  36:Core/Src/GEVA.c ****     
 406              		.loc 1 36 5 is_stmt 1 view .LVU137
  36:Core/Src/GEVA.c ****     
 407              		.loc 1 36 31 is_stmt 0 view .LVU138
 408 0018 FFF7FEFF 		bl	malloc
 409              	.LVL21:
ARM GAS  C:\Users\arist\AppData\Local\Temp\ccSK2xlW.s 			page 19


  36:Core/Src/GEVA.c ****     
 410              		.loc 1 36 18 view .LVU139
 411 001c 6060     		str	r0, [r4, #4]
  39:Core/Src/GEVA.c ****     buf->origin[1] = 0;
 412              		.loc 1 39 5 is_stmt 1 view .LVU140
  39:Core/Src/GEVA.c ****     buf->origin[1] = 0;
 413              		.loc 1 39 20 is_stmt 0 view .LVU141
 414 001e 0025     		movs	r5, #0
 415 0020 A573     		strb	r5, [r4, #14]
  40:Core/Src/GEVA.c ****     buf->r_matrix[0] = 0;
 416              		.loc 1 40 5 is_stmt 1 view .LVU142
  40:Core/Src/GEVA.c ****     buf->r_matrix[0] = 0;
 417              		.loc 1 40 20 is_stmt 0 view .LVU143
 418 0022 E573     		strb	r5, [r4, #15]
  41:Core/Src/GEVA.c ****     buf->r_matrix[1] = 0;
 419              		.loc 1 41 5 is_stmt 1 view .LVU144
  41:Core/Src/GEVA.c ****     buf->r_matrix[1] = 0;
 420              		.loc 1 41 22 is_stmt 0 view .LVU145
 421 0024 2574     		strb	r5, [r4, #16]
  42:Core/Src/GEVA.c ****     buf->r_matrix[2] = 0;
 422              		.loc 1 42 5 is_stmt 1 view .LVU146
  42:Core/Src/GEVA.c ****     buf->r_matrix[2] = 0;
 423              		.loc 1 42 22 is_stmt 0 view .LVU147
 424 0026 6574     		strb	r5, [r4, #17]
  43:Core/Src/GEVA.c ****     buf->r_matrix[3] = 0;
 425              		.loc 1 43 5 is_stmt 1 view .LVU148
  43:Core/Src/GEVA.c ****     buf->r_matrix[3] = 0;
 426              		.loc 1 43 22 is_stmt 0 view .LVU149
 427 0028 A574     		strb	r5, [r4, #18]
  44:Core/Src/GEVA.c **** 
 428              		.loc 1 44 5 is_stmt 1 view .LVU150
  44:Core/Src/GEVA.c **** 
 429              		.loc 1 44 22 is_stmt 0 view .LVU151
 430 002a E574     		strb	r5, [r4, #19]
  46:Core/Src/GEVA.c ****     set_mode(NORMAL, buf);
 431              		.loc 1 46 5 is_stmt 1 view .LVU152
 432 002c 2046     		mov	r0, r4
 433 002e FFF7FEFF 		bl	clr_buffer
 434              	.LVL22:
  47:Core/Src/GEVA.c ****     set_orientation(LANDSCAPE, buf);
 435              		.loc 1 47 5 view .LVU153
 436 0032 2146     		mov	r1, r4
 437 0034 2846     		mov	r0, r5
 438 0036 FFF7FEFF 		bl	set_mode
 439              	.LVL23:
  48:Core/Src/GEVA.c ****     return error;
 440              		.loc 1 48 5 view .LVU154
 441 003a 2146     		mov	r1, r4
 442 003c 2846     		mov	r0, r5
 443 003e FFF7FEFF 		bl	set_orientation
 444              	.LVL24:
  49:Core/Src/GEVA.c **** }
 445              		.loc 1 49 5 view .LVU155
  50:Core/Src/GEVA.c **** 
 446              		.loc 1 50 1 is_stmt 0 view .LVU156
 447 0042 2846     		mov	r0, r5
 448 0044 38BD     		pop	{r3, r4, r5, pc}
ARM GAS  C:\Users\arist\AppData\Local\Temp\ccSK2xlW.s 			page 20


  50:Core/Src/GEVA.c **** 
 449              		.loc 1 50 1 view .LVU157
 450              		.cfi_endproc
 451              	.LFE0:
 453              		.section	.text.get_buffer_index,"ax",%progbits
 454              		.align	1
 455              		.global	get_buffer_index
 456              		.syntax unified
 457              		.thumb
 458              		.thumb_func
 460              	get_buffer_index:
 461              	.LVL25:
 462              	.LFB16:
 607:Core/Src/GEVA.c **** 
 608:Core/Src/GEVA.c **** /* Set the video buffer index to address for  x & y position in the video matrix  
 609:Core/Src/GEVA.c ****  * Sanity check before calling
 610:Core/Src/GEVA.c **** */
 611:Core/Src/GEVA.c **** uint16_t get_buffer_index(uint8_t pos_x, uint8_t pos_y, uint8_t col_byte_cnt){
 463              		.loc 1 611 78 is_stmt 1 view -0
 464              		.cfi_startproc
 465              		@ args = 0, pretend = 0, frame = 0
 466              		@ frame_needed = 0, uses_anonymous_args = 0
 467              		@ link register save eliminated.
 612:Core/Src/GEVA.c **** 
 613:Core/Src/GEVA.c ****     return (col_byte_cnt * pos_y) + (uint8_t)(pos_x / 8);
 468              		.loc 1 613 5 view .LVU159
 469              		.loc 1 613 37 is_stmt 0 view .LVU160
 470 0000 C008     		lsrs	r0, r0, #3
 471              	.LVL26:
 472              		.loc 1 613 35 view .LVU161
 473 0002 02FB0100 		mla	r0, r2, r1, r0
 614:Core/Src/GEVA.c **** 
 615:Core/Src/GEVA.c **** }
 474              		.loc 1 615 1 view .LVU162
 475 0006 80B2     		uxth	r0, r0
 476 0008 7047     		bx	lr
 477              		.cfi_endproc
 478              	.LFE16:
 480              		.section	.text.put_vbc,"ax",%progbits
 481              		.align	1
 482              		.global	put_vbc
 483              		.syntax unified
 484              		.thumb
 485              		.thumb_func
 487              	put_vbc:
 488              	.LVL27:
 489              	.LFB9:
 476:Core/Src/GEVA.c ****     uint8_t error = 0;
 490              		.loc 1 476 73 is_stmt 1 view -0
 491              		.cfi_startproc
 492              		@ args = 8, pretend = 0, frame = 16
 493              		@ frame_needed = 0, uses_anonymous_args = 0
 476:Core/Src/GEVA.c ****     uint8_t error = 0;
 494              		.loc 1 476 73 is_stmt 0 view .LVU164
 495 0000 2DE9F04F 		push	{r4, r5, r6, r7, r8, r9, r10, fp, lr}
 496              		.cfi_def_cfa_offset 36
 497              		.cfi_offset 4, -36
ARM GAS  C:\Users\arist\AppData\Local\Temp\ccSK2xlW.s 			page 21


 498              		.cfi_offset 5, -32
 499              		.cfi_offset 6, -28
 500              		.cfi_offset 7, -24
 501              		.cfi_offset 8, -20
 502              		.cfi_offset 9, -16
 503              		.cfi_offset 10, -12
 504              		.cfi_offset 11, -8
 505              		.cfi_offset 14, -4
 506 0004 85B0     		sub	sp, sp, #20
 507              		.cfi_def_cfa_offset 56
 508 0006 04AC     		add	r4, sp, #16
 509 0008 04E90700 		stmdb	r4, {r0, r1, r2}
 510 000c 1D46     		mov	r5, r3
 511 000e 9DF83870 		ldrb	r7, [sp, #56]	@ zero_extendqisi2
 512 0012 0F9E     		ldr	r6, [sp, #60]
 477:Core/Src/GEVA.c ****     uint16_t vbc_body_byte = (((uint16_t)file.header.byte_cnt_h) << 8 | file.header.byte_cnt_l) - 5
 513              		.loc 1 477 5 is_stmt 1 view .LVU165
 514              	.LVL28:
 478:Core/Src/GEVA.c **** 
 515              		.loc 1 478 5 view .LVU166
 478:Core/Src/GEVA.c **** 
 516              		.loc 1 478 53 is_stmt 0 view .LVU167
 517 0014 9DF80730 		ldrb	r3, [sp, #7]	@ zero_extendqisi2
 518              	.LVL29:
 478:Core/Src/GEVA.c **** 
 519              		.loc 1 478 84 view .LVU168
 520 0018 9DF80840 		ldrb	r4, [sp, #8]	@ zero_extendqisi2
 478:Core/Src/GEVA.c **** 
 521              		.loc 1 478 71 view .LVU169
 522 001c 44EA0324 		orr	r4, r4, r3, lsl #8
 523              	.LVL30:
 480:Core/Src/GEVA.c ****         return 4;
 524              		.loc 1 480 5 is_stmt 1 view .LVU170
 480:Core/Src/GEVA.c ****         return 4;
 525              		.loc 1 480 16 is_stmt 0 view .LVU171
 526 0020 3378     		ldrb	r3, [r6]	@ zero_extendqisi2
 480:Core/Src/GEVA.c ****         return 4;
 527              		.loc 1 480 8 view .LVU172
 528 0022 AB42     		cmp	r3, r5
 529 0024 59D3     		bcc	.L33
 530 0026 053C     		subs	r4, r4, #5
 531              	.LVL31:
 480:Core/Src/GEVA.c ****         return 4;
 532              		.loc 1 480 8 view .LVU173
 533 0028 A4B2     		uxth	r4, r4
 534              	.LVL32:
 480:Core/Src/GEVA.c ****         return 4;
 535              		.loc 1 480 44 discriminator 1 view .LVU174
 536 002a 96F80180 		ldrb	r8, [r6, #1]	@ zero_extendqisi2
 480:Core/Src/GEVA.c ****         return 4;
 537              		.loc 1 480 53 discriminator 1 view .LVU175
 538 002e B845     		cmp	r8, r7
 539 0030 55D3     		bcc	.L34
 483:Core/Src/GEVA.c ****         error = 1;
 540              		.loc 1 483 5 is_stmt 1 view .LVU176
 483:Core/Src/GEVA.c ****         error = 1;
 541              		.loc 1 483 20 is_stmt 0 view .LVU177
ARM GAS  C:\Users\arist\AppData\Local\Temp\ccSK2xlW.s 			page 22


 542 0032 9DF80420 		ldrb	r2, [sp, #4]	@ zero_extendqisi2
 483:Core/Src/GEVA.c ****         error = 1;
 543              		.loc 1 483 8 view .LVU178
 544 0036 A72A     		cmp	r2, #167
 545 0038 03D0     		beq	.L40
 484:Core/Src/GEVA.c ****     else if (y + file.header.height > buf->size_y || x + file.header.width > buf->size_x)
 546              		.loc 1 484 15 view .LVU179
 547 003a 0120     		movs	r0, #1
 548              	.L27:
 549              	.LVL33:
 503:Core/Src/GEVA.c **** 
 550              		.loc 1 503 1 view .LVU180
 551 003c 05B0     		add	sp, sp, #20
 552              		.cfi_remember_state
 553              		.cfi_def_cfa_offset 36
 554              		@ sp needed
 555 003e BDE8F08F 		pop	{r4, r5, r6, r7, r8, r9, r10, fp, pc}
 556              	.LVL34:
 557              	.L40:
 558              		.cfi_restore_state
 485:Core/Src/GEVA.c ****         error = 2;
 559              		.loc 1 485 10 is_stmt 1 view .LVU181
 485:Core/Src/GEVA.c ****         error = 2;
 560              		.loc 1 485 29 is_stmt 0 view .LVU182
 561 0042 9DF806A0 		ldrb	r10, [sp, #6]	@ zero_extendqisi2
 485:Core/Src/GEVA.c ****         error = 2;
 562              		.loc 1 485 16 view .LVU183
 563 0046 07EB0A02 		add	r2, r7, r10
 485:Core/Src/GEVA.c ****         error = 2;
 564              		.loc 1 485 13 view .LVU184
 565 004a 4245     		cmp	r2, r8
 566 004c 49DC     		bgt	.L36
 485:Core/Src/GEVA.c ****         error = 2;
 567              		.loc 1 485 69 discriminator 1 view .LVU185
 568 004e 9DF80590 		ldrb	r9, [sp, #5]	@ zero_extendqisi2
 485:Core/Src/GEVA.c ****         error = 2;
 569              		.loc 1 485 56 discriminator 1 view .LVU186
 570 0052 05EB0902 		add	r2, r5, r9
 485:Core/Src/GEVA.c ****         error = 2;
 571              		.loc 1 485 51 discriminator 1 view .LVU187
 572 0056 9A42     		cmp	r2, r3
 573 0058 45DC     		bgt	.L37
 487:Core/Src/GEVA.c ****         error = 3;
 574              		.loc 1 487 10 is_stmt 1 view .LVU188
 487:Core/Src/GEVA.c ****         error = 3;
 575              		.loc 1 487 33 is_stmt 0 view .LVU189
 576 005a B6F80AB0 		ldrh	fp, [r6, #10]
 487:Core/Src/GEVA.c ****         error = 3;
 577              		.loc 1 487 53 view .LVU190
 578 005e 337A     		ldrb	r3, [r6, #8]	@ zero_extendqisi2
 579 0060 0093     		str	r3, [sp]
 580 0062 1A46     		mov	r2, r3
 581 0064 3946     		mov	r1, r7
 582 0066 2846     		mov	r0, r5
 583 0068 FFF7FEFF 		bl	get_buffer_index
 584              	.LVL35:
 487:Core/Src/GEVA.c ****         error = 3;
ARM GAS  C:\Users\arist\AppData\Local\Temp\ccSK2xlW.s 			page 23


 585              		.loc 1 487 51 view .LVU191
 586 006c ABEB0000 		sub	r0, fp, r0
 487:Core/Src/GEVA.c ****         error = 3;
 587              		.loc 1 487 13 view .LVU192
 588 0070 8442     		cmp	r4, r0
 589 0072 3ADC     		bgt	.L38
 489:Core/Src/GEVA.c ****         buf->vid_buf = file.body;
 590              		.loc 1 489 10 is_stmt 1 view .LVU193
 489:Core/Src/GEVA.c ****         buf->vid_buf = file.body;
 591              		.loc 1 489 13 is_stmt 0 view .LVU194
 592 0074 A345     		cmp	fp, r4
 593 0076 10D0     		beq	.L41
 594              	.LBB4:
 493:Core/Src/GEVA.c ****         uint16_t start_byte_ptr = get_buffer_index(x, buf->size_y - 1 - y, buf->byte_col_cnt);
 595              		.loc 1 493 9 is_stmt 1 view .LVU195
 493:Core/Src/GEVA.c ****         uint16_t start_byte_ptr = get_buffer_index(x, buf->size_y - 1 - y, buf->byte_col_cnt);
 596              		.loc 1 493 17 is_stmt 0 view .LVU196
 597 0078 19F0070F 		tst	r9, #7
 598 007c 11D1     		bne	.L29
 493:Core/Src/GEVA.c ****         uint16_t start_byte_ptr = get_buffer_index(x, buf->size_y - 1 - y, buf->byte_col_cnt);
 599              		.loc 1 493 17 discriminator 1 view .LVU197
 600 007e 4FEAD909 		lsr	r9, r9, #3
 601              	.L30:
 602              	.LVL36:
 494:Core/Src/GEVA.c ****         uint16_t buffer_byte_ptr = start_byte_ptr;
 603              		.loc 1 494 9 is_stmt 1 discriminator 4 view .LVU198
 494:Core/Src/GEVA.c ****         uint16_t buffer_byte_ptr = start_byte_ptr;
 604              		.loc 1 494 71 is_stmt 0 discriminator 4 view .LVU199
 605 0082 A8EB0701 		sub	r1, r8, r7
 606 0086 C9B2     		uxtb	r1, r1
 494:Core/Src/GEVA.c ****         uint16_t buffer_byte_ptr = start_byte_ptr;
 607              		.loc 1 494 35 discriminator 4 view .LVU200
 608 0088 0139     		subs	r1, r1, #1
 609 008a 009A     		ldr	r2, [sp]
 610 008c C9B2     		uxtb	r1, r1
 611 008e 2846     		mov	r0, r5
 612 0090 FFF7FEFF 		bl	get_buffer_index
 613              	.LVL37:
 614 0094 0546     		mov	r5, r0
 615              	.LVL38:
 495:Core/Src/GEVA.c **** 
 616              		.loc 1 495 9 is_stmt 1 discriminator 4 view .LVU201
 497:Core/Src/GEVA.c ****             buffer_byte_ptr = start_byte_ptr - (buf->byte_col_cnt * row);
 617              		.loc 1 497 9 discriminator 4 view .LVU202
 618              	.LBB5:
 497:Core/Src/GEVA.c ****             buffer_byte_ptr = start_byte_ptr - (buf->byte_col_cnt * row);
 619              		.loc 1 497 14 discriminator 4 view .LVU203
 497:Core/Src/GEVA.c ****             buffer_byte_ptr = start_byte_ptr - (buf->byte_col_cnt * row);
 620              		.loc 1 497 22 is_stmt 0 discriminator 4 view .LVU204
 621 0096 0024     		movs	r4, #0
 497:Core/Src/GEVA.c ****             buffer_byte_ptr = start_byte_ptr - (buf->byte_col_cnt * row);
 622              		.loc 1 497 9 discriminator 4 view .LVU205
 623 0098 19E0     		b	.L31
 624              	.LVL39:
 625              	.L41:
 497:Core/Src/GEVA.c ****             buffer_byte_ptr = start_byte_ptr - (buf->byte_col_cnt * row);
 626              		.loc 1 497 9 discriminator 4 view .LVU206
ARM GAS  C:\Users\arist\AppData\Local\Temp\ccSK2xlW.s 			page 24


 627              	.LBE5:
 628              	.LBE4:
 490:Core/Src/GEVA.c ****     }
 629              		.loc 1 490 9 is_stmt 1 view .LVU207
 490:Core/Src/GEVA.c ****     }
 630              		.loc 1 490 28 is_stmt 0 view .LVU208
 631 009a 039B     		ldr	r3, [sp, #12]
 490:Core/Src/GEVA.c ****     }
 632              		.loc 1 490 22 view .LVU209
 633 009c 7360     		str	r3, [r6, #4]
 477:Core/Src/GEVA.c ****     uint16_t vbc_body_byte = (((uint16_t)file.header.byte_cnt_h) << 8 | file.header.byte_cnt_l) - 5
 634              		.loc 1 477 13 view .LVU210
 635 009e 0020     		movs	r0, #0
 636 00a0 CCE7     		b	.L27
 637              	.L29:
 638              	.LBB8:
 493:Core/Src/GEVA.c ****         uint16_t start_byte_ptr = get_buffer_index(x, buf->size_y - 1 - y, buf->byte_col_cnt);
 639              		.loc 1 493 107 discriminator 2 view .LVU211
 640 00a2 4FEAD909 		lsr	r9, r9, #3
 493:Core/Src/GEVA.c ****         uint16_t start_byte_ptr = get_buffer_index(x, buf->size_y - 1 - y, buf->byte_col_cnt);
 641              		.loc 1 493 17 discriminator 2 view .LVU212
 642 00a6 09F10109 		add	r9, r9, #1
 643 00aa EAE7     		b	.L30
 644              	.LVL40:
 645              	.L32:
 646              	.LBB6:
 498:Core/Src/GEVA.c ****             memmove(&buf->vid_buf[buffer_byte_ptr], &file.body[((file.header.height - 1) * byte_wid
 647              		.loc 1 498 13 is_stmt 1 discriminator 3 view .LVU213
 498:Core/Src/GEVA.c ****             memmove(&buf->vid_buf[buffer_byte_ptr], &file.body[((file.header.height - 1) * byte_wid
 648              		.loc 1 498 52 is_stmt 0 discriminator 3 view .LVU214
 649 00ac 307A     		ldrb	r0, [r6, #8]	@ zero_extendqisi2
 498:Core/Src/GEVA.c ****             memmove(&buf->vid_buf[buffer_byte_ptr], &file.body[((file.header.height - 1) * byte_wid
 650              		.loc 1 498 29 discriminator 3 view .LVU215
 651 00ae 04FB1050 		mls	r0, r4, r0, r5
 652              	.LVL41:
 499:Core/Src/GEVA.c ****         }
 653              		.loc 1 499 13 is_stmt 1 discriminator 3 view .LVU216
 499:Core/Src/GEVA.c ****         }
 654              		.loc 1 499 25 is_stmt 0 discriminator 3 view .LVU217
 655 00b2 7368     		ldr	r3, [r6, #4]
 499:Core/Src/GEVA.c ****         }
 656              		.loc 1 499 90 discriminator 3 view .LVU218
 657 00b4 01FB09F1 		mul	r1, r1, r9
 499:Core/Src/GEVA.c ****         }
 658              		.loc 1 499 104 discriminator 3 view .LVU219
 659 00b8 04FB1911 		mls	r1, r4, r9, r1
 499:Core/Src/GEVA.c ****         }
 660              		.loc 1 499 13 discriminator 3 view .LVU220
 661 00bc 4A46     		mov	r2, r9
 662 00be 039F     		ldr	r7, [sp, #12]
 663 00c0 3944     		add	r1, r1, r7
 664 00c2 13FA80F0 		uxtah	r0, r3, r0
 665              	.LVL42:
 499:Core/Src/GEVA.c ****         }
 666              		.loc 1 499 13 discriminator 3 view .LVU221
 667 00c6 FFF7FEFF 		bl	memmove
 668              	.LVL43:
ARM GAS  C:\Users\arist\AppData\Local\Temp\ccSK2xlW.s 			page 25


 497:Core/Src/GEVA.c ****             buffer_byte_ptr = start_byte_ptr - (buf->byte_col_cnt * row);
 669              		.loc 1 497 64 is_stmt 1 discriminator 3 view .LVU222
 670 00ca 0134     		adds	r4, r4, #1
 671              	.LVL44:
 497:Core/Src/GEVA.c ****             buffer_byte_ptr = start_byte_ptr - (buf->byte_col_cnt * row);
 672              		.loc 1 497 64 is_stmt 0 discriminator 3 view .LVU223
 673 00cc E4B2     		uxtb	r4, r4
 674              	.LVL45:
 675              	.L31:
 497:Core/Src/GEVA.c ****             buffer_byte_ptr = start_byte_ptr - (buf->byte_col_cnt * row);
 676              		.loc 1 497 35 is_stmt 1 discriminator 1 view .LVU224
 497:Core/Src/GEVA.c ****             buffer_byte_ptr = start_byte_ptr - (buf->byte_col_cnt * row);
 677              		.loc 1 497 56 is_stmt 0 discriminator 1 view .LVU225
 678 00ce 0AF1FF31 		add	r1, r10, #-1
 497:Core/Src/GEVA.c ****             buffer_byte_ptr = start_byte_ptr - (buf->byte_col_cnt * row);
 679              		.loc 1 497 35 discriminator 1 view .LVU226
 680 00d2 8C42     		cmp	r4, r1
 681 00d4 EADB     		blt	.L32
 682              	.LBE6:
 683              	.LBE8:
 477:Core/Src/GEVA.c ****     uint16_t vbc_body_byte = (((uint16_t)file.header.byte_cnt_h) << 8 | file.header.byte_cnt_l) - 5
 684              		.loc 1 477 13 view .LVU227
 685 00d6 0020     		movs	r0, #0
 686              	.LBB9:
 687              	.LBB7:
 688 00d8 B0E7     		b	.L27
 689              	.LVL46:
 690              	.L33:
 477:Core/Src/GEVA.c ****     uint16_t vbc_body_byte = (((uint16_t)file.header.byte_cnt_h) << 8 | file.header.byte_cnt_l) - 5
 691              		.loc 1 477 13 view .LVU228
 692              	.LBE7:
 693              	.LBE9:
 481:Core/Src/GEVA.c **** 
 694              		.loc 1 481 16 view .LVU229
 695 00da 0420     		movs	r0, #4
 696 00dc AEE7     		b	.L27
 697              	.LVL47:
 698              	.L34:
 481:Core/Src/GEVA.c **** 
 699              		.loc 1 481 16 view .LVU230
 700 00de 0420     		movs	r0, #4
 701 00e0 ACE7     		b	.L27
 702              	.L36:
 486:Core/Src/GEVA.c ****     else if (vbc_body_byte > buf->byte_buffer_cnt - get_buffer_index(x, y, buf->byte_col_cnt))
 703              		.loc 1 486 15 view .LVU231
 704 00e2 0220     		movs	r0, #2
 705 00e4 AAE7     		b	.L27
 706              	.L37:
 707 00e6 0220     		movs	r0, #2
 708 00e8 A8E7     		b	.L27
 709              	.L38:
 488:Core/Src/GEVA.c ****     else if (vbc_body_byte == buf->byte_buffer_cnt) {
 710              		.loc 1 488 15 view .LVU232
 711 00ea 0320     		movs	r0, #3
 712 00ec A6E7     		b	.L27
 713              		.cfi_endproc
 714              	.LFE9:
ARM GAS  C:\Users\arist\AppData\Local\Temp\ccSK2xlW.s 			page 26


 716              		.section	.text.normalize_pos,"ax",%progbits
 717              		.align	1
 718              		.global	normalize_pos
 719              		.syntax unified
 720              		.thumb
 721              		.thumb_func
 723              	normalize_pos:
 724              	.LVL48:
 725              	.LFB17:
 616:Core/Src/GEVA.c **** 
 617:Core/Src/GEVA.c **** /* Normalize orientation operation.  
 618:Core/Src/GEVA.c ****  * Project coordinates in LANDSCAPE coordinates
 619:Core/Src/GEVA.c **** */
 620:Core/Src/GEVA.c **** uint8_t * normalize_pos(uint8_t pos_x, uint8_t pos_y, video_buffer* buf) {
 726              		.loc 1 620 74 is_stmt 1 view -0
 727              		.cfi_startproc
 728              		@ args = 0, pretend = 0, frame = 0
 729              		@ frame_needed = 0, uses_anonymous_args = 0
 730              		.loc 1 620 74 is_stmt 0 view .LVU234
 731 0000 70B5     		push	{r4, r5, r6, lr}
 732              		.cfi_def_cfa_offset 16
 733              		.cfi_offset 4, -16
 734              		.cfi_offset 5, -12
 735              		.cfi_offset 6, -8
 736              		.cfi_offset 14, -4
 737 0002 0646     		mov	r6, r0
 738 0004 0D46     		mov	r5, r1
 739 0006 1446     		mov	r4, r2
 621:Core/Src/GEVA.c **** 
 622:Core/Src/GEVA.c ****     uint8_t *pos = (uint8_t*)malloc(2);
 740              		.loc 1 622 5 is_stmt 1 view .LVU235
 741              		.loc 1 622 30 is_stmt 0 view .LVU236
 742 0008 0220     		movs	r0, #2
 743              	.LVL49:
 744              		.loc 1 622 30 view .LVU237
 745 000a FFF7FEFF 		bl	malloc
 746              	.LVL50:
 623:Core/Src/GEVA.c ****     pos[0] = buf->origin[X] + (pos_x * buf->r_matrix[_A]) + (pos_y * buf->r_matrix[_B]);
 747              		.loc 1 623 5 is_stmt 1 view .LVU238
 748              		.loc 1 623 25 is_stmt 0 view .LVU239
 749 000e A17B     		ldrb	r1, [r4, #14]	@ zero_extendqisi2
 750              		.loc 1 623 83 view .LVU240
 751 0010 94F911C0 		ldrsb	ip, [r4, #17]
 752              		.loc 1 623 53 view .LVU241
 753 0014 94F91030 		ldrsb	r3, [r4, #16]
 754              		.loc 1 623 59 view .LVU242
 755 0018 13FB06F3 		smulbb	r3, r3, r6
 756 001c 0CFB0533 		mla	r3, ip, r5, r3
 757 0020 0B44     		add	r3, r3, r1
 758              		.loc 1 623 12 view .LVU243
 759 0022 0370     		strb	r3, [r0]
 624:Core/Src/GEVA.c ****     pos[1] = buf->origin[Y] + (pos_x * buf->r_matrix[_C]) + (pos_y * buf->r_matrix[_D]);
 760              		.loc 1 624 5 is_stmt 1 view .LVU244
 761              		.loc 1 624 25 is_stmt 0 view .LVU245
 762 0024 94F80FC0 		ldrb	ip, [r4, #15]	@ zero_extendqisi2
 763              		.loc 1 624 83 view .LVU246
 764 0028 94F91310 		ldrsb	r1, [r4, #19]
ARM GAS  C:\Users\arist\AppData\Local\Temp\ccSK2xlW.s 			page 27


 765              		.loc 1 624 53 view .LVU247
 766 002c 94F91230 		ldrsb	r3, [r4, #18]
 767              		.loc 1 624 59 view .LVU248
 768 0030 13FB06F3 		smulbb	r3, r3, r6
 769 0034 01FB0531 		mla	r1, r1, r5, r3
 770 0038 0CEB0103 		add	r3, ip, r1
 771              		.loc 1 624 12 view .LVU249
 772 003c 4370     		strb	r3, [r0, #1]
 625:Core/Src/GEVA.c ****     
 626:Core/Src/GEVA.c ****     return pos;
 773              		.loc 1 626 5 is_stmt 1 view .LVU250
 627:Core/Src/GEVA.c **** }
 774              		.loc 1 627 1 is_stmt 0 view .LVU251
 775 003e 70BD     		pop	{r4, r5, r6, pc}
 776              		.loc 1 627 1 view .LVU252
 777              		.cfi_endproc
 778              	.LFE17:
 780              		.section	.text.put_pixel,"ax",%progbits
 781              		.align	1
 782              		.global	put_pixel
 783              		.syntax unified
 784              		.thumb
 785              		.thumb_func
 787              	put_pixel:
 788              	.LVL51:
 789              	.LFB4:
 134:Core/Src/GEVA.c **** 
 790              		.loc 1 134 86 is_stmt 1 view -0
 791              		.cfi_startproc
 792              		@ args = 0, pretend = 0, frame = 0
 793              		@ frame_needed = 0, uses_anonymous_args = 0
 134:Core/Src/GEVA.c **** 
 794              		.loc 1 134 86 is_stmt 0 view .LVU254
 795 0000 2DE9F041 		push	{r4, r5, r6, r7, r8, lr}
 796              		.cfi_def_cfa_offset 24
 797              		.cfi_offset 4, -24
 798              		.cfi_offset 5, -20
 799              		.cfi_offset 6, -16
 800              		.cfi_offset 7, -12
 801              		.cfi_offset 8, -8
 802              		.cfi_offset 14, -4
 803 0004 9046     		mov	r8, r2
 804 0006 1C46     		mov	r4, r3
 136:Core/Src/GEVA.c ****     uint8_t *n_pos = normalize_pos(pos_x, pos_y, buf);
 805              		.loc 1 136 5 is_stmt 1 view .LVU255
 806              	.LVL52:
 137:Core/Src/GEVA.c **** 
 807              		.loc 1 137 5 view .LVU256
 137:Core/Src/GEVA.c **** 
 808              		.loc 1 137 22 is_stmt 0 view .LVU257
 809 0008 1A46     		mov	r2, r3
 810              	.LVL53:
 137:Core/Src/GEVA.c **** 
 811              		.loc 1 137 22 view .LVU258
 812 000a FFF7FEFF 		bl	normalize_pos
 813              	.LVL54:
 137:Core/Src/GEVA.c **** 
ARM GAS  C:\Users\arist\AppData\Local\Temp\ccSK2xlW.s 			page 28


 814              		.loc 1 137 22 view .LVU259
 815 000e 0546     		mov	r5, r0
 816              	.LVL55:
 139:Core/Src/GEVA.c ****         error = 4;
 817              		.loc 1 139 5 is_stmt 1 view .LVU260
 139:Core/Src/GEVA.c ****         error = 4;
 818              		.loc 1 139 42 is_stmt 0 view .LVU261
 819 0010 6178     		ldrb	r1, [r4, #1]	@ zero_extendqisi2
 139:Core/Src/GEVA.c ****         error = 4;
 820              		.loc 1 139 33 view .LVU262
 821 0012 4378     		ldrb	r3, [r0, #1]	@ zero_extendqisi2
 139:Core/Src/GEVA.c ****         error = 4;
 822              		.loc 1 139 8 view .LVU263
 823 0014 9942     		cmp	r1, r3
 824 0016 35D9     		bls	.L48
 139:Core/Src/GEVA.c ****         error = 4;
 825              		.loc 1 139 92 discriminator 1 view .LVU264
 826 0018 2278     		ldrb	r2, [r4]	@ zero_extendqisi2
 139:Core/Src/GEVA.c ****         error = 4;
 827              		.loc 1 139 83 discriminator 1 view .LVU265
 828 001a 0678     		ldrb	r6, [r0]	@ zero_extendqisi2
 139:Core/Src/GEVA.c ****         error = 4;
 829              		.loc 1 139 74 discriminator 1 view .LVU266
 830 001c B242     		cmp	r2, r6
 831 001e 38D9     		bls	.L49
 142:Core/Src/GEVA.c ****             color = CLEAR_C;
 832              		.loc 1 142 9 is_stmt 1 view .LVU267
 142:Core/Src/GEVA.c ****             color = CLEAR_C;
 833              		.loc 1 142 16 is_stmt 0 view .LVU268
 834 0020 227B     		ldrb	r2, [r4, #12]	@ zero_extendqisi2
 142:Core/Src/GEVA.c ****             color = CLEAR_C;
 835              		.loc 1 142 12 view .LVU269
 836 0022 12EA0807 		ands	r7, r2, r8
 837 0026 19D1     		bne	.L46
 144:Core/Src/GEVA.c ****             color = SET_C;
 838              		.loc 1 144 14 is_stmt 1 view .LVU270
 144:Core/Src/GEVA.c ****             color = SET_C;
 839              		.loc 1 144 17 is_stmt 0 view .LVU271
 840 0028 32EA0802 		bics	r2, r2, r8
 841 002c 02D1     		bne	.L47
 842              	.LVL56:
 147:Core/Src/GEVA.c ****             buf->vid_buf[get_buffer_index(n_pos[X], (buf->size_y - n_pos[Y] - 1), buf->byte_col_cnt
 843              		.loc 1 147 9 is_stmt 1 view .LVU272
 147:Core/Src/GEVA.c ****             buf->vid_buf[get_buffer_index(n_pos[X], (buf->size_y - n_pos[Y] - 1), buf->byte_col_cnt
 844              		.loc 1 147 12 is_stmt 0 view .LVU273
 845 002e B8F1000F 		cmp	r8, #0
 846 0032 13D0     		beq	.L46
 847              	.LVL57:
 848              	.L47:
 148:Core/Src/GEVA.c ****         else
 849              		.loc 1 148 13 is_stmt 1 view .LVU274
 148:Core/Src/GEVA.c ****         else
 850              		.loc 1 148 16 is_stmt 0 view .LVU275
 851 0034 D4F80480 		ldr	r8, [r4, #4]
 148:Core/Src/GEVA.c ****         else
 852              		.loc 1 148 66 view .LVU276
 853 0038 C91A     		subs	r1, r1, r3
ARM GAS  C:\Users\arist\AppData\Local\Temp\ccSK2xlW.s 			page 29


 854 003a C9B2     		uxtb	r1, r1
 148:Core/Src/GEVA.c ****         else
 855              		.loc 1 148 26 view .LVU277
 856 003c 0139     		subs	r1, r1, #1
 857 003e 227A     		ldrb	r2, [r4, #8]	@ zero_extendqisi2
 858 0040 C9B2     		uxtb	r1, r1
 859 0042 3046     		mov	r0, r6
 860              	.LVL58:
 148:Core/Src/GEVA.c ****         else
 861              		.loc 1 148 26 view .LVU278
 862 0044 FFF7FEFF 		bl	get_buffer_index
 863              	.LVL59:
 148:Core/Src/GEVA.c ****         else
 864              		.loc 1 148 25 view .LVU279
 865 0048 18F80030 		ldrb	r3, [r8, r0]	@ zero_extendqisi2
 148:Core/Src/GEVA.c ****         else
 866              		.loc 1 148 124 view .LVU280
 867 004c 06F00706 		and	r6, r6, #7
 148:Core/Src/GEVA.c ****         else
 868              		.loc 1 148 111 view .LVU281
 869 0050 8022     		movs	r2, #128
 870 0052 3241     		asrs	r2, r2, r6
 148:Core/Src/GEVA.c ****         else
 871              		.loc 1 148 103 view .LVU282
 872 0054 1343     		orrs	r3, r3, r2
 873 0056 08F80030 		strb	r3, [r8, r0]
 874 005a 14E0     		b	.L45
 875              	.LVL60:
 876              	.L46:
 150:Core/Src/GEVA.c ****     }
 877              		.loc 1 150 13 is_stmt 1 view .LVU283
 150:Core/Src/GEVA.c ****     }
 878              		.loc 1 150 16 is_stmt 0 view .LVU284
 879 005c 6768     		ldr	r7, [r4, #4]
 150:Core/Src/GEVA.c ****     }
 880              		.loc 1 150 66 view .LVU285
 881 005e C91A     		subs	r1, r1, r3
 882 0060 C9B2     		uxtb	r1, r1
 150:Core/Src/GEVA.c ****     }
 883              		.loc 1 150 26 view .LVU286
 884 0062 0139     		subs	r1, r1, #1
 885 0064 227A     		ldrb	r2, [r4, #8]	@ zero_extendqisi2
 886 0066 C9B2     		uxtb	r1, r1
 887 0068 3046     		mov	r0, r6
 888              	.LVL61:
 150:Core/Src/GEVA.c ****     }
 889              		.loc 1 150 26 view .LVU287
 890 006a FFF7FEFF 		bl	get_buffer_index
 891              	.LVL62:
 150:Core/Src/GEVA.c ****     }
 892              		.loc 1 150 25 view .LVU288
 893 006e 3A5C     		ldrb	r2, [r7, r0]	@ zero_extendqisi2
 150:Core/Src/GEVA.c ****     }
 894              		.loc 1 150 126 view .LVU289
 895 0070 06F00706 		and	r6, r6, #7
 150:Core/Src/GEVA.c ****     }
 896              		.loc 1 150 113 view .LVU290
ARM GAS  C:\Users\arist\AppData\Local\Temp\ccSK2xlW.s 			page 30


 897 0074 8023     		movs	r3, #128
 898 0076 3341     		asrs	r3, r3, r6
 150:Core/Src/GEVA.c ****     }
 899              		.loc 1 150 103 view .LVU291
 900 0078 DB43     		mvns	r3, r3
 901 007a 5BB2     		sxtb	r3, r3
 902 007c 1340     		ands	r3, r3, r2
 903 007e 3B54     		strb	r3, [r7, r0]
 136:Core/Src/GEVA.c ****     uint8_t *n_pos = normalize_pos(pos_x, pos_y, buf);
 904              		.loc 1 136 13 view .LVU292
 905 0080 0027     		movs	r7, #0
 906 0082 00E0     		b	.L45
 907              	.LVL63:
 908              	.L48:
 140:Core/Src/GEVA.c ****     else {
 909              		.loc 1 140 15 view .LVU293
 910 0084 0427     		movs	r7, #4
 911              	.LVL64:
 912              	.L45:
 152:Core/Src/GEVA.c ****     return error;
 913              		.loc 1 152 5 is_stmt 1 view .LVU294
 914 0086 2846     		mov	r0, r5
 915 0088 FFF7FEFF 		bl	free
 916              	.LVL65:
 153:Core/Src/GEVA.c **** }
 917              		.loc 1 153 5 view .LVU295
 154:Core/Src/GEVA.c **** 
 918              		.loc 1 154 1 is_stmt 0 view .LVU296
 919 008c 3846     		mov	r0, r7
 920 008e BDE8F081 		pop	{r4, r5, r6, r7, r8, pc}
 921              	.LVL66:
 922              	.L49:
 140:Core/Src/GEVA.c ****     else {
 923              		.loc 1 140 15 view .LVU297
 924 0092 0427     		movs	r7, #4
 925 0094 F7E7     		b	.L45
 926              		.cfi_endproc
 927              	.LFE4:
 929              		.section	.text.put_circle,"ax",%progbits
 930              		.align	1
 931              		.global	put_circle
 932              		.syntax unified
 933              		.thumb
 934              		.thumb_func
 936              	put_circle:
 937              	.LVL67:
 938              	.LFB10:
 513:Core/Src/GEVA.c **** 
 939              		.loc 1 513 76 is_stmt 1 view -0
 940              		.cfi_startproc
 941              		@ args = 0, pretend = 0, frame = 0
 942              		@ frame_needed = 0, uses_anonymous_args = 0
 513:Core/Src/GEVA.c **** 
 943              		.loc 1 513 76 is_stmt 0 view .LVU299
 944 0000 2DE9F84F 		push	{r3, r4, r5, r6, r7, r8, r9, r10, fp, lr}
 945              		.cfi_def_cfa_offset 40
 946              		.cfi_offset 3, -40
ARM GAS  C:\Users\arist\AppData\Local\Temp\ccSK2xlW.s 			page 31


 947              		.cfi_offset 4, -36
 948              		.cfi_offset 5, -32
 949              		.cfi_offset 6, -28
 950              		.cfi_offset 7, -24
 951              		.cfi_offset 8, -20
 952              		.cfi_offset 9, -16
 953              		.cfi_offset 10, -12
 954              		.cfi_offset 11, -8
 955              		.cfi_offset 14, -4
 956 0004 8246     		mov	r10, r0
 957 0006 8946     		mov	r9, r1
 958 0008 1546     		mov	r5, r2
 959 000a 9846     		mov	r8, r3
 515:Core/Src/GEVA.c ****     uint16_t s = 0;
 960              		.loc 1 515 5 is_stmt 1 view .LVU300
 961              	.LVL68:
 516:Core/Src/GEVA.c ****     uint16_t rsqr = r * r;
 962              		.loc 1 516 5 view .LVU301
 517:Core/Src/GEVA.c ****     
 963              		.loc 1 517 5 view .LVU302
 517:Core/Src/GEVA.c ****     
 964              		.loc 1 517 14 is_stmt 0 view .LVU303
 965 000c 02FB02F7 		mul	r7, r2, r2
 966              	.LVL69:
 519:Core/Src/GEVA.c ****         for (int16_t x = -r; x <= r; x++) {
 967              		.loc 1 519 5 is_stmt 1 view .LVU304
 968              	.LBB10:
 519:Core/Src/GEVA.c ****         for (int16_t x = -r; x <= r; x++) {
 969              		.loc 1 519 10 view .LVU305
 519:Core/Src/GEVA.c ****         for (int16_t x = -r; x <= r; x++) {
 970              		.loc 1 519 18 is_stmt 0 view .LVU306
 971 0010 C2F1000B 		rsb	fp, r2, #0
 972 0014 0FFA8BFB 		sxth	fp, fp
 973              	.LVL70:
 519:Core/Src/GEVA.c ****         for (int16_t x = -r; x <= r; x++) {
 974              		.loc 1 519 18 view .LVU307
 975 0018 5E46     		mov	r6, fp
 976              	.LBE10:
 515:Core/Src/GEVA.c ****     uint16_t s = 0;
 977              		.loc 1 515 13 view .LVU308
 978 001a 0020     		movs	r0, #0
 979              	.LVL71:
 980              	.LBB13:
 519:Core/Src/GEVA.c ****         for (int16_t x = -r; x <= r; x++) {
 981              		.loc 1 519 5 view .LVU309
 982 001c 1FE0     		b	.L52
 983              	.LVL72:
 984              	.L53:
 985              	.LBB11:
 520:Core/Src/GEVA.c ****             s = x * x + y * y;
 986              		.loc 1 520 39 is_stmt 1 discriminator 2 view .LVU310
 987 001e 0134     		adds	r4, r4, #1
 988              	.LVL73:
 520:Core/Src/GEVA.c ****             s = x * x + y * y;
 989              		.loc 1 520 39 is_stmt 0 discriminator 2 view .LVU311
 990 0020 22B2     		sxth	r2, r4
 991              	.LVL74:
ARM GAS  C:\Users\arist\AppData\Local\Temp\ccSK2xlW.s 			page 32


 992              	.L55:
 520:Core/Src/GEVA.c ****             s = x * x + y * y;
 993              		.loc 1 520 32 is_stmt 1 discriminator 1 view .LVU312
 994 0022 AA42     		cmp	r2, r5
 995 0024 19DC     		bgt	.L58
 521:Core/Src/GEVA.c ****             if (s >= rsqr - r && s <= rsqr + r) {
 996              		.loc 1 521 13 view .LVU313
 521:Core/Src/GEVA.c ****             if (s >= rsqr - r && s <= rsqr + r) {
 997              		.loc 1 521 19 is_stmt 0 view .LVU314
 998 0026 94B2     		uxth	r4, r2
 999 0028 02FB02F3 		mul	r3, r2, r2
 521:Core/Src/GEVA.c ****             if (s >= rsqr - r && s <= rsqr + r) {
 1000              		.loc 1 521 27 view .LVU315
 1001 002c 06FB06F1 		mul	r1, r6, r6
 1002 0030 89B2     		uxth	r1, r1
 521:Core/Src/GEVA.c ****             if (s >= rsqr - r && s <= rsqr + r) {
 1003              		.loc 1 521 15 view .LVU316
 1004 0032 11FA83F3 		uxtah	r3, r1, r3
 1005 0036 9BB2     		uxth	r3, r3
 1006              	.LVL75:
 522:Core/Src/GEVA.c ****                 error = put_pixel(o_x + x, o_y + y, SET_C, buf);
 1007              		.loc 1 522 13 is_stmt 1 view .LVU317
 522:Core/Src/GEVA.c ****                 error = put_pixel(o_x + x, o_y + y, SET_C, buf);
 1008              		.loc 1 522 27 is_stmt 0 view .LVU318
 1009 0038 791B     		subs	r1, r7, r5
 522:Core/Src/GEVA.c ****                 error = put_pixel(o_x + x, o_y + y, SET_C, buf);
 1010              		.loc 1 522 16 view .LVU319
 1011 003a 8B42     		cmp	r3, r1
 1012 003c EFDB     		blt	.L53
 522:Core/Src/GEVA.c ****                 error = put_pixel(o_x + x, o_y + y, SET_C, buf);
 1013              		.loc 1 522 44 discriminator 1 view .LVU320
 1014 003e 7919     		adds	r1, r7, r5
 522:Core/Src/GEVA.c ****                 error = put_pixel(o_x + x, o_y + y, SET_C, buf);
 1015              		.loc 1 522 31 discriminator 1 view .LVU321
 1016 0040 8B42     		cmp	r3, r1
 1017 0042 ECDC     		bgt	.L53
 523:Core/Src/GEVA.c ****                // if (error)
 1018              		.loc 1 523 17 is_stmt 1 view .LVU322
 523:Core/Src/GEVA.c ****                // if (error)
 1019              		.loc 1 523 25 is_stmt 0 view .LVU323
 1020 0044 09EB0601 		add	r1, r9, r6
 1021 0048 0AEB0200 		add	r0, r10, r2
 1022              	.LVL76:
 523:Core/Src/GEVA.c ****                // if (error)
 1023              		.loc 1 523 25 view .LVU324
 1024 004c 4346     		mov	r3, r8
 1025              	.LVL77:
 523:Core/Src/GEVA.c ****                // if (error)
 1026              		.loc 1 523 25 view .LVU325
 1027 004e 0122     		movs	r2, #1
 1028              	.LVL78:
 523:Core/Src/GEVA.c ****                // if (error)
 1029              		.loc 1 523 25 view .LVU326
 1030 0050 C9B2     		uxtb	r1, r1
 1031 0052 C0B2     		uxtb	r0, r0
 1032 0054 FFF7FEFF 		bl	put_pixel
 1033              	.LVL79:
ARM GAS  C:\Users\arist\AppData\Local\Temp\ccSK2xlW.s 			page 33


 523:Core/Src/GEVA.c ****                // if (error)
 1034              		.loc 1 523 25 view .LVU327
 1035 0058 E1E7     		b	.L53
 1036              	.LVL80:
 1037              	.L58:
 523:Core/Src/GEVA.c ****                // if (error)
 1038              		.loc 1 523 25 view .LVU328
 1039              	.LBE11:
 519:Core/Src/GEVA.c ****         for (int16_t x = -r; x <= r; x++) {
 1040              		.loc 1 519 35 is_stmt 1 discriminator 2 view .LVU329
 1041 005a 0136     		adds	r6, r6, #1
 1042              	.LVL81:
 519:Core/Src/GEVA.c ****         for (int16_t x = -r; x <= r; x++) {
 1043              		.loc 1 519 35 is_stmt 0 discriminator 2 view .LVU330
 1044 005c 36B2     		sxth	r6, r6
 1045              	.LVL82:
 1046              	.L52:
 519:Core/Src/GEVA.c ****         for (int16_t x = -r; x <= r; x++) {
 1047              		.loc 1 519 28 is_stmt 1 discriminator 1 view .LVU331
 1048 005e AE42     		cmp	r6, r5
 1049 0060 01DC     		bgt	.L59
 1050              	.LBB12:
 520:Core/Src/GEVA.c ****             s = x * x + y * y;
 1051              		.loc 1 520 22 is_stmt 0 view .LVU332
 1052 0062 5A46     		mov	r2, fp
 1053 0064 DDE7     		b	.L55
 1054              	.L59:
 1055              	.LBE12:
 1056              	.LBE13:
 529:Core/Src/GEVA.c **** }
 1057              		.loc 1 529 5 is_stmt 1 view .LVU333
 530:Core/Src/GEVA.c **** 
 1058              		.loc 1 530 1 is_stmt 0 view .LVU334
 1059 0066 BDE8F88F 		pop	{r3, r4, r5, r6, r7, r8, r9, r10, fp, pc}
 530:Core/Src/GEVA.c **** 
 1060              		.loc 1 530 1 view .LVU335
 1061              		.cfi_endproc
 1062              	.LFE10:
 1064              		.section	.text.reverse_byte,"ax",%progbits
 1065              		.align	1
 1066              		.global	reverse_byte
 1067              		.syntax unified
 1068              		.thumb
 1069              		.thumb_func
 1071              	reverse_byte:
 1072              	.LVL83:
 1073              	.LFB19:
 628:Core/Src/GEVA.c **** 
 629:Core/Src/GEVA.c **** /* 
 630:Core/Src/GEVA.c ****  * Generates new normalized character from font.h character 
 631:Core/Src/GEVA.c **** */
 632:Core/Src/GEVA.c **** uint16_t* rotate_char(uint16_t *chr, video_buffer* buf) {
 633:Core/Src/GEVA.c ****     
 634:Core/Src/GEVA.c ****     uint16_t *new_chr = (uint16_t *)malloc(font_height);
 635:Core/Src/GEVA.c ****     
 636:Core/Src/GEVA.c ****     for (uint8_t i = 0; i < font_height; i++)
 637:Core/Src/GEVA.c ****             new_chr[i]=0;
ARM GAS  C:\Users\arist\AppData\Local\Temp\ccSK2xlW.s 			page 34


 638:Core/Src/GEVA.c ****             
 639:Core/Src/GEVA.c ****     uint16_t* nc_ptr = new_chr;
 640:Core/Src/GEVA.c ****     uint16_t bit = 0;
 641:Core/Src/GEVA.c ****     
 642:Core/Src/GEVA.c ****     switch (buf->orient) {
 643:Core/Src/GEVA.c ****    
 644:Core/Src/GEVA.c ****     case LANDSCAPE :
 645:Core/Src/GEVA.c ****         nc_ptr = chr;
 646:Core/Src/GEVA.c ****         break;
 647:Core/Src/GEVA.c ****     
 648:Core/Src/GEVA.c ****     case LANDSCAPE_INVERTED:
 649:Core/Src/GEVA.c **** 
 650:Core/Src/GEVA.c ****         for (uint8_t i = 0; i < font_height; i++) {
 651:Core/Src/GEVA.c ****             new_chr[i] = reverse_byte(chr[font_height - 1 - i] >> 16 - font_width) ;
 652:Core/Src/GEVA.c ****         }
 653:Core/Src/GEVA.c ****         break;
 654:Core/Src/GEVA.c **** 
 655:Core/Src/GEVA.c ****     case PORTRAIT:
 656:Core/Src/GEVA.c **** 
 657:Core/Src/GEVA.c ****         for (uint8_t i = 0; i < font_height; i++) {
 658:Core/Src/GEVA.c ****             for (uint8_t j = 0; j < font_height; j++) {
 659:Core/Src/GEVA.c ****                 bit = (chr[font_height - 1 - i] & (0x8000 >> j)) << j;
 660:Core/Src/GEVA.c ****                 new_chr[font_height - 1  - j] |= bit >> (font_height - i);    
 661:Core/Src/GEVA.c ****                 bit = 0;
 662:Core/Src/GEVA.c ****             }
 663:Core/Src/GEVA.c ****         }
 664:Core/Src/GEVA.c ****         break;
 665:Core/Src/GEVA.c ****    
 666:Core/Src/GEVA.c ****     case PORTRAIT_INVERTED:
 667:Core/Src/GEVA.c **** 
 668:Core/Src/GEVA.c ****         for (uint8_t i = 0; i < font_height; i++) {
 669:Core/Src/GEVA.c ****             for (uint8_t j = 0; j < font_height; j++) {
 670:Core/Src/GEVA.c ****                 bit = (chr[font_height - 1 - i] & (0x8000 >> j)) << j;
 671:Core/Src/GEVA.c ****                 new_chr[j] |= (bit >> i);
 672:Core/Src/GEVA.c ****                 bit = 0;
 673:Core/Src/GEVA.c ****             }
 674:Core/Src/GEVA.c ****         }
 675:Core/Src/GEVA.c ****         break;
 676:Core/Src/GEVA.c ****     
 677:Core/Src/GEVA.c ****     default:
 678:Core/Src/GEVA.c ****         nc_ptr = chr;
 679:Core/Src/GEVA.c ****         break;
 680:Core/Src/GEVA.c ****     }
 681:Core/Src/GEVA.c ****     return nc_ptr;
 682:Core/Src/GEVA.c **** }
 683:Core/Src/GEVA.c **** 
 684:Core/Src/GEVA.c **** uint16_t reverse_byte(uint16_t b) {
 1074              		.loc 1 684 35 is_stmt 1 view -0
 1075              		.cfi_startproc
 1076              		@ args = 0, pretend = 0, frame = 0
 1077              		@ frame_needed = 0, uses_anonymous_args = 0
 1078              		@ link register save eliminated.
 685:Core/Src/GEVA.c **** 
 686:Core/Src/GEVA.c ****     b = ((b >> 1) & 0x5555) | ((b & 0x5555) << 1);
 1079              		.loc 1 686 5 view .LVU337
 1080              		.loc 1 686 45 is_stmt 0 view .LVU338
 1081 0000 114A     		ldr	r2, .L61
ARM GAS  C:\Users\arist\AppData\Local\Temp\ccSK2xlW.s 			page 35


 1082 0002 02EA4002 		and	r2, r2, r0, lsl #1
 1083 0006 12B2     		sxth	r2, r2
 1084              		.loc 1 686 7 view .LVU339
 1085 0008 45F25553 		movw	r3, #21845
 1086 000c 03EA5000 		and	r0, r3, r0, lsr #1
 1087              	.LVL84:
 1088              		.loc 1 686 7 view .LVU340
 1089 0010 1043     		orrs	r0, r0, r2
 1090 0012 83B2     		uxth	r3, r0
 1091              	.LVL85:
 687:Core/Src/GEVA.c ****     b = ((b >> 2) & 0x3333) | ((b & 0x3333) << 2);
 1092              		.loc 1 687 5 is_stmt 1 view .LVU341
 1093              		.loc 1 687 45 is_stmt 0 view .LVU342
 1094 0014 0D4A     		ldr	r2, .L61+4
 1095 0016 02EA8302 		and	r2, r2, r3, lsl #2
 1096 001a 12B2     		sxth	r2, r2
 1097              		.loc 1 687 7 view .LVU343
 1098 001c 43F23333 		movw	r3, #13107
 1099              	.LVL86:
 1100              		.loc 1 687 7 view .LVU344
 1101 0020 03EA9003 		and	r3, r3, r0, lsr #2
 1102 0024 1343     		orrs	r3, r3, r2
 1103 0026 99B2     		uxth	r1, r3
 1104              	.LVL87:
 688:Core/Src/GEVA.c ****     b = ((b >> 4) & 0x0f0f) | ((b & 0x0f0f) << 4);
 1105              		.loc 1 688 5 is_stmt 1 view .LVU345
 1106              		.loc 1 688 45 is_stmt 0 view .LVU346
 1107 0028 094A     		ldr	r2, .L61+8
 1108 002a 02EA0112 		and	r2, r2, r1, lsl #4
 1109 002e 12B2     		sxth	r2, r2
 1110              		.loc 1 688 7 view .LVU347
 1111 0030 40F60F70 		movw	r0, #3855
 1112 0034 00EA1310 		and	r0, r0, r3, lsr #4
 1113 0038 1043     		orrs	r0, r0, r2
 1114 003a 83B2     		uxth	r3, r0
 1115              	.LVL88:
 689:Core/Src/GEVA.c ****     b = ((b >> 8) & 0x00ff) | ((b & 0x00ff) << 8);
 1116              		.loc 1 689 5 is_stmt 1 view .LVU348
 1117              		.loc 1 689 29 is_stmt 0 view .LVU349
 1118 003c C0F30720 		ubfx	r0, r0, #8, #8
 1119              		.loc 1 689 7 view .LVU350
 1120 0040 40EA0320 		orr	r0, r0, r3, lsl #8
 1121              	.LVL89:
 690:Core/Src/GEVA.c **** 
 691:Core/Src/GEVA.c ****     return b;
 1122              		.loc 1 691 5 is_stmt 1 view .LVU351
 692:Core/Src/GEVA.c **** }
 1123              		.loc 1 692 1 is_stmt 0 view .LVU352
 1124 0044 80B2     		uxth	r0, r0
 1125              		.loc 1 692 1 view .LVU353
 1126 0046 7047     		bx	lr
 1127              	.L62:
 1128              		.align	2
 1129              	.L61:
 1130 0048 AAAAFFFF 		.word	-21846
 1131 004c CCCCFFFF 		.word	-13108
 1132 0050 F0F0FFFF 		.word	-3856
ARM GAS  C:\Users\arist\AppData\Local\Temp\ccSK2xlW.s 			page 36


 1133              		.cfi_endproc
 1134              	.LFE19:
 1136              		.section	.text.rotate_char,"ax",%progbits
 1137              		.align	1
 1138              		.global	rotate_char
 1139              		.syntax unified
 1140              		.thumb
 1141              		.thumb_func
 1143              	rotate_char:
 1144              	.LVL90:
 1145              	.LFB18:
 632:Core/Src/GEVA.c ****     
 1146              		.loc 1 632 57 is_stmt 1 view -0
 1147              		.cfi_startproc
 1148              		@ args = 0, pretend = 0, frame = 0
 1149              		@ frame_needed = 0, uses_anonymous_args = 0
 632:Core/Src/GEVA.c ****     
 1150              		.loc 1 632 57 is_stmt 0 view .LVU355
 1151 0000 F8B5     		push	{r3, r4, r5, r6, r7, lr}
 1152              		.cfi_def_cfa_offset 24
 1153              		.cfi_offset 3, -24
 1154              		.cfi_offset 4, -20
 1155              		.cfi_offset 5, -16
 1156              		.cfi_offset 6, -12
 1157              		.cfi_offset 7, -8
 1158              		.cfi_offset 14, -4
 1159 0002 0646     		mov	r6, r0
 1160 0004 0F46     		mov	r7, r1
 634:Core/Src/GEVA.c ****     
 1161              		.loc 1 634 5 is_stmt 1 view .LVU356
 634:Core/Src/GEVA.c ****     
 1162              		.loc 1 634 37 is_stmt 0 view .LVU357
 1163 0006 374B     		ldr	r3, .L81
 1164 0008 1C78     		ldrb	r4, [r3]	@ zero_extendqisi2
 1165 000a 2046     		mov	r0, r4
 1166              	.LVL91:
 634:Core/Src/GEVA.c ****     
 1167              		.loc 1 634 37 view .LVU358
 1168 000c FFF7FEFF 		bl	malloc
 1169              	.LVL92:
 634:Core/Src/GEVA.c ****     
 1170              		.loc 1 634 37 view .LVU359
 1171 0010 0546     		mov	r5, r0
 1172              	.LVL93:
 636:Core/Src/GEVA.c ****             new_chr[i]=0;
 1173              		.loc 1 636 5 is_stmt 1 view .LVU360
 1174              	.LBB14:
 636:Core/Src/GEVA.c ****             new_chr[i]=0;
 1175              		.loc 1 636 10 view .LVU361
 636:Core/Src/GEVA.c ****             new_chr[i]=0;
 1176              		.loc 1 636 18 is_stmt 0 view .LVU362
 1177 0012 0023     		movs	r3, #0
 636:Core/Src/GEVA.c ****             new_chr[i]=0;
 1178              		.loc 1 636 5 view .LVU363
 1179 0014 04E0     		b	.L64
 1180              	.LVL94:
 1181              	.L65:
ARM GAS  C:\Users\arist\AppData\Local\Temp\ccSK2xlW.s 			page 37


 637:Core/Src/GEVA.c ****             
 1182              		.loc 1 637 13 is_stmt 1 discriminator 3 view .LVU364
 637:Core/Src/GEVA.c ****             
 1183              		.loc 1 637 23 is_stmt 0 discriminator 3 view .LVU365
 1184 0016 0022     		movs	r2, #0
 1185 0018 25F81320 		strh	r2, [r5, r3, lsl #1]	@ movhi
 636:Core/Src/GEVA.c ****             new_chr[i]=0;
 1186              		.loc 1 636 43 is_stmt 1 discriminator 3 view .LVU366
 1187 001c 0133     		adds	r3, r3, #1
 1188              	.LVL95:
 636:Core/Src/GEVA.c ****             new_chr[i]=0;
 1189              		.loc 1 636 43 is_stmt 0 discriminator 3 view .LVU367
 1190 001e DBB2     		uxtb	r3, r3
 1191              	.LVL96:
 1192              	.L64:
 636:Core/Src/GEVA.c ****             new_chr[i]=0;
 1193              		.loc 1 636 27 is_stmt 1 discriminator 1 view .LVU368
 1194 0020 9C42     		cmp	r4, r3
 1195 0022 F8D8     		bhi	.L65
 1196              	.LBE14:
 639:Core/Src/GEVA.c ****     uint16_t bit = 0;
 1197              		.loc 1 639 5 view .LVU369
 1198              	.LVL97:
 640:Core/Src/GEVA.c ****     
 1199              		.loc 1 640 5 view .LVU370
 642:Core/Src/GEVA.c ****    
 1200              		.loc 1 642 5 view .LVU371
 642:Core/Src/GEVA.c ****    
 1201              		.loc 1 642 16 is_stmt 0 view .LVU372
 1202 0024 7B7B     		ldrb	r3, [r7, #13]	@ zero_extendqisi2
 1203              	.LVL98:
 642:Core/Src/GEVA.c ****    
 1204              		.loc 1 642 5 view .LVU373
 1205 0026 022B     		cmp	r3, #2
 1206 0028 3CD0     		beq	.L75
 1207 002a 032B     		cmp	r3, #3
 1208 002c 57D0     		beq	.L76
 1209 002e 012B     		cmp	r3, #1
 1210 0030 15D0     		beq	.L77
 1211 0032 3546     		mov	r5, r6
 1212              	.LVL99:
 1213              	.L63:
 682:Core/Src/GEVA.c **** 
 1214              		.loc 1 682 1 view .LVU374
 1215 0034 2846     		mov	r0, r5
 1216 0036 F8BD     		pop	{r3, r4, r5, r6, r7, pc}
 1217              	.LVL100:
 1218              	.L70:
 1219              	.LBB15:
 651:Core/Src/GEVA.c ****         }
 1220              		.loc 1 651 13 is_stmt 1 discriminator 3 view .LVU375
 651:Core/Src/GEVA.c ****         }
 1221              		.loc 1 651 55 is_stmt 0 discriminator 3 view .LVU376
 1222 0038 631E     		subs	r3, r4, #1
 651:Core/Src/GEVA.c ****         }
 1223              		.loc 1 651 59 discriminator 3 view .LVU377
 1224 003a DB1B     		subs	r3, r3, r7
ARM GAS  C:\Users\arist\AppData\Local\Temp\ccSK2xlW.s 			page 38


 651:Core/Src/GEVA.c ****         }
 1225              		.loc 1 651 42 discriminator 3 view .LVU378
 1226 003c 36F81300 		ldrh	r0, [r6, r3, lsl #1]
 651:Core/Src/GEVA.c ****         }
 1227              		.loc 1 651 70 discriminator 3 view .LVU379
 1228 0040 294B     		ldr	r3, .L81+4
 1229 0042 1B78     		ldrb	r3, [r3]	@ zero_extendqisi2
 1230 0044 C3F11003 		rsb	r3, r3, #16
 651:Core/Src/GEVA.c ****         }
 1231              		.loc 1 651 64 discriminator 3 view .LVU380
 1232 0048 1841     		asrs	r0, r0, r3
 651:Core/Src/GEVA.c ****         }
 1233              		.loc 1 651 26 discriminator 3 view .LVU381
 1234 004a 80B2     		uxth	r0, r0
 1235 004c FFF7FEFF 		bl	reverse_byte
 1236              	.LVL101:
 651:Core/Src/GEVA.c ****         }
 1237              		.loc 1 651 24 discriminator 3 view .LVU382
 1238 0050 25F81700 		strh	r0, [r5, r7, lsl #1]	@ movhi
 650:Core/Src/GEVA.c ****             new_chr[i] = reverse_byte(chr[font_height - 1 - i] >> 16 - font_width) ;
 1239              		.loc 1 650 47 is_stmt 1 discriminator 3 view .LVU383
 1240 0054 0137     		adds	r7, r7, #1
 1241              	.LVL102:
 650:Core/Src/GEVA.c ****             new_chr[i] = reverse_byte(chr[font_height - 1 - i] >> 16 - font_width) ;
 1242              		.loc 1 650 47 is_stmt 0 discriminator 3 view .LVU384
 1243 0056 FFB2     		uxtb	r7, r7
 1244              	.LVL103:
 1245              	.L68:
 650:Core/Src/GEVA.c ****             new_chr[i] = reverse_byte(chr[font_height - 1 - i] >> 16 - font_width) ;
 1246              		.loc 1 650 31 is_stmt 1 discriminator 1 view .LVU385
 1247 0058 BC42     		cmp	r4, r7
 1248 005a EDD8     		bhi	.L70
 1249 005c EAE7     		b	.L63
 1250              	.LVL104:
 1251              	.L77:
 650:Core/Src/GEVA.c ****             new_chr[i] = reverse_byte(chr[font_height - 1 - i] >> 16 - font_width) ;
 1252              		.loc 1 650 31 is_stmt 0 discriminator 1 view .LVU386
 1253              	.LBE15:
 642:Core/Src/GEVA.c ****    
 1254              		.loc 1 642 5 view .LVU387
 1255 005e 0027     		movs	r7, #0
 1256              	.LVL105:
 642:Core/Src/GEVA.c ****    
 1257              		.loc 1 642 5 view .LVU388
 1258 0060 FAE7     		b	.L68
 1259              	.LVL106:
 1260              	.L71:
 1261              	.LBB16:
 1262              	.LBB17:
 659:Core/Src/GEVA.c ****                 new_chr[font_height - 1  - j] |= bit >> (font_height - i);    
 1263              		.loc 1 659 17 is_stmt 1 discriminator 3 view .LVU389
 659:Core/Src/GEVA.c ****                 new_chr[font_height - 1  - j] |= bit >> (font_height - i);    
 1264              		.loc 1 659 40 is_stmt 0 discriminator 3 view .LVU390
 1265 0062 611E     		subs	r1, r4, #1
 659:Core/Src/GEVA.c ****                 new_chr[font_height - 1  - j] |= bit >> (font_height - i);    
 1266              		.loc 1 659 44 discriminator 3 view .LVU391
 1267 0064 A1EB0C03 		sub	r3, r1, ip
ARM GAS  C:\Users\arist\AppData\Local\Temp\ccSK2xlW.s 			page 39


 659:Core/Src/GEVA.c ****                 new_chr[font_height - 1  - j] |= bit >> (font_height - i);    
 1268              		.loc 1 659 27 discriminator 3 view .LVU392
 1269 0068 36F81330 		ldrh	r3, [r6, r3, lsl #1]
 659:Core/Src/GEVA.c ****                 new_chr[font_height - 1  - j] |= bit >> (font_height - i);    
 1270              		.loc 1 659 59 discriminator 3 view .LVU393
 1271 006c 4FF40040 		mov	r0, #32768
 1272 0070 1041     		asrs	r0, r0, r2
 659:Core/Src/GEVA.c ****                 new_chr[font_height - 1  - j] |= bit >> (font_height - i);    
 1273              		.loc 1 659 49 discriminator 3 view .LVU394
 1274 0072 0340     		ands	r3, r3, r0
 659:Core/Src/GEVA.c ****                 new_chr[font_height - 1  - j] |= bit >> (font_height - i);    
 1275              		.loc 1 659 66 discriminator 3 view .LVU395
 1276 0074 9340     		lsls	r3, r3, r2
 1277              	.LVL107:
 660:Core/Src/GEVA.c ****                 bit = 0;
 1278              		.loc 1 660 17 is_stmt 1 discriminator 3 view .LVU396
 660:Core/Src/GEVA.c ****                 bit = 0;
 1279              		.loc 1 660 24 is_stmt 0 discriminator 3 view .LVU397
 1280 0076 891A     		subs	r1, r1, r2
 1281 0078 35F81100 		ldrh	r0, [r5, r1, lsl #1]
 660:Core/Src/GEVA.c ****                 bit = 0;
 1282              		.loc 1 660 70 discriminator 3 view .LVU398
 1283 007c A4EB0C0E 		sub	lr, r4, ip
 660:Core/Src/GEVA.c ****                 bit = 0;
 1284              		.loc 1 660 54 discriminator 3 view .LVU399
 1285 0080 9BB2     		uxth	r3, r3
 660:Core/Src/GEVA.c ****                 bit = 0;
 1286              		.loc 1 660 54 discriminator 3 view .LVU400
 1287 0082 43FA0EF3 		asr	r3, r3, lr
 1288              	.LVL108:
 660:Core/Src/GEVA.c ****                 bit = 0;
 1289              		.loc 1 660 47 discriminator 3 view .LVU401
 1290 0086 0343     		orrs	r3, r3, r0
 1291 0088 25F81130 		strh	r3, [r5, r1, lsl #1]	@ movhi
 1292              	.LVL109:
 661:Core/Src/GEVA.c ****             }
 1293              		.loc 1 661 17 is_stmt 1 discriminator 3 view .LVU402
 658:Core/Src/GEVA.c ****                 bit = (chr[font_height - 1 - i] & (0x8000 >> j)) << j;
 1294              		.loc 1 658 51 discriminator 3 view .LVU403
 1295 008c 0132     		adds	r2, r2, #1
 1296              	.LVL110:
 658:Core/Src/GEVA.c ****                 bit = (chr[font_height - 1 - i] & (0x8000 >> j)) << j;
 1297              		.loc 1 658 51 is_stmt 0 discriminator 3 view .LVU404
 1298 008e D2B2     		uxtb	r2, r2
 1299              	.LVL111:
 1300              	.L72:
 658:Core/Src/GEVA.c ****                 bit = (chr[font_height - 1 - i] & (0x8000 >> j)) << j;
 1301              		.loc 1 658 35 is_stmt 1 discriminator 1 view .LVU405
 1302 0090 9442     		cmp	r4, r2
 1303 0092 E6D8     		bhi	.L71
 1304              	.LBE17:
 657:Core/Src/GEVA.c ****             for (uint8_t j = 0; j < font_height; j++) {
 1305              		.loc 1 657 47 discriminator 2 view .LVU406
 1306 0094 0CF1010C 		add	ip, ip, #1
 1307              	.LVL112:
 657:Core/Src/GEVA.c ****             for (uint8_t j = 0; j < font_height; j++) {
 1308              		.loc 1 657 47 is_stmt 0 discriminator 2 view .LVU407
ARM GAS  C:\Users\arist\AppData\Local\Temp\ccSK2xlW.s 			page 40


 1309 0098 5FFA8CFC 		uxtb	ip, ip
 1310              	.LVL113:
 1311              	.L66:
 657:Core/Src/GEVA.c ****             for (uint8_t j = 0; j < font_height; j++) {
 1312              		.loc 1 657 31 is_stmt 1 discriminator 1 view .LVU408
 1313 009c 6445     		cmp	r4, ip
 1314 009e C9D9     		bls	.L63
 1315              	.LBB18:
 658:Core/Src/GEVA.c ****                 bit = (chr[font_height - 1 - i] & (0x8000 >> j)) << j;
 1316              		.loc 1 658 26 is_stmt 0 view .LVU409
 1317 00a0 0022     		movs	r2, #0
 1318 00a2 F5E7     		b	.L72
 1319              	.LVL114:
 1320              	.L75:
 658:Core/Src/GEVA.c ****                 bit = (chr[font_height - 1 - i] & (0x8000 >> j)) << j;
 1321              		.loc 1 658 26 view .LVU410
 1322              	.LBE18:
 1323              	.LBE16:
 642:Core/Src/GEVA.c ****    
 1324              		.loc 1 642 5 view .LVU411
 1325 00a4 4FF0000C 		mov	ip, #0
 1326 00a8 F8E7     		b	.L66
 1327              	.LVL115:
 1328              	.L73:
 1329              	.LBB19:
 1330              	.LBB20:
 670:Core/Src/GEVA.c ****                 new_chr[j] |= (bit >> i);
 1331              		.loc 1 670 17 is_stmt 1 discriminator 3 view .LVU412
 670:Core/Src/GEVA.c ****                 new_chr[j] |= (bit >> i);
 1332              		.loc 1 670 40 is_stmt 0 discriminator 3 view .LVU413
 1333 00aa 631E     		subs	r3, r4, #1
 670:Core/Src/GEVA.c ****                 new_chr[j] |= (bit >> i);
 1334              		.loc 1 670 44 discriminator 3 view .LVU414
 1335 00ac 1B1A     		subs	r3, r3, r0
 670:Core/Src/GEVA.c ****                 new_chr[j] |= (bit >> i);
 1336              		.loc 1 670 27 discriminator 3 view .LVU415
 1337 00ae 36F81330 		ldrh	r3, [r6, r3, lsl #1]
 670:Core/Src/GEVA.c ****                 new_chr[j] |= (bit >> i);
 1338              		.loc 1 670 59 discriminator 3 view .LVU416
 1339 00b2 4FF40041 		mov	r1, #32768
 1340 00b6 1141     		asrs	r1, r1, r2
 670:Core/Src/GEVA.c ****                 new_chr[j] |= (bit >> i);
 1341              		.loc 1 670 49 discriminator 3 view .LVU417
 1342 00b8 0B40     		ands	r3, r3, r1
 670:Core/Src/GEVA.c ****                 new_chr[j] |= (bit >> i);
 1343              		.loc 1 670 66 discriminator 3 view .LVU418
 1344 00ba 9340     		lsls	r3, r3, r2
 1345              	.LVL116:
 671:Core/Src/GEVA.c ****                 bit = 0;
 1346              		.loc 1 671 17 is_stmt 1 discriminator 3 view .LVU419
 671:Core/Src/GEVA.c ****                 bit = 0;
 1347              		.loc 1 671 24 is_stmt 0 discriminator 3 view .LVU420
 1348 00bc 35F81210 		ldrh	r1, [r5, r2, lsl #1]
 671:Core/Src/GEVA.c ****                 bit = 0;
 1349              		.loc 1 671 36 discriminator 3 view .LVU421
 1350 00c0 9BB2     		uxth	r3, r3
 671:Core/Src/GEVA.c ****                 bit = 0;
ARM GAS  C:\Users\arist\AppData\Local\Temp\ccSK2xlW.s 			page 41


 1351              		.loc 1 671 36 discriminator 3 view .LVU422
 1352 00c2 0341     		asrs	r3, r3, r0
 1353              	.LVL117:
 671:Core/Src/GEVA.c ****                 bit = 0;
 1354              		.loc 1 671 28 discriminator 3 view .LVU423
 1355 00c4 0B43     		orrs	r3, r3, r1
 1356 00c6 25F81230 		strh	r3, [r5, r2, lsl #1]	@ movhi
 1357              	.LVL118:
 672:Core/Src/GEVA.c ****             }
 1358              		.loc 1 672 17 is_stmt 1 discriminator 3 view .LVU424
 669:Core/Src/GEVA.c ****                 bit = (chr[font_height - 1 - i] & (0x8000 >> j)) << j;
 1359              		.loc 1 669 51 discriminator 3 view .LVU425
 1360 00ca 0132     		adds	r2, r2, #1
 1361              	.LVL119:
 669:Core/Src/GEVA.c ****                 bit = (chr[font_height - 1 - i] & (0x8000 >> j)) << j;
 1362              		.loc 1 669 51 is_stmt 0 discriminator 3 view .LVU426
 1363 00cc D2B2     		uxtb	r2, r2
 1364              	.LVL120:
 1365              	.L74:
 669:Core/Src/GEVA.c ****                 bit = (chr[font_height - 1 - i] & (0x8000 >> j)) << j;
 1366              		.loc 1 669 35 is_stmt 1 discriminator 1 view .LVU427
 1367 00ce 9442     		cmp	r4, r2
 1368 00d0 EBD8     		bhi	.L73
 1369              	.LBE20:
 668:Core/Src/GEVA.c ****             for (uint8_t j = 0; j < font_height; j++) {
 1370              		.loc 1 668 47 discriminator 2 view .LVU428
 1371 00d2 0130     		adds	r0, r0, #1
 1372              	.LVL121:
 668:Core/Src/GEVA.c ****             for (uint8_t j = 0; j < font_height; j++) {
 1373              		.loc 1 668 47 is_stmt 0 discriminator 2 view .LVU429
 1374 00d4 C0B2     		uxtb	r0, r0
 1375              	.LVL122:
 1376              	.L67:
 668:Core/Src/GEVA.c ****             for (uint8_t j = 0; j < font_height; j++) {
 1377              		.loc 1 668 31 is_stmt 1 discriminator 1 view .LVU430
 1378 00d6 8442     		cmp	r4, r0
 1379 00d8 ACD9     		bls	.L63
 1380              	.LBB21:
 669:Core/Src/GEVA.c ****                 bit = (chr[font_height - 1 - i] & (0x8000 >> j)) << j;
 1381              		.loc 1 669 26 is_stmt 0 view .LVU431
 1382 00da 0022     		movs	r2, #0
 1383 00dc F7E7     		b	.L74
 1384              	.LVL123:
 1385              	.L76:
 669:Core/Src/GEVA.c ****                 bit = (chr[font_height - 1 - i] & (0x8000 >> j)) << j;
 1386              		.loc 1 669 26 view .LVU432
 1387              	.LBE21:
 1388              	.LBE19:
 642:Core/Src/GEVA.c ****    
 1389              		.loc 1 642 5 view .LVU433
 1390 00de 0020     		movs	r0, #0
 1391              	.LVL124:
 642:Core/Src/GEVA.c ****    
 1392              		.loc 1 642 5 view .LVU434
 1393 00e0 F9E7     		b	.L67
 1394              	.L82:
 1395 00e2 00BF     		.align	2
ARM GAS  C:\Users\arist\AppData\Local\Temp\ccSK2xlW.s 			page 42


 1396              	.L81:
 1397 00e4 00000000 		.word	font_height
 1398 00e8 00000000 		.word	font_width
 1399              		.cfi_endproc
 1400              	.LFE18:
 1402              		.section	.text.put_char,"ax",%progbits
 1403              		.align	1
 1404              		.global	put_char
 1405              		.syntax unified
 1406              		.thumb
 1407              		.thumb_func
 1409              	put_char:
 1410              	.LVL125:
 1411              	.LFB7:
 351:Core/Src/GEVA.c ****     
 1412              		.loc 1 351 100 is_stmt 1 view -0
 1413              		.cfi_startproc
 1414              		@ args = 4, pretend = 0, frame = 0
 1415              		@ frame_needed = 0, uses_anonymous_args = 0
 351:Core/Src/GEVA.c ****     
 1416              		.loc 1 351 100 is_stmt 0 view .LVU436
 1417 0000 2DE9F041 		push	{r4, r5, r6, r7, r8, lr}
 1418              		.cfi_def_cfa_offset 24
 1419              		.cfi_offset 4, -24
 1420              		.cfi_offset 5, -20
 1421              		.cfi_offset 6, -16
 1422              		.cfi_offset 7, -12
 1423              		.cfi_offset 8, -8
 1424              		.cfi_offset 14, -4
 1425 0004 069C     		ldr	r4, [sp, #24]
 353:Core/Src/GEVA.c ****     uint8_t* n_pos; 
 1426              		.loc 1 353 5 is_stmt 1 view .LVU437
 1427              	.LVL126:
 354:Core/Src/GEVA.c ****     uint16_t* c;
 1428              		.loc 1 354 5 view .LVU438
 355:Core/Src/GEVA.c ****     
 1429              		.loc 1 355 5 view .LVU439
 357:Core/Src/GEVA.c ****         case SMALL:
 1430              		.loc 1 357 5 view .LVU440
 1431 0006 012B     		cmp	r3, #1
 1432 0008 20D0     		beq	.L84
 1433 000a 022B     		cmp	r3, #2
 1434 000c 17D0     		beq	.L85
 1435 000e 5BB1     		cbz	r3, .L103
 373:Core/Src/GEVA.c ****             font_width = C_WIDTH_S;
 1436              		.loc 1 373 13 view .LVU441
 373:Core/Src/GEVA.c ****             font_width = C_WIDTH_S;
 1437              		.loc 1 373 25 is_stmt 0 view .LVU442
 1438 0010 654B     		ldr	r3, .L106
 1439              	.LVL127:
 373:Core/Src/GEVA.c ****             font_width = C_WIDTH_S;
 1440              		.loc 1 373 25 view .LVU443
 1441 0012 0725     		movs	r5, #7
 1442 0014 1D70     		strb	r5, [r3]
 374:Core/Src/GEVA.c ****             c = font_s[chr];
 1443              		.loc 1 374 13 is_stmt 1 view .LVU444
 374:Core/Src/GEVA.c ****             c = font_s[chr];
ARM GAS  C:\Users\arist\AppData\Local\Temp\ccSK2xlW.s 			page 43


 1444              		.loc 1 374 24 is_stmt 0 view .LVU445
 1445 0016 654B     		ldr	r3, .L106+4
 1446 0018 0525     		movs	r5, #5
 1447 001a 1D70     		strb	r5, [r3]
 375:Core/Src/GEVA.c ****         break;
 1448              		.loc 1 375 13 is_stmt 1 view .LVU446
 375:Core/Src/GEVA.c ****         break;
 1449              		.loc 1 375 15 is_stmt 0 view .LVU447
 1450 001c C2EBC202 		rsb	r2, r2, r2, lsl #3
 1451              	.LVL128:
 375:Core/Src/GEVA.c ****         break;
 1452              		.loc 1 375 15 view .LVU448
 1453 0020 634E     		ldr	r6, .L106+8
 1454 0022 06EB4206 		add	r6, r6, r2, lsl #1
 1455              	.LVL129:
 376:Core/Src/GEVA.c ****     }
 1456              		.loc 1 376 9 is_stmt 1 view .LVU449
 1457 0026 0AE0     		b	.L85
 1458              	.LVL130:
 1459              	.L103:
 359:Core/Src/GEVA.c ****             font_width = C_WIDTH_S;
 1460              		.loc 1 359 13 view .LVU450
 359:Core/Src/GEVA.c ****             font_width = C_WIDTH_S;
 1461              		.loc 1 359 25 is_stmt 0 view .LVU451
 1462 0028 5F4B     		ldr	r3, .L106
 1463              	.LVL131:
 359:Core/Src/GEVA.c ****             font_width = C_WIDTH_S;
 1464              		.loc 1 359 25 view .LVU452
 1465 002a 0725     		movs	r5, #7
 1466 002c 1D70     		strb	r5, [r3]
 360:Core/Src/GEVA.c ****             c = font_s[chr];
 1467              		.loc 1 360 13 is_stmt 1 view .LVU453
 360:Core/Src/GEVA.c ****             c = font_s[chr];
 1468              		.loc 1 360 24 is_stmt 0 view .LVU454
 1469 002e 5F4B     		ldr	r3, .L106+4
 1470 0030 0525     		movs	r5, #5
 1471 0032 1D70     		strb	r5, [r3]
 361:Core/Src/GEVA.c ****         break;
 1472              		.loc 1 361 13 is_stmt 1 view .LVU455
 361:Core/Src/GEVA.c ****         break;
 1473              		.loc 1 361 15 is_stmt 0 view .LVU456
 1474 0034 C2EBC202 		rsb	r2, r2, r2, lsl #3
 1475              	.LVL132:
 361:Core/Src/GEVA.c ****         break;
 1476              		.loc 1 361 15 view .LVU457
 1477 0038 5D4E     		ldr	r6, .L106+8
 1478 003a 06EB4206 		add	r6, r6, r2, lsl #1
 1479              	.LVL133:
 362:Core/Src/GEVA.c ****         case MEDIUM:
 1480              		.loc 1 362 9 is_stmt 1 view .LVU458
 1481              	.L85:
 379:Core/Src/GEVA.c ****         case LANDSCAPE:
 1482              		.loc 1 379 5 view .LVU459
 379:Core/Src/GEVA.c ****         case LANDSCAPE:
 1483              		.loc 1 379 16 is_stmt 0 view .LVU460
 1484 003e 637B     		ldrb	r3, [r4, #13]	@ zero_extendqisi2
 379:Core/Src/GEVA.c ****         case LANDSCAPE:
ARM GAS  C:\Users\arist\AppData\Local\Temp\ccSK2xlW.s 			page 44


 1485              		.loc 1 379 5 view .LVU461
 1486 0040 032B     		cmp	r3, #3
 1487 0042 4FD8     		bhi	.L87
 1488 0044 DFE803F0 		tbb	[pc, r3]
 1489              	.L89:
 1490 0048 0E       		.byte	(.L92-.L89)/2
 1491 0049 29       		.byte	(.L91-.L89)/2
 1492 004a 3A       		.byte	(.L90-.L89)/2
 1493 004b 43       		.byte	(.L88-.L89)/2
 1494              	.LVL134:
 1495              		.p2align 1
 1496              	.L84:
 364:Core/Src/GEVA.c ****             font_width = C_WIDTH_M;
 1497              		.loc 1 364 13 is_stmt 1 view .LVU462
 364:Core/Src/GEVA.c ****             font_width = C_WIDTH_M;
 1498              		.loc 1 364 25 is_stmt 0 view .LVU463
 1499 004c 564B     		ldr	r3, .L106
 1500              	.LVL135:
 364:Core/Src/GEVA.c ****             font_width = C_WIDTH_M;
 1501              		.loc 1 364 25 view .LVU464
 1502 004e 0E25     		movs	r5, #14
 1503 0050 1D70     		strb	r5, [r3]
 365:Core/Src/GEVA.c ****             c = font_m[chr];
 1504              		.loc 1 365 13 is_stmt 1 view .LVU465
 365:Core/Src/GEVA.c ****             c = font_m[chr];
 1505              		.loc 1 365 24 is_stmt 0 view .LVU466
 1506 0052 564B     		ldr	r3, .L106+4
 1507 0054 0A25     		movs	r5, #10
 1508 0056 1D70     		strb	r5, [r3]
 366:Core/Src/GEVA.c ****         break; 
 1509              		.loc 1 366 13 is_stmt 1 view .LVU467
 366:Core/Src/GEVA.c ****         break; 
 1510              		.loc 1 366 15 is_stmt 0 view .LVU468
 1511 0058 C2EBC202 		rsb	r2, r2, r2, lsl #3
 1512              	.LVL136:
 366:Core/Src/GEVA.c ****         break; 
 1513              		.loc 1 366 15 view .LVU469
 1514 005c 554E     		ldr	r6, .L106+12
 1515 005e 06EB8206 		add	r6, r6, r2, lsl #2
 1516              	.LVL137:
 367:Core/Src/GEVA.c ****         
 1517              		.loc 1 367 9 is_stmt 1 view .LVU470
 1518 0062 ECE7     		b	.L85
 1519              	.L92:
 381:Core/Src/GEVA.c ****            break;
 1520              		.loc 1 381 13 view .LVU471
 381:Core/Src/GEVA.c ****            break;
 1521              		.loc 1 381 21 is_stmt 0 view .LVU472
 1522 0064 2246     		mov	r2, r4
 1523 0066 FFF7FEFF 		bl	normalize_pos
 1524              	.LVL138:
 381:Core/Src/GEVA.c ****            break;
 1525              		.loc 1 381 21 view .LVU473
 1526 006a 0546     		mov	r5, r0
 1527              	.LVL139:
 382:Core/Src/GEVA.c **** 
 1528              		.loc 1 382 12 is_stmt 1 view .LVU474
ARM GAS  C:\Users\arist\AppData\Local\Temp\ccSK2xlW.s 			page 45


 1529              	.L93:
 401:Core/Src/GEVA.c ****         error = 4;
 1530              		.loc 1 401 5 view .LVU475
 401:Core/Src/GEVA.c ****         error = 4;
 1531              		.loc 1 401 14 is_stmt 0 view .LVU476
 1532 006c 2A78     		ldrb	r2, [r5]	@ zero_extendqisi2
 401:Core/Src/GEVA.c ****         error = 4;
 1533              		.loc 1 401 24 view .LVU477
 1534 006e 2378     		ldrb	r3, [r4]	@ zero_extendqisi2
 401:Core/Src/GEVA.c ****         error = 4;
 1535              		.loc 1 401 8 view .LVU478
 1536 0070 9A42     		cmp	r2, r3
 1537 0072 80F08E80 		bcs	.L98
 401:Core/Src/GEVA.c ****         error = 4;
 1538              		.loc 1 401 57 discriminator 1 view .LVU479
 1539 0076 6878     		ldrb	r0, [r5, #1]	@ zero_extendqisi2
 1540              	.LVL140:
 401:Core/Src/GEVA.c ****         error = 4;
 1541              		.loc 1 401 67 discriminator 1 view .LVU480
 1542 0078 6178     		ldrb	r1, [r4, #1]	@ zero_extendqisi2
 401:Core/Src/GEVA.c ****         error = 4;
 1543              		.loc 1 401 76 discriminator 1 view .LVU481
 1544 007a 8842     		cmp	r0, r1
 1545 007c 80F09080 		bcs	.L99
 403:Core/Src/GEVA.c ****         error = 2;
 1546              		.loc 1 403 10 is_stmt 1 view .LVU482
 403:Core/Src/GEVA.c ****         error = 2;
 1547              		.loc 1 403 23 is_stmt 0 view .LVU483
 1548 0080 494F     		ldr	r7, .L106
 1549 0082 3F78     		ldrb	r7, [r7]	@ zero_extendqisi2
 1550 0084 3844     		add	r0, r0, r7
 403:Core/Src/GEVA.c ****         error = 2;
 1551              		.loc 1 403 13 view .LVU484
 1552 0086 8842     		cmp	r0, r1
 1553 0088 00F38C80 		bgt	.L100
 403:Core/Src/GEVA.c ****         error = 2;
 1554              		.loc 1 403 63 discriminator 1 view .LVU485
 1555 008c 4749     		ldr	r1, .L106+4
 1556 008e 0978     		ldrb	r1, [r1]	@ zero_extendqisi2
 1557 0090 0A44     		add	r2, r2, r1
 403:Core/Src/GEVA.c ****         error = 2;
 1558              		.loc 1 403 51 discriminator 1 view .LVU486
 1559 0092 9A42     		cmp	r2, r3
 1560 0094 2BDD     		ble	.L104
 404:Core/Src/GEVA.c ****     else {
 1561              		.loc 1 404 15 view .LVU487
 1562 0096 0224     		movs	r4, #2
 1563 0098 7CE0     		b	.L94
 1564              	.LVL141:
 1565              	.L91:
 385:Core/Src/GEVA.c ****                break;
 1566              		.loc 1 385 13 is_stmt 1 view .LVU488
 385:Core/Src/GEVA.c ****                break;
 1567              		.loc 1 385 41 is_stmt 0 view .LVU489
 1568 009a 444B     		ldr	r3, .L106+4
 1569 009c 1B78     		ldrb	r3, [r3]	@ zero_extendqisi2
 1570 009e 1844     		add	r0, r0, r3
ARM GAS  C:\Users\arist\AppData\Local\Temp\ccSK2xlW.s 			page 46


 1571              	.LVL142:
 385:Core/Src/GEVA.c ****                break;
 1572              		.loc 1 385 41 view .LVU490
 1573 00a0 C0B2     		uxtb	r0, r0
 385:Core/Src/GEVA.c ****                break;
 1574              		.loc 1 385 65 view .LVU491
 1575 00a2 414B     		ldr	r3, .L106
 1576 00a4 1B78     		ldrb	r3, [r3]	@ zero_extendqisi2
 1577 00a6 1944     		add	r1, r1, r3
 1578              	.LVL143:
 385:Core/Src/GEVA.c ****                break;
 1579              		.loc 1 385 65 view .LVU492
 1580 00a8 C9B2     		uxtb	r1, r1
 385:Core/Src/GEVA.c ****                break;
 1581              		.loc 1 385 21 view .LVU493
 1582 00aa 0139     		subs	r1, r1, #1
 1583 00ac 0138     		subs	r0, r0, #1
 1584 00ae 2246     		mov	r2, r4
 1585 00b0 C9B2     		uxtb	r1, r1
 1586 00b2 C0B2     		uxtb	r0, r0
 1587 00b4 FFF7FEFF 		bl	normalize_pos
 1588              	.LVL144:
 1589 00b8 0546     		mov	r5, r0
 1590              	.LVL145:
 386:Core/Src/GEVA.c **** 
 1591              		.loc 1 386 16 is_stmt 1 view .LVU494
 1592 00ba D7E7     		b	.L93
 1593              	.LVL146:
 1594              	.L90:
 389:Core/Src/GEVA.c ****             break;
 1595              		.loc 1 389 13 view .LVU495
 389:Core/Src/GEVA.c ****             break;
 1596              		.loc 1 389 21 is_stmt 0 view .LVU496
 1597 00bc 3A4B     		ldr	r3, .L106
 1598 00be 1B78     		ldrb	r3, [r3]	@ zero_extendqisi2
 1599 00c0 1944     		add	r1, r1, r3
 1600              	.LVL147:
 389:Core/Src/GEVA.c ****             break;
 1601              		.loc 1 389 21 view .LVU497
 1602 00c2 2246     		mov	r2, r4
 1603 00c4 C9B2     		uxtb	r1, r1
 1604 00c6 FFF7FEFF 		bl	normalize_pos
 1605              	.LVL148:
 389:Core/Src/GEVA.c ****             break;
 1606              		.loc 1 389 21 view .LVU498
 1607 00ca 0546     		mov	r5, r0
 1608              	.LVL149:
 390:Core/Src/GEVA.c **** 
 1609              		.loc 1 390 13 is_stmt 1 view .LVU499
 1610 00cc CEE7     		b	.L93
 1611              	.LVL150:
 1612              	.L88:
 393:Core/Src/GEVA.c ****             break;
 1613              		.loc 1 393 13 view .LVU500
 393:Core/Src/GEVA.c ****             break;
 1614              		.loc 1 393 41 is_stmt 0 view .LVU501
 1615 00ce 364B     		ldr	r3, .L106
ARM GAS  C:\Users\arist\AppData\Local\Temp\ccSK2xlW.s 			page 47


 1616 00d0 1B78     		ldrb	r3, [r3]	@ zero_extendqisi2
 1617 00d2 1844     		add	r0, r0, r3
 1618              	.LVL151:
 393:Core/Src/GEVA.c ****             break;
 1619              		.loc 1 393 41 view .LVU502
 1620 00d4 C0B2     		uxtb	r0, r0
 393:Core/Src/GEVA.c ****             break;
 1621              		.loc 1 393 21 view .LVU503
 1622 00d6 0138     		subs	r0, r0, #1
 1623 00d8 2246     		mov	r2, r4
 1624 00da C0B2     		uxtb	r0, r0
 1625 00dc FFF7FEFF 		bl	normalize_pos
 1626              	.LVL152:
 393:Core/Src/GEVA.c ****             break;
 1627              		.loc 1 393 21 view .LVU504
 1628 00e0 0546     		mov	r5, r0
 1629              	.LVL153:
 394:Core/Src/GEVA.c **** 
 1630              		.loc 1 394 13 is_stmt 1 view .LVU505
 1631 00e2 C3E7     		b	.L93
 1632              	.LVL154:
 1633              	.L87:
 397:Core/Src/GEVA.c ****             break;
 1634              		.loc 1 397 13 view .LVU506
 397:Core/Src/GEVA.c ****             break;
 1635              		.loc 1 397 21 is_stmt 0 view .LVU507
 1636 00e4 2246     		mov	r2, r4
 1637 00e6 FFF7FEFF 		bl	normalize_pos
 1638              	.LVL155:
 397:Core/Src/GEVA.c ****             break;
 1639              		.loc 1 397 21 view .LVU508
 1640 00ea 0546     		mov	r5, r0
 1641              	.LVL156:
 398:Core/Src/GEVA.c ****         }
 1642              		.loc 1 398 13 is_stmt 1 view .LVU509
 1643 00ec BEE7     		b	.L93
 1644              	.LVL157:
 1645              	.L104:
 1646              	.LBB22:
 406:Core/Src/GEVA.c ****             
 1647              		.loc 1 406 9 view .LVU510
 406:Core/Src/GEVA.c ****             
 1648              		.loc 1 406 13 is_stmt 0 view .LVU511
 1649 00ee 2146     		mov	r1, r4
 1650 00f0 3046     		mov	r0, r6
 1651 00f2 FFF7FEFF 		bl	rotate_char
 1652              	.LVL158:
 1653 00f6 0646     		mov	r6, r0
 1654              	.LVL159:
 408:Core/Src/GEVA.c ****         uint16_t buffer_byte_ptr = start_byte_ptr;
 1655              		.loc 1 408 9 is_stmt 1 view .LVU512
 408:Core/Src/GEVA.c ****         uint16_t buffer_byte_ptr = start_byte_ptr;
 1656              		.loc 1 408 35 is_stmt 0 view .LVU513
 1657 00f8 2F78     		ldrb	r7, [r5]	@ zero_extendqisi2
 408:Core/Src/GEVA.c ****         uint16_t buffer_byte_ptr = start_byte_ptr;
 1658              		.loc 1 408 65 view .LVU514
 1659 00fa 6178     		ldrb	r1, [r4, #1]	@ zero_extendqisi2
ARM GAS  C:\Users\arist\AppData\Local\Temp\ccSK2xlW.s 			page 48


 408:Core/Src/GEVA.c ****         uint16_t buffer_byte_ptr = start_byte_ptr;
 1660              		.loc 1 408 85 view .LVU515
 1661 00fc 6B78     		ldrb	r3, [r5, #1]	@ zero_extendqisi2
 408:Core/Src/GEVA.c ****         uint16_t buffer_byte_ptr = start_byte_ptr;
 1662              		.loc 1 408 78 view .LVU516
 1663 00fe C91A     		subs	r1, r1, r3
 1664 0100 C9B2     		uxtb	r1, r1
 408:Core/Src/GEVA.c ****         uint16_t buffer_byte_ptr = start_byte_ptr;
 1665              		.loc 1 408 35 view .LVU517
 1666 0102 0139     		subs	r1, r1, #1
 1667 0104 227A     		ldrb	r2, [r4, #8]	@ zero_extendqisi2
 1668 0106 C9B2     		uxtb	r1, r1
 1669 0108 3846     		mov	r0, r7
 1670              	.LVL160:
 408:Core/Src/GEVA.c ****         uint16_t buffer_byte_ptr = start_byte_ptr;
 1671              		.loc 1 408 35 view .LVU518
 1672 010a FFF7FEFF 		bl	get_buffer_index
 1673              	.LVL161:
 409:Core/Src/GEVA.c ****         uint16_t temp = 0;
 1674              		.loc 1 409 9 is_stmt 1 view .LVU519
 410:Core/Src/GEVA.c ****         uint16_t clr = 0;
 1675              		.loc 1 410 9 view .LVU520
 411:Core/Src/GEVA.c ****         uint8_t shifter_a = n_pos[X] % 8;
 1676              		.loc 1 411 9 view .LVU521
 412:Core/Src/GEVA.c ****     
 1677              		.loc 1 412 9 view .LVU522
 412:Core/Src/GEVA.c ****     
 1678              		.loc 1 412 17 is_stmt 0 view .LVU523
 1679 010e 07F00707 		and	r7, r7, #7
 1680              	.LVL162:
 414:Core/Src/GEVA.c ****             buffer_byte_ptr = start_byte_ptr - (buf->byte_col_cnt * i);
 1681              		.loc 1 414 9 is_stmt 1 view .LVU524
 1682              	.LBB23:
 414:Core/Src/GEVA.c ****             buffer_byte_ptr = start_byte_ptr - (buf->byte_col_cnt * i);
 1683              		.loc 1 414 14 view .LVU525
 414:Core/Src/GEVA.c ****             buffer_byte_ptr = start_byte_ptr - (buf->byte_col_cnt * i);
 1684              		.loc 1 414 22 is_stmt 0 view .LVU526
 1685 0112 0021     		movs	r1, #0
 414:Core/Src/GEVA.c ****             buffer_byte_ptr = start_byte_ptr - (buf->byte_col_cnt * i);
 1686              		.loc 1 414 9 view .LVU527
 1687 0114 01E0     		b	.L95
 1688              	.LVL163:
 1689              	.L96:
 414:Core/Src/GEVA.c ****             buffer_byte_ptr = start_byte_ptr - (buf->byte_col_cnt * i);
 1690              		.loc 1 414 47 is_stmt 1 discriminator 2 view .LVU528
 1691 0116 0131     		adds	r1, r1, #1
 1692              	.LVL164:
 414:Core/Src/GEVA.c ****             buffer_byte_ptr = start_byte_ptr - (buf->byte_col_cnt * i);
 1693              		.loc 1 414 47 is_stmt 0 discriminator 2 view .LVU529
 1694 0118 C9B2     		uxtb	r1, r1
 1695              	.LVL165:
 1696              	.L95:
 414:Core/Src/GEVA.c ****             buffer_byte_ptr = start_byte_ptr - (buf->byte_col_cnt * i);
 1697              		.loc 1 414 31 is_stmt 1 discriminator 1 view .LVU530
 1698 011a 234B     		ldr	r3, .L106
 1699 011c 1A78     		ldrb	r2, [r3]	@ zero_extendqisi2
 1700 011e 8A42     		cmp	r2, r1
ARM GAS  C:\Users\arist\AppData\Local\Temp\ccSK2xlW.s 			page 49


 1701 0120 35D9     		bls	.L105
 415:Core/Src/GEVA.c ****             temp = c[font_height - 1 - i] >> shifter_a;
 1702              		.loc 1 415 13 view .LVU531
 415:Core/Src/GEVA.c ****             temp = c[font_height - 1 - i] >> shifter_a;
 1703              		.loc 1 415 52 is_stmt 0 view .LVU532
 1704 0122 237A     		ldrb	r3, [r4, #8]	@ zero_extendqisi2
 415:Core/Src/GEVA.c ****             temp = c[font_height - 1 - i] >> shifter_a;
 1705              		.loc 1 415 29 view .LVU533
 1706 0124 01FB1303 		mls	r3, r1, r3, r0
 1707 0128 9BB2     		uxth	r3, r3
 1708              	.LVL166:
 416:Core/Src/GEVA.c ****             buf->vid_buf[buffer_byte_ptr] |= (uint8_t)(temp >> 8);
 1709              		.loc 1 416 13 is_stmt 1 view .LVU534
 416:Core/Src/GEVA.c ****             buf->vid_buf[buffer_byte_ptr] |= (uint8_t)(temp >> 8);
 1710              		.loc 1 416 34 is_stmt 0 view .LVU535
 1711 012a 013A     		subs	r2, r2, #1
 416:Core/Src/GEVA.c ****             buf->vid_buf[buffer_byte_ptr] |= (uint8_t)(temp >> 8);
 1712              		.loc 1 416 38 view .LVU536
 1713 012c 521A     		subs	r2, r2, r1
 416:Core/Src/GEVA.c ****             buf->vid_buf[buffer_byte_ptr] |= (uint8_t)(temp >> 8);
 1714              		.loc 1 416 21 view .LVU537
 1715 012e 36F81220 		ldrh	r2, [r6, r2, lsl #1]
 416:Core/Src/GEVA.c ****             buf->vid_buf[buffer_byte_ptr] |= (uint8_t)(temp >> 8);
 1716              		.loc 1 416 43 view .LVU538
 1717 0132 3A41     		asrs	r2, r2, r7
 1718              	.LVL167:
 417:Core/Src/GEVA.c ****             buf->vid_buf[buffer_byte_ptr + 1] |= (uint8_t)temp; 
 1719              		.loc 1 417 13 is_stmt 1 view .LVU539
 417:Core/Src/GEVA.c ****             buf->vid_buf[buffer_byte_ptr + 1] |= (uint8_t)temp; 
 1720              		.loc 1 417 16 is_stmt 0 view .LVU540
 1721 0134 D4F804E0 		ldr	lr, [r4, #4]
 417:Core/Src/GEVA.c ****             buf->vid_buf[buffer_byte_ptr + 1] |= (uint8_t)temp; 
 1722              		.loc 1 417 25 view .LVU541
 1723 0138 1EF803C0 		ldrb	ip, [lr, r3]	@ zero_extendqisi2
 417:Core/Src/GEVA.c ****             buf->vid_buf[buffer_byte_ptr + 1] |= (uint8_t)temp; 
 1724              		.loc 1 417 46 view .LVU542
 1725 013c C2F30728 		ubfx	r8, r2, #8, #8
 417:Core/Src/GEVA.c ****             buf->vid_buf[buffer_byte_ptr + 1] |= (uint8_t)temp; 
 1726              		.loc 1 417 43 view .LVU543
 1727 0140 4CEA080C 		orr	ip, ip, r8
 1728 0144 0EF803C0 		strb	ip, [lr, r3]
 418:Core/Src/GEVA.c ****             
 1729              		.loc 1 418 13 is_stmt 1 view .LVU544
 418:Core/Src/GEVA.c ****             
 1730              		.loc 1 418 16 is_stmt 0 view .LVU545
 1731 0148 D4F80480 		ldr	r8, [r4, #4]
 418:Core/Src/GEVA.c ****             
 1732              		.loc 1 418 25 view .LVU546
 1733 014c 03F1010E 		add	lr, r3, #1
 1734 0150 18F80EC0 		ldrb	ip, [r8, lr]	@ zero_extendqisi2
 418:Core/Src/GEVA.c ****             
 1735              		.loc 1 418 50 view .LVU547
 1736 0154 D2B2     		uxtb	r2, r2
 1737              	.LVL168:
 418:Core/Src/GEVA.c ****             
 1738              		.loc 1 418 47 view .LVU548
 1739 0156 4CEA0202 		orr	r2, ip, r2
ARM GAS  C:\Users\arist\AppData\Local\Temp\ccSK2xlW.s 			page 50


 1740 015a 08F80E20 		strb	r2, [r8, lr]
 420:Core/Src/GEVA.c ****                     temp = c[font_height - i - 1];
 1741              		.loc 1 420 13 is_stmt 1 view .LVU549
 420:Core/Src/GEVA.c ****                     temp = c[font_height - i - 1];
 1742              		.loc 1 420 16 is_stmt 0 view .LVU550
 1743 015e 002F     		cmp	r7, #0
 1744 0160 D9D0     		beq	.L96
 421:Core/Src/GEVA.c ****                     buf->vid_buf[buffer_byte_ptr + 2] |= (uint8_t)temp << (8 - shifter_a);
 1745              		.loc 1 421 21 is_stmt 1 view .LVU551
 421:Core/Src/GEVA.c ****                     buf->vid_buf[buffer_byte_ptr + 2] |= (uint8_t)temp << (8 - shifter_a);
 1746              		.loc 1 421 42 is_stmt 0 view .LVU552
 1747 0162 114A     		ldr	r2, .L106
 1748 0164 1278     		ldrb	r2, [r2]	@ zero_extendqisi2
 1749 0166 521A     		subs	r2, r2, r1
 421:Core/Src/GEVA.c ****                     buf->vid_buf[buffer_byte_ptr + 2] |= (uint8_t)temp << (8 - shifter_a);
 1750              		.loc 1 421 29 view .LVU553
 1751 0168 6FF0004C 		mvn	ip, #-2147483648
 1752 016c 9444     		add	ip, ip, r2
 1753              	.LVL169:
 422:Core/Src/GEVA.c ****                 }
 1754              		.loc 1 422 21 is_stmt 1 view .LVU554
 422:Core/Src/GEVA.c ****                 }
 1755              		.loc 1 422 24 is_stmt 0 view .LVU555
 1756 016e D4F804E0 		ldr	lr, [r4, #4]
 422:Core/Src/GEVA.c ****                 }
 1757              		.loc 1 422 33 view .LVU556
 1758 0172 0233     		adds	r3, r3, #2
 1759              	.LVL170:
 422:Core/Src/GEVA.c ****                 }
 1760              		.loc 1 422 33 view .LVU557
 1761 0174 1EF80320 		ldrb	r2, [lr, r3]	@ zero_extendqisi2
 422:Core/Src/GEVA.c ****                 }
 1762              		.loc 1 422 58 view .LVU558
 1763 0178 16F81CC0 		ldrb	ip, [r6, ip, lsl #1]	@ zero_extendqisi2
 1764              	.LVL171:
 422:Core/Src/GEVA.c ****                 }
 1765              		.loc 1 422 78 view .LVU559
 1766 017c C7F10808 		rsb	r8, r7, #8
 422:Core/Src/GEVA.c ****                 }
 1767              		.loc 1 422 72 view .LVU560
 1768 0180 0CFA08FC 		lsl	ip, ip, r8
 422:Core/Src/GEVA.c ****                 }
 1769              		.loc 1 422 55 view .LVU561
 1770 0184 42EA0C02 		orr	r2, r2, ip
 1771 0188 0EF80320 		strb	r2, [lr, r3]
 1772              	.LVL172:
 422:Core/Src/GEVA.c ****                 }
 1773              		.loc 1 422 55 view .LVU562
 1774 018c C3E7     		b	.L96
 1775              	.LVL173:
 1776              	.L105:
 422:Core/Src/GEVA.c ****                 }
 1777              		.loc 1 422 55 view .LVU563
 1778              	.LBE23:
 1779              	.LBE22:
 353:Core/Src/GEVA.c ****     uint8_t* n_pos; 
 1780              		.loc 1 353 13 view .LVU564
ARM GAS  C:\Users\arist\AppData\Local\Temp\ccSK2xlW.s 			page 51


 1781 018e 0024     		movs	r4, #0
 1782              	.LBB25:
 1783              	.LBB24:
 1784 0190 00E0     		b	.L94
 1785              	.LVL174:
 1786              	.L98:
 353:Core/Src/GEVA.c ****     uint8_t* n_pos; 
 1787              		.loc 1 353 13 view .LVU565
 1788              	.LBE24:
 1789              	.LBE25:
 402:Core/Src/GEVA.c ****     else if (n_pos[Y] + font_height > buf->size_y || n_pos[X] + font_width > buf->size_x)
 1790              		.loc 1 402 15 view .LVU566
 1791 0192 0424     		movs	r4, #4
 1792              	.LVL175:
 1793              	.L94:
 427:Core/Src/GEVA.c ****     return error;
 1794              		.loc 1 427 5 is_stmt 1 view .LVU567
 1795 0194 2846     		mov	r0, r5
 1796 0196 FFF7FEFF 		bl	free
 1797              	.LVL176:
 428:Core/Src/GEVA.c **** }
 1798              		.loc 1 428 5 view .LVU568
 429:Core/Src/GEVA.c **** 
 1799              		.loc 1 429 1 is_stmt 0 view .LVU569
 1800 019a 2046     		mov	r0, r4
 1801 019c BDE8F081 		pop	{r4, r5, r6, r7, r8, pc}
 1802              	.LVL177:
 1803              	.L99:
 402:Core/Src/GEVA.c ****     else if (n_pos[Y] + font_height > buf->size_y || n_pos[X] + font_width > buf->size_x)
 1804              		.loc 1 402 15 view .LVU570
 1805 01a0 0424     		movs	r4, #4
 1806 01a2 F7E7     		b	.L94
 1807              	.L100:
 404:Core/Src/GEVA.c ****     else {
 1808              		.loc 1 404 15 view .LVU571
 1809 01a4 0224     		movs	r4, #2
 1810 01a6 F5E7     		b	.L94
 1811              	.L107:
 1812              		.align	2
 1813              	.L106:
 1814 01a8 00000000 		.word	font_height
 1815 01ac 00000000 		.word	font_width
 1816 01b0 00000000 		.word	font_s
 1817 01b4 00000000 		.word	font_m
 1818              		.cfi_endproc
 1819              	.LFE7:
 1821              		.section	.text.put_string,"ax",%progbits
 1822              		.align	1
 1823              		.global	put_string
 1824              		.syntax unified
 1825              		.thumb
 1826              		.thumb_func
 1828              	put_string:
 1829              	.LVL178:
 1830              	.LFB8:
 439:Core/Src/GEVA.c ****     
 1831              		.loc 1 439 103 is_stmt 1 view -0
ARM GAS  C:\Users\arist\AppData\Local\Temp\ccSK2xlW.s 			page 52


 1832              		.cfi_startproc
 1833              		@ args = 4, pretend = 0, frame = 0
 1834              		@ frame_needed = 0, uses_anonymous_args = 0
 439:Core/Src/GEVA.c ****     
 1835              		.loc 1 439 103 is_stmt 0 view .LVU573
 1836 0000 2DE9F04F 		push	{r4, r5, r6, r7, r8, r9, r10, fp, lr}
 1837              		.cfi_def_cfa_offset 36
 1838              		.cfi_offset 4, -36
 1839              		.cfi_offset 5, -32
 1840              		.cfi_offset 6, -28
 1841              		.cfi_offset 7, -24
 1842              		.cfi_offset 8, -20
 1843              		.cfi_offset 9, -16
 1844              		.cfi_offset 10, -12
 1845              		.cfi_offset 11, -8
 1846              		.cfi_offset 14, -4
 1847 0004 83B0     		sub	sp, sp, #12
 1848              		.cfi_def_cfa_offset 48
 1849 0006 DDF830B0 		ldr	fp, [sp, #48]
 441:Core/Src/GEVA.c ****     uint8_t i = 0;
 1850              		.loc 1 441 5 is_stmt 1 view .LVU574
 1851              	.LVL179:
 442:Core/Src/GEVA.c ****     uint8_t y_offset = pos_y;
 1852              		.loc 1 442 5 view .LVU575
 443:Core/Src/GEVA.c ****     uint8_t x_offset = pos_x;    
 1853              		.loc 1 443 5 view .LVU576
 444:Core/Src/GEVA.c **** 
 1854              		.loc 1 444 5 view .LVU577
 446:Core/Src/GEVA.c ****         
 1855              		.loc 1 446 5 view .LVU578
 446:Core/Src/GEVA.c ****         
 1856              		.loc 1 446 8 is_stmt 0 view .LVU579
 1857 000a 42B1     		cbz	r2, .L117
 1858 000c 8046     		mov	r8, r0
 1859 000e 0F46     		mov	r7, r1
 1860 0010 9946     		mov	r9, r3
 1861 0012 1546     		mov	r5, r2
 444:Core/Src/GEVA.c **** 
 1862              		.loc 1 444 13 view .LVU580
 1863 0014 0646     		mov	r6, r0
 442:Core/Src/GEVA.c ****     uint8_t y_offset = pos_y;
 1864              		.loc 1 442 13 view .LVU581
 1865 0016 0024     		movs	r4, #0
 441:Core/Src/GEVA.c ****     uint8_t i = 0;
 1866              		.loc 1 441 13 view .LVU582
 1867 0018 4FF0010A 		mov	r10, #1
 1868 001c 19E0     		b	.L109
 1869              	.L117:
 441:Core/Src/GEVA.c ****     uint8_t i = 0;
 1870              		.loc 1 441 13 view .LVU583
 1871 001e 4FF0010A 		mov	r10, #1
 1872              	.LVL180:
 1873              	.L110:
 464:Core/Src/GEVA.c **** }
 1874              		.loc 1 464 5 is_stmt 1 view .LVU584
 465:Core/Src/GEVA.c **** 
 1875              		.loc 1 465 1 is_stmt 0 view .LVU585
ARM GAS  C:\Users\arist\AppData\Local\Temp\ccSK2xlW.s 			page 53


 1876 0022 5046     		mov	r0, r10
 1877 0024 03B0     		add	sp, sp, #12
 1878              		.cfi_remember_state
 1879              		.cfi_def_cfa_offset 36
 1880              		@ sp needed
 1881 0026 BDE8F08F 		pop	{r4, r5, r6, r7, r8, r9, r10, fp, pc}
 1882              	.LVL181:
 1883              	.L112:
 1884              		.cfi_restore_state
 455:Core/Src/GEVA.c ****                 if (error != 0)
 1885              		.loc 1 455 17 is_stmt 1 view .LVU586
 455:Core/Src/GEVA.c ****                 if (error != 0)
 1886              		.loc 1 455 25 is_stmt 0 view .LVU587
 1887 002a CDF800B0 		str	fp, [sp]
 1888 002e 4B46     		mov	r3, r9
 1889 0030 3946     		mov	r1, r7
 1890 0032 3046     		mov	r0, r6
 1891 0034 FFF7FEFF 		bl	put_char
 1892              	.LVL182:
 456:Core/Src/GEVA.c ****                     break;
 1893              		.loc 1 456 17 is_stmt 1 view .LVU588
 456:Core/Src/GEVA.c ****                     break;
 1894              		.loc 1 456 20 is_stmt 0 view .LVU589
 1895 0038 8246     		mov	r10, r0
 1896 003a 0028     		cmp	r0, #0
 1897 003c F1D1     		bne	.L110
 458:Core/Src/GEVA.c ****             
 1898              		.loc 1 458 17 is_stmt 1 view .LVU590
 458:Core/Src/GEVA.c ****             
 1899              		.loc 1 458 26 is_stmt 0 view .LVU591
 1900 003e 0D4B     		ldr	r3, .L118
 1901 0040 1B78     		ldrb	r3, [r3]	@ zero_extendqisi2
 1902 0042 3344     		add	r3, r3, r6
 1903 0044 DBB2     		uxtb	r3, r3
 1904 0046 0133     		adds	r3, r3, #1
 1905 0048 DEB2     		uxtb	r6, r3
 1906              	.LVL183:
 458:Core/Src/GEVA.c ****             
 1907              		.loc 1 458 26 view .LVU592
 1908 004a 00E0     		b	.L111
 1909              	.LVL184:
 1910              	.L115:
 451:Core/Src/GEVA.c ****             else if (chr[i] == '\n')
 1911              		.loc 1 451 26 view .LVU593
 1912 004c 4646     		mov	r6, r8
 1913              	.LVL185:
 1914              	.L111:
 461:Core/Src/GEVA.c ****         }
 1915              		.loc 1 461 13 is_stmt 1 view .LVU594
 461:Core/Src/GEVA.c ****         }
 1916              		.loc 1 461 14 is_stmt 0 view .LVU595
 1917 004e 0134     		adds	r4, r4, #1
 1918              	.LVL186:
 461:Core/Src/GEVA.c ****         }
 1919              		.loc 1 461 14 view .LVU596
 1920 0050 E4B2     		uxtb	r4, r4
 1921              	.LVL187:
ARM GAS  C:\Users\arist\AppData\Local\Temp\ccSK2xlW.s 			page 54


 1922              	.L109:
 448:Core/Src/GEVA.c **** 
 1923              		.loc 1 448 17 is_stmt 1 view .LVU597
 448:Core/Src/GEVA.c **** 
 1924              		.loc 1 448 19 is_stmt 0 view .LVU598
 1925 0052 2846     		mov	r0, r5
 1926 0054 FFF7FEFF 		bl	strlen
 1927              	.LVL188:
 448:Core/Src/GEVA.c **** 
 1928              		.loc 1 448 17 view .LVU599
 1929 0058 8442     		cmp	r4, r0
 1930 005a E2D2     		bcs	.L110
 450:Core/Src/GEVA.c ****                 x_offset = pos_x;
 1931              		.loc 1 450 13 is_stmt 1 view .LVU600
 450:Core/Src/GEVA.c ****                 x_offset = pos_x;
 1932              		.loc 1 450 20 is_stmt 0 view .LVU601
 1933 005c 2A5D     		ldrb	r2, [r5, r4]	@ zero_extendqisi2
 450:Core/Src/GEVA.c ****                 x_offset = pos_x;
 1934              		.loc 1 450 16 view .LVU602
 1935 005e 0D2A     		cmp	r2, #13
 1936 0060 F4D0     		beq	.L115
 452:Core/Src/GEVA.c ****                 y_offset = y_offset - 1 - font_height;
 1937              		.loc 1 452 18 is_stmt 1 view .LVU603
 452:Core/Src/GEVA.c ****                 y_offset = y_offset - 1 - font_height;
 1938              		.loc 1 452 21 is_stmt 0 view .LVU604
 1939 0062 0A2A     		cmp	r2, #10
 1940 0064 E1D1     		bne	.L112
 453:Core/Src/GEVA.c ****             else {
 1941              		.loc 1 453 17 is_stmt 1 view .LVU605
 453:Core/Src/GEVA.c ****             else {
 1942              		.loc 1 453 41 is_stmt 0 view .LVU606
 1943 0066 044B     		ldr	r3, .L118+4
 1944 0068 1B78     		ldrb	r3, [r3]	@ zero_extendqisi2
 1945 006a FB1A     		subs	r3, r7, r3
 1946 006c DBB2     		uxtb	r3, r3
 453:Core/Src/GEVA.c ****             else {
 1947              		.loc 1 453 26 view .LVU607
 1948 006e 013B     		subs	r3, r3, #1
 1949 0070 DFB2     		uxtb	r7, r3
 1950              	.LVL189:
 453:Core/Src/GEVA.c ****             else {
 1951              		.loc 1 453 26 view .LVU608
 1952 0072 ECE7     		b	.L111
 1953              	.L119:
 1954              		.align	2
 1955              	.L118:
 1956 0074 00000000 		.word	font_width
 1957 0078 00000000 		.word	font_height
 1958              		.cfi_endproc
 1959              	.LFE8:
 1961              		.section	.text.modulo,"ax",%progbits
 1962              		.align	1
 1963              		.global	modulo
 1964              		.syntax unified
 1965              		.thumb
 1966              		.thumb_func
 1968              	modulo:
ARM GAS  C:\Users\arist\AppData\Local\Temp\ccSK2xlW.s 			page 55


 1969              	.LVL190:
 1970              	.LFB20:
 693:Core/Src/GEVA.c **** 
 694:Core/Src/GEVA.c **** 
 695:Core/Src/GEVA.c **** uint8_t modulo(int8_t n) {
 1971              		.loc 1 695 26 is_stmt 1 view -0
 1972              		.cfi_startproc
 1973              		@ args = 0, pretend = 0, frame = 0
 1974              		@ frame_needed = 0, uses_anonymous_args = 0
 1975              		@ link register save eliminated.
 696:Core/Src/GEVA.c ****     return (n > 0) ? n : -n;
 1976              		.loc 1 696 5 view .LVU610
 1977              		.loc 1 696 24 is_stmt 0 view .LVU611
 1978 0000 0028     		cmp	r0, #0
 1979 0002 B8BF     		it	lt
 1980 0004 4042     		rsblt	r0, r0, #0
 1981              	.LVL191:
 697:Core/Src/GEVA.c **** }
 1982              		.loc 1 697 1 view .LVU612
 1983 0006 C0B2     		uxtb	r0, r0
 1984 0008 7047     		bx	lr
 1985              		.cfi_endproc
 1986              	.LFE20:
 1988              		.section	.text.clear_sector,"ax",%progbits
 1989              		.align	1
 1990              		.global	clear_sector
 1991              		.syntax unified
 1992              		.thumb
 1993              		.thumb_func
 1995              	clear_sector:
 1996              	.LVL192:
 1997              	.LFB6:
 240:Core/Src/GEVA.c **** 
 1998              		.loc 1 240 102 is_stmt 1 view -0
 1999              		.cfi_startproc
 2000              		@ args = 4, pretend = 0, frame = 16
 2001              		@ frame_needed = 0, uses_anonymous_args = 0
 240:Core/Src/GEVA.c **** 
 2002              		.loc 1 240 102 is_stmt 0 view .LVU614
 2003 0000 2DE9F04F 		push	{r4, r5, r6, r7, r8, r9, r10, fp, lr}
 2004              		.cfi_def_cfa_offset 36
 2005              		.cfi_offset 4, -36
 2006              		.cfi_offset 5, -32
 2007              		.cfi_offset 6, -28
 2008              		.cfi_offset 7, -24
 2009              		.cfi_offset 8, -20
 2010              		.cfi_offset 9, -16
 2011              		.cfi_offset 10, -12
 2012              		.cfi_offset 11, -8
 2013              		.cfi_offset 14, -4
 2014 0004 85B0     		sub	sp, sp, #20
 2015              		.cfi_def_cfa_offset 56
 2016 0006 0290     		str	r0, [sp, #8]
 2017 0008 0D46     		mov	r5, r1
 2018 000a 0192     		str	r2, [sp, #4]
 2019 000c 9946     		mov	r9, r3
 2020 000e 0E9C     		ldr	r4, [sp, #56]
ARM GAS  C:\Users\arist\AppData\Local\Temp\ccSK2xlW.s 			page 56


 242:Core/Src/GEVA.c ****     uint8_t startx_ptr = 0; // pos_x;
 2021              		.loc 1 242 5 is_stmt 1 view .LVU615
 2022              	.LVL193:
 243:Core/Src/GEVA.c ****     uint8_t starty_ptr = 0; // pos_y;
 2023              		.loc 1 243 5 view .LVU616
 244:Core/Src/GEVA.c ****     uint8_t endx_ptr = 0;   //pos_x + width;
 2024              		.loc 1 244 5 view .LVU617
 245:Core/Src/GEVA.c ****     uint8_t endy_ptr = 0;   // pos_y + height;
 2025              		.loc 1 245 5 view .LVU618
 246:Core/Src/GEVA.c ****     uint8_t n_width = 0;    //normalized width
 2026              		.loc 1 246 5 view .LVU619
 247:Core/Src/GEVA.c ****     uint8_t* n_pos_ptr = normalize_pos(pos_x, pos_y, buf);
 2027              		.loc 1 247 5 view .LVU620
 248:Core/Src/GEVA.c ****     
 2028              		.loc 1 248 5 view .LVU621
 248:Core/Src/GEVA.c ****     
 2029              		.loc 1 248 26 is_stmt 0 view .LVU622
 2030 0010 2246     		mov	r2, r4
 2031              	.LVL194:
 248:Core/Src/GEVA.c ****     
 2032              		.loc 1 248 26 view .LVU623
 2033 0012 FFF7FEFF 		bl	normalize_pos
 2034              	.LVL195:
 248:Core/Src/GEVA.c ****     
 2035              		.loc 1 248 26 view .LVU624
 2036 0016 0646     		mov	r6, r0
 2037              	.LVL196:
 250:Core/Src/GEVA.c **** 
 2038              		.loc 1 250 5 is_stmt 1 view .LVU625
 250:Core/Src/GEVA.c **** 
 2039              		.loc 1 250 16 is_stmt 0 view .LVU626
 2040 0018 637B     		ldrb	r3, [r4, #13]	@ zero_extendqisi2
 250:Core/Src/GEVA.c **** 
 2041              		.loc 1 250 5 view .LVU627
 2042 001a 032B     		cmp	r3, #3
 2043 001c 73D8     		bhi	.L142
 2044 001e DFE803F0 		tbb	[pc, r3]
 2045              	.L124:
 2046 0022 02       		.byte	(.L127-.L124)/2
 2047 0023 34       		.byte	(.L126-.L124)/2
 2048 0024 4B       		.byte	(.L125-.L124)/2
 2049 0025 5D       		.byte	(.L123-.L124)/2
 2050              		.p2align 1
 2051              	.L127:
 253:Core/Src/GEVA.c ****         startx_ptr = n_pos_ptr[X];
 2052              		.loc 1 253 9 is_stmt 1 view .LVU628
 2053              	.LVL197:
 254:Core/Src/GEVA.c ****         starty_ptr = n_pos_ptr[Y];
 2054              		.loc 1 254 9 view .LVU629
 254:Core/Src/GEVA.c ****         starty_ptr = n_pos_ptr[Y];
 2055              		.loc 1 254 20 is_stmt 0 view .LVU630
 2056 0026 0778     		ldrb	r7, [r0]	@ zero_extendqisi2
 2057              	.LVL198:
 255:Core/Src/GEVA.c ****         endx_ptr = startx_ptr + width;
 2058              		.loc 1 255 9 is_stmt 1 view .LVU631
 255:Core/Src/GEVA.c ****         endx_ptr = startx_ptr + width;
 2059              		.loc 1 255 20 is_stmt 0 view .LVU632
ARM GAS  C:\Users\arist\AppData\Local\Temp\ccSK2xlW.s 			page 57


 2060 0028 90F80180 		ldrb	r8, [r0, #1]	@ zero_extendqisi2
 2061              	.LVL199:
 256:Core/Src/GEVA.c ****         endy_ptr = starty_ptr + height;
 2062              		.loc 1 256 9 is_stmt 1 view .LVU633
 256:Core/Src/GEVA.c ****         endy_ptr = starty_ptr + height;
 2063              		.loc 1 256 18 is_stmt 0 view .LVU634
 2064 002c 019A     		ldr	r2, [sp, #4]
 2065 002e D319     		adds	r3, r2, r7
 2066 0030 5FFA83FB 		uxtb	fp, r3
 2067              	.LVL200:
 257:Core/Src/GEVA.c ****         break;
 2068              		.loc 1 257 9 is_stmt 1 view .LVU635
 257:Core/Src/GEVA.c ****         break;
 2069              		.loc 1 257 18 is_stmt 0 view .LVU636
 2070 0034 09EB0803 		add	r3, r9, r8
 2071 0038 5FFA83FA 		uxtb	r10, r3
 2072              	.LVL201:
 258:Core/Src/GEVA.c **** 
 2073              		.loc 1 258 9 is_stmt 1 view .LVU637
 253:Core/Src/GEVA.c ****         startx_ptr = n_pos_ptr[X];
 2074              		.loc 1 253 17 is_stmt 0 view .LVU638
 2075 003c 0392     		str	r2, [sp, #12]
 2076              	.LVL202:
 2077              	.L122:
 287:Core/Src/GEVA.c ****         return 4;
 2078              		.loc 1 287 5 is_stmt 1 view .LVU639
 287:Core/Src/GEVA.c ****         return 4;
 2079              		.loc 1 287 21 is_stmt 0 view .LVU640
 2080 003e 2278     		ldrb	r2, [r4]	@ zero_extendqisi2
 287:Core/Src/GEVA.c ****         return 4;
 2081              		.loc 1 287 8 view .LVU641
 2082 0040 0299     		ldr	r1, [sp, #8]
 2083 0042 8A42     		cmp	r2, r1
 2084 0044 40F2F580 		bls	.L143
 287:Core/Src/GEVA.c ****         return 4;
 2085              		.loc 1 287 58 discriminator 1 view .LVU642
 2086 0048 6378     		ldrb	r3, [r4, #1]	@ zero_extendqisi2
 287:Core/Src/GEVA.c ****         return 4;
 2087              		.loc 1 287 67 discriminator 1 view .LVU643
 2088 004a AB42     		cmp	r3, r5
 2089 004c 40F2F380 		bls	.L144
 290:Core/Src/GEVA.c ****         error = 2;
 2090              		.loc 1 290 5 is_stmt 1 view .LVU644
 290:Core/Src/GEVA.c ****         error = 2;
 2091              		.loc 1 290 15 is_stmt 0 view .LVU645
 2092 0050 4D44     		add	r5, r5, r9
 290:Core/Src/GEVA.c ****         error = 2;
 2093              		.loc 1 290 8 view .LVU646
 2094 0052 9D42     		cmp	r5, r3
 2095 0054 00F3E380 		bgt	.L145
 290:Core/Src/GEVA.c ****         error = 2;
 2096              		.loc 1 290 47 discriminator 1 view .LVU647
 2097 0058 0198     		ldr	r0, [sp, #4]
 2098              	.LVL203:
 290:Core/Src/GEVA.c ****         error = 2;
 2099              		.loc 1 290 47 discriminator 1 view .LVU648
 2100 005a 0144     		add	r1, r1, r0
ARM GAS  C:\Users\arist\AppData\Local\Temp\ccSK2xlW.s 			page 58


 290:Core/Src/GEVA.c ****         error = 2;
 2101              		.loc 1 290 38 discriminator 1 view .LVU649
 2102 005c 9142     		cmp	r1, r2
 2103 005e 00F3E680 		bgt	.L146
 2104              	.LBB26:
 295:Core/Src/GEVA.c ****         uint16_t buffer_byte_ptr = start_byte_ptr;
 2105              		.loc 1 295 9 is_stmt 1 view .LVU650
 295:Core/Src/GEVA.c ****         uint16_t buffer_byte_ptr = start_byte_ptr;
 2106              		.loc 1 295 80 is_stmt 0 view .LVU651
 2107 0062 A3EB0801 		sub	r1, r3, r8
 2108 0066 C9B2     		uxtb	r1, r1
 295:Core/Src/GEVA.c ****         uint16_t buffer_byte_ptr = start_byte_ptr;
 2109              		.loc 1 295 35 view .LVU652
 2110 0068 0139     		subs	r1, r1, #1
 2111 006a 227A     		ldrb	r2, [r4, #8]	@ zero_extendqisi2
 2112 006c C9B2     		uxtb	r1, r1
 2113 006e 3846     		mov	r0, r7
 2114 0070 FFF7FEFF 		bl	get_buffer_index
 2115              	.LVL204:
 2116 0074 8146     		mov	r9, r0
 2117              	.LVL205:
 296:Core/Src/GEVA.c ****         int16_t initial_shift = modulo(endx_ptr - startx_ptr);
 2118              		.loc 1 296 9 is_stmt 1 view .LVU653
 297:Core/Src/GEVA.c ****         int16_t to_shift = initial_shift;
 2119              		.loc 1 297 9 view .LVU654
 297:Core/Src/GEVA.c ****         int16_t to_shift = initial_shift;
 2120              		.loc 1 297 49 is_stmt 0 view .LVU655
 2121 0076 ABEB0700 		sub	r0, fp, r7
 297:Core/Src/GEVA.c ****         int16_t to_shift = initial_shift;
 2122              		.loc 1 297 33 view .LVU656
 2123 007a 40B2     		sxtb	r0, r0
 2124 007c FFF7FEFF 		bl	modulo
 2125              	.LVL206:
 2126 0080 0190     		str	r0, [sp, #4]
 2127              	.LVL207:
 298:Core/Src/GEVA.c **** 
 2128              		.loc 1 298 9 is_stmt 1 view .LVU657
 300:Core/Src/GEVA.c ****         {
 2129              		.loc 1 300 9 view .LVU658
 2130              	.LBB27:
 300:Core/Src/GEVA.c ****         {
 2131              		.loc 1 300 14 view .LVU659
 300:Core/Src/GEVA.c ****         {
 2132              		.loc 1 300 22 is_stmt 0 view .LVU660
 2133 0082 0025     		movs	r5, #0
 2134 0084 0296     		str	r6, [sp, #8]
 2135 0086 039E     		ldr	r6, [sp, #12]
 2136              	.LVL208:
 300:Core/Src/GEVA.c ****         {
 2137              		.loc 1 300 9 view .LVU661
 2138 0088 A0E0     		b	.L130
 2139              	.LVL209:
 2140              	.L126:
 300:Core/Src/GEVA.c ****         {
 2141              		.loc 1 300 9 view .LVU662
 2142              	.LBE27:
 2143              	.LBE26:
ARM GAS  C:\Users\arist\AppData\Local\Temp\ccSK2xlW.s 			page 59


 261:Core/Src/GEVA.c ****         startx_ptr = n_pos_ptr[X] - width + 1;
 2144              		.loc 1 261 9 is_stmt 1 view .LVU663
 262:Core/Src/GEVA.c ****         starty_ptr = n_pos_ptr[Y] - height + 1;
 2145              		.loc 1 262 9 view .LVU664
 262:Core/Src/GEVA.c ****         starty_ptr = n_pos_ptr[Y] - height + 1;
 2146              		.loc 1 262 31 is_stmt 0 view .LVU665
 2147 008a 0378     		ldrb	r3, [r0]	@ zero_extendqisi2
 262:Core/Src/GEVA.c ****         starty_ptr = n_pos_ptr[Y] - height + 1;
 2148              		.loc 1 262 35 view .LVU666
 2149 008c 0199     		ldr	r1, [sp, #4]
 2150 008e 5F1A     		subs	r7, r3, r1
 2151 0090 FFB2     		uxtb	r7, r7
 262:Core/Src/GEVA.c ****         starty_ptr = n_pos_ptr[Y] - height + 1;
 2152              		.loc 1 262 20 view .LVU667
 2153 0092 0137     		adds	r7, r7, #1
 2154 0094 FFB2     		uxtb	r7, r7
 2155              	.LVL210:
 263:Core/Src/GEVA.c ****         endx_ptr = n_pos_ptr[X] + 1;
 2156              		.loc 1 263 9 is_stmt 1 view .LVU668
 263:Core/Src/GEVA.c ****         endx_ptr = n_pos_ptr[X] + 1;
 2157              		.loc 1 263 31 is_stmt 0 view .LVU669
 2158 0096 4278     		ldrb	r2, [r0, #1]	@ zero_extendqisi2
 263:Core/Src/GEVA.c ****         endx_ptr = n_pos_ptr[X] + 1;
 2159              		.loc 1 263 35 view .LVU670
 2160 0098 A2EB0908 		sub	r8, r2, r9
 2161 009c 5FFA88F8 		uxtb	r8, r8
 263:Core/Src/GEVA.c ****         endx_ptr = n_pos_ptr[X] + 1;
 2162              		.loc 1 263 20 view .LVU671
 2163 00a0 08F10108 		add	r8, r8, #1
 2164 00a4 5FFA88F8 		uxtb	r8, r8
 2165              	.LVL211:
 264:Core/Src/GEVA.c ****         endy_ptr = n_pos_ptr[Y] + 1;
 2166              		.loc 1 264 9 is_stmt 1 view .LVU672
 264:Core/Src/GEVA.c ****         endy_ptr = n_pos_ptr[Y] + 1;
 2167              		.loc 1 264 18 is_stmt 0 view .LVU673
 2168 00a8 0133     		adds	r3, r3, #1
 2169 00aa 5FFA83FB 		uxtb	fp, r3
 2170              	.LVL212:
 265:Core/Src/GEVA.c ****         break;
 2171              		.loc 1 265 9 is_stmt 1 view .LVU674
 265:Core/Src/GEVA.c ****         break;
 2172              		.loc 1 265 18 is_stmt 0 view .LVU675
 2173 00ae 0132     		adds	r2, r2, #1
 2174 00b0 5FFA82FA 		uxtb	r10, r2
 2175              	.LVL213:
 266:Core/Src/GEVA.c **** 
 2176              		.loc 1 266 9 is_stmt 1 view .LVU676
 261:Core/Src/GEVA.c ****         startx_ptr = n_pos_ptr[X] - width + 1;
 2177              		.loc 1 261 17 is_stmt 0 view .LVU677
 2178 00b4 0391     		str	r1, [sp, #12]
 266:Core/Src/GEVA.c **** 
 2179              		.loc 1 266 9 view .LVU678
 2180 00b6 C2E7     		b	.L122
 2181              	.LVL214:
 2182              	.L125:
 269:Core/Src/GEVA.c ****         startx_ptr = n_pos_ptr[X] - height + 1;
 2183              		.loc 1 269 9 is_stmt 1 view .LVU679
ARM GAS  C:\Users\arist\AppData\Local\Temp\ccSK2xlW.s 			page 60


 270:Core/Src/GEVA.c ****         starty_ptr = n_pos_ptr[Y];
 2184              		.loc 1 270 9 view .LVU680
 270:Core/Src/GEVA.c ****         starty_ptr = n_pos_ptr[Y];
 2185              		.loc 1 270 31 is_stmt 0 view .LVU681
 2186 00b8 0378     		ldrb	r3, [r0]	@ zero_extendqisi2
 270:Core/Src/GEVA.c ****         starty_ptr = n_pos_ptr[Y];
 2187              		.loc 1 270 35 view .LVU682
 2188 00ba A3EB0907 		sub	r7, r3, r9
 2189 00be FFB2     		uxtb	r7, r7
 270:Core/Src/GEVA.c ****         starty_ptr = n_pos_ptr[Y];
 2190              		.loc 1 270 20 view .LVU683
 2191 00c0 0137     		adds	r7, r7, #1
 2192 00c2 FFB2     		uxtb	r7, r7
 2193              	.LVL215:
 271:Core/Src/GEVA.c ****         endx_ptr = n_pos_ptr[X] + 1;
 2194              		.loc 1 271 9 is_stmt 1 view .LVU684
 271:Core/Src/GEVA.c ****         endx_ptr = n_pos_ptr[X] + 1;
 2195              		.loc 1 271 20 is_stmt 0 view .LVU685
 2196 00c4 90F80180 		ldrb	r8, [r0, #1]	@ zero_extendqisi2
 2197              	.LVL216:
 272:Core/Src/GEVA.c ****         endy_ptr = starty_ptr + width;
 2198              		.loc 1 272 9 is_stmt 1 view .LVU686
 272:Core/Src/GEVA.c ****         endy_ptr = starty_ptr + width;
 2199              		.loc 1 272 18 is_stmt 0 view .LVU687
 2200 00c8 0133     		adds	r3, r3, #1
 2201 00ca 5FFA83FB 		uxtb	fp, r3
 2202              	.LVL217:
 273:Core/Src/GEVA.c ****         break;
 2203              		.loc 1 273 9 is_stmt 1 view .LVU688
 273:Core/Src/GEVA.c ****         break;
 2204              		.loc 1 273 18 is_stmt 0 view .LVU689
 2205 00ce 019B     		ldr	r3, [sp, #4]
 2206 00d0 4344     		add	r3, r3, r8
 2207 00d2 5FFA83FA 		uxtb	r10, r3
 2208              	.LVL218:
 274:Core/Src/GEVA.c **** 
 2209              		.loc 1 274 9 is_stmt 1 view .LVU690
 269:Core/Src/GEVA.c ****         startx_ptr = n_pos_ptr[X] - height + 1;
 2210              		.loc 1 269 17 is_stmt 0 view .LVU691
 2211 00d6 CDF80C90 		str	r9, [sp, #12]
 274:Core/Src/GEVA.c **** 
 2212              		.loc 1 274 9 view .LVU692
 2213 00da B0E7     		b	.L122
 2214              	.LVL219:
 2215              	.L123:
 277:Core/Src/GEVA.c ****         starty_ptr = n_pos_ptr[Y] - width + 1;
 2216              		.loc 1 277 9 is_stmt 1 view .LVU693
 277:Core/Src/GEVA.c ****         starty_ptr = n_pos_ptr[Y] - width + 1;
 2217              		.loc 1 277 20 is_stmt 0 view .LVU694
 2218 00dc 0778     		ldrb	r7, [r0]	@ zero_extendqisi2
 2219              	.LVL220:
 278:Core/Src/GEVA.c ****         endx_ptr = startx_ptr + height;
 2220              		.loc 1 278 9 is_stmt 1 view .LVU695
 278:Core/Src/GEVA.c ****         endx_ptr = startx_ptr + height;
 2221              		.loc 1 278 31 is_stmt 0 view .LVU696
 2222 00de 4378     		ldrb	r3, [r0, #1]	@ zero_extendqisi2
 278:Core/Src/GEVA.c ****         endx_ptr = startx_ptr + height;
ARM GAS  C:\Users\arist\AppData\Local\Temp\ccSK2xlW.s 			page 61


 2223              		.loc 1 278 35 view .LVU697
 2224 00e0 019A     		ldr	r2, [sp, #4]
 2225 00e2 A3EB0208 		sub	r8, r3, r2
 2226 00e6 5FFA88F8 		uxtb	r8, r8
 278:Core/Src/GEVA.c ****         endx_ptr = startx_ptr + height;
 2227              		.loc 1 278 20 view .LVU698
 2228 00ea 08F10108 		add	r8, r8, #1
 2229 00ee 5FFA88F8 		uxtb	r8, r8
 2230              	.LVL221:
 279:Core/Src/GEVA.c ****         endy_ptr = n_pos_ptr[Y] + 1;
 2231              		.loc 1 279 9 is_stmt 1 view .LVU699
 279:Core/Src/GEVA.c ****         endy_ptr = n_pos_ptr[Y] + 1;
 2232              		.loc 1 279 18 is_stmt 0 view .LVU700
 2233 00f2 07EB0902 		add	r2, r7, r9
 2234 00f6 5FFA82FB 		uxtb	fp, r2
 2235              	.LVL222:
 280:Core/Src/GEVA.c ****         break;
 2236              		.loc 1 280 9 is_stmt 1 view .LVU701
 280:Core/Src/GEVA.c ****         break;
 2237              		.loc 1 280 18 is_stmt 0 view .LVU702
 2238 00fa 0133     		adds	r3, r3, #1
 2239 00fc 5FFA83FA 		uxtb	r10, r3
 2240              	.LVL223:
 281:Core/Src/GEVA.c **** 
 2241              		.loc 1 281 9 is_stmt 1 view .LVU703
 247:Core/Src/GEVA.c ****     uint8_t* n_pos_ptr = normalize_pos(pos_x, pos_y, buf);
 2242              		.loc 1 247 13 is_stmt 0 view .LVU704
 2243 0100 0023     		movs	r3, #0
 2244 0102 0393     		str	r3, [sp, #12]
 281:Core/Src/GEVA.c **** 
 2245              		.loc 1 281 9 view .LVU705
 2246 0104 9BE7     		b	.L122
 2247              	.LVL224:
 2248              	.L142:
 250:Core/Src/GEVA.c **** 
 2249              		.loc 1 250 5 view .LVU706
 2250 0106 0023     		movs	r3, #0
 2251 0108 1F46     		mov	r7, r3
 2252 010a 0393     		str	r3, [sp, #12]
 2253 010c 9A46     		mov	r10, r3
 2254 010e 9B46     		mov	fp, r3
 2255 0110 9846     		mov	r8, r3
 2256 0112 94E7     		b	.L122
 2257              	.LVL225:
 2258              	.L150:
 2259              	.LBB30:
 2260              	.LBB28:
 306:Core/Src/GEVA.c ****                 
 2261              		.loc 1 306 17 is_stmt 1 view .LVU707
 306:Core/Src/GEVA.c ****                 
 2262              		.loc 1 306 26 is_stmt 0 view .LVU708
 2263 0114 0199     		ldr	r1, [sp, #4]
 2264 0116 8818     		adds	r0, r1, r2
 2265 0118 0838     		subs	r0, r0, #8
 2266 011a 00B2     		sxth	r0, r0
 2267              	.LVL226:
 308:Core/Src/GEVA.c ****                     buf->vid_buf[buffer_byte_ptr] &= 0xff << (8 - (startx_ptr % 8));
ARM GAS  C:\Users\arist\AppData\Local\Temp\ccSK2xlW.s 			page 62


 2268              		.loc 1 308 17 is_stmt 1 view .LVU709
 308:Core/Src/GEVA.c ****                     buf->vid_buf[buffer_byte_ptr] &= 0xff << (8 - (startx_ptr % 8));
 2269              		.loc 1 308 23 is_stmt 0 view .LVU710
 2270 011c 217B     		ldrb	r1, [r4, #12]	@ zero_extendqisi2
 308:Core/Src/GEVA.c ****                     buf->vid_buf[buffer_byte_ptr] &= 0xff << (8 - (startx_ptr % 8));
 2271              		.loc 1 308 19 view .LVU711
 2272 011e 71B9     		cbnz	r1, .L132
 309:Core/Src/GEVA.c ****                 else 
 2273              		.loc 1 309 21 is_stmt 1 view .LVU712
 309:Core/Src/GEVA.c ****                 else 
 2274              		.loc 1 309 24 is_stmt 0 view .LVU713
 2275 0120 D4F804C0 		ldr	ip, [r4, #4]
 309:Core/Src/GEVA.c ****                 else 
 2276              		.loc 1 309 33 view .LVU714
 2277 0124 1CF80310 		ldrb	r1, [ip, r3]	@ zero_extendqisi2
 309:Core/Src/GEVA.c ****                 else 
 2278              		.loc 1 309 65 view .LVU715
 2279 0128 C2F1080E 		rsb	lr, r2, #8
 309:Core/Src/GEVA.c ****                 else 
 2280              		.loc 1 309 59 view .LVU716
 2281 012c FF22     		movs	r2, #255
 2282 012e 02FA0EF2 		lsl	r2, r2, lr
 309:Core/Src/GEVA.c ****                 else 
 2283              		.loc 1 309 51 view .LVU717
 2284 0132 0A40     		ands	r2, r2, r1
 2285 0134 0CF80320 		strb	r2, [ip, r3]
 2286              	.L133:
 313:Core/Src/GEVA.c ****                 
 2287              		.loc 1 313 17 is_stmt 1 view .LVU718
 313:Core/Src/GEVA.c ****                 
 2288              		.loc 1 313 32 is_stmt 0 view .LVU719
 2289 0138 0133     		adds	r3, r3, #1
 2290              	.LVL227:
 313:Core/Src/GEVA.c ****                 
 2291              		.loc 1 313 32 view .LVU720
 2292 013a 9BB2     		uxth	r3, r3
 2293              	.LVL228:
 315:Core/Src/GEVA.c ****                     if(buf->mode == NORMAL)
 2294              		.loc 1 315 17 is_stmt 1 view .LVU721
 315:Core/Src/GEVA.c ****                     if(buf->mode == NORMAL)
 2295              		.loc 1 315 23 is_stmt 0 view .LVU722
 2296 013c 12E0     		b	.L134
 2297              	.L132:
 311:Core/Src/GEVA.c ****                 
 2298              		.loc 1 311 21 is_stmt 1 view .LVU723
 311:Core/Src/GEVA.c ****                 
 2299              		.loc 1 311 24 is_stmt 0 view .LVU724
 2300 013e D4F804C0 		ldr	ip, [r4, #4]
 311:Core/Src/GEVA.c ****                 
 2301              		.loc 1 311 33 view .LVU725
 2302 0142 1CF80310 		ldrb	r1, [ip, r3]	@ zero_extendqisi2
 311:Core/Src/GEVA.c ****                 
 2303              		.loc 1 311 59 view .LVU726
 2304 0146 4FF0FF0E 		mov	lr, #255
 2305 014a 4EFA02F2 		asr	r2, lr, r2
 311:Core/Src/GEVA.c ****                 
 2306              		.loc 1 311 51 view .LVU727
ARM GAS  C:\Users\arist\AppData\Local\Temp\ccSK2xlW.s 			page 63


 2307 014e 0A43     		orrs	r2, r2, r1
 2308 0150 0CF80320 		strb	r2, [ip, r3]
 2309 0154 F0E7     		b	.L133
 2310              	.L135:
 319:Core/Src/GEVA.c ****                         
 2311              		.loc 1 319 25 is_stmt 1 view .LVU728
 319:Core/Src/GEVA.c ****                         
 2312              		.loc 1 319 28 is_stmt 0 view .LVU729
 2313 0156 6268     		ldr	r2, [r4, #4]
 319:Core/Src/GEVA.c ****                         
 2314              		.loc 1 319 55 view .LVU730
 2315 0158 FF21     		movs	r1, #255
 2316 015a D154     		strb	r1, [r2, r3]
 2317              	.L136:
 321:Core/Src/GEVA.c ****                     to_shift -= 8;
 2318              		.loc 1 321 21 is_stmt 1 view .LVU731
 321:Core/Src/GEVA.c ****                     to_shift -= 8;
 2319              		.loc 1 321 36 is_stmt 0 view .LVU732
 2320 015c 0133     		adds	r3, r3, #1
 2321              	.LVL229:
 321:Core/Src/GEVA.c ****                     to_shift -= 8;
 2322              		.loc 1 321 36 view .LVU733
 2323 015e 9BB2     		uxth	r3, r3
 2324              	.LVL230:
 322:Core/Src/GEVA.c ****                 }
 2325              		.loc 1 322 21 is_stmt 1 view .LVU734
 322:Core/Src/GEVA.c ****                 }
 2326              		.loc 1 322 30 is_stmt 0 view .LVU735
 2327 0160 0838     		subs	r0, r0, #8
 2328              	.LVL231:
 322:Core/Src/GEVA.c ****                 }
 2329              		.loc 1 322 30 view .LVU736
 2330 0162 00B2     		sxth	r0, r0
 2331              	.LVL232:
 2332              	.L134:
 315:Core/Src/GEVA.c ****                     if(buf->mode == NORMAL)
 2333              		.loc 1 315 33 is_stmt 1 view .LVU737
 2334 0164 0828     		cmp	r0, #8
 2335 0166 06DD     		ble	.L148
 316:Core/Src/GEVA.c ****                         buf->vid_buf[buffer_byte_ptr] = 0x00;
 2336              		.loc 1 316 21 view .LVU738
 316:Core/Src/GEVA.c ****                         buf->vid_buf[buffer_byte_ptr] = 0x00;
 2337              		.loc 1 316 27 is_stmt 0 view .LVU739
 2338 0168 227B     		ldrb	r2, [r4, #12]	@ zero_extendqisi2
 316:Core/Src/GEVA.c ****                         buf->vid_buf[buffer_byte_ptr] = 0x00;
 2339              		.loc 1 316 23 view .LVU740
 2340 016a 002A     		cmp	r2, #0
 2341 016c F3D1     		bne	.L135
 317:Core/Src/GEVA.c ****                     else 
 2342              		.loc 1 317 25 is_stmt 1 view .LVU741
 317:Core/Src/GEVA.c ****                     else 
 2343              		.loc 1 317 28 is_stmt 0 view .LVU742
 2344 016e 6268     		ldr	r2, [r4, #4]
 317:Core/Src/GEVA.c ****                     else 
 2345              		.loc 1 317 55 view .LVU743
 2346 0170 0021     		movs	r1, #0
 2347 0172 D154     		strb	r1, [r2, r3]
ARM GAS  C:\Users\arist\AppData\Local\Temp\ccSK2xlW.s 			page 64


 2348 0174 F2E7     		b	.L136
 2349              	.L148:
 325:Core/Src/GEVA.c ****                     buf->vid_buf[buffer_byte_ptr] &= 0xff >> to_shift;
 2350              		.loc 1 325 17 is_stmt 1 view .LVU744
 325:Core/Src/GEVA.c ****                     buf->vid_buf[buffer_byte_ptr] &= 0xff >> to_shift;
 2351              		.loc 1 325 23 is_stmt 0 view .LVU745
 2352 0176 227B     		ldrb	r2, [r4, #12]	@ zero_extendqisi2
 325:Core/Src/GEVA.c ****                     buf->vid_buf[buffer_byte_ptr] &= 0xff >> to_shift;
 2353              		.loc 1 325 19 view .LVU746
 2354 0178 4AB9     		cbnz	r2, .L138
 326:Core/Src/GEVA.c ****                 else 
 2355              		.loc 1 326 21 is_stmt 1 view .LVU747
 326:Core/Src/GEVA.c ****                 else 
 2356              		.loc 1 326 24 is_stmt 0 view .LVU748
 2357 017a D4F804C0 		ldr	ip, [r4, #4]
 326:Core/Src/GEVA.c ****                 else 
 2358              		.loc 1 326 33 view .LVU749
 2359 017e 1CF80320 		ldrb	r2, [ip, r3]	@ zero_extendqisi2
 326:Core/Src/GEVA.c ****                 else 
 2360              		.loc 1 326 59 view .LVU750
 2361 0182 FF21     		movs	r1, #255
 2362 0184 0141     		asrs	r1, r1, r0
 326:Core/Src/GEVA.c ****                 else 
 2363              		.loc 1 326 51 view .LVU751
 2364 0186 0A40     		ands	r2, r2, r1
 2365 0188 0CF80320 		strb	r2, [ip, r3]
 2366 018c 1CE0     		b	.L139
 2367              	.L138:
 328:Core/Src/GEVA.c ****             }
 2368              		.loc 1 328 21 is_stmt 1 view .LVU752
 328:Core/Src/GEVA.c ****             }
 2369              		.loc 1 328 24 is_stmt 0 view .LVU753
 2370 018e 6068     		ldr	r0, [r4, #4]
 2371              	.LVL233:
 328:Core/Src/GEVA.c ****             }
 2372              		.loc 1 328 33 view .LVU754
 2373 0190 C25C     		ldrb	r2, [r0, r3]	@ zero_extendqisi2
 328:Core/Src/GEVA.c ****             }
 2374              		.loc 1 328 77 view .LVU755
 2375 0192 0BF0070C 		and	ip, fp, #7
 328:Core/Src/GEVA.c ****             }
 2376              		.loc 1 328 65 view .LVU756
 2377 0196 CCF1080C 		rsb	ip, ip, #8
 328:Core/Src/GEVA.c ****             }
 2378              		.loc 1 328 59 view .LVU757
 2379 019a FF21     		movs	r1, #255
 2380 019c 01FA0CF1 		lsl	r1, r1, ip
 328:Core/Src/GEVA.c ****             }
 2381              		.loc 1 328 51 view .LVU758
 2382 01a0 0A43     		orrs	r2, r2, r1
 2383 01a2 C254     		strb	r2, [r0, r3]
 2384 01a4 10E0     		b	.L139
 2385              	.LVL234:
 2386              	.L140:
 334:Core/Src/GEVA.c ****             }
 2387              		.loc 1 334 21 is_stmt 1 view .LVU759
 334:Core/Src/GEVA.c ****             }
ARM GAS  C:\Users\arist\AppData\Local\Temp\ccSK2xlW.s 			page 65


 2388              		.loc 1 334 24 is_stmt 0 view .LVU760
 2389 01a6 6068     		ldr	r0, [r4, #4]
 334:Core/Src/GEVA.c ****             }
 2390              		.loc 1 334 33 view .LVU761
 2391 01a8 C15C     		ldrb	r1, [r0, r3]	@ zero_extendqisi2
 334:Core/Src/GEVA.c ****             }
 2392              		.loc 1 334 60 view .LVU762
 2393 01aa 4FF0FF0C 		mov	ip, #255
 2394 01ae 4CFA02F2 		asr	r2, ip, r2
 334:Core/Src/GEVA.c ****             }
 2395              		.loc 1 334 105 view .LVU763
 2396 01b2 0BF0070E 		and	lr, fp, #7
 334:Core/Src/GEVA.c ****             }
 2397              		.loc 1 334 93 view .LVU764
 2398 01b6 CEF1080E 		rsb	lr, lr, #8
 334:Core/Src/GEVA.c ****             }
 2399              		.loc 1 334 87 view .LVU765
 2400 01ba 0CFA0EFC 		lsl	ip, ip, lr
 334:Core/Src/GEVA.c ****             }
 2401              		.loc 1 334 79 view .LVU766
 2402 01be 02EA0C02 		and	r2, r2, ip
 2403 01c2 52B2     		sxtb	r2, r2
 334:Core/Src/GEVA.c ****             }
 2404              		.loc 1 334 51 view .LVU767
 2405 01c4 1143     		orrs	r1, r1, r2
 2406 01c6 C154     		strb	r1, [r0, r3]
 2407              	.LVL235:
 2408              	.L139:
 300:Core/Src/GEVA.c ****         {
 2409              		.loc 1 300 86 is_stmt 1 discriminator 2 view .LVU768
 2410 01c8 0135     		adds	r5, r5, #1
 2411              	.LVL236:
 300:Core/Src/GEVA.c ****         {
 2412              		.loc 1 300 86 is_stmt 0 discriminator 2 view .LVU769
 2413 01ca EDB2     		uxtb	r5, r5
 2414              	.LVL237:
 2415              	.L130:
 300:Core/Src/GEVA.c ****         {
 2416              		.loc 1 300 45 is_stmt 1 discriminator 1 view .LVU770
 300:Core/Src/GEVA.c ****         {
 2417              		.loc 1 300 63 is_stmt 0 discriminator 1 view .LVU771
 2418 01cc AAEB0800 		sub	r0, r10, r8
 300:Core/Src/GEVA.c ****         {
 2419              		.loc 1 300 47 discriminator 1 view .LVU772
 2420 01d0 40B2     		sxtb	r0, r0
 2421 01d2 FFF7FEFF 		bl	modulo
 2422              	.LVL238:
 300:Core/Src/GEVA.c ****         {
 2423              		.loc 1 300 45 discriminator 1 view .LVU773
 2424 01d6 A842     		cmp	r0, r5
 2425 01d8 1ED9     		bls	.L149
 302:Core/Src/GEVA.c ****             to_shift = initial_shift;
 2426              		.loc 1 302 13 is_stmt 1 view .LVU774
 302:Core/Src/GEVA.c ****             to_shift = initial_shift;
 2427              		.loc 1 302 52 is_stmt 0 view .LVU775
 2428 01da 237A     		ldrb	r3, [r4, #8]	@ zero_extendqisi2
 302:Core/Src/GEVA.c ****             to_shift = initial_shift;
ARM GAS  C:\Users\arist\AppData\Local\Temp\ccSK2xlW.s 			page 66


 2429              		.loc 1 302 29 view .LVU776
 2430 01dc 05FB1393 		mls	r3, r5, r3, r9
 2431 01e0 9BB2     		uxth	r3, r3
 2432              	.LVL239:
 303:Core/Src/GEVA.c **** 
 2433              		.loc 1 303 13 is_stmt 1 view .LVU777
 305:Core/Src/GEVA.c ****                 to_shift -= (8 - (startx_ptr % 8));
 2434              		.loc 1 305 13 view .LVU778
 2435 01e2 07F00702 		and	r2, r7, #7
 305:Core/Src/GEVA.c ****                 to_shift -= (8 - (startx_ptr % 8));
 2436              		.loc 1 305 35 is_stmt 0 view .LVU779
 2437 01e6 B118     		adds	r1, r6, r2
 305:Core/Src/GEVA.c ****                 to_shift -= (8 - (startx_ptr % 8));
 2438              		.loc 1 305 16 view .LVU780
 2439 01e8 0729     		cmp	r1, #7
 2440 01ea 93DC     		bgt	.L150
 331:Core/Src/GEVA.c ****                     buf->vid_buf[buffer_byte_ptr] &= ~((0xff >> startx_ptr % 8) & (0xff << (8 - (en
 2441              		.loc 1 331 17 is_stmt 1 view .LVU781
 331:Core/Src/GEVA.c ****                     buf->vid_buf[buffer_byte_ptr] &= ~((0xff >> startx_ptr % 8) & (0xff << (8 - (en
 2442              		.loc 1 331 23 is_stmt 0 view .LVU782
 2443 01ec 217B     		ldrb	r1, [r4, #12]	@ zero_extendqisi2
 331:Core/Src/GEVA.c ****                     buf->vid_buf[buffer_byte_ptr] &= ~((0xff >> startx_ptr % 8) & (0xff << (8 - (en
 2444              		.loc 1 331 19 view .LVU783
 2445 01ee 0029     		cmp	r1, #0
 2446 01f0 D9D1     		bne	.L140
 332:Core/Src/GEVA.c ****                 else 
 2447              		.loc 1 332 21 is_stmt 1 view .LVU784
 332:Core/Src/GEVA.c ****                 else 
 2448              		.loc 1 332 24 is_stmt 0 view .LVU785
 2449 01f2 6068     		ldr	r0, [r4, #4]
 332:Core/Src/GEVA.c ****                 else 
 2450              		.loc 1 332 33 view .LVU786
 2451 01f4 C15C     		ldrb	r1, [r0, r3]	@ zero_extendqisi2
 332:Core/Src/GEVA.c ****                 else 
 2452              		.loc 1 332 62 view .LVU787
 2453 01f6 4FF0FF0C 		mov	ip, #255
 2454 01fa 4CFA02F2 		asr	r2, ip, r2
 332:Core/Src/GEVA.c ****                 else 
 2455              		.loc 1 332 107 view .LVU788
 2456 01fe 0BF0070E 		and	lr, fp, #7
 332:Core/Src/GEVA.c ****                 else 
 2457              		.loc 1 332 95 view .LVU789
 2458 0202 CEF1080E 		rsb	lr, lr, #8
 332:Core/Src/GEVA.c ****                 else 
 2459              		.loc 1 332 89 view .LVU790
 2460 0206 0CFA0EFC 		lsl	ip, ip, lr
 332:Core/Src/GEVA.c ****                 else 
 2461              		.loc 1 332 81 view .LVU791
 2462 020a 02EA0C02 		and	r2, r2, ip
 2463 020e 52B2     		sxtb	r2, r2
 332:Core/Src/GEVA.c ****                 else 
 2464              		.loc 1 332 51 view .LVU792
 2465 0210 21EA0201 		bic	r1, r1, r2
 2466 0214 C154     		strb	r1, [r0, r3]
 2467 0216 D7E7     		b	.L139
 2468              	.LVL240:
 2469              	.L149:
ARM GAS  C:\Users\arist\AppData\Local\Temp\ccSK2xlW.s 			page 67


 332:Core/Src/GEVA.c ****                 else 
 2470              		.loc 1 332 51 view .LVU793
 2471              	.LBE28:
 2472              	.LBE30:
 242:Core/Src/GEVA.c ****     uint8_t startx_ptr = 0; // pos_x;
 2473              		.loc 1 242 13 view .LVU794
 2474 0218 029E     		ldr	r6, [sp, #8]
 2475 021a 0024     		movs	r4, #0
 2476              	.LBB31:
 2477              	.LBB29:
 2478 021c 00E0     		b	.L129
 2479              	.LVL241:
 2480              	.L145:
 242:Core/Src/GEVA.c ****     uint8_t startx_ptr = 0; // pos_x;
 2481              		.loc 1 242 13 view .LVU795
 2482              	.LBE29:
 2483              	.LBE31:
 291:Core/Src/GEVA.c **** 
 2484              		.loc 1 291 15 view .LVU796
 2485 021e 0224     		movs	r4, #2
 2486              	.LVL242:
 2487              	.L129:
 338:Core/Src/GEVA.c ****     return error;
 2488              		.loc 1 338 5 is_stmt 1 view .LVU797
 2489 0220 3046     		mov	r0, r6
 2490 0222 FFF7FEFF 		bl	free
 2491              	.LVL243:
 339:Core/Src/GEVA.c **** }
 2492              		.loc 1 339 5 view .LVU798
 2493              	.L128:
 340:Core/Src/GEVA.c **** 
 2494              		.loc 1 340 1 is_stmt 0 view .LVU799
 2495 0226 2046     		mov	r0, r4
 2496 0228 05B0     		add	sp, sp, #20
 2497              		.cfi_remember_state
 2498              		.cfi_def_cfa_offset 36
 2499              		@ sp needed
 2500 022a BDE8F08F 		pop	{r4, r5, r6, r7, r8, r9, r10, fp, pc}
 2501              	.LVL244:
 2502              	.L146:
 2503              		.cfi_restore_state
 291:Core/Src/GEVA.c **** 
 2504              		.loc 1 291 15 view .LVU800
 2505 022e 0224     		movs	r4, #2
 2506 0230 F6E7     		b	.L129
 2507              	.LVL245:
 2508              	.L143:
 288:Core/Src/GEVA.c **** 
 2509              		.loc 1 288 16 view .LVU801
 2510 0232 0424     		movs	r4, #4
 2511 0234 F7E7     		b	.L128
 2512              	.L144:
 2513 0236 0424     		movs	r4, #4
 2514 0238 F5E7     		b	.L128
 2515              		.cfi_endproc
 2516              	.LFE6:
 2518              		.section	.text.calculate_y,"ax",%progbits
ARM GAS  C:\Users\arist\AppData\Local\Temp\ccSK2xlW.s 			page 68


 2519              		.align	1
 2520              		.global	calculate_y
 2521              		.syntax unified
 2522              		.thumb
 2523              		.thumb_func
 2525              	calculate_y:
 2526              	.LVL246:
 2527              	.LFB21:
 698:Core/Src/GEVA.c **** 
 699:Core/Src/GEVA.c **** uint8_t calculate_y(uint8_t x, uint8_t x0, uint8_t x1, uint8_t y0, uint8_t y1) {
 2528              		.loc 1 699 80 is_stmt 1 view -0
 2529              		.cfi_startproc
 2530              		@ args = 4, pretend = 0, frame = 0
 2531              		@ frame_needed = 0, uses_anonymous_args = 0
 2532              		@ link register save eliminated.
 700:Core/Src/GEVA.c ****     return ((x - x0) * (y1 - y0) / (x1 - x0)) + y0;
 2533              		.loc 1 700 5 view .LVU803
 2534              		.loc 1 700 16 is_stmt 0 view .LVU804
 2535 0000 401A     		subs	r0, r0, r1
 2536              	.LVL247:
 2537              		.loc 1 700 28 view .LVU805
 2538 0002 9DF800C0 		ldrb	ip, [sp]	@ zero_extendqisi2
 2539 0006 ACEB030C 		sub	ip, ip, r3
 2540              		.loc 1 700 22 view .LVU806
 2541 000a 0CFB00F0 		mul	r0, ip, r0
 2542              		.loc 1 700 40 view .LVU807
 2543 000e 521A     		subs	r2, r2, r1
 2544              	.LVL248:
 2545              		.loc 1 700 34 view .LVU808
 2546 0010 90FBF2F0 		sdiv	r0, r0, r2
 2547              		.loc 1 700 47 view .LVU809
 2548 0014 1844     		add	r0, r0, r3
 701:Core/Src/GEVA.c **** }
 2549              		.loc 1 701 1 view .LVU810
 2550 0016 C0B2     		uxtb	r0, r0
 2551 0018 7047     		bx	lr
 2552              		.cfi_endproc
 2553              	.LFE21:
 2555              		.section	.text.put_line,"ax",%progbits
 2556              		.align	1
 2557              		.global	put_line
 2558              		.syntax unified
 2559              		.thumb
 2560              		.thumb_func
 2562              	put_line:
 2563              	.LVL249:
 2564              	.LFB5:
 162:Core/Src/GEVA.c **** 
 2565              		.loc 1 162 101 is_stmt 1 view -0
 2566              		.cfi_startproc
 2567              		@ args = 4, pretend = 0, frame = 32
 2568              		@ frame_needed = 0, uses_anonymous_args = 0
 162:Core/Src/GEVA.c **** 
 2569              		.loc 1 162 101 is_stmt 0 view .LVU812
 2570 0000 2DE9F04F 		push	{r4, r5, r6, r7, r8, r9, r10, fp, lr}
 2571              		.cfi_def_cfa_offset 36
 2572              		.cfi_offset 4, -36
ARM GAS  C:\Users\arist\AppData\Local\Temp\ccSK2xlW.s 			page 69


 2573              		.cfi_offset 5, -32
 2574              		.cfi_offset 6, -28
 2575              		.cfi_offset 7, -24
 2576              		.cfi_offset 8, -20
 2577              		.cfi_offset 9, -16
 2578              		.cfi_offset 10, -12
 2579              		.cfi_offset 11, -8
 2580              		.cfi_offset 14, -4
 2581 0004 8BB0     		sub	sp, sp, #44
 2582              		.cfi_def_cfa_offset 80
 2583 0006 0446     		mov	r4, r0
 2584 0008 0491     		str	r1, [sp, #16]
 2585 000a 1F46     		mov	r7, r3
 2586 000c DDF850B0 		ldr	fp, [sp, #80]
 164:Core/Src/GEVA.c ****     uint8_t firstx = 0;
 2587              		.loc 1 164 5 is_stmt 1 view .LVU813
 2588              	.LVL250:
 165:Core/Src/GEVA.c ****     uint8_t lastx = 0;
 2589              		.loc 1 165 5 view .LVU814
 166:Core/Src/GEVA.c ****     uint8_t firsty = 0;
 2590              		.loc 1 166 5 view .LVU815
 167:Core/Src/GEVA.c ****     uint8_t lasty = 0;
 2591              		.loc 1 167 5 view .LVU816
 168:Core/Src/GEVA.c **** 
 2592              		.loc 1 168 5 view .LVU817
 170:Core/Src/GEVA.c **** 
 2593              		.loc 1 170 5 view .LVU818
 170:Core/Src/GEVA.c **** 
 2594              		.loc 1 170 8 is_stmt 0 view .LVU819
 2595 0010 9042     		cmp	r0, r2
 2596 0012 12D0     		beq	.L171
 2597              	.LBB32:
 187:Core/Src/GEVA.c ****             firstx = pos_x2;
 2598              		.loc 1 187 9 is_stmt 1 view .LVU820
 187:Core/Src/GEVA.c ****             firstx = pos_x2;
 2599              		.loc 1 187 12 is_stmt 0 view .LVU821
 2600 0014 9042     		cmp	r0, r2
 2601 0016 2DD9     		bls	.L166
 191:Core/Src/GEVA.c ****         }
 2602              		.loc 1 191 19 view .LVU822
 2603 0018 0499     		ldr	r1, [sp, #16]
 2604              	.LVL251:
 188:Core/Src/GEVA.c ****             lastx = pos_x1;
 2605              		.loc 1 188 20 view .LVU823
 2606 001a 1446     		mov	r4, r2
 189:Core/Src/GEVA.c ****             firsty = pos_y2;
 2607              		.loc 1 189 19 view .LVU824
 2608 001c 0246     		mov	r2, r0
 2609              	.LVL252:
 2610              	.L159:
 200:Core/Src/GEVA.c **** 
 2611              		.loc 1 200 9 is_stmt 1 view .LVU825
 200:Core/Src/GEVA.c **** 
 2612              		.loc 1 200 16 is_stmt 0 view .LVU826
 2613 001e 8B42     		cmp	r3, r1
 2614 0020 2BD9     		bls	.L167
 2615 0022 4FF0FF3A 		mov	r10, #-1
ARM GAS  C:\Users\arist\AppData\Local\Temp\ccSK2xlW.s 			page 70


 2616              	.L160:
 2617              	.LVL253:
 202:Core/Src/GEVA.c ****         uint8_t nexty = 0;
 2618              		.loc 1 202 9 is_stmt 1 discriminator 4 view .LVU827
 203:Core/Src/GEVA.c ****         int8_t y_todrw = 0;
 2619              		.loc 1 203 9 discriminator 4 view .LVU828
 204:Core/Src/GEVA.c ****         uint8_t fill_y = 0;
 2620              		.loc 1 204 9 discriminator 4 view .LVU829
 205:Core/Src/GEVA.c **** 
 2621              		.loc 1 205 9 discriminator 4 view .LVU830
 207:Core/Src/GEVA.c **** 
 2622              		.loc 1 207 9 discriminator 4 view .LVU831
 2623              	.LBB33:
 207:Core/Src/GEVA.c **** 
 2624              		.loc 1 207 14 discriminator 4 view .LVU832
 207:Core/Src/GEVA.c **** 
 2625              		.loc 1 207 22 is_stmt 0 discriminator 4 view .LVU833
 2626 0026 A046     		mov	r8, r4
 2627              	.LBE33:
 2628              	.LBE32:
 164:Core/Src/GEVA.c ****     uint8_t firstx = 0;
 2629              		.loc 1 164 13 discriminator 4 view .LVU834
 2630 0028 4FF0000C 		mov	ip, #0
 2631 002c 0593     		str	r3, [sp, #20]
 2632 002e 0891     		str	r1, [sp, #32]
 2633 0030 CDF80CC0 		str	ip, [sp, #12]
 2634 0034 0994     		str	r4, [sp, #36]
 2635 0036 1446     		mov	r4, r2
 2636              	.LVL254:
 2637              	.LBB37:
 2638              	.LBB34:
 207:Core/Src/GEVA.c **** 
 2639              		.loc 1 207 9 discriminator 4 view .LVU835
 2640 0038 47E0     		b	.L161
 2641              	.LVL255:
 2642              	.L171:
 207:Core/Src/GEVA.c **** 
 2643              		.loc 1 207 9 discriminator 4 view .LVU836
 2644              	.LBE34:
 2645              	.LBE37:
 2646              	.LBB38:
 172:Core/Src/GEVA.c **** 
 2647              		.loc 1 172 9 is_stmt 1 view .LVU837
 174:Core/Src/GEVA.c ****             line_lenght = (pos_y1 - pos_y2) + 1;
 2648              		.loc 1 174 9 view .LVU838
 174:Core/Src/GEVA.c ****             line_lenght = (pos_y1 - pos_y2) + 1;
 2649              		.loc 1 174 12 is_stmt 0 view .LVU839
 2650 003a B942     		cmp	r1, r7
 2651 003c 11D9     		bls	.L154
 175:Core/Src/GEVA.c ****             firsty = pos_y2;
 2652              		.loc 1 175 13 is_stmt 1 view .LVU840
 175:Core/Src/GEVA.c ****             firsty = pos_y2;
 2653              		.loc 1 175 35 is_stmt 0 view .LVU841
 2654 003e CE1B     		subs	r6, r1, r7
 2655 0040 F6B2     		uxtb	r6, r6
 175:Core/Src/GEVA.c ****             firsty = pos_y2;
 2656              		.loc 1 175 25 view .LVU842
ARM GAS  C:\Users\arist\AppData\Local\Temp\ccSK2xlW.s 			page 71


 2657 0042 0136     		adds	r6, r6, #1
 2658 0044 F6B2     		uxtb	r6, r6
 2659              	.LVL256:
 176:Core/Src/GEVA.c ****         }
 2660              		.loc 1 176 13 is_stmt 1 view .LVU843
 2661              	.L155:
 182:Core/Src/GEVA.c ****             error = put_pixel(pos_x1, firsty + i, SET_C, buf);
 2662              		.loc 1 182 9 view .LVU844
 2663              	.LBB39:
 182:Core/Src/GEVA.c ****             error = put_pixel(pos_x1, firsty + i, SET_C, buf);
 2664              		.loc 1 182 14 view .LVU845
 182:Core/Src/GEVA.c ****             error = put_pixel(pos_x1, firsty + i, SET_C, buf);
 2665              		.loc 1 182 22 is_stmt 0 view .LVU846
 2666 0046 0025     		movs	r5, #0
 2667 0048 2846     		mov	r0, r5
 2668              	.LVL257:
 2669              	.L156:
 182:Core/Src/GEVA.c ****             error = put_pixel(pos_x1, firsty + i, SET_C, buf);
 2670              		.loc 1 182 31 is_stmt 1 discriminator 1 view .LVU847
 2671 004a AE42     		cmp	r6, r5
 2672 004c 10D9     		bls	.L172
 183:Core/Src/GEVA.c ****         }
 2673              		.loc 1 183 13 discriminator 3 view .LVU848
 183:Core/Src/GEVA.c ****         }
 2674              		.loc 1 183 21 is_stmt 0 discriminator 3 view .LVU849
 2675 004e 7919     		adds	r1, r7, r5
 2676 0050 5B46     		mov	r3, fp
 2677 0052 0122     		movs	r2, #1
 2678 0054 C9B2     		uxtb	r1, r1
 2679 0056 2046     		mov	r0, r4
 2680              	.LVL258:
 183:Core/Src/GEVA.c ****         }
 2681              		.loc 1 183 21 discriminator 3 view .LVU850
 2682 0058 FFF7FEFF 		bl	put_pixel
 2683              	.LVL259:
 182:Core/Src/GEVA.c ****             error = put_pixel(pos_x1, firsty + i, SET_C, buf);
 2684              		.loc 1 182 47 is_stmt 1 discriminator 3 view .LVU851
 2685 005c 0135     		adds	r5, r5, #1
 2686              	.LVL260:
 182:Core/Src/GEVA.c ****             error = put_pixel(pos_x1, firsty + i, SET_C, buf);
 2687              		.loc 1 182 47 is_stmt 0 discriminator 3 view .LVU852
 2688 005e EDB2     		uxtb	r5, r5
 2689              	.LVL261:
 182:Core/Src/GEVA.c ****             error = put_pixel(pos_x1, firsty + i, SET_C, buf);
 2690              		.loc 1 182 47 discriminator 3 view .LVU853
 2691 0060 F3E7     		b	.L156
 2692              	.LVL262:
 2693              	.L154:
 182:Core/Src/GEVA.c ****             error = put_pixel(pos_x1, firsty + i, SET_C, buf);
 2694              		.loc 1 182 47 discriminator 3 view .LVU854
 2695              	.LBE39:
 179:Core/Src/GEVA.c ****             firsty = pos_y1;
 2696              		.loc 1 179 13 is_stmt 1 view .LVU855
 179:Core/Src/GEVA.c ****             firsty = pos_y1;
 2697              		.loc 1 179 35 is_stmt 0 view .LVU856
 2698 0062 049B     		ldr	r3, [sp, #16]
 2699              	.LVL263:
ARM GAS  C:\Users\arist\AppData\Local\Temp\ccSK2xlW.s 			page 72


 179:Core/Src/GEVA.c ****             firsty = pos_y1;
 2700              		.loc 1 179 35 view .LVU857
 2701 0064 FE1A     		subs	r6, r7, r3
 2702 0066 F6B2     		uxtb	r6, r6
 179:Core/Src/GEVA.c ****             firsty = pos_y1;
 2703              		.loc 1 179 25 view .LVU858
 2704 0068 0136     		adds	r6, r6, #1
 2705 006a F6B2     		uxtb	r6, r6
 2706              	.LVL264:
 180:Core/Src/GEVA.c ****         }
 2707              		.loc 1 180 13 is_stmt 1 view .LVU859
 180:Core/Src/GEVA.c ****         }
 2708              		.loc 1 180 20 is_stmt 0 view .LVU860
 2709 006c 1F46     		mov	r7, r3
 2710 006e EAE7     		b	.L155
 2711              	.LVL265:
 2712              	.L172:
 2713              	.LBB40:
 180:Core/Src/GEVA.c ****         }
 2714              		.loc 1 180 20 view .LVU861
 2715 0070 8446     		mov	ip, r0
 2716 0072 23E0     		b	.L158
 2717              	.LVL266:
 2718              	.L166:
 180:Core/Src/GEVA.c ****         }
 2719              		.loc 1 180 20 view .LVU862
 2720              	.LBE40:
 2721              	.LBE38:
 2722              	.LBB41:
 197:Core/Src/GEVA.c ****         }
 2723              		.loc 1 197 19 view .LVU863
 2724 0074 1946     		mov	r1, r3
 2725              	.LVL267:
 196:Core/Src/GEVA.c ****             lasty = pos_y2;
 2726              		.loc 1 196 20 view .LVU864
 2727 0076 049B     		ldr	r3, [sp, #16]
 2728              	.LVL268:
 196:Core/Src/GEVA.c ****             lasty = pos_y2;
 2729              		.loc 1 196 20 view .LVU865
 2730 0078 D1E7     		b	.L159
 2731              	.LVL269:
 2732              	.L167:
 200:Core/Src/GEVA.c **** 
 2733              		.loc 1 200 16 view .LVU866
 2734 007a 4FF0010A 		mov	r10, #1
 2735 007e D2E7     		b	.L160
 2736              	.LVL270:
 2737              	.L162:
 2738              	.LBB35:
 219:Core/Src/GEVA.c ****                fill_y++;
 2739              		.loc 1 219 16 is_stmt 1 view .LVU867
 219:Core/Src/GEVA.c ****                fill_y++;
 2740              		.loc 1 219 24 is_stmt 0 view .LVU868
 2741 0080 5B46     		mov	r3, fp
 2742 0082 0122     		movs	r2, #1
 2743 0084 E1B2     		uxtb	r1, r4
 2744 0086 4046     		mov	r0, r8
ARM GAS  C:\Users\arist\AppData\Local\Temp\ccSK2xlW.s 			page 73


 2745 0088 FFF7FEFF 		bl	put_pixel
 2746              	.LVL271:
 2747 008c 0390     		str	r0, [sp, #12]
 2748              	.LVL272:
 220:Core/Src/GEVA.c **** 
 2749              		.loc 1 220 16 is_stmt 1 view .LVU869
 220:Core/Src/GEVA.c **** 
 2750              		.loc 1 220 22 is_stmt 0 view .LVU870
 2751 008e 0135     		adds	r5, r5, #1
 2752              	.LVL273:
 220:Core/Src/GEVA.c **** 
 2753              		.loc 1 220 22 view .LVU871
 2754 0090 EDB2     		uxtb	r5, r5
 2755              	.LVL274:
 222:Core/Src/GEVA.c ****                    return error;
 2756              		.loc 1 222 16 is_stmt 1 view .LVU872
 222:Core/Src/GEVA.c ****                    return error;
 2757              		.loc 1 222 19 is_stmt 0 view .LVU873
 2758 0092 BC42     		cmp	r4, r7
 2759 0094 0DD0     		beq	.L173
 2760              	.L163:
 225:Core/Src/GEVA.c ****         }
 2761              		.loc 1 225 30 is_stmt 1 view .LVU874
 225:Core/Src/GEVA.c ****         }
 2762              		.loc 1 225 41 is_stmt 0 view .LVU875
 2763 0096 A6EB0900 		sub	r0, r6, r9
 225:Core/Src/GEVA.c ****         }
 2764              		.loc 1 225 32 view .LVU876
 2765 009a 40B2     		sxtb	r0, r0
 2766 009c FFF7FEFF 		bl	modulo
 2767              	.LVL275:
 225:Core/Src/GEVA.c ****         }
 2768              		.loc 1 225 30 view .LVU877
 2769 00a0 A842     		cmp	r0, r5
 2770 00a2 0FD9     		bls	.L174
 2771              	.LVL276:
 2772              	.L164:
 213:Core/Src/GEVA.c ****                y_todrw = y + (slope_addendum * fill_y);
 2773              		.loc 1 213 13 is_stmt 1 view .LVU878
 214:Core/Src/GEVA.c ****               
 2774              		.loc 1 214 16 view .LVU879
 214:Core/Src/GEVA.c ****               
 2775              		.loc 1 214 28 is_stmt 0 view .LVU880
 2776 00a4 0AFB0564 		mla	r4, r10, r5, r6
 214:Core/Src/GEVA.c ****               
 2777              		.loc 1 214 24 view .LVU881
 2778 00a8 64B2     		sxtb	r4, r4
 2779              	.LVL277:
 216:Core/Src/GEVA.c ****                    y_todrw = 0;
 2780              		.loc 1 216 16 is_stmt 1 view .LVU882
 216:Core/Src/GEVA.c ****                    y_todrw = 0;
 2781              		.loc 1 216 19 is_stmt 0 view .LVU883
 2782 00aa 002C     		cmp	r4, #0
 2783 00ac E8DA     		bge	.L162
 217:Core/Src/GEVA.c **** 
 2784              		.loc 1 217 28 view .LVU884
 2785 00ae 0024     		movs	r4, #0
ARM GAS  C:\Users\arist\AppData\Local\Temp\ccSK2xlW.s 			page 74


 2786              	.LVL278:
 217:Core/Src/GEVA.c **** 
 2787              		.loc 1 217 28 view .LVU885
 2788 00b0 E6E7     		b	.L162
 2789              	.LVL279:
 2790              	.L173:
 222:Core/Src/GEVA.c ****                    return error;
 2791              		.loc 1 222 38 discriminator 1 view .LVU886
 2792 00b2 049B     		ldr	r3, [sp, #16]
 2793 00b4 BB42     		cmp	r3, r7
 2794 00b6 EED0     		beq	.L163
 2795 00b8 DDF80CC0 		ldr	ip, [sp, #12]
 2796              	.LVL280:
 2797              	.L158:
 222:Core/Src/GEVA.c ****                    return error;
 2798              		.loc 1 222 38 discriminator 1 view .LVU887
 2799              	.LBE35:
 2800              	.LBE41:
 229:Core/Src/GEVA.c **** 
 2801              		.loc 1 229 1 view .LVU888
 2802 00bc 6046     		mov	r0, ip
 2803 00be 0BB0     		add	sp, sp, #44
 2804              		.cfi_remember_state
 2805              		.cfi_def_cfa_offset 36
 2806              		@ sp needed
 2807 00c0 BDE8F08F 		pop	{r4, r5, r6, r7, r8, r9, r10, fp, pc}
 2808              	.LVL281:
 2809              	.L174:
 2810              		.cfi_restore_state
 2811              	.LBB42:
 2812              	.LBB36:
 207:Core/Src/GEVA.c **** 
 2813              		.loc 1 207 50 view .LVU889
 2814 00c4 079C     		ldr	r4, [sp, #28]
 2815              	.LVL282:
 207:Core/Src/GEVA.c **** 
 2816              		.loc 1 207 50 view .LVU890
 2817 00c6 DDF81880 		ldr	r8, [sp, #24]
 2818              	.LVL283:
 2819              	.L161:
 207:Core/Src/GEVA.c **** 
 2820              		.loc 1 207 36 is_stmt 1 discriminator 1 view .LVU891
 2821 00ca 4445     		cmp	r4, r8
 2822 00cc 18D3     		bcc	.L175
 209:Core/Src/GEVA.c ****             nexty = calculate_y(x + 1, firstx, lastx, firsty, lasty);
 2823              		.loc 1 209 13 view .LVU892
 209:Core/Src/GEVA.c ****             nexty = calculate_y(x + 1, firstx, lastx, firsty, lasty);
 2824              		.loc 1 209 17 is_stmt 0 view .LVU893
 2825 00ce 089D     		ldr	r5, [sp, #32]
 2826 00d0 0095     		str	r5, [sp]
 2827 00d2 059B     		ldr	r3, [sp, #20]
 2828 00d4 2246     		mov	r2, r4
 2829 00d6 DDF82490 		ldr	r9, [sp, #36]
 2830 00da 4946     		mov	r1, r9
 2831 00dc 4046     		mov	r0, r8
 2832 00de FFF7FEFF 		bl	calculate_y
 2833              	.LVL284:
ARM GAS  C:\Users\arist\AppData\Local\Temp\ccSK2xlW.s 			page 75


 2834 00e2 0646     		mov	r6, r0
 2835              	.LVL285:
 210:Core/Src/GEVA.c ****             fill_y = 0;
 2836              		.loc 1 210 13 is_stmt 1 view .LVU894
 210:Core/Src/GEVA.c ****             fill_y = 0;
 2837              		.loc 1 210 21 is_stmt 0 view .LVU895
 2838 00e4 08F10103 		add	r3, r8, #1
 2839 00e8 D8B2     		uxtb	r0, r3
 2840 00ea 0690     		str	r0, [sp, #24]
 2841 00ec 0095     		str	r5, [sp]
 2842 00ee 059B     		ldr	r3, [sp, #20]
 2843 00f0 2246     		mov	r2, r4
 2844 00f2 4946     		mov	r1, r9
 2845 00f4 FFF7FEFF 		bl	calculate_y
 2846              	.LVL286:
 2847 00f8 8146     		mov	r9, r0
 2848              	.LVL287:
 211:Core/Src/GEVA.c **** 
 2849              		.loc 1 211 13 is_stmt 1 view .LVU896
 211:Core/Src/GEVA.c **** 
 2850              		.loc 1 211 20 is_stmt 0 view .LVU897
 2851 00fa 0025     		movs	r5, #0
 2852 00fc 0794     		str	r4, [sp, #28]
 2853 00fe D1E7     		b	.L164
 2854              	.LVL288:
 2855              	.L175:
 211:Core/Src/GEVA.c **** 
 2856              		.loc 1 211 20 view .LVU898
 2857 0100 DDF80CC0 		ldr	ip, [sp, #12]
 2858 0104 DAE7     		b	.L158
 2859              	.LBE36:
 2860              	.LBE42:
 2861              		.cfi_endproc
 2862              	.LFE5:
 2864              		.section	.text.put_rect,"ax",%progbits
 2865              		.align	1
 2866              		.global	put_rect
 2867              		.syntax unified
 2868              		.thumb
 2869              		.thumb_func
 2871              	put_rect:
 2872              	.LVL289:
 2873              	.LFB11:
 538:Core/Src/GEVA.c ****     uint8_t error = 0;
 2874              		.loc 1 538 92 is_stmt 1 view -0
 2875              		.cfi_startproc
 2876              		@ args = 4, pretend = 0, frame = 0
 2877              		@ frame_needed = 0, uses_anonymous_args = 0
 538:Core/Src/GEVA.c ****     uint8_t error = 0;
 2878              		.loc 1 538 92 is_stmt 0 view .LVU900
 2879 0000 2DE9F041 		push	{r4, r5, r6, r7, r8, lr}
 2880              		.cfi_def_cfa_offset 24
 2881              		.cfi_offset 4, -24
 2882              		.cfi_offset 5, -20
 2883              		.cfi_offset 6, -16
 2884              		.cfi_offset 7, -12
 2885              		.cfi_offset 8, -8
ARM GAS  C:\Users\arist\AppData\Local\Temp\ccSK2xlW.s 			page 76


 2886              		.cfi_offset 14, -4
 2887 0004 82B0     		sub	sp, sp, #8
 2888              		.cfi_def_cfa_offset 32
 2889 0006 0646     		mov	r6, r0
 2890 0008 0F46     		mov	r7, r1
 2891 000a 1C46     		mov	r4, r3
 2892 000c DDF82080 		ldr	r8, [sp, #32]
 539:Core/Src/GEVA.c ****     error = put_line(o_x, o_y, o_x + width, o_y, buf);
 2893              		.loc 1 539 5 is_stmt 1 view .LVU901
 2894              	.LVL290:
 540:Core/Src/GEVA.c ****     error = put_line(o_x + width, o_y, o_x + width, o_y + height, buf);
 2895              		.loc 1 540 5 view .LVU902
 540:Core/Src/GEVA.c ****     error = put_line(o_x + width, o_y, o_x + width, o_y + height, buf);
 2896              		.loc 1 540 13 is_stmt 0 view .LVU903
 2897 0010 0244     		add	r2, r2, r0
 2898              	.LVL291:
 540:Core/Src/GEVA.c ****     error = put_line(o_x + width, o_y, o_x + width, o_y + height, buf);
 2899              		.loc 1 540 13 view .LVU904
 2900 0012 D5B2     		uxtb	r5, r2
 2901 0014 CDF80080 		str	r8, [sp]
 2902 0018 0B46     		mov	r3, r1
 2903              	.LVL292:
 540:Core/Src/GEVA.c ****     error = put_line(o_x + width, o_y, o_x + width, o_y + height, buf);
 2904              		.loc 1 540 13 view .LVU905
 2905 001a 2A46     		mov	r2, r5
 2906 001c FFF7FEFF 		bl	put_line
 2907              	.LVL293:
 541:Core/Src/GEVA.c ****     error = put_line(o_x, o_y + height, o_x + width, o_y + height, buf);
 2908              		.loc 1 541 5 is_stmt 1 view .LVU906
 541:Core/Src/GEVA.c ****     error = put_line(o_x, o_y + height, o_x + width, o_y + height, buf);
 2909              		.loc 1 541 13 is_stmt 0 view .LVU907
 2910 0020 3C44     		add	r4, r4, r7
 2911 0022 E4B2     		uxtb	r4, r4
 2912 0024 CDF80080 		str	r8, [sp]
 2913 0028 2346     		mov	r3, r4
 2914 002a 2A46     		mov	r2, r5
 2915 002c 3946     		mov	r1, r7
 2916 002e 2846     		mov	r0, r5
 2917 0030 FFF7FEFF 		bl	put_line
 2918              	.LVL294:
 542:Core/Src/GEVA.c ****     error = put_line(o_x, o_y, o_x, o_y + height, buf);
 2919              		.loc 1 542 5 is_stmt 1 view .LVU908
 542:Core/Src/GEVA.c ****     error = put_line(o_x, o_y, o_x, o_y + height, buf);
 2920              		.loc 1 542 13 is_stmt 0 view .LVU909
 2921 0034 CDF80080 		str	r8, [sp]
 2922 0038 2346     		mov	r3, r4
 2923 003a 2A46     		mov	r2, r5
 2924 003c 2146     		mov	r1, r4
 2925 003e 3046     		mov	r0, r6
 2926 0040 FFF7FEFF 		bl	put_line
 2927              	.LVL295:
 543:Core/Src/GEVA.c ****     return error;
 2928              		.loc 1 543 5 is_stmt 1 view .LVU910
 543:Core/Src/GEVA.c ****     return error;
 2929              		.loc 1 543 13 is_stmt 0 view .LVU911
 2930 0044 CDF80080 		str	r8, [sp]
 2931 0048 2346     		mov	r3, r4
ARM GAS  C:\Users\arist\AppData\Local\Temp\ccSK2xlW.s 			page 77


 2932 004a 3246     		mov	r2, r6
 2933 004c 3946     		mov	r1, r7
 2934 004e 3046     		mov	r0, r6
 2935 0050 FFF7FEFF 		bl	put_line
 2936              	.LVL296:
 544:Core/Src/GEVA.c **** }
 2937              		.loc 1 544 5 is_stmt 1 view .LVU912
 545:Core/Src/GEVA.c **** 
 2938              		.loc 1 545 1 is_stmt 0 view .LVU913
 2939 0054 02B0     		add	sp, sp, #8
 2940              		.cfi_def_cfa_offset 24
 2941              		@ sp needed
 2942 0056 BDE8F081 		pop	{r4, r5, r6, r7, r8, pc}
 545:Core/Src/GEVA.c **** 
 2943              		.loc 1 545 1 view .LVU914
 2944              		.cfi_endproc
 2945              	.LFE11:
 2947              		.section	.text.put_triangle,"ax",%progbits
 2948              		.align	1
 2949              		.global	put_triangle
 2950              		.syntax unified
 2951              		.thumb
 2952              		.thumb_func
 2954              	put_triangle:
 2955              	.LVL297:
 2956              	.LFB12:
 552:Core/Src/GEVA.c ****     uint8_t error = 0;
 2957              		.loc 1 552 119 is_stmt 1 view -0
 2958              		.cfi_startproc
 2959              		@ args = 12, pretend = 0, frame = 0
 2960              		@ frame_needed = 0, uses_anonymous_args = 0
 552:Core/Src/GEVA.c ****     uint8_t error = 0;
 2961              		.loc 1 552 119 is_stmt 0 view .LVU916
 2962 0000 2DE9F047 		push	{r4, r5, r6, r7, r8, r9, r10, lr}
 2963              		.cfi_def_cfa_offset 32
 2964              		.cfi_offset 4, -32
 2965              		.cfi_offset 5, -28
 2966              		.cfi_offset 6, -24
 2967              		.cfi_offset 7, -20
 2968              		.cfi_offset 8, -16
 2969              		.cfi_offset 9, -12
 2970              		.cfi_offset 10, -8
 2971              		.cfi_offset 14, -4
 2972 0004 82B0     		sub	sp, sp, #8
 2973              		.cfi_def_cfa_offset 40
 2974 0006 0746     		mov	r7, r0
 2975 0008 8846     		mov	r8, r1
 2976 000a 1446     		mov	r4, r2
 2977 000c 1D46     		mov	r5, r3
 2978 000e 9DF82890 		ldrb	r9, [sp, #40]	@ zero_extendqisi2
 2979 0012 9DF82CA0 		ldrb	r10, [sp, #44]	@ zero_extendqisi2
 2980 0016 0C9E     		ldr	r6, [sp, #48]
 553:Core/Src/GEVA.c ****     error = put_line(a_x, a_y, b_x, b_y, buf);
 2981              		.loc 1 553 5 is_stmt 1 view .LVU917
 2982              	.LVL298:
 554:Core/Src/GEVA.c ****     error = put_line(a_x, a_y, c_x, c_y, buf);
 2983              		.loc 1 554 5 view .LVU918
ARM GAS  C:\Users\arist\AppData\Local\Temp\ccSK2xlW.s 			page 78


 554:Core/Src/GEVA.c ****     error = put_line(a_x, a_y, c_x, c_y, buf);
 2984              		.loc 1 554 13 is_stmt 0 view .LVU919
 2985 0018 0096     		str	r6, [sp]
 2986 001a FFF7FEFF 		bl	put_line
 2987              	.LVL299:
 555:Core/Src/GEVA.c ****     error = put_line(b_x, b_y, c_x, c_y, buf);
 2988              		.loc 1 555 5 is_stmt 1 view .LVU920
 555:Core/Src/GEVA.c ****     error = put_line(b_x, b_y, c_x, c_y, buf);
 2989              		.loc 1 555 13 is_stmt 0 view .LVU921
 2990 001e 0096     		str	r6, [sp]
 2991 0020 5346     		mov	r3, r10
 2992 0022 4A46     		mov	r2, r9
 2993 0024 4146     		mov	r1, r8
 2994 0026 3846     		mov	r0, r7
 2995 0028 FFF7FEFF 		bl	put_line
 2996              	.LVL300:
 556:Core/Src/GEVA.c ****     return error;
 2997              		.loc 1 556 5 is_stmt 1 view .LVU922
 556:Core/Src/GEVA.c ****     return error;
 2998              		.loc 1 556 13 is_stmt 0 view .LVU923
 2999 002c 0096     		str	r6, [sp]
 3000 002e 5346     		mov	r3, r10
 3001 0030 4A46     		mov	r2, r9
 3002 0032 2946     		mov	r1, r5
 3003 0034 2046     		mov	r0, r4
 3004 0036 FFF7FEFF 		bl	put_line
 3005              	.LVL301:
 557:Core/Src/GEVA.c **** }
 3006              		.loc 1 557 5 is_stmt 1 view .LVU924
 558:Core/Src/GEVA.c **** 
 3007              		.loc 1 558 1 is_stmt 0 view .LVU925
 3008 003a 02B0     		add	sp, sp, #8
 3009              		.cfi_def_cfa_offset 32
 3010              		@ sp needed
 3011 003c BDE8F087 		pop	{r4, r5, r6, r7, r8, r9, r10, pc}
 558:Core/Src/GEVA.c **** 
 3012              		.loc 1 558 1 view .LVU926
 3013              		.cfi_endproc
 3014              	.LFE12:
 3016              		.section	.text.put_pos_COL,"ax",%progbits
 3017              		.align	1
 3018              		.global	put_pos_COL
 3019              		.syntax unified
 3020              		.thumb
 3021              		.thumb_func
 3023              	put_pos_COL:
 3024              	.LVL302:
 3025              	.LFB22:
 702:Core/Src/GEVA.c **** 
 703:Core/Src/GEVA.c **** /* Draw only positive column chart
 704:Core/Src/GEVA.c ****  * return error code
 705:Core/Src/GEVA.c ****  * error code list:
 706:Core/Src/GEVA.c ****  * 1 data out of range
 707:Core/Src/GEVA.c ****  * 2 dimension mismatch
 708:Core/Src/GEVA.c ****  * 3 chart not defined
 709:Core/Src/GEVA.c ****  * 4 starting point out of scope
 710:Core/Src/GEVA.c **** */
ARM GAS  C:\Users\arist\AppData\Local\Temp\ccSK2xlW.s 			page 79


 711:Core/Src/GEVA.c **** uint8_t put_pos_COL(data_container* c, video_buffer* buf) {
 3026              		.loc 1 711 59 is_stmt 1 view -0
 3027              		.cfi_startproc
 3028              		@ args = 0, pretend = 0, frame = 8
 3029              		@ frame_needed = 0, uses_anonymous_args = 0
 712:Core/Src/GEVA.c **** 
 713:Core/Src/GEVA.c ****     uint8_t error = 1;
 3030              		.loc 1 713 5 view .LVU928
 714:Core/Src/GEVA.c **** 
 715:Core/Src/GEVA.c ****     if (c->max == 0 || c->dim_x == 0 || c->dim_y_pos == 0 || c->max <= c->min)
 3031              		.loc 1 715 5 view .LVU929
 3032              		.loc 1 715 10 is_stmt 0 view .LVU930
 3033 0000 D0ED027A 		vldr.32	s15, [r0, #8]
 3034              		.loc 1 715 8 view .LVU931
 3035 0004 F5EE407A 		vcmp.f32	s15, #0
 3036 0008 F1EE10FA 		vmrs	APSR_nzcv, FPSCR
 3037 000c 54D0     		beq	.L187
 711:Core/Src/GEVA.c **** 
 3038              		.loc 1 711 59 discriminator 1 view .LVU932
 3039 000e F0B5     		push	{r4, r5, r6, r7, lr}
 3040              		.cfi_def_cfa_offset 20
 3041              		.cfi_offset 4, -20
 3042              		.cfi_offset 5, -16
 3043              		.cfi_offset 6, -12
 3044              		.cfi_offset 7, -8
 3045              		.cfi_offset 14, -4
 3046 0010 85B0     		sub	sp, sp, #20
 3047              		.cfi_def_cfa_offset 40
 3048 0012 0446     		mov	r4, r0
 3049 0014 0D46     		mov	r5, r1
 3050              		.loc 1 715 25 discriminator 1 view .LVU933
 3051 0016 C278     		ldrb	r2, [r0, #3]	@ zero_extendqisi2
 3052              		.loc 1 715 21 discriminator 1 view .LVU934
 3053 0018 002A     		cmp	r2, #0
 3054 001a 4FD0     		beq	.L188
 3055              		.loc 1 715 42 discriminator 2 view .LVU935
 3056 001c 0379     		ldrb	r3, [r0, #4]	@ zero_extendqisi2
 3057              		.loc 1 715 38 discriminator 2 view .LVU936
 3058 001e 002B     		cmp	r3, #0
 3059 0020 4FD0     		beq	.L189
 3060              		.loc 1 715 73 discriminator 3 view .LVU937
 3061 0022 90ED037A 		vldr.32	s14, [r0, #12]
 3062              		.loc 1 715 59 discriminator 3 view .LVU938
 3063 0026 F4EEC77A 		vcmpe.f32	s15, s14
 3064 002a F1EE10FA 		vmrs	APSR_nzcv, FPSCR
 3065 002e 01D8     		bhi	.L200
 716:Core/Src/GEVA.c ****         error = 3;
 3066              		.loc 1 716 15 view .LVU939
 3067 0030 0320     		movs	r0, #3
 3068              	.LVL303:
 3069              		.loc 1 716 15 view .LVU940
 3070 0032 44E0     		b	.L181
 3071              	.LVL304:
 3072              	.L200:
 717:Core/Src/GEVA.c **** 
 718:Core/Src/GEVA.c ****     else {
 719:Core/Src/GEVA.c ****         error = clear_sector(c->o_x, c->o_y, c->dim_x, c->dim_y_pos, buf); //limits check within cl
ARM GAS  C:\Users\arist\AppData\Local\Temp\ccSK2xlW.s 			page 80


 3073              		.loc 1 719 9 is_stmt 1 view .LVU941
 3074              		.loc 1 719 17 is_stmt 0 view .LVU942
 3075 0034 0091     		str	r1, [sp]
 3076 0036 4178     		ldrb	r1, [r0, #1]	@ zero_extendqisi2
 3077              	.LVL305:
 3078              		.loc 1 719 17 view .LVU943
 3079 0038 0078     		ldrb	r0, [r0]	@ zero_extendqisi2
 3080              	.LVL306:
 3081              		.loc 1 719 17 view .LVU944
 3082 003a FFF7FEFF 		bl	clear_sector
 3083              	.LVL307:
 720:Core/Src/GEVA.c **** 
 721:Core/Src/GEVA.c ****         if (c->o_y + c->data >= 0) {
 3084              		.loc 1 721 9 is_stmt 1 view .LVU945
 3085              		.loc 1 721 14 is_stmt 0 view .LVU946
 3086 003e 6378     		ldrb	r3, [r4, #1]	@ zero_extendqisi2
 3087 0040 07EE903A 		vmov	s15, r3	@ int
 3088              		.loc 1 721 23 view .LVU947
 3089 0044 94ED057A 		vldr.32	s14, [r4, #20]
 3090              		.loc 1 721 20 view .LVU948
 3091 0048 F8EEE77A 		vcvt.f32.s32	s15, s15
 3092 004c 77EE877A 		vadd.f32	s15, s15, s14
 3093              		.loc 1 721 12 view .LVU949
 3094 0050 F5EEC07A 		vcmpe.f32	s15, #0
 3095 0054 F1EE10FA 		vmrs	APSR_nzcv, FPSCR
 3096 0058 35DB     		blt	.L195
 722:Core/Src/GEVA.c ****             if (c->data > 0 && c->data <= c->max) {
 3097              		.loc 1 722 13 is_stmt 1 view .LVU950
 3098              		.loc 1 722 16 is_stmt 0 view .LVU951
 3099 005a B5EEC07A 		vcmpe.f32	s14, #0
 3100 005e F1EE10FA 		vmrs	APSR_nzcv, FPSCR
 3101 0062 2CDD     		ble	.L181
 3102              		.loc 1 722 44 discriminator 1 view .LVU952
 3103 0064 D4ED026A 		vldr.32	s13, [r4, #8]
 3104              		.loc 1 722 29 discriminator 1 view .LVU953
 3105 0068 B4EEE67A 		vcmpe.f32	s14, s13
 3106 006c F1EE10FA 		vmrs	APSR_nzcv, FPSCR
 3107 0070 25D8     		bhi	.L181
 3108              	.LBB43:
 723:Core/Src/GEVA.c ****                 uint8_t dy = c->data * c->dim_y_pos / c->max;
 3109              		.loc 1 723 17 is_stmt 1 view .LVU954
 3110              		.loc 1 723 41 is_stmt 0 view .LVU955
 3111 0072 2379     		ldrb	r3, [r4, #4]	@ zero_extendqisi2
 3112 0074 07EE903A 		vmov	s15, r3	@ int
 3113              		.loc 1 723 38 view .LVU956
 3114 0078 F8EEE77A 		vcvt.f32.s32	s15, s15
 3115 007c 67EE877A 		vmul.f32	s15, s15, s14
 3116              		.loc 1 723 53 view .LVU957
 3117 0080 87EEA67A 		vdiv.f32	s14, s15, s13
 3118              		.loc 1 723 25 view .LVU958
 3119 0084 FCEEC77A 		vcvt.u32.f32	s15, s14
 3120 0088 CDED037A 		vstr.32	s15, [sp, #12]	@ int
 3121 008c 9DF80C70 		ldrb	r7, [sp, #12]	@ zero_extendqisi2
 3122              	.LVL308:
 724:Core/Src/GEVA.c **** 
 725:Core/Src/GEVA.c ****                 for (uint8_t i = 0; i < c->dim_x; i++)
 3123              		.loc 1 725 17 is_stmt 1 view .LVU959
ARM GAS  C:\Users\arist\AppData\Local\Temp\ccSK2xlW.s 			page 81


 3124              	.LBB44:
 3125              		.loc 1 725 22 view .LVU960
 3126              		.loc 1 725 30 is_stmt 0 view .LVU961
 3127 0090 0026     		movs	r6, #0
 3128              		.loc 1 725 17 view .LVU962
 3129 0092 0DE0     		b	.L185
 3130              	.LVL309:
 3131              	.L186:
 726:Core/Src/GEVA.c ****                     error = put_line(c->o_x + i, c->o_y, c->o_x + i, c->o_y + dy - 1, buf);
 3132              		.loc 1 726 21 is_stmt 1 discriminator 3 view .LVU963
 3133              		.loc 1 726 39 is_stmt 0 discriminator 3 view .LVU964
 3134 0094 2078     		ldrb	r0, [r4]	@ zero_extendqisi2
 3135              	.LVL310:
 3136              		.loc 1 726 29 discriminator 3 view .LVU965
 3137 0096 3044     		add	r0, r0, r6
 3138 0098 C0B2     		uxtb	r0, r0
 3139 009a 6178     		ldrb	r1, [r4, #1]	@ zero_extendqisi2
 3140              		.loc 1 726 77 discriminator 3 view .LVU966
 3141 009c CB19     		adds	r3, r1, r7
 3142 009e DBB2     		uxtb	r3, r3
 3143              		.loc 1 726 29 discriminator 3 view .LVU967
 3144 00a0 013B     		subs	r3, r3, #1
 3145 00a2 0095     		str	r5, [sp]
 3146 00a4 DBB2     		uxtb	r3, r3
 3147 00a6 0246     		mov	r2, r0
 3148 00a8 FFF7FEFF 		bl	put_line
 3149              	.LVL311:
 725:Core/Src/GEVA.c ****                     error = put_line(c->o_x + i, c->o_y, c->o_x + i, c->o_y + dy - 1, buf);
 3150              		.loc 1 725 52 is_stmt 1 discriminator 3 view .LVU968
 3151 00ac 0136     		adds	r6, r6, #1
 3152              	.LVL312:
 725:Core/Src/GEVA.c ****                     error = put_line(c->o_x + i, c->o_y, c->o_x + i, c->o_y + dy - 1, buf);
 3153              		.loc 1 725 52 is_stmt 0 discriminator 3 view .LVU969
 3154 00ae F6B2     		uxtb	r6, r6
 3155              	.LVL313:
 3156              	.L185:
 725:Core/Src/GEVA.c ****                     error = put_line(c->o_x + i, c->o_y, c->o_x + i, c->o_y + dy - 1, buf);
 3157              		.loc 1 725 39 is_stmt 1 discriminator 1 view .LVU970
 725:Core/Src/GEVA.c ****                     error = put_line(c->o_x + i, c->o_y, c->o_x + i, c->o_y + dy - 1, buf);
 3158              		.loc 1 725 42 is_stmt 0 discriminator 1 view .LVU971
 3159 00b0 E378     		ldrb	r3, [r4, #3]	@ zero_extendqisi2
 725:Core/Src/GEVA.c ****                     error = put_line(c->o_x + i, c->o_y, c->o_x + i, c->o_y + dy - 1, buf);
 3160              		.loc 1 725 39 discriminator 1 view .LVU972
 3161 00b2 B342     		cmp	r3, r6
 3162 00b4 EED8     		bhi	.L186
 725:Core/Src/GEVA.c ****                     error = put_line(c->o_x + i, c->o_y, c->o_x + i, c->o_y + dy - 1, buf);
 3163              		.loc 1 725 39 discriminator 1 view .LVU973
 3164 00b6 02E0     		b	.L181
 3165              	.LVL314:
 3166              	.L187:
 3167              		.cfi_def_cfa_offset 0
 3168              		.cfi_restore 4
 3169              		.cfi_restore 5
 3170              		.cfi_restore 6
 3171              		.cfi_restore 7
 3172              		.cfi_restore 14
 725:Core/Src/GEVA.c ****                     error = put_line(c->o_x + i, c->o_y, c->o_x + i, c->o_y + dy - 1, buf);
ARM GAS  C:\Users\arist\AppData\Local\Temp\ccSK2xlW.s 			page 82


 3173              		.loc 1 725 39 discriminator 1 view .LVU974
 3174              	.LBE44:
 3175              	.LBE43:
 716:Core/Src/GEVA.c **** 
 3176              		.loc 1 716 15 view .LVU975
 3177 00b8 0320     		movs	r0, #3
 3178              	.LVL315:
 727:Core/Src/GEVA.c ****             }
 728:Core/Src/GEVA.c ****         }
 729:Core/Src/GEVA.c ****         else
 730:Core/Src/GEVA.c ****             error = 2;
 731:Core/Src/GEVA.c ****     }
 732:Core/Src/GEVA.c **** 
 733:Core/Src/GEVA.c ****     return error;
 3179              		.loc 1 733 5 is_stmt 1 view .LVU976
 734:Core/Src/GEVA.c **** }
 3180              		.loc 1 734 1 is_stmt 0 view .LVU977
 3181 00ba 7047     		bx	lr
 3182              	.LVL316:
 3183              	.L188:
 3184              		.cfi_def_cfa_offset 40
 3185              		.cfi_offset 4, -20
 3186              		.cfi_offset 5, -16
 3187              		.cfi_offset 6, -12
 3188              		.cfi_offset 7, -8
 3189              		.cfi_offset 14, -4
 716:Core/Src/GEVA.c **** 
 3190              		.loc 1 716 15 view .LVU978
 3191 00bc 0320     		movs	r0, #3
 3192              	.LVL317:
 3193              	.L181:
 733:Core/Src/GEVA.c **** }
 3194              		.loc 1 733 5 is_stmt 1 view .LVU979
 3195              		.loc 1 734 1 is_stmt 0 view .LVU980
 3196 00be 05B0     		add	sp, sp, #20
 3197              		.cfi_remember_state
 3198              		.cfi_def_cfa_offset 20
 3199              		@ sp needed
 3200 00c0 F0BD     		pop	{r4, r5, r6, r7, pc}
 3201              	.LVL318:
 3202              	.L189:
 3203              		.cfi_restore_state
 716:Core/Src/GEVA.c **** 
 3204              		.loc 1 716 15 view .LVU981
 3205 00c2 0320     		movs	r0, #3
 3206              	.LVL319:
 716:Core/Src/GEVA.c **** 
 3207              		.loc 1 716 15 view .LVU982
 3208 00c4 FBE7     		b	.L181
 3209              	.LVL320:
 3210              	.L195:
 730:Core/Src/GEVA.c ****     }
 3211              		.loc 1 730 19 view .LVU983
 3212 00c6 0220     		movs	r0, #2
 3213              	.LVL321:
 730:Core/Src/GEVA.c ****     }
 3214              		.loc 1 730 19 view .LVU984
ARM GAS  C:\Users\arist\AppData\Local\Temp\ccSK2xlW.s 			page 83


 3215 00c8 F9E7     		b	.L181
 3216              		.cfi_endproc
 3217              	.LFE22:
 3219              		.section	.text.put_neg_COL,"ax",%progbits
 3220              		.align	1
 3221              		.global	put_neg_COL
 3222              		.syntax unified
 3223              		.thumb
 3224              		.thumb_func
 3226              	put_neg_COL:
 3227              	.LVL322:
 3228              	.LFB23:
 735:Core/Src/GEVA.c **** 
 736:Core/Src/GEVA.c **** /* Draw only positive column chart
 737:Core/Src/GEVA.c ****  * return error code
 738:Core/Src/GEVA.c ****  * error code list:
 739:Core/Src/GEVA.c ****  * 1 data out of range
 740:Core/Src/GEVA.c ****  * 2 dimension mismatch
 741:Core/Src/GEVA.c ****  * 3 chart not defined
 742:Core/Src/GEVA.c ****  * 4 starting point out of scope
 743:Core/Src/GEVA.c **** */
 744:Core/Src/GEVA.c **** uint8_t put_neg_COL(data_container* c, video_buffer* buf) {
 3229              		.loc 1 744 59 is_stmt 1 view -0
 3230              		.cfi_startproc
 3231              		@ args = 0, pretend = 0, frame = 8
 3232              		@ frame_needed = 0, uses_anonymous_args = 0
 745:Core/Src/GEVA.c **** 
 746:Core/Src/GEVA.c ****     uint8_t error = 1;
 3233              		.loc 1 746 5 view .LVU986
 747:Core/Src/GEVA.c **** 
 748:Core/Src/GEVA.c ****     if (c->dim_x == 0 || c->max <= c->min)
 3234              		.loc 1 748 5 view .LVU987
 3235              		.loc 1 748 10 is_stmt 0 view .LVU988
 3236 0000 C278     		ldrb	r2, [r0, #3]	@ zero_extendqisi2
 3237              		.loc 1 748 8 view .LVU989
 3238 0002 002A     		cmp	r2, #0
 3239 0004 54D0     		beq	.L208
 744:Core/Src/GEVA.c **** 
 3240              		.loc 1 744 59 discriminator 1 view .LVU990
 3241 0006 F0B5     		push	{r4, r5, r6, r7, lr}
 3242              		.cfi_def_cfa_offset 20
 3243              		.cfi_offset 4, -20
 3244              		.cfi_offset 5, -16
 3245              		.cfi_offset 6, -12
 3246              		.cfi_offset 7, -8
 3247              		.cfi_offset 14, -4
 3248 0008 85B0     		sub	sp, sp, #20
 3249              		.cfi_def_cfa_offset 40
 3250 000a 0446     		mov	r4, r0
 3251 000c 0D46     		mov	r5, r1
 3252              		.loc 1 748 27 discriminator 1 view .LVU991
 3253 000e 90ED027A 		vldr.32	s14, [r0, #8]
 3254              		.loc 1 748 37 discriminator 1 view .LVU992
 3255 0012 D0ED037A 		vldr.32	s15, [r0, #12]
 3256              		.loc 1 748 23 discriminator 1 view .LVU993
 3257 0016 B4EEE77A 		vcmpe.f32	s14, s15
 3258 001a F1EE10FA 		vmrs	APSR_nzcv, FPSCR
ARM GAS  C:\Users\arist\AppData\Local\Temp\ccSK2xlW.s 			page 84


 3259 001e 02D8     		bhi	.L219
 749:Core/Src/GEVA.c ****         error = 3;
 3260              		.loc 1 749 15 view .LVU994
 3261 0020 0320     		movs	r0, #3
 3262              	.LVL323:
 3263              	.L202:
 750:Core/Src/GEVA.c **** 
 751:Core/Src/GEVA.c ****     else {
 752:Core/Src/GEVA.c ****         error = clear_sector(c->o_x, c->o_y - c->dim_y_neg, c->dim_x, c->dim_y_neg, buf); //limits 
 753:Core/Src/GEVA.c **** 
 754:Core/Src/GEVA.c ****         if (c->o_y + c->data <= 0) {
 755:Core/Src/GEVA.c **** 
 756:Core/Src/GEVA.c ****             if (c->data < 0 && c->data >= c->min) {
 757:Core/Src/GEVA.c ****                 uint8_t dy = c->data * c->dim_y_neg / c->min;
 758:Core/Src/GEVA.c **** 
 759:Core/Src/GEVA.c ****                 for (uint8_t i = 0; i < c->dim_x; i++)
 760:Core/Src/GEVA.c ****                     error = put_line(c->o_x + i, c->o_y-dy+1, c->o_x + i, c->o_y, buf);
 761:Core/Src/GEVA.c ****             }
 762:Core/Src/GEVA.c ****         }
 763:Core/Src/GEVA.c ****         else
 764:Core/Src/GEVA.c ****             error = 2;
 765:Core/Src/GEVA.c ****     }
 766:Core/Src/GEVA.c ****     return error;
 3264              		.loc 1 766 5 is_stmt 1 view .LVU995
 767:Core/Src/GEVA.c **** }
 3265              		.loc 1 767 1 is_stmt 0 view .LVU996
 3266 0022 05B0     		add	sp, sp, #20
 3267              		.cfi_remember_state
 3268              		.cfi_def_cfa_offset 20
 3269              		@ sp needed
 3270 0024 F0BD     		pop	{r4, r5, r6, r7, pc}
 3271              	.LVL324:
 3272              	.L219:
 3273              		.cfi_restore_state
 752:Core/Src/GEVA.c **** 
 3274              		.loc 1 752 9 is_stmt 1 view .LVU997
 752:Core/Src/GEVA.c **** 
 3275              		.loc 1 752 39 is_stmt 0 view .LVU998
 3276 0026 4178     		ldrb	r1, [r0, #1]	@ zero_extendqisi2
 3277              	.LVL325:
 752:Core/Src/GEVA.c **** 
 3278              		.loc 1 752 48 view .LVU999
 3279 0028 4379     		ldrb	r3, [r0, #5]	@ zero_extendqisi2
 752:Core/Src/GEVA.c **** 
 3280              		.loc 1 752 17 view .LVU1000
 3281 002a C91A     		subs	r1, r1, r3
 3282 002c 0095     		str	r5, [sp]
 3283 002e C9B2     		uxtb	r1, r1
 3284 0030 0078     		ldrb	r0, [r0]	@ zero_extendqisi2
 3285              	.LVL326:
 752:Core/Src/GEVA.c **** 
 3286              		.loc 1 752 17 view .LVU1001
 3287 0032 FFF7FEFF 		bl	clear_sector
 3288              	.LVL327:
 754:Core/Src/GEVA.c **** 
 3289              		.loc 1 754 9 is_stmt 1 view .LVU1002
 754:Core/Src/GEVA.c **** 
ARM GAS  C:\Users\arist\AppData\Local\Temp\ccSK2xlW.s 			page 85


 3290              		.loc 1 754 14 is_stmt 0 view .LVU1003
 3291 0036 6378     		ldrb	r3, [r4, #1]	@ zero_extendqisi2
 3292 0038 07EE903A 		vmov	s15, r3	@ int
 754:Core/Src/GEVA.c **** 
 3293              		.loc 1 754 23 view .LVU1004
 3294 003c 94ED057A 		vldr.32	s14, [r4, #20]
 754:Core/Src/GEVA.c **** 
 3295              		.loc 1 754 20 view .LVU1005
 3296 0040 F8EEE77A 		vcvt.f32.s32	s15, s15
 3297 0044 77EE877A 		vadd.f32	s15, s15, s14
 754:Core/Src/GEVA.c **** 
 3298              		.loc 1 754 12 view .LVU1006
 3299 0048 F5EEC07A 		vcmpe.f32	s15, #0
 3300 004c F1EE10FA 		vmrs	APSR_nzcv, FPSCR
 3301 0050 30D8     		bhi	.L214
 756:Core/Src/GEVA.c ****                 uint8_t dy = c->data * c->dim_y_neg / c->min;
 3302              		.loc 1 756 13 is_stmt 1 view .LVU1007
 756:Core/Src/GEVA.c ****                 uint8_t dy = c->data * c->dim_y_neg / c->min;
 3303              		.loc 1 756 16 is_stmt 0 view .LVU1008
 3304 0052 B5EEC07A 		vcmpe.f32	s14, #0
 3305 0056 F1EE10FA 		vmrs	APSR_nzcv, FPSCR
 3306 005a E2D5     		bpl	.L202
 756:Core/Src/GEVA.c ****                 uint8_t dy = c->data * c->dim_y_neg / c->min;
 3307              		.loc 1 756 44 discriminator 1 view .LVU1009
 3308 005c D4ED036A 		vldr.32	s13, [r4, #12]
 756:Core/Src/GEVA.c ****                 uint8_t dy = c->data * c->dim_y_neg / c->min;
 3309              		.loc 1 756 29 discriminator 1 view .LVU1010
 3310 0060 B4EEE67A 		vcmpe.f32	s14, s13
 3311 0064 F1EE10FA 		vmrs	APSR_nzcv, FPSCR
 3312 0068 DBDB     		blt	.L202
 3313              	.LBB45:
 757:Core/Src/GEVA.c **** 
 3314              		.loc 1 757 17 is_stmt 1 view .LVU1011
 757:Core/Src/GEVA.c **** 
 3315              		.loc 1 757 41 is_stmt 0 view .LVU1012
 3316 006a 6379     		ldrb	r3, [r4, #5]	@ zero_extendqisi2
 3317 006c 07EE903A 		vmov	s15, r3	@ int
 757:Core/Src/GEVA.c **** 
 3318              		.loc 1 757 38 view .LVU1013
 3319 0070 F8EEE77A 		vcvt.f32.s32	s15, s15
 3320 0074 67EE877A 		vmul.f32	s15, s15, s14
 757:Core/Src/GEVA.c **** 
 3321              		.loc 1 757 53 view .LVU1014
 3322 0078 87EEA67A 		vdiv.f32	s14, s15, s13
 757:Core/Src/GEVA.c **** 
 3323              		.loc 1 757 25 view .LVU1015
 3324 007c FCEEC77A 		vcvt.u32.f32	s15, s14
 3325 0080 CDED037A 		vstr.32	s15, [sp, #12]	@ int
 3326 0084 9DF80C70 		ldrb	r7, [sp, #12]	@ zero_extendqisi2
 3327              	.LVL328:
 759:Core/Src/GEVA.c ****                     error = put_line(c->o_x + i, c->o_y-dy+1, c->o_x + i, c->o_y, buf);
 3328              		.loc 1 759 17 is_stmt 1 view .LVU1016
 3329              	.LBB46:
 759:Core/Src/GEVA.c ****                     error = put_line(c->o_x + i, c->o_y-dy+1, c->o_x + i, c->o_y, buf);
 3330              		.loc 1 759 22 view .LVU1017
 759:Core/Src/GEVA.c ****                     error = put_line(c->o_x + i, c->o_y-dy+1, c->o_x + i, c->o_y, buf);
 3331              		.loc 1 759 30 is_stmt 0 view .LVU1018
ARM GAS  C:\Users\arist\AppData\Local\Temp\ccSK2xlW.s 			page 86


 3332 0088 0026     		movs	r6, #0
 759:Core/Src/GEVA.c ****                     error = put_line(c->o_x + i, c->o_y-dy+1, c->o_x + i, c->o_y, buf);
 3333              		.loc 1 759 17 view .LVU1019
 3334 008a 0DE0     		b	.L206
 3335              	.LVL329:
 3336              	.L207:
 760:Core/Src/GEVA.c ****             }
 3337              		.loc 1 760 21 is_stmt 1 discriminator 3 view .LVU1020
 760:Core/Src/GEVA.c ****             }
 3338              		.loc 1 760 39 is_stmt 0 discriminator 3 view .LVU1021
 3339 008c 2078     		ldrb	r0, [r4]	@ zero_extendqisi2
 3340              	.LVL330:
 760:Core/Src/GEVA.c ****             }
 3341              		.loc 1 760 29 discriminator 3 view .LVU1022
 3342 008e 3044     		add	r0, r0, r6
 3343 0090 C0B2     		uxtb	r0, r0
 760:Core/Src/GEVA.c ****             }
 3344              		.loc 1 760 51 discriminator 3 view .LVU1023
 3345 0092 6378     		ldrb	r3, [r4, #1]	@ zero_extendqisi2
 760:Core/Src/GEVA.c ****             }
 3346              		.loc 1 760 56 discriminator 3 view .LVU1024
 3347 0094 D91B     		subs	r1, r3, r7
 3348 0096 C9B2     		uxtb	r1, r1
 760:Core/Src/GEVA.c ****             }
 3349              		.loc 1 760 29 discriminator 3 view .LVU1025
 3350 0098 0131     		adds	r1, r1, #1
 3351 009a 0095     		str	r5, [sp]
 3352 009c 0246     		mov	r2, r0
 3353 009e C9B2     		uxtb	r1, r1
 3354 00a0 FFF7FEFF 		bl	put_line
 3355              	.LVL331:
 759:Core/Src/GEVA.c ****                     error = put_line(c->o_x + i, c->o_y-dy+1, c->o_x + i, c->o_y, buf);
 3356              		.loc 1 759 52 is_stmt 1 discriminator 3 view .LVU1026
 3357 00a4 0136     		adds	r6, r6, #1
 3358              	.LVL332:
 759:Core/Src/GEVA.c ****                     error = put_line(c->o_x + i, c->o_y-dy+1, c->o_x + i, c->o_y, buf);
 3359              		.loc 1 759 52 is_stmt 0 discriminator 3 view .LVU1027
 3360 00a6 F6B2     		uxtb	r6, r6
 3361              	.LVL333:
 3362              	.L206:
 759:Core/Src/GEVA.c ****                     error = put_line(c->o_x + i, c->o_y-dy+1, c->o_x + i, c->o_y, buf);
 3363              		.loc 1 759 39 is_stmt 1 discriminator 1 view .LVU1028
 759:Core/Src/GEVA.c ****                     error = put_line(c->o_x + i, c->o_y-dy+1, c->o_x + i, c->o_y, buf);
 3364              		.loc 1 759 42 is_stmt 0 discriminator 1 view .LVU1029
 3365 00a8 E378     		ldrb	r3, [r4, #3]	@ zero_extendqisi2
 759:Core/Src/GEVA.c ****                     error = put_line(c->o_x + i, c->o_y-dy+1, c->o_x + i, c->o_y, buf);
 3366              		.loc 1 759 39 discriminator 1 view .LVU1030
 3367 00aa B342     		cmp	r3, r6
 3368 00ac EED8     		bhi	.L207
 759:Core/Src/GEVA.c ****                     error = put_line(c->o_x + i, c->o_y-dy+1, c->o_x + i, c->o_y, buf);
 3369              		.loc 1 759 39 discriminator 1 view .LVU1031
 3370 00ae B8E7     		b	.L202
 3371              	.LVL334:
 3372              	.L208:
 3373              		.cfi_def_cfa_offset 0
 3374              		.cfi_restore 4
 3375              		.cfi_restore 5
ARM GAS  C:\Users\arist\AppData\Local\Temp\ccSK2xlW.s 			page 87


 3376              		.cfi_restore 6
 3377              		.cfi_restore 7
 3378              		.cfi_restore 14
 759:Core/Src/GEVA.c ****                     error = put_line(c->o_x + i, c->o_y-dy+1, c->o_x + i, c->o_y, buf);
 3379              		.loc 1 759 39 discriminator 1 view .LVU1032
 3380              	.LBE46:
 3381              	.LBE45:
 749:Core/Src/GEVA.c **** 
 3382              		.loc 1 749 15 view .LVU1033
 3383 00b0 0320     		movs	r0, #3
 3384              	.LVL335:
 766:Core/Src/GEVA.c **** }
 3385              		.loc 1 766 5 is_stmt 1 view .LVU1034
 3386              		.loc 1 767 1 is_stmt 0 view .LVU1035
 3387 00b2 7047     		bx	lr
 3388              	.LVL336:
 3389              	.L214:
 3390              		.cfi_def_cfa_offset 40
 3391              		.cfi_offset 4, -20
 3392              		.cfi_offset 5, -16
 3393              		.cfi_offset 6, -12
 3394              		.cfi_offset 7, -8
 3395              		.cfi_offset 14, -4
 764:Core/Src/GEVA.c ****     }
 3396              		.loc 1 764 19 view .LVU1036
 3397 00b4 0220     		movs	r0, #2
 3398              	.LVL337:
 764:Core/Src/GEVA.c ****     }
 3399              		.loc 1 764 19 view .LVU1037
 3400 00b6 B4E7     		b	.L202
 3401              		.cfi_endproc
 3402              	.LFE23:
 3404              		.section	.text.update_COL,"ax",%progbits
 3405              		.align	1
 3406              		.global	update_COL
 3407              		.syntax unified
 3408              		.thumb
 3409              		.thumb_func
 3411              	update_COL:
 3412              	.LVL338:
 3413              	.LFB24:
 768:Core/Src/GEVA.c **** 
 769:Core/Src/GEVA.c **** uint8_t update_COL(data_container* c, video_buffer* buf) {
 3414              		.loc 1 769 58 is_stmt 1 view -0
 3415              		.cfi_startproc
 3416              		@ args = 0, pretend = 0, frame = 0
 3417              		@ frame_needed = 0, uses_anonymous_args = 0
 3418              		.loc 1 769 58 is_stmt 0 view .LVU1039
 3419 0000 38B5     		push	{r3, r4, r5, lr}
 3420              		.cfi_def_cfa_offset 16
 3421              		.cfi_offset 3, -16
 3422              		.cfi_offset 4, -12
 3423              		.cfi_offset 5, -8
 3424              		.cfi_offset 14, -4
 3425 0002 0446     		mov	r4, r0
 3426 0004 0D46     		mov	r5, r1
 770:Core/Src/GEVA.c ****     uint8_t error = 0;
ARM GAS  C:\Users\arist\AppData\Local\Temp\ccSK2xlW.s 			page 88


 3427              		.loc 1 770 5 is_stmt 1 view .LVU1040
 3428              	.LVL339:
 771:Core/Src/GEVA.c ****     error = put_pos_COL(c, buf);
 3429              		.loc 1 771 5 view .LVU1041
 3430              		.loc 1 771 13 is_stmt 0 view .LVU1042
 3431 0006 FFF7FEFF 		bl	put_pos_COL
 3432              	.LVL340:
 772:Core/Src/GEVA.c ****     error = put_neg_COL(c, buf);
 3433              		.loc 1 772 5 is_stmt 1 view .LVU1043
 3434              		.loc 1 772 13 is_stmt 0 view .LVU1044
 3435 000a 2946     		mov	r1, r5
 3436 000c 2046     		mov	r0, r4
 3437 000e FFF7FEFF 		bl	put_neg_COL
 3438              	.LVL341:
 773:Core/Src/GEVA.c ****     return error;
 3439              		.loc 1 773 5 is_stmt 1 view .LVU1045
 774:Core/Src/GEVA.c **** }
 3440              		.loc 1 774 1 is_stmt 0 view .LVU1046
 3441 0012 38BD     		pop	{r3, r4, r5, pc}
 3442              		.loc 1 774 1 view .LVU1047
 3443              		.cfi_endproc
 3444              	.LFE24:
 3446              		.section	.text.update_BAR,"ax",%progbits
 3447              		.align	1
 3448              		.global	update_BAR
 3449              		.syntax unified
 3450              		.thumb
 3451              		.thumb_func
 3453              	update_BAR:
 3454              	.LVL342:
 3455              	.LFB25:
 775:Core/Src/GEVA.c **** 
 776:Core/Src/GEVA.c **** /* Draw positive bar chart
 777:Core/Src/GEVA.c ****  * return error code
 778:Core/Src/GEVA.c ****  * error code list:
 779:Core/Src/GEVA.c ****  * 1 data out of range
 780:Core/Src/GEVA.c ****  * 2 dimension mismatch
 781:Core/Src/GEVA.c ****  * 3 chart not defined
 782:Core/Src/GEVA.c ****  * 4 starting point out of scope
 783:Core/Src/GEVA.c **** */
 784:Core/Src/GEVA.c **** uint8_t update_BAR(data_container* c, video_buffer* buf) {
 3456              		.loc 1 784 58 is_stmt 1 view -0
 3457              		.cfi_startproc
 3458              		@ args = 0, pretend = 0, frame = 8
 3459              		@ frame_needed = 0, uses_anonymous_args = 0
 785:Core/Src/GEVA.c **** 
 786:Core/Src/GEVA.c ****     uint8_t error = 1;
 3460              		.loc 1 786 5 view .LVU1049
 787:Core/Src/GEVA.c **** 
 788:Core/Src/GEVA.c ****     if (c->max == 0 || c->dim_x == 0 || c->dim_y_pos == 0 || c->max <= c->min)
 3461              		.loc 1 788 5 view .LVU1050
 3462              		.loc 1 788 10 is_stmt 0 view .LVU1051
 3463 0000 D0ED027A 		vldr.32	s15, [r0, #8]
 3464              		.loc 1 788 8 view .LVU1052
 3465 0004 F5EE407A 		vcmp.f32	s15, #0
 3466 0008 F1EE10FA 		vmrs	APSR_nzcv, FPSCR
 3467 000c 54D0     		beq	.L229
ARM GAS  C:\Users\arist\AppData\Local\Temp\ccSK2xlW.s 			page 89


 784:Core/Src/GEVA.c **** 
 3468              		.loc 1 784 58 discriminator 1 view .LVU1053
 3469 000e F0B5     		push	{r4, r5, r6, r7, lr}
 3470              		.cfi_def_cfa_offset 20
 3471              		.cfi_offset 4, -20
 3472              		.cfi_offset 5, -16
 3473              		.cfi_offset 6, -12
 3474              		.cfi_offset 7, -8
 3475              		.cfi_offset 14, -4
 3476 0010 85B0     		sub	sp, sp, #20
 3477              		.cfi_def_cfa_offset 40
 3478 0012 0446     		mov	r4, r0
 3479 0014 0D46     		mov	r5, r1
 3480              		.loc 1 788 25 discriminator 1 view .LVU1054
 3481 0016 C278     		ldrb	r2, [r0, #3]	@ zero_extendqisi2
 3482              		.loc 1 788 21 discriminator 1 view .LVU1055
 3483 0018 002A     		cmp	r2, #0
 3484 001a 4FD0     		beq	.L230
 3485              		.loc 1 788 42 discriminator 2 view .LVU1056
 3486 001c 0379     		ldrb	r3, [r0, #4]	@ zero_extendqisi2
 3487              		.loc 1 788 38 discriminator 2 view .LVU1057
 3488 001e 002B     		cmp	r3, #0
 3489 0020 4FD0     		beq	.L231
 3490              		.loc 1 788 73 discriminator 3 view .LVU1058
 3491 0022 90ED037A 		vldr.32	s14, [r0, #12]
 3492              		.loc 1 788 59 discriminator 3 view .LVU1059
 3493 0026 F4EEC77A 		vcmpe.f32	s15, s14
 3494 002a F1EE10FA 		vmrs	APSR_nzcv, FPSCR
 3495 002e 01D8     		bhi	.L242
 789:Core/Src/GEVA.c ****         error = 3;
 3496              		.loc 1 789 15 view .LVU1060
 3497 0030 0320     		movs	r0, #3
 3498              	.LVL343:
 3499              		.loc 1 789 15 view .LVU1061
 3500 0032 44E0     		b	.L223
 3501              	.LVL344:
 3502              	.L242:
 790:Core/Src/GEVA.c **** 
 791:Core/Src/GEVA.c ****     else {
 792:Core/Src/GEVA.c ****         error = clear_sector(c->o_x, c->o_y, c->dim_x, c->dim_y_pos, buf); //limits check within cl
 3503              		.loc 1 792 9 is_stmt 1 view .LVU1062
 3504              		.loc 1 792 17 is_stmt 0 view .LVU1063
 3505 0034 0091     		str	r1, [sp]
 3506 0036 4178     		ldrb	r1, [r0, #1]	@ zero_extendqisi2
 3507              	.LVL345:
 3508              		.loc 1 792 17 view .LVU1064
 3509 0038 0078     		ldrb	r0, [r0]	@ zero_extendqisi2
 3510              	.LVL346:
 3511              		.loc 1 792 17 view .LVU1065
 3512 003a FFF7FEFF 		bl	clear_sector
 3513              	.LVL347:
 793:Core/Src/GEVA.c **** 
 794:Core/Src/GEVA.c ****         if (c->o_y + c->data >= 0) {
 3514              		.loc 1 794 9 is_stmt 1 view .LVU1066
 3515              		.loc 1 794 14 is_stmt 0 view .LVU1067
 3516 003e 6378     		ldrb	r3, [r4, #1]	@ zero_extendqisi2
 3517 0040 07EE903A 		vmov	s15, r3	@ int
ARM GAS  C:\Users\arist\AppData\Local\Temp\ccSK2xlW.s 			page 90


 3518              		.loc 1 794 23 view .LVU1068
 3519 0044 94ED057A 		vldr.32	s14, [r4, #20]
 3520              		.loc 1 794 20 view .LVU1069
 3521 0048 F8EEE77A 		vcvt.f32.s32	s15, s15
 3522 004c 77EE877A 		vadd.f32	s15, s15, s14
 3523              		.loc 1 794 12 view .LVU1070
 3524 0050 F5EEC07A 		vcmpe.f32	s15, #0
 3525 0054 F1EE10FA 		vmrs	APSR_nzcv, FPSCR
 3526 0058 35DB     		blt	.L237
 795:Core/Src/GEVA.c ****             if (c->data > 0 && c->data <= c->max) {
 3527              		.loc 1 795 13 is_stmt 1 view .LVU1071
 3528              		.loc 1 795 16 is_stmt 0 view .LVU1072
 3529 005a B5EEC07A 		vcmpe.f32	s14, #0
 3530 005e F1EE10FA 		vmrs	APSR_nzcv, FPSCR
 3531 0062 2CDD     		ble	.L223
 3532              		.loc 1 795 44 discriminator 1 view .LVU1073
 3533 0064 D4ED026A 		vldr.32	s13, [r4, #8]
 3534              		.loc 1 795 29 discriminator 1 view .LVU1074
 3535 0068 B4EEE67A 		vcmpe.f32	s14, s13
 3536 006c F1EE10FA 		vmrs	APSR_nzcv, FPSCR
 3537 0070 25D8     		bhi	.L223
 3538              	.LBB47:
 796:Core/Src/GEVA.c ****                 uint8_t dx = c->data * c->dim_x / c->max;
 3539              		.loc 1 796 17 is_stmt 1 view .LVU1075
 3540              		.loc 1 796 41 is_stmt 0 view .LVU1076
 3541 0072 E378     		ldrb	r3, [r4, #3]	@ zero_extendqisi2
 3542 0074 07EE903A 		vmov	s15, r3	@ int
 3543              		.loc 1 796 38 view .LVU1077
 3544 0078 F8EEE77A 		vcvt.f32.s32	s15, s15
 3545 007c 67EE877A 		vmul.f32	s15, s15, s14
 3546              		.loc 1 796 49 view .LVU1078
 3547 0080 87EEA67A 		vdiv.f32	s14, s15, s13
 3548              		.loc 1 796 25 view .LVU1079
 3549 0084 FCEEC77A 		vcvt.u32.f32	s15, s14
 3550 0088 CDED037A 		vstr.32	s15, [sp, #12]	@ int
 3551 008c 9DF80C70 		ldrb	r7, [sp, #12]	@ zero_extendqisi2
 3552              	.LVL348:
 797:Core/Src/GEVA.c **** 
 798:Core/Src/GEVA.c ****                 for (uint8_t i = 0; i < c->dim_y_pos; i++)
 3553              		.loc 1 798 17 is_stmt 1 view .LVU1080
 3554              	.LBB48:
 3555              		.loc 1 798 22 view .LVU1081
 3556              		.loc 1 798 30 is_stmt 0 view .LVU1082
 3557 0090 0026     		movs	r6, #0
 3558              		.loc 1 798 17 view .LVU1083
 3559 0092 0DE0     		b	.L227
 3560              	.LVL349:
 3561              	.L228:
 799:Core/Src/GEVA.c ****                     error = put_line(c->o_x, c->o_y + i, c->o_x + dx - 1, c->o_y + i, buf);
 3562              		.loc 1 799 21 is_stmt 1 discriminator 3 view .LVU1084
 3563              		.loc 1 799 29 is_stmt 0 discriminator 3 view .LVU1085
 3564 0094 2078     		ldrb	r0, [r4]	@ zero_extendqisi2
 3565              	.LVL350:
 3566              		.loc 1 799 47 discriminator 3 view .LVU1086
 3567 0096 6178     		ldrb	r1, [r4, #1]	@ zero_extendqisi2
 3568              		.loc 1 799 29 discriminator 3 view .LVU1087
 3569 0098 3144     		add	r1, r1, r6
ARM GAS  C:\Users\arist\AppData\Local\Temp\ccSK2xlW.s 			page 91


 3570 009a C9B2     		uxtb	r1, r1
 3571              		.loc 1 799 65 discriminator 3 view .LVU1088
 3572 009c C219     		adds	r2, r0, r7
 3573 009e D2B2     		uxtb	r2, r2
 3574              		.loc 1 799 29 discriminator 3 view .LVU1089
 3575 00a0 013A     		subs	r2, r2, #1
 3576 00a2 0095     		str	r5, [sp]
 3577 00a4 0B46     		mov	r3, r1
 3578 00a6 D2B2     		uxtb	r2, r2
 3579 00a8 FFF7FEFF 		bl	put_line
 3580              	.LVL351:
 798:Core/Src/GEVA.c ****                     error = put_line(c->o_x, c->o_y + i, c->o_x + dx - 1, c->o_y + i, buf);
 3581              		.loc 1 798 56 is_stmt 1 discriminator 3 view .LVU1090
 3582 00ac 0136     		adds	r6, r6, #1
 3583              	.LVL352:
 798:Core/Src/GEVA.c ****                     error = put_line(c->o_x, c->o_y + i, c->o_x + dx - 1, c->o_y + i, buf);
 3584              		.loc 1 798 56 is_stmt 0 discriminator 3 view .LVU1091
 3585 00ae F6B2     		uxtb	r6, r6
 3586              	.LVL353:
 3587              	.L227:
 798:Core/Src/GEVA.c ****                     error = put_line(c->o_x, c->o_y + i, c->o_x + dx - 1, c->o_y + i, buf);
 3588              		.loc 1 798 39 is_stmt 1 discriminator 1 view .LVU1092
 798:Core/Src/GEVA.c ****                     error = put_line(c->o_x, c->o_y + i, c->o_x + dx - 1, c->o_y + i, buf);
 3589              		.loc 1 798 42 is_stmt 0 discriminator 1 view .LVU1093
 3590 00b0 2379     		ldrb	r3, [r4, #4]	@ zero_extendqisi2
 798:Core/Src/GEVA.c ****                     error = put_line(c->o_x, c->o_y + i, c->o_x + dx - 1, c->o_y + i, buf);
 3591              		.loc 1 798 39 discriminator 1 view .LVU1094
 3592 00b2 B342     		cmp	r3, r6
 3593 00b4 EED8     		bhi	.L228
 798:Core/Src/GEVA.c ****                     error = put_line(c->o_x, c->o_y + i, c->o_x + dx - 1, c->o_y + i, buf);
 3594              		.loc 1 798 39 discriminator 1 view .LVU1095
 3595 00b6 02E0     		b	.L223
 3596              	.LVL354:
 3597              	.L229:
 3598              		.cfi_def_cfa_offset 0
 3599              		.cfi_restore 4
 3600              		.cfi_restore 5
 3601              		.cfi_restore 6
 3602              		.cfi_restore 7
 3603              		.cfi_restore 14
 798:Core/Src/GEVA.c ****                     error = put_line(c->o_x, c->o_y + i, c->o_x + dx - 1, c->o_y + i, buf);
 3604              		.loc 1 798 39 discriminator 1 view .LVU1096
 3605              	.LBE48:
 3606              	.LBE47:
 789:Core/Src/GEVA.c **** 
 3607              		.loc 1 789 15 view .LVU1097
 3608 00b8 0320     		movs	r0, #3
 3609              	.LVL355:
 800:Core/Src/GEVA.c ****             }
 801:Core/Src/GEVA.c ****         }
 802:Core/Src/GEVA.c ****         else
 803:Core/Src/GEVA.c ****             error = 2;
 804:Core/Src/GEVA.c ****     }
 805:Core/Src/GEVA.c **** 
 806:Core/Src/GEVA.c ****     return error;
 3610              		.loc 1 806 5 is_stmt 1 view .LVU1098
 807:Core/Src/GEVA.c **** }
ARM GAS  C:\Users\arist\AppData\Local\Temp\ccSK2xlW.s 			page 92


 3611              		.loc 1 807 1 is_stmt 0 view .LVU1099
 3612 00ba 7047     		bx	lr
 3613              	.LVL356:
 3614              	.L230:
 3615              		.cfi_def_cfa_offset 40
 3616              		.cfi_offset 4, -20
 3617              		.cfi_offset 5, -16
 3618              		.cfi_offset 6, -12
 3619              		.cfi_offset 7, -8
 3620              		.cfi_offset 14, -4
 789:Core/Src/GEVA.c **** 
 3621              		.loc 1 789 15 view .LVU1100
 3622 00bc 0320     		movs	r0, #3
 3623              	.LVL357:
 3624              	.L223:
 806:Core/Src/GEVA.c **** }
 3625              		.loc 1 806 5 is_stmt 1 view .LVU1101
 3626              		.loc 1 807 1 is_stmt 0 view .LVU1102
 3627 00be 05B0     		add	sp, sp, #20
 3628              		.cfi_remember_state
 3629              		.cfi_def_cfa_offset 20
 3630              		@ sp needed
 3631 00c0 F0BD     		pop	{r4, r5, r6, r7, pc}
 3632              	.LVL358:
 3633              	.L231:
 3634              		.cfi_restore_state
 789:Core/Src/GEVA.c **** 
 3635              		.loc 1 789 15 view .LVU1103
 3636 00c2 0320     		movs	r0, #3
 3637              	.LVL359:
 789:Core/Src/GEVA.c **** 
 3638              		.loc 1 789 15 view .LVU1104
 3639 00c4 FBE7     		b	.L223
 3640              	.LVL360:
 3641              	.L237:
 803:Core/Src/GEVA.c ****     }
 3642              		.loc 1 803 19 view .LVU1105
 3643 00c6 0220     		movs	r0, #2
 3644              	.LVL361:
 803:Core/Src/GEVA.c ****     }
 3645              		.loc 1 803 19 view .LVU1106
 3646 00c8 F9E7     		b	.L223
 3647              		.cfi_endproc
 3648              	.LFE25:
 3650              		.section	.text.update_LINE,"ax",%progbits
 3651              		.align	1
 3652              		.global	update_LINE
 3653              		.syntax unified
 3654              		.thumb
 3655              		.thumb_func
 3657              	update_LINE:
 3658              	.LVL362:
 3659              	.LFB26:
 808:Core/Src/GEVA.c **** 
 809:Core/Src/GEVA.c **** /* Draw line like chart
 810:Core/Src/GEVA.c ****  * return error code
 811:Core/Src/GEVA.c ****  * error code list:
ARM GAS  C:\Users\arist\AppData\Local\Temp\ccSK2xlW.s 			page 93


 812:Core/Src/GEVA.c ****  * 1 data out of range
 813:Core/Src/GEVA.c ****  * 2 dimension mismatch
 814:Core/Src/GEVA.c ****  * 3 chart not defined
 815:Core/Src/GEVA.c ****  * 4 starting point out of scope
 816:Core/Src/GEVA.c ****  * beware: no check on data coherence nor axis limits
 817:Core/Src/GEVA.c ****  * note: change data before calling update
 818:Core/Src/GEVA.c **** */
 819:Core/Src/GEVA.c **** uint8_t update_LINE(data_container* c, video_buffer* buf) {
 3660              		.loc 1 819 59 is_stmt 1 view -0
 3661              		.cfi_startproc
 3662              		@ args = 0, pretend = 0, frame = 0
 3663              		@ frame_needed = 0, uses_anonymous_args = 0
 3664              		.loc 1 819 59 is_stmt 0 view .LVU1108
 3665 0000 2DE9F041 		push	{r4, r5, r6, r7, r8, lr}
 3666              		.cfi_def_cfa_offset 24
 3667              		.cfi_offset 4, -24
 3668              		.cfi_offset 5, -20
 3669              		.cfi_offset 6, -16
 3670              		.cfi_offset 7, -12
 3671              		.cfi_offset 8, -8
 3672              		.cfi_offset 14, -4
 3673 0004 82B0     		sub	sp, sp, #8
 3674              		.cfi_def_cfa_offset 32
 3675 0006 0446     		mov	r4, r0
 3676 0008 0F46     		mov	r7, r1
 820:Core/Src/GEVA.c **** 
 821:Core/Src/GEVA.c ****     uint8_t error = 1;
 3677              		.loc 1 821 5 is_stmt 1 view .LVU1109
 3678              	.LVL363:
 822:Core/Src/GEVA.c ****     int16_t value = (c->data * c->dim_y_pos / c->max);
 3679              		.loc 1 822 5 view .LVU1110
 3680              		.loc 1 822 23 is_stmt 0 view .LVU1111
 3681 000a 90ED057A 		vldr.32	s14, [r0, #20]
 3682              		.loc 1 822 33 view .LVU1112
 3683 000e 0379     		ldrb	r3, [r0, #4]	@ zero_extendqisi2
 3684 0010 07EE903A 		vmov	s15, r3	@ int
 3685              		.loc 1 822 30 view .LVU1113
 3686 0014 F8EEE77A 		vcvt.f32.s32	s15, s15
 3687 0018 67EE877A 		vmul.f32	s15, s15, s14
 3688              		.loc 1 822 48 view .LVU1114
 3689 001c D0ED026A 		vldr.32	s13, [r0, #8]
 3690              		.loc 1 822 45 view .LVU1115
 3691 0020 87EEA67A 		vdiv.f32	s14, s15, s13
