ARM GAS  C:\Users\arist\AppData\Local\Temp\ccTacmMD.s 			page 1


   1              		.cpu cortex-m7
   2              		.arch armv7e-m
   3              		.fpu fpv5-sp-d16
   4              		.eabi_attribute 27, 1
   5              		.eabi_attribute 28, 1
   6              		.eabi_attribute 20, 1
   7              		.eabi_attribute 21, 1
   8              		.eabi_attribute 23, 3
   9              		.eabi_attribute 24, 1
  10              		.eabi_attribute 25, 1
  11              		.eabi_attribute 26, 1
  12              		.eabi_attribute 30, 1
  13              		.eabi_attribute 34, 1
  14              		.eabi_attribute 18, 4
  15              		.file	"stm32f7xx_hal_rcc_ex.c"
  16              		.text
  17              	.Ltext0:
  18              		.cfi_sections	.debug_frame
  19              		.file 1 "Drivers/STM32F7xx_HAL_Driver/Src/stm32f7xx_hal_rcc_ex.c"
  20              		.section	.text.HAL_RCCEx_PeriphCLKConfig,"ax",%progbits
  21              		.align	1
  22              		.global	HAL_RCCEx_PeriphCLKConfig
  23              		.syntax unified
  24              		.thumb
  25              		.thumb_func
  27              	HAL_RCCEx_PeriphCLKConfig:
  28              	.LVL0:
  29              	.LFB141:
   1:Drivers/STM32F7xx_HAL_Driver/Src/stm32f7xx_hal_rcc_ex.c **** /**
   2:Drivers/STM32F7xx_HAL_Driver/Src/stm32f7xx_hal_rcc_ex.c ****   ******************************************************************************
   3:Drivers/STM32F7xx_HAL_Driver/Src/stm32f7xx_hal_rcc_ex.c ****   * @file    stm32f7xx_hal_rcc_ex.c
   4:Drivers/STM32F7xx_HAL_Driver/Src/stm32f7xx_hal_rcc_ex.c ****   * @author  MCD Application Team
   5:Drivers/STM32F7xx_HAL_Driver/Src/stm32f7xx_hal_rcc_ex.c ****   * @brief   Extension RCC HAL module driver.
   6:Drivers/STM32F7xx_HAL_Driver/Src/stm32f7xx_hal_rcc_ex.c ****   *          This file provides firmware functions to manage the following
   7:Drivers/STM32F7xx_HAL_Driver/Src/stm32f7xx_hal_rcc_ex.c ****   *          functionalities RCC extension peripheral:
   8:Drivers/STM32F7xx_HAL_Driver/Src/stm32f7xx_hal_rcc_ex.c ****   *           + Extended Peripheral Control functions
   9:Drivers/STM32F7xx_HAL_Driver/Src/stm32f7xx_hal_rcc_ex.c ****   *
  10:Drivers/STM32F7xx_HAL_Driver/Src/stm32f7xx_hal_rcc_ex.c ****   ******************************************************************************
  11:Drivers/STM32F7xx_HAL_Driver/Src/stm32f7xx_hal_rcc_ex.c ****   * @attention
  12:Drivers/STM32F7xx_HAL_Driver/Src/stm32f7xx_hal_rcc_ex.c ****   *
  13:Drivers/STM32F7xx_HAL_Driver/Src/stm32f7xx_hal_rcc_ex.c ****   * Copyright (c) 2017 STMicroelectronics.
  14:Drivers/STM32F7xx_HAL_Driver/Src/stm32f7xx_hal_rcc_ex.c ****   * All rights reserved.
  15:Drivers/STM32F7xx_HAL_Driver/Src/stm32f7xx_hal_rcc_ex.c ****   *
  16:Drivers/STM32F7xx_HAL_Driver/Src/stm32f7xx_hal_rcc_ex.c ****   * This software is licensed under terms that can be found in the LICENSE file in
  17:Drivers/STM32F7xx_HAL_Driver/Src/stm32f7xx_hal_rcc_ex.c ****   * the root directory of this software component.
  18:Drivers/STM32F7xx_HAL_Driver/Src/stm32f7xx_hal_rcc_ex.c ****   * If no LICENSE file comes with this software, it is provided AS-IS.
  19:Drivers/STM32F7xx_HAL_Driver/Src/stm32f7xx_hal_rcc_ex.c ****   ******************************************************************************
  20:Drivers/STM32F7xx_HAL_Driver/Src/stm32f7xx_hal_rcc_ex.c ****   */
  21:Drivers/STM32F7xx_HAL_Driver/Src/stm32f7xx_hal_rcc_ex.c **** 
  22:Drivers/STM32F7xx_HAL_Driver/Src/stm32f7xx_hal_rcc_ex.c **** /* Includes ------------------------------------------------------------------*/
  23:Drivers/STM32F7xx_HAL_Driver/Src/stm32f7xx_hal_rcc_ex.c **** #include "stm32f7xx_hal.h"
  24:Drivers/STM32F7xx_HAL_Driver/Src/stm32f7xx_hal_rcc_ex.c **** 
  25:Drivers/STM32F7xx_HAL_Driver/Src/stm32f7xx_hal_rcc_ex.c **** /** @addtogroup STM32F7xx_HAL_Driver
  26:Drivers/STM32F7xx_HAL_Driver/Src/stm32f7xx_hal_rcc_ex.c ****   * @{
  27:Drivers/STM32F7xx_HAL_Driver/Src/stm32f7xx_hal_rcc_ex.c ****   */
  28:Drivers/STM32F7xx_HAL_Driver/Src/stm32f7xx_hal_rcc_ex.c **** 
  29:Drivers/STM32F7xx_HAL_Driver/Src/stm32f7xx_hal_rcc_ex.c **** /** @defgroup RCCEx RCCEx
ARM GAS  C:\Users\arist\AppData\Local\Temp\ccTacmMD.s 			page 2


  30:Drivers/STM32F7xx_HAL_Driver/Src/stm32f7xx_hal_rcc_ex.c ****   * @brief RCCEx HAL module driver
  31:Drivers/STM32F7xx_HAL_Driver/Src/stm32f7xx_hal_rcc_ex.c ****   * @{
  32:Drivers/STM32F7xx_HAL_Driver/Src/stm32f7xx_hal_rcc_ex.c ****   */
  33:Drivers/STM32F7xx_HAL_Driver/Src/stm32f7xx_hal_rcc_ex.c **** 
  34:Drivers/STM32F7xx_HAL_Driver/Src/stm32f7xx_hal_rcc_ex.c **** #ifdef HAL_RCC_MODULE_ENABLED
  35:Drivers/STM32F7xx_HAL_Driver/Src/stm32f7xx_hal_rcc_ex.c **** 
  36:Drivers/STM32F7xx_HAL_Driver/Src/stm32f7xx_hal_rcc_ex.c **** /* Private typedef -----------------------------------------------------------*/
  37:Drivers/STM32F7xx_HAL_Driver/Src/stm32f7xx_hal_rcc_ex.c **** /* Private define ------------------------------------------------------------*/
  38:Drivers/STM32F7xx_HAL_Driver/Src/stm32f7xx_hal_rcc_ex.c **** /** @defgroup RCCEx_Private_Defines RCCEx Private Defines
  39:Drivers/STM32F7xx_HAL_Driver/Src/stm32f7xx_hal_rcc_ex.c ****   * @{
  40:Drivers/STM32F7xx_HAL_Driver/Src/stm32f7xx_hal_rcc_ex.c ****   */
  41:Drivers/STM32F7xx_HAL_Driver/Src/stm32f7xx_hal_rcc_ex.c **** /**
  42:Drivers/STM32F7xx_HAL_Driver/Src/stm32f7xx_hal_rcc_ex.c ****   * @}
  43:Drivers/STM32F7xx_HAL_Driver/Src/stm32f7xx_hal_rcc_ex.c ****   */
  44:Drivers/STM32F7xx_HAL_Driver/Src/stm32f7xx_hal_rcc_ex.c **** /* Private macro -------------------------------------------------------------*/
  45:Drivers/STM32F7xx_HAL_Driver/Src/stm32f7xx_hal_rcc_ex.c **** /** @defgroup RCCEx_Private_Macros RCCEx Private Macros
  46:Drivers/STM32F7xx_HAL_Driver/Src/stm32f7xx_hal_rcc_ex.c ****  * @{
  47:Drivers/STM32F7xx_HAL_Driver/Src/stm32f7xx_hal_rcc_ex.c ****  */
  48:Drivers/STM32F7xx_HAL_Driver/Src/stm32f7xx_hal_rcc_ex.c **** /**
  49:Drivers/STM32F7xx_HAL_Driver/Src/stm32f7xx_hal_rcc_ex.c ****   * @}
  50:Drivers/STM32F7xx_HAL_Driver/Src/stm32f7xx_hal_rcc_ex.c ****   */
  51:Drivers/STM32F7xx_HAL_Driver/Src/stm32f7xx_hal_rcc_ex.c **** 
  52:Drivers/STM32F7xx_HAL_Driver/Src/stm32f7xx_hal_rcc_ex.c **** /** @defgroup RCCEx_Private_Macros RCCEx Private Macros
  53:Drivers/STM32F7xx_HAL_Driver/Src/stm32f7xx_hal_rcc_ex.c ****  * @{
  54:Drivers/STM32F7xx_HAL_Driver/Src/stm32f7xx_hal_rcc_ex.c ****  */
  55:Drivers/STM32F7xx_HAL_Driver/Src/stm32f7xx_hal_rcc_ex.c **** 
  56:Drivers/STM32F7xx_HAL_Driver/Src/stm32f7xx_hal_rcc_ex.c **** /**
  57:Drivers/STM32F7xx_HAL_Driver/Src/stm32f7xx_hal_rcc_ex.c ****   * @}
  58:Drivers/STM32F7xx_HAL_Driver/Src/stm32f7xx_hal_rcc_ex.c ****   */
  59:Drivers/STM32F7xx_HAL_Driver/Src/stm32f7xx_hal_rcc_ex.c **** 
  60:Drivers/STM32F7xx_HAL_Driver/Src/stm32f7xx_hal_rcc_ex.c **** 
  61:Drivers/STM32F7xx_HAL_Driver/Src/stm32f7xx_hal_rcc_ex.c **** /* Private variables ---------------------------------------------------------*/
  62:Drivers/STM32F7xx_HAL_Driver/Src/stm32f7xx_hal_rcc_ex.c **** /* Private function prototypes -----------------------------------------------*/
  63:Drivers/STM32F7xx_HAL_Driver/Src/stm32f7xx_hal_rcc_ex.c **** /* Private functions ---------------------------------------------------------*/
  64:Drivers/STM32F7xx_HAL_Driver/Src/stm32f7xx_hal_rcc_ex.c **** 
  65:Drivers/STM32F7xx_HAL_Driver/Src/stm32f7xx_hal_rcc_ex.c **** /** @defgroup RCCEx_Exported_Functions RCCEx Exported Functions
  66:Drivers/STM32F7xx_HAL_Driver/Src/stm32f7xx_hal_rcc_ex.c ****   * @{
  67:Drivers/STM32F7xx_HAL_Driver/Src/stm32f7xx_hal_rcc_ex.c ****   */
  68:Drivers/STM32F7xx_HAL_Driver/Src/stm32f7xx_hal_rcc_ex.c **** 
  69:Drivers/STM32F7xx_HAL_Driver/Src/stm32f7xx_hal_rcc_ex.c **** /** @defgroup RCCEx_Exported_Functions_Group1 Extended Peripheral Control functions
  70:Drivers/STM32F7xx_HAL_Driver/Src/stm32f7xx_hal_rcc_ex.c ****  *  @brief  Extended Peripheral Control functions
  71:Drivers/STM32F7xx_HAL_Driver/Src/stm32f7xx_hal_rcc_ex.c ****  *
  72:Drivers/STM32F7xx_HAL_Driver/Src/stm32f7xx_hal_rcc_ex.c **** @verbatim
  73:Drivers/STM32F7xx_HAL_Driver/Src/stm32f7xx_hal_rcc_ex.c ****  ===============================================================================
  74:Drivers/STM32F7xx_HAL_Driver/Src/stm32f7xx_hal_rcc_ex.c ****                 ##### Extended Peripheral Control functions  #####
  75:Drivers/STM32F7xx_HAL_Driver/Src/stm32f7xx_hal_rcc_ex.c ****  ===============================================================================
  76:Drivers/STM32F7xx_HAL_Driver/Src/stm32f7xx_hal_rcc_ex.c ****     [..]
  77:Drivers/STM32F7xx_HAL_Driver/Src/stm32f7xx_hal_rcc_ex.c ****     This subsection provides a set of functions allowing to control the RCC Clocks
  78:Drivers/STM32F7xx_HAL_Driver/Src/stm32f7xx_hal_rcc_ex.c ****     frequencies.
  79:Drivers/STM32F7xx_HAL_Driver/Src/stm32f7xx_hal_rcc_ex.c ****     [..]
  80:Drivers/STM32F7xx_HAL_Driver/Src/stm32f7xx_hal_rcc_ex.c ****     (@) Important note: Care must be taken when HAL_RCCEx_PeriphCLKConfig() is used to
  81:Drivers/STM32F7xx_HAL_Driver/Src/stm32f7xx_hal_rcc_ex.c ****         select the RTC clock source; in this case the Backup domain will be reset in
  82:Drivers/STM32F7xx_HAL_Driver/Src/stm32f7xx_hal_rcc_ex.c ****         order to modify the RTC Clock source, as consequence RTC registers (including
  83:Drivers/STM32F7xx_HAL_Driver/Src/stm32f7xx_hal_rcc_ex.c ****         the backup registers) and RCC_BDCR register will be set to their reset values.
  84:Drivers/STM32F7xx_HAL_Driver/Src/stm32f7xx_hal_rcc_ex.c **** 
  85:Drivers/STM32F7xx_HAL_Driver/Src/stm32f7xx_hal_rcc_ex.c **** @endverbatim
  86:Drivers/STM32F7xx_HAL_Driver/Src/stm32f7xx_hal_rcc_ex.c ****   * @{
ARM GAS  C:\Users\arist\AppData\Local\Temp\ccTacmMD.s 			page 3


  87:Drivers/STM32F7xx_HAL_Driver/Src/stm32f7xx_hal_rcc_ex.c ****   */
  88:Drivers/STM32F7xx_HAL_Driver/Src/stm32f7xx_hal_rcc_ex.c **** #if defined (STM32F745xx) || defined (STM32F746xx) || defined (STM32F756xx) || defined (STM32F765xx
  89:Drivers/STM32F7xx_HAL_Driver/Src/stm32f7xx_hal_rcc_ex.c ****     defined (STM32F767xx) || defined (STM32F769xx) || defined (STM32F777xx) || defined (STM32F779xx
  90:Drivers/STM32F7xx_HAL_Driver/Src/stm32f7xx_hal_rcc_ex.c ****     defined (STM32F750xx)
  91:Drivers/STM32F7xx_HAL_Driver/Src/stm32f7xx_hal_rcc_ex.c **** /**
  92:Drivers/STM32F7xx_HAL_Driver/Src/stm32f7xx_hal_rcc_ex.c ****   * @brief  Initializes the RCC extended peripherals clocks according to the specified
  93:Drivers/STM32F7xx_HAL_Driver/Src/stm32f7xx_hal_rcc_ex.c ****   *         parameters in the RCC_PeriphCLKInitTypeDef.
  94:Drivers/STM32F7xx_HAL_Driver/Src/stm32f7xx_hal_rcc_ex.c ****   * @param  PeriphClkInit pointer to an RCC_PeriphCLKInitTypeDef structure that
  95:Drivers/STM32F7xx_HAL_Driver/Src/stm32f7xx_hal_rcc_ex.c ****   *         contains the configuration information for the Extended Peripherals
  96:Drivers/STM32F7xx_HAL_Driver/Src/stm32f7xx_hal_rcc_ex.c ****   *         clocks(I2S, SAI, LTDC, RTC, TIM, UARTs, USARTs, LTPIM, SDMMC...).
  97:Drivers/STM32F7xx_HAL_Driver/Src/stm32f7xx_hal_rcc_ex.c ****   *
  98:Drivers/STM32F7xx_HAL_Driver/Src/stm32f7xx_hal_rcc_ex.c ****   * @note   Care must be taken when HAL_RCCEx_PeriphCLKConfig() is used to select
  99:Drivers/STM32F7xx_HAL_Driver/Src/stm32f7xx_hal_rcc_ex.c ****   *         the RTC clock source; in this case the Backup domain will be reset in
 100:Drivers/STM32F7xx_HAL_Driver/Src/stm32f7xx_hal_rcc_ex.c ****   *         order to modify the RTC Clock source, as consequence RTC registers (including
 101:Drivers/STM32F7xx_HAL_Driver/Src/stm32f7xx_hal_rcc_ex.c ****   *         the backup registers) are set to their reset values.
 102:Drivers/STM32F7xx_HAL_Driver/Src/stm32f7xx_hal_rcc_ex.c ****   *
 103:Drivers/STM32F7xx_HAL_Driver/Src/stm32f7xx_hal_rcc_ex.c ****   * @retval HAL status
 104:Drivers/STM32F7xx_HAL_Driver/Src/stm32f7xx_hal_rcc_ex.c ****   */
 105:Drivers/STM32F7xx_HAL_Driver/Src/stm32f7xx_hal_rcc_ex.c **** HAL_StatusTypeDef HAL_RCCEx_PeriphCLKConfig(RCC_PeriphCLKInitTypeDef  *PeriphClkInit)
 106:Drivers/STM32F7xx_HAL_Driver/Src/stm32f7xx_hal_rcc_ex.c **** {
  30              		.loc 1 106 1 view -0
  31              		.cfi_startproc
  32              		@ args = 0, pretend = 0, frame = 8
  33              		@ frame_needed = 0, uses_anonymous_args = 0
  34              		.loc 1 106 1 is_stmt 0 view .LVU1
  35 0000 F0B5     		push	{r4, r5, r6, r7, lr}
  36              		.cfi_def_cfa_offset 20
  37              		.cfi_offset 4, -20
  38              		.cfi_offset 5, -16
  39              		.cfi_offset 6, -12
  40              		.cfi_offset 7, -8
  41              		.cfi_offset 14, -4
  42 0002 83B0     		sub	sp, sp, #12
  43              		.cfi_def_cfa_offset 32
  44 0004 0446     		mov	r4, r0
 107:Drivers/STM32F7xx_HAL_Driver/Src/stm32f7xx_hal_rcc_ex.c ****   uint32_t tickstart = 0;
  45              		.loc 1 107 3 is_stmt 1 view .LVU2
  46              	.LVL1:
 108:Drivers/STM32F7xx_HAL_Driver/Src/stm32f7xx_hal_rcc_ex.c ****   uint32_t tmpreg0 = 0;
  47              		.loc 1 108 3 view .LVU3
 109:Drivers/STM32F7xx_HAL_Driver/Src/stm32f7xx_hal_rcc_ex.c ****   uint32_t tmpreg1 = 0;
  48              		.loc 1 109 3 view .LVU4
 110:Drivers/STM32F7xx_HAL_Driver/Src/stm32f7xx_hal_rcc_ex.c ****   uint32_t plli2sused = 0;
  49              		.loc 1 110 3 view .LVU5
 111:Drivers/STM32F7xx_HAL_Driver/Src/stm32f7xx_hal_rcc_ex.c ****   uint32_t pllsaiused = 0;
  50              		.loc 1 111 3 view .LVU6
 112:Drivers/STM32F7xx_HAL_Driver/Src/stm32f7xx_hal_rcc_ex.c **** 
 113:Drivers/STM32F7xx_HAL_Driver/Src/stm32f7xx_hal_rcc_ex.c ****   /* Check the parameters */
 114:Drivers/STM32F7xx_HAL_Driver/Src/stm32f7xx_hal_rcc_ex.c ****   assert_param(IS_RCC_PERIPHCLOCK(PeriphClkInit->PeriphClockSelection));
  51              		.loc 1 114 3 view .LVU7
 115:Drivers/STM32F7xx_HAL_Driver/Src/stm32f7xx_hal_rcc_ex.c **** 
 116:Drivers/STM32F7xx_HAL_Driver/Src/stm32f7xx_hal_rcc_ex.c ****   /*----------------------------------- I2S configuration ----------------------------------*/
 117:Drivers/STM32F7xx_HAL_Driver/Src/stm32f7xx_hal_rcc_ex.c ****   if(((PeriphClkInit->PeriphClockSelection) & RCC_PERIPHCLK_I2S) == (RCC_PERIPHCLK_I2S))
  52              		.loc 1 117 3 view .LVU8
  53              		.loc 1 117 21 is_stmt 0 view .LVU9
  54 0006 0668     		ldr	r6, [r0]
  55              		.loc 1 117 5 view .LVU10
ARM GAS  C:\Users\arist\AppData\Local\Temp\ccTacmMD.s 			page 4


  56 0008 16F00106 		ands	r6, r6, #1
  57 000c 0DD0     		beq	.L2
 118:Drivers/STM32F7xx_HAL_Driver/Src/stm32f7xx_hal_rcc_ex.c ****   {
 119:Drivers/STM32F7xx_HAL_Driver/Src/stm32f7xx_hal_rcc_ex.c ****     /* Check the parameters */
 120:Drivers/STM32F7xx_HAL_Driver/Src/stm32f7xx_hal_rcc_ex.c ****     assert_param(IS_RCC_I2SCLKSOURCE(PeriphClkInit->I2sClockSelection));
  58              		.loc 1 120 5 is_stmt 1 view .LVU11
 121:Drivers/STM32F7xx_HAL_Driver/Src/stm32f7xx_hal_rcc_ex.c **** 
 122:Drivers/STM32F7xx_HAL_Driver/Src/stm32f7xx_hal_rcc_ex.c ****     /* Configure I2S Clock source */
 123:Drivers/STM32F7xx_HAL_Driver/Src/stm32f7xx_hal_rcc_ex.c ****     __HAL_RCC_I2S_CONFIG(PeriphClkInit->I2sClockSelection);
  59              		.loc 1 123 5 view .LVU12
  60              		.loc 1 123 5 view .LVU13
  61 000e A74B     		ldr	r3, .L84
  62 0010 9A68     		ldr	r2, [r3, #8]
  63 0012 22F40002 		bic	r2, r2, #8388608
  64 0016 9A60     		str	r2, [r3, #8]
  65              		.loc 1 123 5 view .LVU14
  66 0018 9A68     		ldr	r2, [r3, #8]
  67 001a 416B     		ldr	r1, [r0, #52]
  68 001c 0A43     		orrs	r2, r2, r1
  69 001e 9A60     		str	r2, [r3, #8]
  70              		.loc 1 123 5 view .LVU15
 124:Drivers/STM32F7xx_HAL_Driver/Src/stm32f7xx_hal_rcc_ex.c **** 
 125:Drivers/STM32F7xx_HAL_Driver/Src/stm32f7xx_hal_rcc_ex.c ****     /* Enable the PLLI2S when it's used as clock source for I2S */
 126:Drivers/STM32F7xx_HAL_Driver/Src/stm32f7xx_hal_rcc_ex.c ****     if(PeriphClkInit->I2sClockSelection == RCC_I2SCLKSOURCE_PLLI2S)
  71              		.loc 1 126 5 view .LVU16
  72              		.loc 1 126 21 is_stmt 0 view .LVU17
  73 0020 436B     		ldr	r3, [r0, #52]
  74              		.loc 1 126 7 view .LVU18
  75 0022 002B     		cmp	r3, #0
  76 0024 00F03981 		beq	.L56
 110:Drivers/STM32F7xx_HAL_Driver/Src/stm32f7xx_hal_rcc_ex.c ****   uint32_t pllsaiused = 0;
  77              		.loc 1 110 12 view .LVU19
  78 0028 0026     		movs	r6, #0
  79              	.L2:
  80              	.LVL2:
 127:Drivers/STM32F7xx_HAL_Driver/Src/stm32f7xx_hal_rcc_ex.c ****     {
 128:Drivers/STM32F7xx_HAL_Driver/Src/stm32f7xx_hal_rcc_ex.c ****       plli2sused = 1;
 129:Drivers/STM32F7xx_HAL_Driver/Src/stm32f7xx_hal_rcc_ex.c ****     }
 130:Drivers/STM32F7xx_HAL_Driver/Src/stm32f7xx_hal_rcc_ex.c ****   }
 131:Drivers/STM32F7xx_HAL_Driver/Src/stm32f7xx_hal_rcc_ex.c **** 
 132:Drivers/STM32F7xx_HAL_Driver/Src/stm32f7xx_hal_rcc_ex.c ****   /*------------------------------------ SAI1 configuration --------------------------------------*
 133:Drivers/STM32F7xx_HAL_Driver/Src/stm32f7xx_hal_rcc_ex.c ****   if(((PeriphClkInit->PeriphClockSelection) & RCC_PERIPHCLK_SAI1) == (RCC_PERIPHCLK_SAI1))
  81              		.loc 1 133 3 is_stmt 1 view .LVU20
  82              		.loc 1 133 21 is_stmt 0 view .LVU21
  83 002a 2568     		ldr	r5, [r4]
  84              		.loc 1 133 5 view .LVU22
  85 002c 15F40025 		ands	r5, r5, #524288
  86 0030 11D0     		beq	.L3
 134:Drivers/STM32F7xx_HAL_Driver/Src/stm32f7xx_hal_rcc_ex.c ****   {
 135:Drivers/STM32F7xx_HAL_Driver/Src/stm32f7xx_hal_rcc_ex.c ****     /* Check the parameters */
 136:Drivers/STM32F7xx_HAL_Driver/Src/stm32f7xx_hal_rcc_ex.c ****     assert_param(IS_RCC_SAI1CLKSOURCE(PeriphClkInit->Sai1ClockSelection));
  87              		.loc 1 136 5 is_stmt 1 view .LVU23
 137:Drivers/STM32F7xx_HAL_Driver/Src/stm32f7xx_hal_rcc_ex.c **** 
 138:Drivers/STM32F7xx_HAL_Driver/Src/stm32f7xx_hal_rcc_ex.c ****     /* Configure SAI1 Clock source */
 139:Drivers/STM32F7xx_HAL_Driver/Src/stm32f7xx_hal_rcc_ex.c ****     __HAL_RCC_SAI1_CONFIG(PeriphClkInit->Sai1ClockSelection);
  88              		.loc 1 139 5 view .LVU24
  89 0032 9E4A     		ldr	r2, .L84
ARM GAS  C:\Users\arist\AppData\Local\Temp\ccTacmMD.s 			page 5


  90 0034 D2F88C30 		ldr	r3, [r2, #140]
  91 0038 23F44013 		bic	r3, r3, #3145728
  92 003c E16B     		ldr	r1, [r4, #60]
  93 003e 0B43     		orrs	r3, r3, r1
  94 0040 C2F88C30 		str	r3, [r2, #140]
 140:Drivers/STM32F7xx_HAL_Driver/Src/stm32f7xx_hal_rcc_ex.c ****     /* Enable the PLLI2S when it's used as clock source for SAI */
 141:Drivers/STM32F7xx_HAL_Driver/Src/stm32f7xx_hal_rcc_ex.c ****     if(PeriphClkInit->Sai1ClockSelection == RCC_SAI1CLKSOURCE_PLLI2S)
  95              		.loc 1 141 5 view .LVU25
  96              		.loc 1 141 21 is_stmt 0 view .LVU26
  97 0044 E36B     		ldr	r3, [r4, #60]
  98              		.loc 1 141 7 view .LVU27
  99 0046 B3F5801F 		cmp	r3, #1048576
 100 004a 00F02881 		beq	.L72
 101              	.LVL3:
 102              	.L4:
 142:Drivers/STM32F7xx_HAL_Driver/Src/stm32f7xx_hal_rcc_ex.c ****     {
 143:Drivers/STM32F7xx_HAL_Driver/Src/stm32f7xx_hal_rcc_ex.c ****       plli2sused = 1;
 144:Drivers/STM32F7xx_HAL_Driver/Src/stm32f7xx_hal_rcc_ex.c ****     }
 145:Drivers/STM32F7xx_HAL_Driver/Src/stm32f7xx_hal_rcc_ex.c ****     /* Enable the PLLSAI when it's used as clock source for SAI */
 146:Drivers/STM32F7xx_HAL_Driver/Src/stm32f7xx_hal_rcc_ex.c ****     if(PeriphClkInit->Sai1ClockSelection == RCC_SAI1CLKSOURCE_PLLSAI)
 103              		.loc 1 146 5 is_stmt 1 view .LVU28
 104              		.loc 1 146 7 is_stmt 0 view .LVU29
 105 004e 002B     		cmp	r3, #0
 106 0050 00F02781 		beq	.L58
 111:Drivers/STM32F7xx_HAL_Driver/Src/stm32f7xx_hal_rcc_ex.c **** 
 107              		.loc 1 111 12 view .LVU30
 108 0054 0025     		movs	r5, #0
 109              	.L3:
 110              	.LVL4:
 147:Drivers/STM32F7xx_HAL_Driver/Src/stm32f7xx_hal_rcc_ex.c ****     {
 148:Drivers/STM32F7xx_HAL_Driver/Src/stm32f7xx_hal_rcc_ex.c ****       pllsaiused = 1;
 149:Drivers/STM32F7xx_HAL_Driver/Src/stm32f7xx_hal_rcc_ex.c ****     }
 150:Drivers/STM32F7xx_HAL_Driver/Src/stm32f7xx_hal_rcc_ex.c ****   }
 151:Drivers/STM32F7xx_HAL_Driver/Src/stm32f7xx_hal_rcc_ex.c **** 
 152:Drivers/STM32F7xx_HAL_Driver/Src/stm32f7xx_hal_rcc_ex.c ****   /*------------------------------------ SAI2 configuration --------------------------------------*
 153:Drivers/STM32F7xx_HAL_Driver/Src/stm32f7xx_hal_rcc_ex.c ****   if(((PeriphClkInit->PeriphClockSelection) & RCC_PERIPHCLK_SAI2) == (RCC_PERIPHCLK_SAI2))
 111              		.loc 1 153 3 is_stmt 1 view .LVU31
 112              		.loc 1 153 21 is_stmt 0 view .LVU32
 113 0056 2368     		ldr	r3, [r4]
 114              		.loc 1 153 5 view .LVU33
 115 0058 13F4801F 		tst	r3, #1048576
 116 005c 0FD0     		beq	.L5
 154:Drivers/STM32F7xx_HAL_Driver/Src/stm32f7xx_hal_rcc_ex.c ****   {
 155:Drivers/STM32F7xx_HAL_Driver/Src/stm32f7xx_hal_rcc_ex.c ****     /* Check the parameters */
 156:Drivers/STM32F7xx_HAL_Driver/Src/stm32f7xx_hal_rcc_ex.c ****     assert_param(IS_RCC_SAI2CLKSOURCE(PeriphClkInit->Sai2ClockSelection));
 117              		.loc 1 156 5 is_stmt 1 view .LVU34
 157:Drivers/STM32F7xx_HAL_Driver/Src/stm32f7xx_hal_rcc_ex.c **** 
 158:Drivers/STM32F7xx_HAL_Driver/Src/stm32f7xx_hal_rcc_ex.c ****     /* Configure SAI2 Clock source */
 159:Drivers/STM32F7xx_HAL_Driver/Src/stm32f7xx_hal_rcc_ex.c ****     __HAL_RCC_SAI2_CONFIG(PeriphClkInit->Sai2ClockSelection);
 118              		.loc 1 159 5 view .LVU35
 119 005e 934A     		ldr	r2, .L84
 120 0060 D2F88C30 		ldr	r3, [r2, #140]
 121 0064 23F44003 		bic	r3, r3, #12582912
 122 0068 216C     		ldr	r1, [r4, #64]
 123 006a 0B43     		orrs	r3, r3, r1
 124 006c C2F88C30 		str	r3, [r2, #140]
 160:Drivers/STM32F7xx_HAL_Driver/Src/stm32f7xx_hal_rcc_ex.c **** 
ARM GAS  C:\Users\arist\AppData\Local\Temp\ccTacmMD.s 			page 6


 161:Drivers/STM32F7xx_HAL_Driver/Src/stm32f7xx_hal_rcc_ex.c ****     /* Enable the PLLI2S when it's used as clock source for SAI */
 162:Drivers/STM32F7xx_HAL_Driver/Src/stm32f7xx_hal_rcc_ex.c ****     if(PeriphClkInit->Sai2ClockSelection == RCC_SAI2CLKSOURCE_PLLI2S)
 125              		.loc 1 162 5 view .LVU36
 126              		.loc 1 162 21 is_stmt 0 view .LVU37
 127 0070 236C     		ldr	r3, [r4, #64]
 128              		.loc 1 162 7 view .LVU38
 129 0072 B3F5800F 		cmp	r3, #4194304
 130 0076 00F01681 		beq	.L73
 131              	.LVL5:
 132              	.L6:
 163:Drivers/STM32F7xx_HAL_Driver/Src/stm32f7xx_hal_rcc_ex.c ****     {
 164:Drivers/STM32F7xx_HAL_Driver/Src/stm32f7xx_hal_rcc_ex.c ****       plli2sused = 1;
 165:Drivers/STM32F7xx_HAL_Driver/Src/stm32f7xx_hal_rcc_ex.c ****     }
 166:Drivers/STM32F7xx_HAL_Driver/Src/stm32f7xx_hal_rcc_ex.c ****     /* Enable the PLLSAI when it's used as clock source for SAI */
 167:Drivers/STM32F7xx_HAL_Driver/Src/stm32f7xx_hal_rcc_ex.c ****     if(PeriphClkInit->Sai2ClockSelection == RCC_SAI2CLKSOURCE_PLLSAI)
 133              		.loc 1 167 5 is_stmt 1 view .LVU39
 134              		.loc 1 167 7 is_stmt 0 view .LVU40
 135 007a 03B9     		cbnz	r3, .L5
 168:Drivers/STM32F7xx_HAL_Driver/Src/stm32f7xx_hal_rcc_ex.c ****     {
 169:Drivers/STM32F7xx_HAL_Driver/Src/stm32f7xx_hal_rcc_ex.c ****       pllsaiused = 1;
 136              		.loc 1 169 18 view .LVU41
 137 007c 0125     		movs	r5, #1
 138              	.LVL6:
 139              	.L5:
 170:Drivers/STM32F7xx_HAL_Driver/Src/stm32f7xx_hal_rcc_ex.c ****     }
 171:Drivers/STM32F7xx_HAL_Driver/Src/stm32f7xx_hal_rcc_ex.c ****   }
 172:Drivers/STM32F7xx_HAL_Driver/Src/stm32f7xx_hal_rcc_ex.c **** 
 173:Drivers/STM32F7xx_HAL_Driver/Src/stm32f7xx_hal_rcc_ex.c ****   /*-------------------------------------- SPDIF-RX Configuration ---------------------------------
 174:Drivers/STM32F7xx_HAL_Driver/Src/stm32f7xx_hal_rcc_ex.c ****   if(((PeriphClkInit->PeriphClockSelection) & RCC_PERIPHCLK_SPDIFRX) == RCC_PERIPHCLK_SPDIFRX)
 140              		.loc 1 174 3 is_stmt 1 view .LVU42
 141              		.loc 1 174 21 is_stmt 0 view .LVU43
 142 007e 2368     		ldr	r3, [r4]
 143              		.loc 1 174 5 view .LVU44
 144 0080 13F0807F 		tst	r3, #16777216
 145 0084 00D0     		beq	.L7
 175:Drivers/STM32F7xx_HAL_Driver/Src/stm32f7xx_hal_rcc_ex.c ****   {
 176:Drivers/STM32F7xx_HAL_Driver/Src/stm32f7xx_hal_rcc_ex.c ****       plli2sused = 1;
 146              		.loc 1 176 18 view .LVU45
 147 0086 0126     		movs	r6, #1
 148              	.LVL7:
 149              	.L7:
 177:Drivers/STM32F7xx_HAL_Driver/Src/stm32f7xx_hal_rcc_ex.c ****   }
 178:Drivers/STM32F7xx_HAL_Driver/Src/stm32f7xx_hal_rcc_ex.c **** 
 179:Drivers/STM32F7xx_HAL_Driver/Src/stm32f7xx_hal_rcc_ex.c ****   /*------------------------------------ RTC configuration --------------------------------------*/
 180:Drivers/STM32F7xx_HAL_Driver/Src/stm32f7xx_hal_rcc_ex.c ****   if(((PeriphClkInit->PeriphClockSelection) & RCC_PERIPHCLK_RTC) == (RCC_PERIPHCLK_RTC))
 150              		.loc 1 180 3 is_stmt 1 view .LVU46
 151              		.loc 1 180 5 is_stmt 0 view .LVU47
 152 0088 13F0200F 		tst	r3, #32
 153 008c 40F01081 		bne	.L74
 154              	.LVL8:
 155              	.L8:
 181:Drivers/STM32F7xx_HAL_Driver/Src/stm32f7xx_hal_rcc_ex.c ****   {
 182:Drivers/STM32F7xx_HAL_Driver/Src/stm32f7xx_hal_rcc_ex.c ****     /* Check for RTC Parameters used to output RTCCLK */
 183:Drivers/STM32F7xx_HAL_Driver/Src/stm32f7xx_hal_rcc_ex.c ****     assert_param(IS_RCC_RTCCLKSOURCE(PeriphClkInit->RTCClockSelection));
 184:Drivers/STM32F7xx_HAL_Driver/Src/stm32f7xx_hal_rcc_ex.c **** 
 185:Drivers/STM32F7xx_HAL_Driver/Src/stm32f7xx_hal_rcc_ex.c ****     /* Enable Power Clock*/
 186:Drivers/STM32F7xx_HAL_Driver/Src/stm32f7xx_hal_rcc_ex.c ****     __HAL_RCC_PWR_CLK_ENABLE();
ARM GAS  C:\Users\arist\AppData\Local\Temp\ccTacmMD.s 			page 7


 187:Drivers/STM32F7xx_HAL_Driver/Src/stm32f7xx_hal_rcc_ex.c **** 
 188:Drivers/STM32F7xx_HAL_Driver/Src/stm32f7xx_hal_rcc_ex.c ****     /* Enable write access to Backup domain */
 189:Drivers/STM32F7xx_HAL_Driver/Src/stm32f7xx_hal_rcc_ex.c ****     PWR->CR1 |= PWR_CR1_DBP;
 190:Drivers/STM32F7xx_HAL_Driver/Src/stm32f7xx_hal_rcc_ex.c **** 
 191:Drivers/STM32F7xx_HAL_Driver/Src/stm32f7xx_hal_rcc_ex.c ****     /* Get Start Tick*/
 192:Drivers/STM32F7xx_HAL_Driver/Src/stm32f7xx_hal_rcc_ex.c ****     tickstart = HAL_GetTick();
 193:Drivers/STM32F7xx_HAL_Driver/Src/stm32f7xx_hal_rcc_ex.c **** 
 194:Drivers/STM32F7xx_HAL_Driver/Src/stm32f7xx_hal_rcc_ex.c ****     /* Wait for Backup domain Write protection disable */
 195:Drivers/STM32F7xx_HAL_Driver/Src/stm32f7xx_hal_rcc_ex.c ****     while((PWR->CR1 & PWR_CR1_DBP) == RESET)
 196:Drivers/STM32F7xx_HAL_Driver/Src/stm32f7xx_hal_rcc_ex.c ****     {
 197:Drivers/STM32F7xx_HAL_Driver/Src/stm32f7xx_hal_rcc_ex.c ****       if((HAL_GetTick() - tickstart) > RCC_DBP_TIMEOUT_VALUE)
 198:Drivers/STM32F7xx_HAL_Driver/Src/stm32f7xx_hal_rcc_ex.c ****       {
 199:Drivers/STM32F7xx_HAL_Driver/Src/stm32f7xx_hal_rcc_ex.c ****         return HAL_TIMEOUT;
 200:Drivers/STM32F7xx_HAL_Driver/Src/stm32f7xx_hal_rcc_ex.c ****       }
 201:Drivers/STM32F7xx_HAL_Driver/Src/stm32f7xx_hal_rcc_ex.c ****     }
 202:Drivers/STM32F7xx_HAL_Driver/Src/stm32f7xx_hal_rcc_ex.c **** 
 203:Drivers/STM32F7xx_HAL_Driver/Src/stm32f7xx_hal_rcc_ex.c ****     /* Reset the Backup domain only if the RTC Clock source selection is modified */
 204:Drivers/STM32F7xx_HAL_Driver/Src/stm32f7xx_hal_rcc_ex.c ****     tmpreg0 = (RCC->BDCR & RCC_BDCR_RTCSEL);
 205:Drivers/STM32F7xx_HAL_Driver/Src/stm32f7xx_hal_rcc_ex.c **** 
 206:Drivers/STM32F7xx_HAL_Driver/Src/stm32f7xx_hal_rcc_ex.c ****     if((tmpreg0 != 0x00000000U) && (tmpreg0 != (PeriphClkInit->RTCClockSelection & RCC_BDCR_RTCSEL)
 207:Drivers/STM32F7xx_HAL_Driver/Src/stm32f7xx_hal_rcc_ex.c ****     {
 208:Drivers/STM32F7xx_HAL_Driver/Src/stm32f7xx_hal_rcc_ex.c ****       /* Store the content of BDCR register before the reset of Backup Domain */
 209:Drivers/STM32F7xx_HAL_Driver/Src/stm32f7xx_hal_rcc_ex.c ****       tmpreg0 = (RCC->BDCR & ~(RCC_BDCR_RTCSEL));
 210:Drivers/STM32F7xx_HAL_Driver/Src/stm32f7xx_hal_rcc_ex.c **** 
 211:Drivers/STM32F7xx_HAL_Driver/Src/stm32f7xx_hal_rcc_ex.c ****       /* RTC Clock selection can be changed only if the Backup Domain is reset */
 212:Drivers/STM32F7xx_HAL_Driver/Src/stm32f7xx_hal_rcc_ex.c ****       __HAL_RCC_BACKUPRESET_FORCE();
 213:Drivers/STM32F7xx_HAL_Driver/Src/stm32f7xx_hal_rcc_ex.c ****       __HAL_RCC_BACKUPRESET_RELEASE();
 214:Drivers/STM32F7xx_HAL_Driver/Src/stm32f7xx_hal_rcc_ex.c **** 
 215:Drivers/STM32F7xx_HAL_Driver/Src/stm32f7xx_hal_rcc_ex.c ****       /* Restore the Content of BDCR register */
 216:Drivers/STM32F7xx_HAL_Driver/Src/stm32f7xx_hal_rcc_ex.c ****       RCC->BDCR = tmpreg0;
 217:Drivers/STM32F7xx_HAL_Driver/Src/stm32f7xx_hal_rcc_ex.c **** 
 218:Drivers/STM32F7xx_HAL_Driver/Src/stm32f7xx_hal_rcc_ex.c ****       /* Wait for LSE reactivation if LSE was enable prior to Backup Domain reset */
 219:Drivers/STM32F7xx_HAL_Driver/Src/stm32f7xx_hal_rcc_ex.c ****       if (HAL_IS_BIT_SET(RCC->BDCR, RCC_BDCR_LSEON))
 220:Drivers/STM32F7xx_HAL_Driver/Src/stm32f7xx_hal_rcc_ex.c ****       {
 221:Drivers/STM32F7xx_HAL_Driver/Src/stm32f7xx_hal_rcc_ex.c ****         /* Get Start Tick*/
 222:Drivers/STM32F7xx_HAL_Driver/Src/stm32f7xx_hal_rcc_ex.c ****         tickstart = HAL_GetTick();
 223:Drivers/STM32F7xx_HAL_Driver/Src/stm32f7xx_hal_rcc_ex.c **** 
 224:Drivers/STM32F7xx_HAL_Driver/Src/stm32f7xx_hal_rcc_ex.c ****         /* Wait till LSE is ready */
 225:Drivers/STM32F7xx_HAL_Driver/Src/stm32f7xx_hal_rcc_ex.c ****         while(__HAL_RCC_GET_FLAG(RCC_FLAG_LSERDY) == RESET)
 226:Drivers/STM32F7xx_HAL_Driver/Src/stm32f7xx_hal_rcc_ex.c ****         {
 227:Drivers/STM32F7xx_HAL_Driver/Src/stm32f7xx_hal_rcc_ex.c ****           if((HAL_GetTick() - tickstart ) > RCC_LSE_TIMEOUT_VALUE)
 228:Drivers/STM32F7xx_HAL_Driver/Src/stm32f7xx_hal_rcc_ex.c ****           {
 229:Drivers/STM32F7xx_HAL_Driver/Src/stm32f7xx_hal_rcc_ex.c ****             return HAL_TIMEOUT;
 230:Drivers/STM32F7xx_HAL_Driver/Src/stm32f7xx_hal_rcc_ex.c ****           }
 231:Drivers/STM32F7xx_HAL_Driver/Src/stm32f7xx_hal_rcc_ex.c ****         }
 232:Drivers/STM32F7xx_HAL_Driver/Src/stm32f7xx_hal_rcc_ex.c ****       }
 233:Drivers/STM32F7xx_HAL_Driver/Src/stm32f7xx_hal_rcc_ex.c ****     }
 234:Drivers/STM32F7xx_HAL_Driver/Src/stm32f7xx_hal_rcc_ex.c ****     __HAL_RCC_RTC_CONFIG(PeriphClkInit->RTCClockSelection);
 156              		.loc 1 234 5 is_stmt 1 discriminator 5 view .LVU48
 235:Drivers/STM32F7xx_HAL_Driver/Src/stm32f7xx_hal_rcc_ex.c ****   }
 236:Drivers/STM32F7xx_HAL_Driver/Src/stm32f7xx_hal_rcc_ex.c **** 
 237:Drivers/STM32F7xx_HAL_Driver/Src/stm32f7xx_hal_rcc_ex.c ****   /*------------------------------------ TIM configuration --------------------------------------*/
 238:Drivers/STM32F7xx_HAL_Driver/Src/stm32f7xx_hal_rcc_ex.c ****   if(((PeriphClkInit->PeriphClockSelection) & RCC_PERIPHCLK_TIM) == (RCC_PERIPHCLK_TIM))
 157              		.loc 1 238 3 discriminator 5 view .LVU49
 158              		.loc 1 238 21 is_stmt 0 discriminator 5 view .LVU50
 159 0090 2368     		ldr	r3, [r4]
 160              		.loc 1 238 5 discriminator 5 view .LVU51
ARM GAS  C:\Users\arist\AppData\Local\Temp\ccTacmMD.s 			page 8


 161 0092 13F0100F 		tst	r3, #16
 162 0096 0CD0     		beq	.L17
 239:Drivers/STM32F7xx_HAL_Driver/Src/stm32f7xx_hal_rcc_ex.c ****   {
 240:Drivers/STM32F7xx_HAL_Driver/Src/stm32f7xx_hal_rcc_ex.c ****     /* Check the parameters */
 241:Drivers/STM32F7xx_HAL_Driver/Src/stm32f7xx_hal_rcc_ex.c ****     assert_param(IS_RCC_TIMPRES(PeriphClkInit->TIMPresSelection));
 163              		.loc 1 241 5 is_stmt 1 view .LVU52
 242:Drivers/STM32F7xx_HAL_Driver/Src/stm32f7xx_hal_rcc_ex.c **** 
 243:Drivers/STM32F7xx_HAL_Driver/Src/stm32f7xx_hal_rcc_ex.c ****     /* Configure Timer Prescaler */
 244:Drivers/STM32F7xx_HAL_Driver/Src/stm32f7xx_hal_rcc_ex.c ****     __HAL_RCC_TIMCLKPRESCALER(PeriphClkInit->TIMPresSelection);
 164              		.loc 1 244 5 view .LVU53
 165              		.loc 1 244 5 view .LVU54
 166 0098 844B     		ldr	r3, .L84
 167 009a D3F88C20 		ldr	r2, [r3, #140]
 168 009e 22F08072 		bic	r2, r2, #16777216
 169 00a2 C3F88C20 		str	r2, [r3, #140]
 170              		.loc 1 244 5 view .LVU55
 171 00a6 D3F88C20 		ldr	r2, [r3, #140]
 172 00aa A16B     		ldr	r1, [r4, #56]
 173 00ac 0A43     		orrs	r2, r2, r1
 174 00ae C3F88C20 		str	r2, [r3, #140]
 175              	.L17:
 176              		.loc 1 244 5 discriminator 1 view .LVU56
 245:Drivers/STM32F7xx_HAL_Driver/Src/stm32f7xx_hal_rcc_ex.c ****   }
 246:Drivers/STM32F7xx_HAL_Driver/Src/stm32f7xx_hal_rcc_ex.c **** 
 247:Drivers/STM32F7xx_HAL_Driver/Src/stm32f7xx_hal_rcc_ex.c ****   /*-------------------------------------- I2C1 Configuration -----------------------------------*/
 248:Drivers/STM32F7xx_HAL_Driver/Src/stm32f7xx_hal_rcc_ex.c ****   if(((PeriphClkInit->PeriphClockSelection) & RCC_PERIPHCLK_I2C1) == RCC_PERIPHCLK_I2C1)
 177              		.loc 1 248 3 discriminator 1 view .LVU57
 178              		.loc 1 248 21 is_stmt 0 discriminator 1 view .LVU58
 179 00b2 2368     		ldr	r3, [r4]
 180              		.loc 1 248 5 discriminator 1 view .LVU59
 181 00b4 13F4804F 		tst	r3, #16384
 182 00b8 08D0     		beq	.L18
 249:Drivers/STM32F7xx_HAL_Driver/Src/stm32f7xx_hal_rcc_ex.c ****   {
 250:Drivers/STM32F7xx_HAL_Driver/Src/stm32f7xx_hal_rcc_ex.c ****     /* Check the parameters */
 251:Drivers/STM32F7xx_HAL_Driver/Src/stm32f7xx_hal_rcc_ex.c ****     assert_param(IS_RCC_I2C1CLKSOURCE(PeriphClkInit->I2c1ClockSelection));
 183              		.loc 1 251 5 is_stmt 1 view .LVU60
 252:Drivers/STM32F7xx_HAL_Driver/Src/stm32f7xx_hal_rcc_ex.c **** 
 253:Drivers/STM32F7xx_HAL_Driver/Src/stm32f7xx_hal_rcc_ex.c ****     /* Configure the I2C1 clock source */
 254:Drivers/STM32F7xx_HAL_Driver/Src/stm32f7xx_hal_rcc_ex.c ****     __HAL_RCC_I2C1_CONFIG(PeriphClkInit->I2c1ClockSelection);
 184              		.loc 1 254 5 view .LVU61
 185 00ba 7C4A     		ldr	r2, .L84
 186 00bc D2F89030 		ldr	r3, [r2, #144]
 187 00c0 23F44033 		bic	r3, r3, #196608
 188 00c4 616E     		ldr	r1, [r4, #100]
 189 00c6 0B43     		orrs	r3, r3, r1
 190 00c8 C2F89030 		str	r3, [r2, #144]
 191              	.L18:
 255:Drivers/STM32F7xx_HAL_Driver/Src/stm32f7xx_hal_rcc_ex.c ****   }
 256:Drivers/STM32F7xx_HAL_Driver/Src/stm32f7xx_hal_rcc_ex.c **** 
 257:Drivers/STM32F7xx_HAL_Driver/Src/stm32f7xx_hal_rcc_ex.c ****   /*-------------------------------------- I2C2 Configuration -----------------------------------*/
 258:Drivers/STM32F7xx_HAL_Driver/Src/stm32f7xx_hal_rcc_ex.c ****   if(((PeriphClkInit->PeriphClockSelection) & RCC_PERIPHCLK_I2C2) == RCC_PERIPHCLK_I2C2)
 192              		.loc 1 258 3 view .LVU62
 193              		.loc 1 258 21 is_stmt 0 view .LVU63
 194 00cc 2368     		ldr	r3, [r4]
 195              		.loc 1 258 5 view .LVU64
 196 00ce 13F4004F 		tst	r3, #32768
 197 00d2 08D0     		beq	.L19
ARM GAS  C:\Users\arist\AppData\Local\Temp\ccTacmMD.s 			page 9


 259:Drivers/STM32F7xx_HAL_Driver/Src/stm32f7xx_hal_rcc_ex.c ****   {
 260:Drivers/STM32F7xx_HAL_Driver/Src/stm32f7xx_hal_rcc_ex.c ****     /* Check the parameters */
 261:Drivers/STM32F7xx_HAL_Driver/Src/stm32f7xx_hal_rcc_ex.c ****     assert_param(IS_RCC_I2C2CLKSOURCE(PeriphClkInit->I2c2ClockSelection));
 198              		.loc 1 261 5 is_stmt 1 view .LVU65
 262:Drivers/STM32F7xx_HAL_Driver/Src/stm32f7xx_hal_rcc_ex.c **** 
 263:Drivers/STM32F7xx_HAL_Driver/Src/stm32f7xx_hal_rcc_ex.c ****     /* Configure the I2C2 clock source */
 264:Drivers/STM32F7xx_HAL_Driver/Src/stm32f7xx_hal_rcc_ex.c ****     __HAL_RCC_I2C2_CONFIG(PeriphClkInit->I2c2ClockSelection);
 199              		.loc 1 264 5 view .LVU66
 200 00d4 754A     		ldr	r2, .L84
 201 00d6 D2F89030 		ldr	r3, [r2, #144]
 202 00da 23F44023 		bic	r3, r3, #786432
 203 00de A16E     		ldr	r1, [r4, #104]
 204 00e0 0B43     		orrs	r3, r3, r1
 205 00e2 C2F89030 		str	r3, [r2, #144]
 206              	.L19:
 265:Drivers/STM32F7xx_HAL_Driver/Src/stm32f7xx_hal_rcc_ex.c ****   }
 266:Drivers/STM32F7xx_HAL_Driver/Src/stm32f7xx_hal_rcc_ex.c **** 
 267:Drivers/STM32F7xx_HAL_Driver/Src/stm32f7xx_hal_rcc_ex.c ****   /*-------------------------------------- I2C3 Configuration -----------------------------------*/
 268:Drivers/STM32F7xx_HAL_Driver/Src/stm32f7xx_hal_rcc_ex.c ****   if(((PeriphClkInit->PeriphClockSelection) & RCC_PERIPHCLK_I2C3) == RCC_PERIPHCLK_I2C3)
 207              		.loc 1 268 3 view .LVU67
 208              		.loc 1 268 21 is_stmt 0 view .LVU68
 209 00e6 2368     		ldr	r3, [r4]
 210              		.loc 1 268 5 view .LVU69
 211 00e8 13F4803F 		tst	r3, #65536
 212 00ec 08D0     		beq	.L20
 269:Drivers/STM32F7xx_HAL_Driver/Src/stm32f7xx_hal_rcc_ex.c ****   {
 270:Drivers/STM32F7xx_HAL_Driver/Src/stm32f7xx_hal_rcc_ex.c ****     /* Check the parameters */
 271:Drivers/STM32F7xx_HAL_Driver/Src/stm32f7xx_hal_rcc_ex.c ****     assert_param(IS_RCC_I2C3CLKSOURCE(PeriphClkInit->I2c3ClockSelection));
 213              		.loc 1 271 5 is_stmt 1 view .LVU70
 272:Drivers/STM32F7xx_HAL_Driver/Src/stm32f7xx_hal_rcc_ex.c **** 
 273:Drivers/STM32F7xx_HAL_Driver/Src/stm32f7xx_hal_rcc_ex.c ****     /* Configure the I2C3 clock source */
 274:Drivers/STM32F7xx_HAL_Driver/Src/stm32f7xx_hal_rcc_ex.c ****     __HAL_RCC_I2C3_CONFIG(PeriphClkInit->I2c3ClockSelection);
 214              		.loc 1 274 5 view .LVU71
 215 00ee 6F4A     		ldr	r2, .L84
 216 00f0 D2F89030 		ldr	r3, [r2, #144]
 217 00f4 23F44013 		bic	r3, r3, #3145728
 218 00f8 E16E     		ldr	r1, [r4, #108]
 219 00fa 0B43     		orrs	r3, r3, r1
 220 00fc C2F89030 		str	r3, [r2, #144]
 221              	.L20:
 275:Drivers/STM32F7xx_HAL_Driver/Src/stm32f7xx_hal_rcc_ex.c ****   }
 276:Drivers/STM32F7xx_HAL_Driver/Src/stm32f7xx_hal_rcc_ex.c **** 
 277:Drivers/STM32F7xx_HAL_Driver/Src/stm32f7xx_hal_rcc_ex.c ****   /*-------------------------------------- I2C4 Configuration -----------------------------------*/
 278:Drivers/STM32F7xx_HAL_Driver/Src/stm32f7xx_hal_rcc_ex.c ****   if(((PeriphClkInit->PeriphClockSelection) & RCC_PERIPHCLK_I2C4) == RCC_PERIPHCLK_I2C4)
 222              		.loc 1 278 3 view .LVU72
 223              		.loc 1 278 21 is_stmt 0 view .LVU73
 224 0100 2368     		ldr	r3, [r4]
 225              		.loc 1 278 5 view .LVU74
 226 0102 13F4003F 		tst	r3, #131072
 227 0106 08D0     		beq	.L21
 279:Drivers/STM32F7xx_HAL_Driver/Src/stm32f7xx_hal_rcc_ex.c ****   {
 280:Drivers/STM32F7xx_HAL_Driver/Src/stm32f7xx_hal_rcc_ex.c ****     /* Check the parameters */
 281:Drivers/STM32F7xx_HAL_Driver/Src/stm32f7xx_hal_rcc_ex.c ****     assert_param(IS_RCC_I2C4CLKSOURCE(PeriphClkInit->I2c4ClockSelection));
 228              		.loc 1 281 5 is_stmt 1 view .LVU75
 282:Drivers/STM32F7xx_HAL_Driver/Src/stm32f7xx_hal_rcc_ex.c **** 
 283:Drivers/STM32F7xx_HAL_Driver/Src/stm32f7xx_hal_rcc_ex.c ****     /* Configure the I2C4 clock source */
 284:Drivers/STM32F7xx_HAL_Driver/Src/stm32f7xx_hal_rcc_ex.c ****     __HAL_RCC_I2C4_CONFIG(PeriphClkInit->I2c4ClockSelection);
ARM GAS  C:\Users\arist\AppData\Local\Temp\ccTacmMD.s 			page 10


 229              		.loc 1 284 5 view .LVU76
 230 0108 684A     		ldr	r2, .L84
 231 010a D2F89030 		ldr	r3, [r2, #144]
 232 010e 23F44003 		bic	r3, r3, #12582912
 233 0112 216F     		ldr	r1, [r4, #112]
 234 0114 0B43     		orrs	r3, r3, r1
 235 0116 C2F89030 		str	r3, [r2, #144]
 236              	.L21:
 285:Drivers/STM32F7xx_HAL_Driver/Src/stm32f7xx_hal_rcc_ex.c ****   }
 286:Drivers/STM32F7xx_HAL_Driver/Src/stm32f7xx_hal_rcc_ex.c **** 
 287:Drivers/STM32F7xx_HAL_Driver/Src/stm32f7xx_hal_rcc_ex.c ****   /*-------------------------------------- USART1 Configuration -----------------------------------
 288:Drivers/STM32F7xx_HAL_Driver/Src/stm32f7xx_hal_rcc_ex.c ****   if(((PeriphClkInit->PeriphClockSelection) & RCC_PERIPHCLK_USART1) == RCC_PERIPHCLK_USART1)
 237              		.loc 1 288 3 view .LVU77
 238              		.loc 1 288 21 is_stmt 0 view .LVU78
 239 011a 2368     		ldr	r3, [r4]
 240              		.loc 1 288 5 view .LVU79
 241 011c 13F0400F 		tst	r3, #64
 242 0120 08D0     		beq	.L22
 289:Drivers/STM32F7xx_HAL_Driver/Src/stm32f7xx_hal_rcc_ex.c ****   {
 290:Drivers/STM32F7xx_HAL_Driver/Src/stm32f7xx_hal_rcc_ex.c ****     /* Check the parameters */
 291:Drivers/STM32F7xx_HAL_Driver/Src/stm32f7xx_hal_rcc_ex.c ****     assert_param(IS_RCC_USART1CLKSOURCE(PeriphClkInit->Usart1ClockSelection));
 243              		.loc 1 291 5 is_stmt 1 view .LVU80
 292:Drivers/STM32F7xx_HAL_Driver/Src/stm32f7xx_hal_rcc_ex.c **** 
 293:Drivers/STM32F7xx_HAL_Driver/Src/stm32f7xx_hal_rcc_ex.c ****     /* Configure the USART1 clock source */
 294:Drivers/STM32F7xx_HAL_Driver/Src/stm32f7xx_hal_rcc_ex.c ****     __HAL_RCC_USART1_CONFIG(PeriphClkInit->Usart1ClockSelection);
 244              		.loc 1 294 5 view .LVU81
 245 0122 624A     		ldr	r2, .L84
 246 0124 D2F89030 		ldr	r3, [r2, #144]
 247 0128 23F00303 		bic	r3, r3, #3
 248 012c 616C     		ldr	r1, [r4, #68]
 249 012e 0B43     		orrs	r3, r3, r1
 250 0130 C2F89030 		str	r3, [r2, #144]
 251              	.L22:
 295:Drivers/STM32F7xx_HAL_Driver/Src/stm32f7xx_hal_rcc_ex.c ****   }
 296:Drivers/STM32F7xx_HAL_Driver/Src/stm32f7xx_hal_rcc_ex.c **** 
 297:Drivers/STM32F7xx_HAL_Driver/Src/stm32f7xx_hal_rcc_ex.c ****   /*-------------------------------------- USART2 Configuration -----------------------------------
 298:Drivers/STM32F7xx_HAL_Driver/Src/stm32f7xx_hal_rcc_ex.c ****   if(((PeriphClkInit->PeriphClockSelection) & RCC_PERIPHCLK_USART2) == RCC_PERIPHCLK_USART2)
 252              		.loc 1 298 3 view .LVU82
 253              		.loc 1 298 21 is_stmt 0 view .LVU83
 254 0134 2368     		ldr	r3, [r4]
 255              		.loc 1 298 5 view .LVU84
 256 0136 13F0800F 		tst	r3, #128
 257 013a 08D0     		beq	.L23
 299:Drivers/STM32F7xx_HAL_Driver/Src/stm32f7xx_hal_rcc_ex.c ****   {
 300:Drivers/STM32F7xx_HAL_Driver/Src/stm32f7xx_hal_rcc_ex.c ****     /* Check the parameters */
 301:Drivers/STM32F7xx_HAL_Driver/Src/stm32f7xx_hal_rcc_ex.c ****     assert_param(IS_RCC_USART2CLKSOURCE(PeriphClkInit->Usart2ClockSelection));
 258              		.loc 1 301 5 is_stmt 1 view .LVU85
 302:Drivers/STM32F7xx_HAL_Driver/Src/stm32f7xx_hal_rcc_ex.c **** 
 303:Drivers/STM32F7xx_HAL_Driver/Src/stm32f7xx_hal_rcc_ex.c ****     /* Configure the USART2 clock source */
 304:Drivers/STM32F7xx_HAL_Driver/Src/stm32f7xx_hal_rcc_ex.c ****     __HAL_RCC_USART2_CONFIG(PeriphClkInit->Usart2ClockSelection);
 259              		.loc 1 304 5 view .LVU86
 260 013c 5B4A     		ldr	r2, .L84
 261 013e D2F89030 		ldr	r3, [r2, #144]
 262 0142 23F00C03 		bic	r3, r3, #12
 263 0146 A16C     		ldr	r1, [r4, #72]
 264 0148 0B43     		orrs	r3, r3, r1
 265 014a C2F89030 		str	r3, [r2, #144]
ARM GAS  C:\Users\arist\AppData\Local\Temp\ccTacmMD.s 			page 11


 266              	.L23:
 305:Drivers/STM32F7xx_HAL_Driver/Src/stm32f7xx_hal_rcc_ex.c ****   }
 306:Drivers/STM32F7xx_HAL_Driver/Src/stm32f7xx_hal_rcc_ex.c **** 
 307:Drivers/STM32F7xx_HAL_Driver/Src/stm32f7xx_hal_rcc_ex.c ****   /*-------------------------------------- USART3 Configuration -----------------------------------
 308:Drivers/STM32F7xx_HAL_Driver/Src/stm32f7xx_hal_rcc_ex.c ****   if(((PeriphClkInit->PeriphClockSelection) & RCC_PERIPHCLK_USART3) == RCC_PERIPHCLK_USART3)
 267              		.loc 1 308 3 view .LVU87
 268              		.loc 1 308 21 is_stmt 0 view .LVU88
 269 014e 2368     		ldr	r3, [r4]
 270              		.loc 1 308 5 view .LVU89
 271 0150 13F4807F 		tst	r3, #256
 272 0154 08D0     		beq	.L24
 309:Drivers/STM32F7xx_HAL_Driver/Src/stm32f7xx_hal_rcc_ex.c ****   {
 310:Drivers/STM32F7xx_HAL_Driver/Src/stm32f7xx_hal_rcc_ex.c ****     /* Check the parameters */
 311:Drivers/STM32F7xx_HAL_Driver/Src/stm32f7xx_hal_rcc_ex.c ****     assert_param(IS_RCC_USART3CLKSOURCE(PeriphClkInit->Usart3ClockSelection));
 273              		.loc 1 311 5 is_stmt 1 view .LVU90
 312:Drivers/STM32F7xx_HAL_Driver/Src/stm32f7xx_hal_rcc_ex.c **** 
 313:Drivers/STM32F7xx_HAL_Driver/Src/stm32f7xx_hal_rcc_ex.c ****     /* Configure the USART3 clock source */
 314:Drivers/STM32F7xx_HAL_Driver/Src/stm32f7xx_hal_rcc_ex.c ****     __HAL_RCC_USART3_CONFIG(PeriphClkInit->Usart3ClockSelection);
 274              		.loc 1 314 5 view .LVU91
 275 0156 554A     		ldr	r2, .L84
 276 0158 D2F89030 		ldr	r3, [r2, #144]
 277 015c 23F03003 		bic	r3, r3, #48
 278 0160 E16C     		ldr	r1, [r4, #76]
 279 0162 0B43     		orrs	r3, r3, r1
 280 0164 C2F89030 		str	r3, [r2, #144]
 281              	.L24:
 315:Drivers/STM32F7xx_HAL_Driver/Src/stm32f7xx_hal_rcc_ex.c ****   }
 316:Drivers/STM32F7xx_HAL_Driver/Src/stm32f7xx_hal_rcc_ex.c **** 
 317:Drivers/STM32F7xx_HAL_Driver/Src/stm32f7xx_hal_rcc_ex.c ****   /*-------------------------------------- UART4 Configuration -----------------------------------*
 318:Drivers/STM32F7xx_HAL_Driver/Src/stm32f7xx_hal_rcc_ex.c ****   if(((PeriphClkInit->PeriphClockSelection) & RCC_PERIPHCLK_UART4) == RCC_PERIPHCLK_UART4)
 282              		.loc 1 318 3 view .LVU92
 283              		.loc 1 318 21 is_stmt 0 view .LVU93
 284 0168 2368     		ldr	r3, [r4]
 285              		.loc 1 318 5 view .LVU94
 286 016a 13F4007F 		tst	r3, #512
 287 016e 08D0     		beq	.L25
 319:Drivers/STM32F7xx_HAL_Driver/Src/stm32f7xx_hal_rcc_ex.c ****   {
 320:Drivers/STM32F7xx_HAL_Driver/Src/stm32f7xx_hal_rcc_ex.c ****     /* Check the parameters */
 321:Drivers/STM32F7xx_HAL_Driver/Src/stm32f7xx_hal_rcc_ex.c ****     assert_param(IS_RCC_UART4CLKSOURCE(PeriphClkInit->Uart4ClockSelection));
 288              		.loc 1 321 5 is_stmt 1 view .LVU95
 322:Drivers/STM32F7xx_HAL_Driver/Src/stm32f7xx_hal_rcc_ex.c **** 
 323:Drivers/STM32F7xx_HAL_Driver/Src/stm32f7xx_hal_rcc_ex.c ****     /* Configure the UART4 clock source */
 324:Drivers/STM32F7xx_HAL_Driver/Src/stm32f7xx_hal_rcc_ex.c ****     __HAL_RCC_UART4_CONFIG(PeriphClkInit->Uart4ClockSelection);
 289              		.loc 1 324 5 view .LVU96
 290 0170 4E4A     		ldr	r2, .L84
 291 0172 D2F89030 		ldr	r3, [r2, #144]
 292 0176 23F0C003 		bic	r3, r3, #192
 293 017a 216D     		ldr	r1, [r4, #80]
 294 017c 0B43     		orrs	r3, r3, r1
 295 017e C2F89030 		str	r3, [r2, #144]
 296              	.L25:
 325:Drivers/STM32F7xx_HAL_Driver/Src/stm32f7xx_hal_rcc_ex.c ****   }
 326:Drivers/STM32F7xx_HAL_Driver/Src/stm32f7xx_hal_rcc_ex.c **** 
 327:Drivers/STM32F7xx_HAL_Driver/Src/stm32f7xx_hal_rcc_ex.c ****   /*-------------------------------------- UART5 Configuration -----------------------------------*
 328:Drivers/STM32F7xx_HAL_Driver/Src/stm32f7xx_hal_rcc_ex.c ****   if(((PeriphClkInit->PeriphClockSelection) & RCC_PERIPHCLK_UART5) == RCC_PERIPHCLK_UART5)
 297              		.loc 1 328 3 view .LVU97
 298              		.loc 1 328 21 is_stmt 0 view .LVU98
ARM GAS  C:\Users\arist\AppData\Local\Temp\ccTacmMD.s 			page 12


 299 0182 2368     		ldr	r3, [r4]
 300              		.loc 1 328 5 view .LVU99
 301 0184 13F4806F 		tst	r3, #1024
 302 0188 08D0     		beq	.L26
 329:Drivers/STM32F7xx_HAL_Driver/Src/stm32f7xx_hal_rcc_ex.c ****   {
 330:Drivers/STM32F7xx_HAL_Driver/Src/stm32f7xx_hal_rcc_ex.c ****     /* Check the parameters */
 331:Drivers/STM32F7xx_HAL_Driver/Src/stm32f7xx_hal_rcc_ex.c ****     assert_param(IS_RCC_UART5CLKSOURCE(PeriphClkInit->Uart5ClockSelection));
 303              		.loc 1 331 5 is_stmt 1 view .LVU100
 332:Drivers/STM32F7xx_HAL_Driver/Src/stm32f7xx_hal_rcc_ex.c **** 
 333:Drivers/STM32F7xx_HAL_Driver/Src/stm32f7xx_hal_rcc_ex.c ****     /* Configure the UART5 clock source */
 334:Drivers/STM32F7xx_HAL_Driver/Src/stm32f7xx_hal_rcc_ex.c ****     __HAL_RCC_UART5_CONFIG(PeriphClkInit->Uart5ClockSelection);
 304              		.loc 1 334 5 view .LVU101
 305 018a 484A     		ldr	r2, .L84
 306 018c D2F89030 		ldr	r3, [r2, #144]
 307 0190 23F44073 		bic	r3, r3, #768
 308 0194 616D     		ldr	r1, [r4, #84]
 309 0196 0B43     		orrs	r3, r3, r1
 310 0198 C2F89030 		str	r3, [r2, #144]
 311              	.L26:
 335:Drivers/STM32F7xx_HAL_Driver/Src/stm32f7xx_hal_rcc_ex.c ****   }
 336:Drivers/STM32F7xx_HAL_Driver/Src/stm32f7xx_hal_rcc_ex.c **** 
 337:Drivers/STM32F7xx_HAL_Driver/Src/stm32f7xx_hal_rcc_ex.c ****   /*-------------------------------------- USART6 Configuration -----------------------------------
 338:Drivers/STM32F7xx_HAL_Driver/Src/stm32f7xx_hal_rcc_ex.c ****   if(((PeriphClkInit->PeriphClockSelection) & RCC_PERIPHCLK_USART6) == RCC_PERIPHCLK_USART6)
 312              		.loc 1 338 3 view .LVU102
 313              		.loc 1 338 21 is_stmt 0 view .LVU103
 314 019c 2368     		ldr	r3, [r4]
 315              		.loc 1 338 5 view .LVU104
 316 019e 13F4006F 		tst	r3, #2048
 317 01a2 08D0     		beq	.L27
 339:Drivers/STM32F7xx_HAL_Driver/Src/stm32f7xx_hal_rcc_ex.c ****   {
 340:Drivers/STM32F7xx_HAL_Driver/Src/stm32f7xx_hal_rcc_ex.c ****     /* Check the parameters */
 341:Drivers/STM32F7xx_HAL_Driver/Src/stm32f7xx_hal_rcc_ex.c ****     assert_param(IS_RCC_USART6CLKSOURCE(PeriphClkInit->Usart6ClockSelection));
 318              		.loc 1 341 5 is_stmt 1 view .LVU105
 342:Drivers/STM32F7xx_HAL_Driver/Src/stm32f7xx_hal_rcc_ex.c **** 
 343:Drivers/STM32F7xx_HAL_Driver/Src/stm32f7xx_hal_rcc_ex.c ****     /* Configure the USART6 clock source */
 344:Drivers/STM32F7xx_HAL_Driver/Src/stm32f7xx_hal_rcc_ex.c ****     __HAL_RCC_USART6_CONFIG(PeriphClkInit->Usart6ClockSelection);
 319              		.loc 1 344 5 view .LVU106
 320 01a4 414A     		ldr	r2, .L84
 321 01a6 D2F89030 		ldr	r3, [r2, #144]
 322 01aa 23F44063 		bic	r3, r3, #3072
 323 01ae A16D     		ldr	r1, [r4, #88]
 324 01b0 0B43     		orrs	r3, r3, r1
 325 01b2 C2F89030 		str	r3, [r2, #144]
 326              	.L27:
 345:Drivers/STM32F7xx_HAL_Driver/Src/stm32f7xx_hal_rcc_ex.c ****   }
 346:Drivers/STM32F7xx_HAL_Driver/Src/stm32f7xx_hal_rcc_ex.c **** 
 347:Drivers/STM32F7xx_HAL_Driver/Src/stm32f7xx_hal_rcc_ex.c ****   /*-------------------------------------- UART7 Configuration -----------------------------------*
 348:Drivers/STM32F7xx_HAL_Driver/Src/stm32f7xx_hal_rcc_ex.c ****   if(((PeriphClkInit->PeriphClockSelection) & RCC_PERIPHCLK_UART7) == RCC_PERIPHCLK_UART7)
 327              		.loc 1 348 3 view .LVU107
 328              		.loc 1 348 21 is_stmt 0 view .LVU108
 329 01b6 2368     		ldr	r3, [r4]
 330              		.loc 1 348 5 view .LVU109
 331 01b8 13F4805F 		tst	r3, #4096
 332 01bc 08D0     		beq	.L28
 349:Drivers/STM32F7xx_HAL_Driver/Src/stm32f7xx_hal_rcc_ex.c ****   {
 350:Drivers/STM32F7xx_HAL_Driver/Src/stm32f7xx_hal_rcc_ex.c ****     /* Check the parameters */
 351:Drivers/STM32F7xx_HAL_Driver/Src/stm32f7xx_hal_rcc_ex.c ****     assert_param(IS_RCC_UART7CLKSOURCE(PeriphClkInit->Uart7ClockSelection));
ARM GAS  C:\Users\arist\AppData\Local\Temp\ccTacmMD.s 			page 13


 333              		.loc 1 351 5 is_stmt 1 view .LVU110
 352:Drivers/STM32F7xx_HAL_Driver/Src/stm32f7xx_hal_rcc_ex.c **** 
 353:Drivers/STM32F7xx_HAL_Driver/Src/stm32f7xx_hal_rcc_ex.c ****     /* Configure the UART7 clock source */
 354:Drivers/STM32F7xx_HAL_Driver/Src/stm32f7xx_hal_rcc_ex.c ****     __HAL_RCC_UART7_CONFIG(PeriphClkInit->Uart7ClockSelection);
 334              		.loc 1 354 5 view .LVU111
 335 01be 3B4A     		ldr	r2, .L84
 336 01c0 D2F89030 		ldr	r3, [r2, #144]
 337 01c4 23F44053 		bic	r3, r3, #12288
 338 01c8 E16D     		ldr	r1, [r4, #92]
 339 01ca 0B43     		orrs	r3, r3, r1
 340 01cc C2F89030 		str	r3, [r2, #144]
 341              	.L28:
 355:Drivers/STM32F7xx_HAL_Driver/Src/stm32f7xx_hal_rcc_ex.c ****   }
 356:Drivers/STM32F7xx_HAL_Driver/Src/stm32f7xx_hal_rcc_ex.c **** 
 357:Drivers/STM32F7xx_HAL_Driver/Src/stm32f7xx_hal_rcc_ex.c ****   /*-------------------------------------- UART8 Configuration -----------------------------------*
 358:Drivers/STM32F7xx_HAL_Driver/Src/stm32f7xx_hal_rcc_ex.c ****   if(((PeriphClkInit->PeriphClockSelection) & RCC_PERIPHCLK_UART8) == RCC_PERIPHCLK_UART8)
 342              		.loc 1 358 3 view .LVU112
 343              		.loc 1 358 21 is_stmt 0 view .LVU113
 344 01d0 2368     		ldr	r3, [r4]
 345              		.loc 1 358 5 view .LVU114
 346 01d2 13F4005F 		tst	r3, #8192
 347 01d6 08D0     		beq	.L29
 359:Drivers/STM32F7xx_HAL_Driver/Src/stm32f7xx_hal_rcc_ex.c ****   {
 360:Drivers/STM32F7xx_HAL_Driver/Src/stm32f7xx_hal_rcc_ex.c ****     /* Check the parameters */
 361:Drivers/STM32F7xx_HAL_Driver/Src/stm32f7xx_hal_rcc_ex.c ****     assert_param(IS_RCC_UART8CLKSOURCE(PeriphClkInit->Uart8ClockSelection));
 348              		.loc 1 361 5 is_stmt 1 view .LVU115
 362:Drivers/STM32F7xx_HAL_Driver/Src/stm32f7xx_hal_rcc_ex.c **** 
 363:Drivers/STM32F7xx_HAL_Driver/Src/stm32f7xx_hal_rcc_ex.c ****     /* Configure the UART8 clock source */
 364:Drivers/STM32F7xx_HAL_Driver/Src/stm32f7xx_hal_rcc_ex.c ****     __HAL_RCC_UART8_CONFIG(PeriphClkInit->Uart8ClockSelection);
 349              		.loc 1 364 5 view .LVU116
 350 01d8 344A     		ldr	r2, .L84
 351 01da D2F89030 		ldr	r3, [r2, #144]
 352 01de 23F44043 		bic	r3, r3, #49152
 353 01e2 216E     		ldr	r1, [r4, #96]
 354 01e4 0B43     		orrs	r3, r3, r1
 355 01e6 C2F89030 		str	r3, [r2, #144]
 356              	.L29:
 365:Drivers/STM32F7xx_HAL_Driver/Src/stm32f7xx_hal_rcc_ex.c ****   }
 366:Drivers/STM32F7xx_HAL_Driver/Src/stm32f7xx_hal_rcc_ex.c **** 
 367:Drivers/STM32F7xx_HAL_Driver/Src/stm32f7xx_hal_rcc_ex.c ****   /*--------------------------------------- CEC Configuration -----------------------------------*/
 368:Drivers/STM32F7xx_HAL_Driver/Src/stm32f7xx_hal_rcc_ex.c ****   if(((PeriphClkInit->PeriphClockSelection) & RCC_PERIPHCLK_CEC) == RCC_PERIPHCLK_CEC)
 357              		.loc 1 368 3 view .LVU117
 358              		.loc 1 368 21 is_stmt 0 view .LVU118
 359 01ea 2368     		ldr	r3, [r4]
 360              		.loc 1 368 5 view .LVU119
 361 01ec 13F4800F 		tst	r3, #4194304
 362 01f0 08D0     		beq	.L30
 369:Drivers/STM32F7xx_HAL_Driver/Src/stm32f7xx_hal_rcc_ex.c ****   {
 370:Drivers/STM32F7xx_HAL_Driver/Src/stm32f7xx_hal_rcc_ex.c ****     /* Check the parameters */
 371:Drivers/STM32F7xx_HAL_Driver/Src/stm32f7xx_hal_rcc_ex.c ****     assert_param(IS_RCC_CECCLKSOURCE(PeriphClkInit->CecClockSelection));
 363              		.loc 1 371 5 is_stmt 1 view .LVU120
 372:Drivers/STM32F7xx_HAL_Driver/Src/stm32f7xx_hal_rcc_ex.c **** 
 373:Drivers/STM32F7xx_HAL_Driver/Src/stm32f7xx_hal_rcc_ex.c ****     /* Configure the CEC clock source */
 374:Drivers/STM32F7xx_HAL_Driver/Src/stm32f7xx_hal_rcc_ex.c ****     __HAL_RCC_CEC_CONFIG(PeriphClkInit->CecClockSelection);
 364              		.loc 1 374 5 view .LVU121
 365 01f2 2E4A     		ldr	r2, .L84
 366 01f4 D2F89030 		ldr	r3, [r2, #144]
ARM GAS  C:\Users\arist\AppData\Local\Temp\ccTacmMD.s 			page 14


 367 01f8 23F08063 		bic	r3, r3, #67108864
 368 01fc A16F     		ldr	r1, [r4, #120]
 369 01fe 0B43     		orrs	r3, r3, r1
 370 0200 C2F89030 		str	r3, [r2, #144]
 371              	.L30:
 375:Drivers/STM32F7xx_HAL_Driver/Src/stm32f7xx_hal_rcc_ex.c ****   }
 376:Drivers/STM32F7xx_HAL_Driver/Src/stm32f7xx_hal_rcc_ex.c **** 
 377:Drivers/STM32F7xx_HAL_Driver/Src/stm32f7xx_hal_rcc_ex.c ****   /*-------------------------------------- CK48 Configuration -----------------------------------*/
 378:Drivers/STM32F7xx_HAL_Driver/Src/stm32f7xx_hal_rcc_ex.c ****   if(((PeriphClkInit->PeriphClockSelection) & RCC_PERIPHCLK_CLK48) == RCC_PERIPHCLK_CLK48)
 372              		.loc 1 378 3 view .LVU122
 373              		.loc 1 378 21 is_stmt 0 view .LVU123
 374 0204 2368     		ldr	r3, [r4]
 375              		.loc 1 378 5 view .LVU124
 376 0206 13F4001F 		tst	r3, #2097152
 377 020a 0DD0     		beq	.L31
 379:Drivers/STM32F7xx_HAL_Driver/Src/stm32f7xx_hal_rcc_ex.c ****   {
 380:Drivers/STM32F7xx_HAL_Driver/Src/stm32f7xx_hal_rcc_ex.c ****     /* Check the parameters */
 381:Drivers/STM32F7xx_HAL_Driver/Src/stm32f7xx_hal_rcc_ex.c ****     assert_param(IS_RCC_CLK48SOURCE(PeriphClkInit->Clk48ClockSelection));
 378              		.loc 1 381 5 is_stmt 1 view .LVU125
 382:Drivers/STM32F7xx_HAL_Driver/Src/stm32f7xx_hal_rcc_ex.c **** 
 383:Drivers/STM32F7xx_HAL_Driver/Src/stm32f7xx_hal_rcc_ex.c ****     /* Configure the CLK48 source */
 384:Drivers/STM32F7xx_HAL_Driver/Src/stm32f7xx_hal_rcc_ex.c ****     __HAL_RCC_CLK48_CONFIG(PeriphClkInit->Clk48ClockSelection);
 379              		.loc 1 384 5 view .LVU126
 380 020c 274A     		ldr	r2, .L84
 381 020e D2F89030 		ldr	r3, [r2, #144]
 382 0212 23F00063 		bic	r3, r3, #134217728
 383 0216 E16F     		ldr	r1, [r4, #124]
 384 0218 0B43     		orrs	r3, r3, r1
 385 021a C2F89030 		str	r3, [r2, #144]
 385:Drivers/STM32F7xx_HAL_Driver/Src/stm32f7xx_hal_rcc_ex.c **** 
 386:Drivers/STM32F7xx_HAL_Driver/Src/stm32f7xx_hal_rcc_ex.c ****     /* Enable the PLLSAI when it's used as clock source for CK48 */
 387:Drivers/STM32F7xx_HAL_Driver/Src/stm32f7xx_hal_rcc_ex.c ****     if(PeriphClkInit->Clk48ClockSelection == RCC_CLK48SOURCE_PLLSAIP)
 386              		.loc 1 387 5 view .LVU127
 387              		.loc 1 387 21 is_stmt 0 view .LVU128
 388 021e E36F     		ldr	r3, [r4, #124]
 389              		.loc 1 387 7 view .LVU129
 390 0220 B3F1006F 		cmp	r3, #134217728
 391 0224 00F0AA80 		beq	.L75
 392              	.LVL9:
 393              	.L31:
 388:Drivers/STM32F7xx_HAL_Driver/Src/stm32f7xx_hal_rcc_ex.c ****     {
 389:Drivers/STM32F7xx_HAL_Driver/Src/stm32f7xx_hal_rcc_ex.c ****       pllsaiused = 1;
 390:Drivers/STM32F7xx_HAL_Driver/Src/stm32f7xx_hal_rcc_ex.c ****     }
 391:Drivers/STM32F7xx_HAL_Driver/Src/stm32f7xx_hal_rcc_ex.c ****   }
 392:Drivers/STM32F7xx_HAL_Driver/Src/stm32f7xx_hal_rcc_ex.c **** 
 393:Drivers/STM32F7xx_HAL_Driver/Src/stm32f7xx_hal_rcc_ex.c ****   /*-------------------------------------- LTDC Configuration -----------------------------------*/
 394:Drivers/STM32F7xx_HAL_Driver/Src/stm32f7xx_hal_rcc_ex.c **** #if defined(STM32F746xx) || defined(STM32F756xx) || defined (STM32F767xx) || defined (STM32F769xx) 
 395:Drivers/STM32F7xx_HAL_Driver/Src/stm32f7xx_hal_rcc_ex.c ****   if(((PeriphClkInit->PeriphClockSelection) & RCC_PERIPHCLK_LTDC) == RCC_PERIPHCLK_LTDC)
 394              		.loc 1 395 3 is_stmt 1 view .LVU130
 395              		.loc 1 395 21 is_stmt 0 view .LVU131
 396 0228 2368     		ldr	r3, [r4]
 397              		.loc 1 395 5 view .LVU132
 398 022a 13F0080F 		tst	r3, #8
 399 022e 00D0     		beq	.L32
 396:Drivers/STM32F7xx_HAL_Driver/Src/stm32f7xx_hal_rcc_ex.c ****   {
 397:Drivers/STM32F7xx_HAL_Driver/Src/stm32f7xx_hal_rcc_ex.c ****     pllsaiused = 1;
 400              		.loc 1 397 16 view .LVU133
ARM GAS  C:\Users\arist\AppData\Local\Temp\ccTacmMD.s 			page 15


 401 0230 0125     		movs	r5, #1
 402              	.LVL10:
 403              	.L32:
 398:Drivers/STM32F7xx_HAL_Driver/Src/stm32f7xx_hal_rcc_ex.c ****   }
 399:Drivers/STM32F7xx_HAL_Driver/Src/stm32f7xx_hal_rcc_ex.c **** #endif /* STM32F746xx || STM32F756xx || STM32F767xx || STM32F769xx || STM32F777xx || STM32F779xx ||
 400:Drivers/STM32F7xx_HAL_Driver/Src/stm32f7xx_hal_rcc_ex.c **** 
 401:Drivers/STM32F7xx_HAL_Driver/Src/stm32f7xx_hal_rcc_ex.c ****   /*-------------------------------------- LPTIM1 Configuration -----------------------------------
 402:Drivers/STM32F7xx_HAL_Driver/Src/stm32f7xx_hal_rcc_ex.c ****   if(((PeriphClkInit->PeriphClockSelection) & RCC_PERIPHCLK_LPTIM1) == RCC_PERIPHCLK_LPTIM1)
 404              		.loc 1 402 3 is_stmt 1 view .LVU134
 405              		.loc 1 402 5 is_stmt 0 view .LVU135
 406 0232 13F4802F 		tst	r3, #262144
 407 0236 08D0     		beq	.L33
 403:Drivers/STM32F7xx_HAL_Driver/Src/stm32f7xx_hal_rcc_ex.c ****   {
 404:Drivers/STM32F7xx_HAL_Driver/Src/stm32f7xx_hal_rcc_ex.c ****     /* Check the parameters */
 405:Drivers/STM32F7xx_HAL_Driver/Src/stm32f7xx_hal_rcc_ex.c ****     assert_param(IS_RCC_LPTIM1CLK(PeriphClkInit->Lptim1ClockSelection));
 408              		.loc 1 405 5 is_stmt 1 view .LVU136
 406:Drivers/STM32F7xx_HAL_Driver/Src/stm32f7xx_hal_rcc_ex.c **** 
 407:Drivers/STM32F7xx_HAL_Driver/Src/stm32f7xx_hal_rcc_ex.c ****     /* Configure the LTPIM1 clock source */
 408:Drivers/STM32F7xx_HAL_Driver/Src/stm32f7xx_hal_rcc_ex.c ****     __HAL_RCC_LPTIM1_CONFIG(PeriphClkInit->Lptim1ClockSelection);
 409              		.loc 1 408 5 view .LVU137
 410 0238 1C4A     		ldr	r2, .L84
 411 023a D2F89030 		ldr	r3, [r2, #144]
 412 023e 23F04073 		bic	r3, r3, #50331648
 413 0242 616F     		ldr	r1, [r4, #116]
 414 0244 0B43     		orrs	r3, r3, r1
 415 0246 C2F89030 		str	r3, [r2, #144]
 416              	.L33:
 409:Drivers/STM32F7xx_HAL_Driver/Src/stm32f7xx_hal_rcc_ex.c ****    }
 410:Drivers/STM32F7xx_HAL_Driver/Src/stm32f7xx_hal_rcc_ex.c **** 
 411:Drivers/STM32F7xx_HAL_Driver/Src/stm32f7xx_hal_rcc_ex.c ****   /*------------------------------------- SDMMC1 Configuration ------------------------------------
 412:Drivers/STM32F7xx_HAL_Driver/Src/stm32f7xx_hal_rcc_ex.c ****   if(((PeriphClkInit->PeriphClockSelection) & RCC_PERIPHCLK_SDMMC1) == RCC_PERIPHCLK_SDMMC1)
 417              		.loc 1 412 3 view .LVU138
 418              		.loc 1 412 21 is_stmt 0 view .LVU139
 419 024a 2368     		ldr	r3, [r4]
 420              		.loc 1 412 5 view .LVU140
 421 024c 13F4000F 		tst	r3, #8388608
 422 0250 09D0     		beq	.L34
 413:Drivers/STM32F7xx_HAL_Driver/Src/stm32f7xx_hal_rcc_ex.c ****   {
 414:Drivers/STM32F7xx_HAL_Driver/Src/stm32f7xx_hal_rcc_ex.c ****     /* Check the parameters */
 415:Drivers/STM32F7xx_HAL_Driver/Src/stm32f7xx_hal_rcc_ex.c ****     assert_param(IS_RCC_SDMMC1CLKSOURCE(PeriphClkInit->Sdmmc1ClockSelection));
 423              		.loc 1 415 5 is_stmt 1 view .LVU141
 416:Drivers/STM32F7xx_HAL_Driver/Src/stm32f7xx_hal_rcc_ex.c **** 
 417:Drivers/STM32F7xx_HAL_Driver/Src/stm32f7xx_hal_rcc_ex.c ****     /* Configure the SDMMC1 clock source */
 418:Drivers/STM32F7xx_HAL_Driver/Src/stm32f7xx_hal_rcc_ex.c ****     __HAL_RCC_SDMMC1_CONFIG(PeriphClkInit->Sdmmc1ClockSelection);
 424              		.loc 1 418 5 view .LVU142
 425 0252 164A     		ldr	r2, .L84
 426 0254 D2F89030 		ldr	r3, [r2, #144]
 427 0258 23F08053 		bic	r3, r3, #268435456
 428 025c D4F88010 		ldr	r1, [r4, #128]
 429 0260 0B43     		orrs	r3, r3, r1
 430 0262 C2F89030 		str	r3, [r2, #144]
 431              	.L34:
 419:Drivers/STM32F7xx_HAL_Driver/Src/stm32f7xx_hal_rcc_ex.c ****   }
 420:Drivers/STM32F7xx_HAL_Driver/Src/stm32f7xx_hal_rcc_ex.c **** 
 421:Drivers/STM32F7xx_HAL_Driver/Src/stm32f7xx_hal_rcc_ex.c **** #if defined (STM32F765xx) || defined (STM32F767xx) || defined (STM32F769xx) || defined (STM32F777xx
 422:Drivers/STM32F7xx_HAL_Driver/Src/stm32f7xx_hal_rcc_ex.c ****   /*------------------------------------- SDMMC2 Configuration ------------------------------------
 423:Drivers/STM32F7xx_HAL_Driver/Src/stm32f7xx_hal_rcc_ex.c ****   if(((PeriphClkInit->PeriphClockSelection) & RCC_PERIPHCLK_SDMMC2) == RCC_PERIPHCLK_SDMMC2)
ARM GAS  C:\Users\arist\AppData\Local\Temp\ccTacmMD.s 			page 16


 424:Drivers/STM32F7xx_HAL_Driver/Src/stm32f7xx_hal_rcc_ex.c ****   {
 425:Drivers/STM32F7xx_HAL_Driver/Src/stm32f7xx_hal_rcc_ex.c ****     /* Check the parameters */
 426:Drivers/STM32F7xx_HAL_Driver/Src/stm32f7xx_hal_rcc_ex.c ****     assert_param(IS_RCC_SDMMC2CLKSOURCE(PeriphClkInit->Sdmmc2ClockSelection));
 427:Drivers/STM32F7xx_HAL_Driver/Src/stm32f7xx_hal_rcc_ex.c **** 
 428:Drivers/STM32F7xx_HAL_Driver/Src/stm32f7xx_hal_rcc_ex.c ****     /* Configure the SDMMC2 clock source */
 429:Drivers/STM32F7xx_HAL_Driver/Src/stm32f7xx_hal_rcc_ex.c ****     __HAL_RCC_SDMMC2_CONFIG(PeriphClkInit->Sdmmc2ClockSelection);
 430:Drivers/STM32F7xx_HAL_Driver/Src/stm32f7xx_hal_rcc_ex.c ****   }
 431:Drivers/STM32F7xx_HAL_Driver/Src/stm32f7xx_hal_rcc_ex.c **** 
 432:Drivers/STM32F7xx_HAL_Driver/Src/stm32f7xx_hal_rcc_ex.c ****   /*------------------------------------- DFSDM1 Configuration ------------------------------------
 433:Drivers/STM32F7xx_HAL_Driver/Src/stm32f7xx_hal_rcc_ex.c ****   if(((PeriphClkInit->PeriphClockSelection) & RCC_PERIPHCLK_DFSDM1) == RCC_PERIPHCLK_DFSDM1)
 434:Drivers/STM32F7xx_HAL_Driver/Src/stm32f7xx_hal_rcc_ex.c ****   {
 435:Drivers/STM32F7xx_HAL_Driver/Src/stm32f7xx_hal_rcc_ex.c ****     /* Check the parameters */
 436:Drivers/STM32F7xx_HAL_Driver/Src/stm32f7xx_hal_rcc_ex.c ****     assert_param(IS_RCC_DFSDM1CLKSOURCE(PeriphClkInit->Dfsdm1ClockSelection));
 437:Drivers/STM32F7xx_HAL_Driver/Src/stm32f7xx_hal_rcc_ex.c **** 
 438:Drivers/STM32F7xx_HAL_Driver/Src/stm32f7xx_hal_rcc_ex.c ****     /* Configure the DFSDM1 interface clock source */
 439:Drivers/STM32F7xx_HAL_Driver/Src/stm32f7xx_hal_rcc_ex.c ****     __HAL_RCC_DFSDM1_CONFIG(PeriphClkInit->Dfsdm1ClockSelection);
 440:Drivers/STM32F7xx_HAL_Driver/Src/stm32f7xx_hal_rcc_ex.c ****   }
 441:Drivers/STM32F7xx_HAL_Driver/Src/stm32f7xx_hal_rcc_ex.c **** 
 442:Drivers/STM32F7xx_HAL_Driver/Src/stm32f7xx_hal_rcc_ex.c ****   /*------------------------------------- DFSDM AUDIO Configuration -------------------------------
 443:Drivers/STM32F7xx_HAL_Driver/Src/stm32f7xx_hal_rcc_ex.c ****   if(((PeriphClkInit->PeriphClockSelection) & RCC_PERIPHCLK_DFSDM1_AUDIO) == RCC_PERIPHCLK_DFSDM1_A
 444:Drivers/STM32F7xx_HAL_Driver/Src/stm32f7xx_hal_rcc_ex.c ****   {
 445:Drivers/STM32F7xx_HAL_Driver/Src/stm32f7xx_hal_rcc_ex.c ****     /* Check the parameters */
 446:Drivers/STM32F7xx_HAL_Driver/Src/stm32f7xx_hal_rcc_ex.c ****     assert_param(IS_RCC_DFSDM1AUDIOCLKSOURCE(PeriphClkInit->Dfsdm1AudioClockSelection));
 447:Drivers/STM32F7xx_HAL_Driver/Src/stm32f7xx_hal_rcc_ex.c **** 
 448:Drivers/STM32F7xx_HAL_Driver/Src/stm32f7xx_hal_rcc_ex.c ****     /* Configure the DFSDM interface clock source */
 449:Drivers/STM32F7xx_HAL_Driver/Src/stm32f7xx_hal_rcc_ex.c ****     __HAL_RCC_DFSDM1AUDIO_CONFIG(PeriphClkInit->Dfsdm1AudioClockSelection);
 450:Drivers/STM32F7xx_HAL_Driver/Src/stm32f7xx_hal_rcc_ex.c ****   }
 451:Drivers/STM32F7xx_HAL_Driver/Src/stm32f7xx_hal_rcc_ex.c **** #endif /* STM32F767xx || STM32F769xx || STM32F777xx || STM32F779xx */
 452:Drivers/STM32F7xx_HAL_Driver/Src/stm32f7xx_hal_rcc_ex.c **** 
 453:Drivers/STM32F7xx_HAL_Driver/Src/stm32f7xx_hal_rcc_ex.c ****   /*-------------------------------------- PLLI2S Configuration ---------------------------------*/
 454:Drivers/STM32F7xx_HAL_Driver/Src/stm32f7xx_hal_rcc_ex.c ****   /* PLLI2S is configured when a peripheral will use it as source clock : SAI1, SAI2, I2S or SPDIF-
 455:Drivers/STM32F7xx_HAL_Driver/Src/stm32f7xx_hal_rcc_ex.c ****   if((plli2sused == 1) || ((PeriphClkInit->PeriphClockSelection & RCC_PERIPHCLK_PLLI2S) == RCC_PERI
 432              		.loc 1 455 3 view .LVU143
 433              		.loc 1 455 5 is_stmt 0 view .LVU144
 434 0266 26B9     		cbnz	r6, .L35
 435              		.loc 1 455 42 discriminator 1 view .LVU145
 436 0268 2368     		ldr	r3, [r4]
 437              		.loc 1 455 24 discriminator 1 view .LVU146
 438 026a 13F0007F 		tst	r3, #33554432
 439 026e 00F00581 		beq	.L36
 440              	.L35:
 456:Drivers/STM32F7xx_HAL_Driver/Src/stm32f7xx_hal_rcc_ex.c ****   {
 457:Drivers/STM32F7xx_HAL_Driver/Src/stm32f7xx_hal_rcc_ex.c ****     /* Disable the PLLI2S */
 458:Drivers/STM32F7xx_HAL_Driver/Src/stm32f7xx_hal_rcc_ex.c ****     __HAL_RCC_PLLI2S_DISABLE();
 441              		.loc 1 458 5 is_stmt 1 view .LVU147
 442 0272 0E4A     		ldr	r2, .L84
 443 0274 1368     		ldr	r3, [r2]
 444 0276 23F08063 		bic	r3, r3, #67108864
 445 027a 1360     		str	r3, [r2]
 459:Drivers/STM32F7xx_HAL_Driver/Src/stm32f7xx_hal_rcc_ex.c **** 
 460:Drivers/STM32F7xx_HAL_Driver/Src/stm32f7xx_hal_rcc_ex.c ****     /* Get Start Tick*/
 461:Drivers/STM32F7xx_HAL_Driver/Src/stm32f7xx_hal_rcc_ex.c ****     tickstart = HAL_GetTick();
 446              		.loc 1 461 5 view .LVU148
 447              		.loc 1 461 17 is_stmt 0 view .LVU149
 448 027c FFF7FEFF 		bl	HAL_GetTick
 449              	.LVL11:
 450 0280 0646     		mov	r6, r0
ARM GAS  C:\Users\arist\AppData\Local\Temp\ccTacmMD.s 			page 17


 451              	.LVL12:
 462:Drivers/STM32F7xx_HAL_Driver/Src/stm32f7xx_hal_rcc_ex.c **** 
 463:Drivers/STM32F7xx_HAL_Driver/Src/stm32f7xx_hal_rcc_ex.c ****     /* Wait till PLLI2S is disabled */
 464:Drivers/STM32F7xx_HAL_Driver/Src/stm32f7xx_hal_rcc_ex.c ****     while(__HAL_RCC_GET_FLAG(RCC_FLAG_PLLI2SRDY)  != RESET)
 452              		.loc 1 464 5 is_stmt 1 view .LVU150
 453              	.L37:
 454              		.loc 1 464 51 view .LVU151
 455              		.loc 1 464 11 is_stmt 0 view .LVU152
 456 0282 0A4B     		ldr	r3, .L84
 457 0284 1B68     		ldr	r3, [r3]
 458              		.loc 1 464 51 view .LVU153
 459 0286 13F0006F 		tst	r3, #134217728
 460 028a 79D0     		beq	.L76
 465:Drivers/STM32F7xx_HAL_Driver/Src/stm32f7xx_hal_rcc_ex.c ****     {
 466:Drivers/STM32F7xx_HAL_Driver/Src/stm32f7xx_hal_rcc_ex.c ****       if((HAL_GetTick() - tickstart) > PLLI2S_TIMEOUT_VALUE)
 461              		.loc 1 466 7 is_stmt 1 view .LVU154
 462              		.loc 1 466 11 is_stmt 0 view .LVU155
 463 028c FFF7FEFF 		bl	HAL_GetTick
 464              	.LVL13:
 465              		.loc 1 466 25 view .LVU156
 466 0290 801B     		subs	r0, r0, r6
 467              		.loc 1 466 9 view .LVU157
 468 0292 6428     		cmp	r0, #100
 469 0294 F5D9     		bls	.L37
 467:Drivers/STM32F7xx_HAL_Driver/Src/stm32f7xx_hal_rcc_ex.c ****       {
 468:Drivers/STM32F7xx_HAL_Driver/Src/stm32f7xx_hal_rcc_ex.c ****         /* return in case of Timeout detected */
 469:Drivers/STM32F7xx_HAL_Driver/Src/stm32f7xx_hal_rcc_ex.c ****         return HAL_TIMEOUT;
 470              		.loc 1 469 16 view .LVU158
 471 0296 0320     		movs	r0, #3
 472 0298 F3E0     		b	.L10
 473              	.LVL14:
 474              	.L56:
 128:Drivers/STM32F7xx_HAL_Driver/Src/stm32f7xx_hal_rcc_ex.c ****     }
 475              		.loc 1 128 18 view .LVU159
 476 029a 0126     		movs	r6, #1
 477 029c C5E6     		b	.L2
 478              	.LVL15:
 479              	.L72:
 143:Drivers/STM32F7xx_HAL_Driver/Src/stm32f7xx_hal_rcc_ex.c ****     }
 480              		.loc 1 143 18 view .LVU160
 481 029e 0126     		movs	r6, #1
 482              	.LVL16:
 143:Drivers/STM32F7xx_HAL_Driver/Src/stm32f7xx_hal_rcc_ex.c ****     }
 483              		.loc 1 143 18 view .LVU161
 484 02a0 D5E6     		b	.L4
 485              	.LVL17:
 486              	.L58:
 148:Drivers/STM32F7xx_HAL_Driver/Src/stm32f7xx_hal_rcc_ex.c ****     }
 487              		.loc 1 148 18 view .LVU162
 488 02a2 0125     		movs	r5, #1
 489 02a4 D7E6     		b	.L3
 490              	.LVL18:
 491              	.L73:
 164:Drivers/STM32F7xx_HAL_Driver/Src/stm32f7xx_hal_rcc_ex.c ****     }
 492              		.loc 1 164 18 view .LVU163
 493 02a6 0126     		movs	r6, #1
 494              	.LVL19:
ARM GAS  C:\Users\arist\AppData\Local\Temp\ccTacmMD.s 			page 18


 164:Drivers/STM32F7xx_HAL_Driver/Src/stm32f7xx_hal_rcc_ex.c ****     }
 495              		.loc 1 164 18 view .LVU164
 496 02a8 E7E6     		b	.L6
 497              	.L85:
 498 02aa 00BF     		.align	2
 499              	.L84:
 500 02ac 00380240 		.word	1073887232
 501              	.LVL20:
 502              	.L74:
 183:Drivers/STM32F7xx_HAL_Driver/Src/stm32f7xx_hal_rcc_ex.c **** 
 503              		.loc 1 183 5 is_stmt 1 view .LVU165
 186:Drivers/STM32F7xx_HAL_Driver/Src/stm32f7xx_hal_rcc_ex.c **** 
 504              		.loc 1 186 5 view .LVU166
 505              	.LBB2:
 186:Drivers/STM32F7xx_HAL_Driver/Src/stm32f7xx_hal_rcc_ex.c **** 
 506              		.loc 1 186 5 view .LVU167
 186:Drivers/STM32F7xx_HAL_Driver/Src/stm32f7xx_hal_rcc_ex.c **** 
 507              		.loc 1 186 5 view .LVU168
 508 02b0 7F4B     		ldr	r3, .L86
 509 02b2 1A6C     		ldr	r2, [r3, #64]
 510 02b4 42F08052 		orr	r2, r2, #268435456
 511 02b8 1A64     		str	r2, [r3, #64]
 186:Drivers/STM32F7xx_HAL_Driver/Src/stm32f7xx_hal_rcc_ex.c **** 
 512              		.loc 1 186 5 view .LVU169
 513 02ba 1B6C     		ldr	r3, [r3, #64]
 514 02bc 03F08053 		and	r3, r3, #268435456
 515 02c0 0193     		str	r3, [sp, #4]
 186:Drivers/STM32F7xx_HAL_Driver/Src/stm32f7xx_hal_rcc_ex.c **** 
 516              		.loc 1 186 5 view .LVU170
 517 02c2 019B     		ldr	r3, [sp, #4]
 518              	.LBE2:
 186:Drivers/STM32F7xx_HAL_Driver/Src/stm32f7xx_hal_rcc_ex.c **** 
 519              		.loc 1 186 5 view .LVU171
 189:Drivers/STM32F7xx_HAL_Driver/Src/stm32f7xx_hal_rcc_ex.c **** 
 520              		.loc 1 189 5 view .LVU172
 189:Drivers/STM32F7xx_HAL_Driver/Src/stm32f7xx_hal_rcc_ex.c **** 
 521              		.loc 1 189 8 is_stmt 0 view .LVU173
 522 02c4 7B4A     		ldr	r2, .L86+4
 523 02c6 1368     		ldr	r3, [r2]
 189:Drivers/STM32F7xx_HAL_Driver/Src/stm32f7xx_hal_rcc_ex.c **** 
 524              		.loc 1 189 14 view .LVU174
 525 02c8 43F48073 		orr	r3, r3, #256
 526 02cc 1360     		str	r3, [r2]
 192:Drivers/STM32F7xx_HAL_Driver/Src/stm32f7xx_hal_rcc_ex.c **** 
 527              		.loc 1 192 5 is_stmt 1 view .LVU175
 192:Drivers/STM32F7xx_HAL_Driver/Src/stm32f7xx_hal_rcc_ex.c **** 
 528              		.loc 1 192 17 is_stmt 0 view .LVU176
 529 02ce FFF7FEFF 		bl	HAL_GetTick
 530              	.LVL21:
 192:Drivers/STM32F7xx_HAL_Driver/Src/stm32f7xx_hal_rcc_ex.c **** 
 531              		.loc 1 192 17 view .LVU177
 532 02d2 0746     		mov	r7, r0
 533              	.LVL22:
 195:Drivers/STM32F7xx_HAL_Driver/Src/stm32f7xx_hal_rcc_ex.c ****     {
 534              		.loc 1 195 5 is_stmt 1 view .LVU178
 535              	.L9:
 195:Drivers/STM32F7xx_HAL_Driver/Src/stm32f7xx_hal_rcc_ex.c ****     {
ARM GAS  C:\Users\arist\AppData\Local\Temp\ccTacmMD.s 			page 19


 536              		.loc 1 195 36 view .LVU179
 195:Drivers/STM32F7xx_HAL_Driver/Src/stm32f7xx_hal_rcc_ex.c ****     {
 537              		.loc 1 195 15 is_stmt 0 view .LVU180
 538 02d4 774B     		ldr	r3, .L86+4
 539 02d6 1B68     		ldr	r3, [r3]
 195:Drivers/STM32F7xx_HAL_Driver/Src/stm32f7xx_hal_rcc_ex.c ****     {
 540              		.loc 1 195 36 view .LVU181
 541 02d8 13F4807F 		tst	r3, #256
 542 02dc 06D1     		bne	.L77
 197:Drivers/STM32F7xx_HAL_Driver/Src/stm32f7xx_hal_rcc_ex.c ****       {
 543              		.loc 1 197 7 is_stmt 1 view .LVU182
 197:Drivers/STM32F7xx_HAL_Driver/Src/stm32f7xx_hal_rcc_ex.c ****       {
 544              		.loc 1 197 11 is_stmt 0 view .LVU183
 545 02de FFF7FEFF 		bl	HAL_GetTick
 546              	.LVL23:
 197:Drivers/STM32F7xx_HAL_Driver/Src/stm32f7xx_hal_rcc_ex.c ****       {
 547              		.loc 1 197 25 view .LVU184
 548 02e2 C01B     		subs	r0, r0, r7
 197:Drivers/STM32F7xx_HAL_Driver/Src/stm32f7xx_hal_rcc_ex.c ****       {
 549              		.loc 1 197 9 view .LVU185
 550 02e4 6428     		cmp	r0, #100
 551 02e6 F5D9     		bls	.L9
 199:Drivers/STM32F7xx_HAL_Driver/Src/stm32f7xx_hal_rcc_ex.c ****       }
 552              		.loc 1 199 16 view .LVU186
 553 02e8 0320     		movs	r0, #3
 554 02ea CAE0     		b	.L10
 555              	.L77:
 204:Drivers/STM32F7xx_HAL_Driver/Src/stm32f7xx_hal_rcc_ex.c **** 
 556              		.loc 1 204 5 is_stmt 1 view .LVU187
 204:Drivers/STM32F7xx_HAL_Driver/Src/stm32f7xx_hal_rcc_ex.c **** 
 557              		.loc 1 204 19 is_stmt 0 view .LVU188
 558 02ec 704B     		ldr	r3, .L86
 559 02ee 1B6F     		ldr	r3, [r3, #112]
 560              	.LVL24:
 206:Drivers/STM32F7xx_HAL_Driver/Src/stm32f7xx_hal_rcc_ex.c ****     {
 561              		.loc 1 206 5 is_stmt 1 view .LVU189
 206:Drivers/STM32F7xx_HAL_Driver/Src/stm32f7xx_hal_rcc_ex.c ****     {
 562              		.loc 1 206 7 is_stmt 0 view .LVU190
 563 02f0 13F44073 		ands	r3, r3, #768
 564              	.LVL25:
 206:Drivers/STM32F7xx_HAL_Driver/Src/stm32f7xx_hal_rcc_ex.c ****     {
 565              		.loc 1 206 7 view .LVU191
 566 02f4 15D0     		beq	.L12
 206:Drivers/STM32F7xx_HAL_Driver/Src/stm32f7xx_hal_rcc_ex.c ****     {
 567              		.loc 1 206 62 discriminator 1 view .LVU192
 568 02f6 226B     		ldr	r2, [r4, #48]
 206:Drivers/STM32F7xx_HAL_Driver/Src/stm32f7xx_hal_rcc_ex.c ****     {
 569              		.loc 1 206 82 discriminator 1 view .LVU193
 570 02f8 02F44072 		and	r2, r2, #768
 206:Drivers/STM32F7xx_HAL_Driver/Src/stm32f7xx_hal_rcc_ex.c ****     {
 571              		.loc 1 206 33 discriminator 1 view .LVU194
 572 02fc 9A42     		cmp	r2, r3
 573 02fe 10D0     		beq	.L12
 209:Drivers/STM32F7xx_HAL_Driver/Src/stm32f7xx_hal_rcc_ex.c **** 
 574              		.loc 1 209 7 is_stmt 1 view .LVU195
 209:Drivers/STM32F7xx_HAL_Driver/Src/stm32f7xx_hal_rcc_ex.c **** 
 575              		.loc 1 209 21 is_stmt 0 view .LVU196
ARM GAS  C:\Users\arist\AppData\Local\Temp\ccTacmMD.s 			page 20


 576 0300 6B4B     		ldr	r3, .L86
 577              	.LVL26:
 209:Drivers/STM32F7xx_HAL_Driver/Src/stm32f7xx_hal_rcc_ex.c **** 
 578              		.loc 1 209 21 view .LVU197
 579 0302 1A6F     		ldr	r2, [r3, #112]
 209:Drivers/STM32F7xx_HAL_Driver/Src/stm32f7xx_hal_rcc_ex.c **** 
 580              		.loc 1 209 15 view .LVU198
 581 0304 22F44072 		bic	r2, r2, #768
 582              	.LVL27:
 212:Drivers/STM32F7xx_HAL_Driver/Src/stm32f7xx_hal_rcc_ex.c ****       __HAL_RCC_BACKUPRESET_RELEASE();
 583              		.loc 1 212 7 is_stmt 1 view .LVU199
 584 0308 196F     		ldr	r1, [r3, #112]
 585 030a 41F48031 		orr	r1, r1, #65536
 586 030e 1967     		str	r1, [r3, #112]
 213:Drivers/STM32F7xx_HAL_Driver/Src/stm32f7xx_hal_rcc_ex.c **** 
 587              		.loc 1 213 7 view .LVU200
 588 0310 196F     		ldr	r1, [r3, #112]
 589 0312 21F48031 		bic	r1, r1, #65536
 590 0316 1967     		str	r1, [r3, #112]
 216:Drivers/STM32F7xx_HAL_Driver/Src/stm32f7xx_hal_rcc_ex.c **** 
 591              		.loc 1 216 7 view .LVU201
 216:Drivers/STM32F7xx_HAL_Driver/Src/stm32f7xx_hal_rcc_ex.c **** 
 592              		.loc 1 216 17 is_stmt 0 view .LVU202
 593 0318 1A67     		str	r2, [r3, #112]
 219:Drivers/STM32F7xx_HAL_Driver/Src/stm32f7xx_hal_rcc_ex.c ****       {
 594              		.loc 1 219 7 is_stmt 1 view .LVU203
 219:Drivers/STM32F7xx_HAL_Driver/Src/stm32f7xx_hal_rcc_ex.c ****       {
 595              		.loc 1 219 11 is_stmt 0 view .LVU204
 596 031a 1B6F     		ldr	r3, [r3, #112]
 219:Drivers/STM32F7xx_HAL_Driver/Src/stm32f7xx_hal_rcc_ex.c ****       {
 597              		.loc 1 219 10 view .LVU205
 598 031c 13F0010F 		tst	r3, #1
 599 0320 12D1     		bne	.L78
 600              	.LVL28:
 601              	.L12:
 234:Drivers/STM32F7xx_HAL_Driver/Src/stm32f7xx_hal_rcc_ex.c ****   }
 602              		.loc 1 234 5 is_stmt 1 view .LVU206
 234:Drivers/STM32F7xx_HAL_Driver/Src/stm32f7xx_hal_rcc_ex.c ****   }
 603              		.loc 1 234 5 view .LVU207
 604 0322 236B     		ldr	r3, [r4, #48]
 605 0324 03F44072 		and	r2, r3, #768
 606 0328 B2F5407F 		cmp	r2, #768
 607 032c 1DD0     		beq	.L79
 234:Drivers/STM32F7xx_HAL_Driver/Src/stm32f7xx_hal_rcc_ex.c ****   }
 608              		.loc 1 234 5 is_stmt 0 discriminator 2 view .LVU208
 609 032e 604A     		ldr	r2, .L86
 610 0330 9368     		ldr	r3, [r2, #8]
 611 0332 23F4F813 		bic	r3, r3, #2031616
 612 0336 9360     		str	r3, [r2, #8]
 613              	.L16:
 234:Drivers/STM32F7xx_HAL_Driver/Src/stm32f7xx_hal_rcc_ex.c ****   }
 614              		.loc 1 234 5 is_stmt 1 discriminator 4 view .LVU209
 615 0338 5D49     		ldr	r1, .L86
 616 033a 0B6F     		ldr	r3, [r1, #112]
 617 033c 226B     		ldr	r2, [r4, #48]
 618 033e C2F30B02 		ubfx	r2, r2, #0, #12
 619 0342 1343     		orrs	r3, r3, r2
ARM GAS  C:\Users\arist\AppData\Local\Temp\ccTacmMD.s 			page 21


 620 0344 0B67     		str	r3, [r1, #112]
 621 0346 A3E6     		b	.L8
 622              	.LVL29:
 623              	.L78:
 222:Drivers/STM32F7xx_HAL_Driver/Src/stm32f7xx_hal_rcc_ex.c **** 
 624              		.loc 1 222 9 view .LVU210
 222:Drivers/STM32F7xx_HAL_Driver/Src/stm32f7xx_hal_rcc_ex.c **** 
 625              		.loc 1 222 21 is_stmt 0 view .LVU211
 626 0348 FFF7FEFF 		bl	HAL_GetTick
 627              	.LVL30:
 222:Drivers/STM32F7xx_HAL_Driver/Src/stm32f7xx_hal_rcc_ex.c **** 
 628              		.loc 1 222 21 view .LVU212
 629 034c 0746     		mov	r7, r0
 630              	.LVL31:
 225:Drivers/STM32F7xx_HAL_Driver/Src/stm32f7xx_hal_rcc_ex.c ****         {
 631              		.loc 1 225 9 is_stmt 1 view .LVU213
 632              	.L13:
 225:Drivers/STM32F7xx_HAL_Driver/Src/stm32f7xx_hal_rcc_ex.c ****         {
 633              		.loc 1 225 51 view .LVU214
 225:Drivers/STM32F7xx_HAL_Driver/Src/stm32f7xx_hal_rcc_ex.c ****         {
 634              		.loc 1 225 15 is_stmt 0 view .LVU215
 635 034e 584B     		ldr	r3, .L86
 636 0350 1B6F     		ldr	r3, [r3, #112]
 225:Drivers/STM32F7xx_HAL_Driver/Src/stm32f7xx_hal_rcc_ex.c ****         {
 637              		.loc 1 225 51 view .LVU216
 638 0352 13F0020F 		tst	r3, #2
 639 0356 E4D1     		bne	.L12
 227:Drivers/STM32F7xx_HAL_Driver/Src/stm32f7xx_hal_rcc_ex.c ****           {
 640              		.loc 1 227 11 is_stmt 1 view .LVU217
 227:Drivers/STM32F7xx_HAL_Driver/Src/stm32f7xx_hal_rcc_ex.c ****           {
 641              		.loc 1 227 15 is_stmt 0 view .LVU218
 642 0358 FFF7FEFF 		bl	HAL_GetTick
 643              	.LVL32:
 227:Drivers/STM32F7xx_HAL_Driver/Src/stm32f7xx_hal_rcc_ex.c ****           {
 644              		.loc 1 227 29 view .LVU219
 645 035c C01B     		subs	r0, r0, r7
 227:Drivers/STM32F7xx_HAL_Driver/Src/stm32f7xx_hal_rcc_ex.c ****           {
 646              		.loc 1 227 13 view .LVU220
 647 035e 41F28833 		movw	r3, #5000
 648 0362 9842     		cmp	r0, r3
 649 0364 F3D9     		bls	.L13
 229:Drivers/STM32F7xx_HAL_Driver/Src/stm32f7xx_hal_rcc_ex.c ****           }
 650              		.loc 1 229 20 view .LVU221
 651 0366 0320     		movs	r0, #3
 652 0368 8BE0     		b	.L10
 653              	.LVL33:
 654              	.L79:
 234:Drivers/STM32F7xx_HAL_Driver/Src/stm32f7xx_hal_rcc_ex.c ****   }
 655              		.loc 1 234 5 discriminator 1 view .LVU222
 656 036a 5148     		ldr	r0, .L86
 657 036c 8268     		ldr	r2, [r0, #8]
 658 036e 22F4F812 		bic	r2, r2, #2031616
 659 0372 5149     		ldr	r1, .L86+8
 660 0374 1940     		ands	r1, r1, r3
 661 0376 0A43     		orrs	r2, r2, r1
 662 0378 8260     		str	r2, [r0, #8]
 663 037a DDE7     		b	.L16
ARM GAS  C:\Users\arist\AppData\Local\Temp\ccTacmMD.s 			page 22


 664              	.LVL34:
 665              	.L75:
 389:Drivers/STM32F7xx_HAL_Driver/Src/stm32f7xx_hal_rcc_ex.c ****     }
 666              		.loc 1 389 18 view .LVU223
 667 037c 0125     		movs	r5, #1
 668              	.LVL35:
 389:Drivers/STM32F7xx_HAL_Driver/Src/stm32f7xx_hal_rcc_ex.c ****     }
 669              		.loc 1 389 18 view .LVU224
 670 037e 53E7     		b	.L31
 671              	.LVL36:
 672              	.L76:
 470:Drivers/STM32F7xx_HAL_Driver/Src/stm32f7xx_hal_rcc_ex.c ****       }
 471:Drivers/STM32F7xx_HAL_Driver/Src/stm32f7xx_hal_rcc_ex.c ****     }
 472:Drivers/STM32F7xx_HAL_Driver/Src/stm32f7xx_hal_rcc_ex.c **** 
 473:Drivers/STM32F7xx_HAL_Driver/Src/stm32f7xx_hal_rcc_ex.c ****     /* check for common PLLI2S Parameters */
 474:Drivers/STM32F7xx_HAL_Driver/Src/stm32f7xx_hal_rcc_ex.c ****     assert_param(IS_RCC_PLLI2SN_VALUE(PeriphClkInit->PLLI2S.PLLI2SN));
 673              		.loc 1 474 5 is_stmt 1 view .LVU225
 475:Drivers/STM32F7xx_HAL_Driver/Src/stm32f7xx_hal_rcc_ex.c **** 
 476:Drivers/STM32F7xx_HAL_Driver/Src/stm32f7xx_hal_rcc_ex.c ****     /*----------------- In Case of PLLI2S is selected as source clock for I2S -------------------*/
 477:Drivers/STM32F7xx_HAL_Driver/Src/stm32f7xx_hal_rcc_ex.c ****     if(((((PeriphClkInit->PeriphClockSelection) & RCC_PERIPHCLK_I2S) == RCC_PERIPHCLK_I2S) && (Peri
 674              		.loc 1 477 5 view .LVU226
 675              		.loc 1 477 25 is_stmt 0 view .LVU227
 676 0380 2368     		ldr	r3, [r4]
 677              		.loc 1 477 7 view .LVU228
 678 0382 13F0010F 		tst	r3, #1
 679 0386 13D0     		beq	.L39
 680              		.loc 1 477 109 discriminator 1 view .LVU229
 681 0388 636B     		ldr	r3, [r4, #52]
 682              		.loc 1 477 92 discriminator 1 view .LVU230
 683 038a 8BB9     		cbnz	r3, .L39
 478:Drivers/STM32F7xx_HAL_Driver/Src/stm32f7xx_hal_rcc_ex.c ****     {
 479:Drivers/STM32F7xx_HAL_Driver/Src/stm32f7xx_hal_rcc_ex.c ****       /* check for Parameters */
 480:Drivers/STM32F7xx_HAL_Driver/Src/stm32f7xx_hal_rcc_ex.c ****       assert_param(IS_RCC_PLLI2SR_VALUE(PeriphClkInit->PLLI2S.PLLI2SR));
 684              		.loc 1 480 7 is_stmt 1 view .LVU231
 481:Drivers/STM32F7xx_HAL_Driver/Src/stm32f7xx_hal_rcc_ex.c **** 
 482:Drivers/STM32F7xx_HAL_Driver/Src/stm32f7xx_hal_rcc_ex.c ****       /* Read PLLI2SP and PLLI2SQ value from PLLI2SCFGR register (this value is not needed for I2S 
 483:Drivers/STM32F7xx_HAL_Driver/Src/stm32f7xx_hal_rcc_ex.c ****       tmpreg0 = ((RCC->PLLI2SCFGR & RCC_PLLI2SCFGR_PLLI2SP) >> RCC_PLLI2SCFGR_PLLI2SP_Pos);
 685              		.loc 1 483 7 view .LVU232
 686              		.loc 1 483 22 is_stmt 0 view .LVU233
 687 038c 484A     		ldr	r2, .L86
 688 038e D2F88430 		ldr	r3, [r2, #132]
 689              	.LVL37:
 484:Drivers/STM32F7xx_HAL_Driver/Src/stm32f7xx_hal_rcc_ex.c ****       tmpreg1 = ((RCC->PLLI2SCFGR & RCC_PLLI2SCFGR_PLLI2SQ) >> RCC_PLLI2SCFGR_PLLI2SQ_Pos);
 690              		.loc 1 484 7 is_stmt 1 view .LVU234
 691              		.loc 1 484 22 is_stmt 0 view .LVU235
 692 0392 D2F88410 		ldr	r1, [r2, #132]
 693              	.LVL38:
 485:Drivers/STM32F7xx_HAL_Driver/Src/stm32f7xx_hal_rcc_ex.c ****       /* Configure the PLLI2S division factors */
 486:Drivers/STM32F7xx_HAL_Driver/Src/stm32f7xx_hal_rcc_ex.c ****       /* PLLI2S_VCO = f(VCO clock) = f(PLLI2S clock input) x (PLLI2SN/PLLM) */
 487:Drivers/STM32F7xx_HAL_Driver/Src/stm32f7xx_hal_rcc_ex.c ****       /* I2SCLK = f(PLLI2S clock output) = f(VCO clock) / PLLI2SR */
 488:Drivers/STM32F7xx_HAL_Driver/Src/stm32f7xx_hal_rcc_ex.c ****       __HAL_RCC_PLLI2S_CONFIG(PeriphClkInit->PLLI2S.PLLI2SN , tmpreg0, tmpreg1, PeriphClkInit->PLLI
 694              		.loc 1 488 7 is_stmt 1 view .LVU236
 695 0396 6068     		ldr	r0, [r4, #4]
 696 0398 03F44033 		and	r3, r3, #196608
 697              	.LVL39:
 698              		.loc 1 488 7 is_stmt 0 view .LVU237
 699 039c 43EA8013 		orr	r3, r3, r0, lsl #6
ARM GAS  C:\Users\arist\AppData\Local\Temp\ccTacmMD.s 			page 23


 700 03a0 01F07061 		and	r1, r1, #251658240
 701              	.LVL40:
 702              		.loc 1 488 7 view .LVU238
 703 03a4 0B43     		orrs	r3, r3, r1
 704 03a6 A168     		ldr	r1, [r4, #8]
 705 03a8 43EA0173 		orr	r3, r3, r1, lsl #28
 706 03ac C2F88430 		str	r3, [r2, #132]
 707              	.LVL41:
 708              	.L39:
 489:Drivers/STM32F7xx_HAL_Driver/Src/stm32f7xx_hal_rcc_ex.c ****     }
 490:Drivers/STM32F7xx_HAL_Driver/Src/stm32f7xx_hal_rcc_ex.c **** 
 491:Drivers/STM32F7xx_HAL_Driver/Src/stm32f7xx_hal_rcc_ex.c ****     /*----------------- In Case of PLLI2S is selected as source clock for SAI -------------------*/
 492:Drivers/STM32F7xx_HAL_Driver/Src/stm32f7xx_hal_rcc_ex.c ****     if(((((PeriphClkInit->PeriphClockSelection) & RCC_PERIPHCLK_SAI1) == RCC_PERIPHCLK_SAI1) && (Pe
 709              		.loc 1 492 5 is_stmt 1 view .LVU239
 710              		.loc 1 492 25 is_stmt 0 view .LVU240
 711 03b0 2368     		ldr	r3, [r4]
 712              		.loc 1 492 7 view .LVU241
 713 03b2 13F4002F 		tst	r3, #524288
 714 03b6 03D0     		beq	.L40
 715              		.loc 1 492 111 discriminator 1 view .LVU242
 716 03b8 E26B     		ldr	r2, [r4, #60]
 717              		.loc 1 492 94 discriminator 1 view .LVU243
 718 03ba B2F5801F 		cmp	r2, #1048576
 719 03be 06D0     		beq	.L41
 720              	.L40:
 721              		.loc 1 492 162 discriminator 3 view .LVU244
 722 03c0 13F4801F 		tst	r3, #1048576
 723 03c4 1ED0     		beq	.L42
 493:Drivers/STM32F7xx_HAL_Driver/Src/stm32f7xx_hal_rcc_ex.c ****        ((((PeriphClkInit->PeriphClockSelection) & RCC_PERIPHCLK_SAI2) == RCC_PERIPHCLK_SAI2) && (Pe
 724              		.loc 1 493 111 view .LVU245
 725 03c6 236C     		ldr	r3, [r4, #64]
 726              		.loc 1 493 94 view .LVU246
 727 03c8 B3F5800F 		cmp	r3, #4194304
 728 03cc 1AD1     		bne	.L42
 729              	.L41:
 494:Drivers/STM32F7xx_HAL_Driver/Src/stm32f7xx_hal_rcc_ex.c ****     {
 495:Drivers/STM32F7xx_HAL_Driver/Src/stm32f7xx_hal_rcc_ex.c ****       /* Check for PLLI2S Parameters */
 496:Drivers/STM32F7xx_HAL_Driver/Src/stm32f7xx_hal_rcc_ex.c ****       assert_param(IS_RCC_PLLI2SQ_VALUE(PeriphClkInit->PLLI2S.PLLI2SQ));
 730              		.loc 1 496 7 is_stmt 1 view .LVU247
 497:Drivers/STM32F7xx_HAL_Driver/Src/stm32f7xx_hal_rcc_ex.c ****       /* Check for PLLI2S/DIVQ parameters */
 498:Drivers/STM32F7xx_HAL_Driver/Src/stm32f7xx_hal_rcc_ex.c ****       assert_param(IS_RCC_PLLI2S_DIVQ_VALUE(PeriphClkInit->PLLI2SDivQ));
 731              		.loc 1 498 7 view .LVU248
 499:Drivers/STM32F7xx_HAL_Driver/Src/stm32f7xx_hal_rcc_ex.c **** 
 500:Drivers/STM32F7xx_HAL_Driver/Src/stm32f7xx_hal_rcc_ex.c ****       /* Read PLLI2SP and PLLI2SR values from PLLI2SCFGR register (this value is not needed for SAI
 501:Drivers/STM32F7xx_HAL_Driver/Src/stm32f7xx_hal_rcc_ex.c ****       tmpreg0 = ((RCC->PLLI2SCFGR & RCC_PLLI2SCFGR_PLLI2SP) >> RCC_PLLI2SCFGR_PLLI2SP_Pos);
 732              		.loc 1 501 7 view .LVU249
 733              		.loc 1 501 22 is_stmt 0 view .LVU250
 734 03ce 384A     		ldr	r2, .L86
 735 03d0 D2F88430 		ldr	r3, [r2, #132]
 736              	.LVL42:
 502:Drivers/STM32F7xx_HAL_Driver/Src/stm32f7xx_hal_rcc_ex.c ****       tmpreg1 = ((RCC->PLLI2SCFGR & RCC_PLLI2SCFGR_PLLI2SR) >> RCC_PLLI2SCFGR_PLLI2SR_Pos);
 737              		.loc 1 502 7 is_stmt 1 view .LVU251
 738              		.loc 1 502 22 is_stmt 0 view .LVU252
 739 03d4 D2F88410 		ldr	r1, [r2, #132]
 740              	.LVL43:
 503:Drivers/STM32F7xx_HAL_Driver/Src/stm32f7xx_hal_rcc_ex.c ****       /* Configure the PLLI2S division factors */
 504:Drivers/STM32F7xx_HAL_Driver/Src/stm32f7xx_hal_rcc_ex.c ****       /* PLLI2S_VCO Input  = PLL_SOURCE/PLLM */
ARM GAS  C:\Users\arist\AppData\Local\Temp\ccTacmMD.s 			page 24


 505:Drivers/STM32F7xx_HAL_Driver/Src/stm32f7xx_hal_rcc_ex.c ****       /* PLLI2S_VCO Output = PLLI2S_VCO Input * PLLI2SN */
 506:Drivers/STM32F7xx_HAL_Driver/Src/stm32f7xx_hal_rcc_ex.c ****       /* SAI_CLK(first level) = PLLI2S_VCO Output/PLLI2SQ */
 507:Drivers/STM32F7xx_HAL_Driver/Src/stm32f7xx_hal_rcc_ex.c ****       __HAL_RCC_PLLI2S_CONFIG(PeriphClkInit->PLLI2S.PLLI2SN, tmpreg0, PeriphClkInit->PLLI2S.PLLI2SQ
 741              		.loc 1 507 7 is_stmt 1 view .LVU253
 742 03d8 6068     		ldr	r0, [r4, #4]
 743 03da 03F44033 		and	r3, r3, #196608
 744              	.LVL44:
 745              		.loc 1 507 7 is_stmt 0 view .LVU254
 746 03de 43EA8013 		orr	r3, r3, r0, lsl #6
 747 03e2 E068     		ldr	r0, [r4, #12]
 748 03e4 43EA0063 		orr	r3, r3, r0, lsl #24
 749 03e8 01F0E041 		and	r1, r1, #1879048192
 750              	.LVL45:
 751              		.loc 1 507 7 view .LVU255
 752 03ec 0B43     		orrs	r3, r3, r1
 753 03ee C2F88430 		str	r3, [r2, #132]
 508:Drivers/STM32F7xx_HAL_Driver/Src/stm32f7xx_hal_rcc_ex.c **** 
 509:Drivers/STM32F7xx_HAL_Driver/Src/stm32f7xx_hal_rcc_ex.c ****       /* SAI_CLK_x = SAI_CLK(first level)/PLLI2SDIVQ */
 510:Drivers/STM32F7xx_HAL_Driver/Src/stm32f7xx_hal_rcc_ex.c ****       __HAL_RCC_PLLI2S_PLLSAICLKDIVQ_CONFIG(PeriphClkInit->PLLI2SDivQ);
 754              		.loc 1 510 7 is_stmt 1 view .LVU256
 755 03f2 D2F88C30 		ldr	r3, [r2, #140]
 756 03f6 23F01F03 		bic	r3, r3, #31
 757 03fa 616A     		ldr	r1, [r4, #36]
 758 03fc 0139     		subs	r1, r1, #1
 759 03fe 0B43     		orrs	r3, r3, r1
 760 0400 C2F88C30 		str	r3, [r2, #140]
 761              	.LVL46:
 762              	.L42:
 511:Drivers/STM32F7xx_HAL_Driver/Src/stm32f7xx_hal_rcc_ex.c ****     }
 512:Drivers/STM32F7xx_HAL_Driver/Src/stm32f7xx_hal_rcc_ex.c **** 
 513:Drivers/STM32F7xx_HAL_Driver/Src/stm32f7xx_hal_rcc_ex.c ****     /*----------------- In Case of PLLI2S is selected as source clock for SPDIF-RX ----------------
 514:Drivers/STM32F7xx_HAL_Driver/Src/stm32f7xx_hal_rcc_ex.c ****     if(((PeriphClkInit->PeriphClockSelection) & RCC_PERIPHCLK_SPDIFRX) == RCC_PERIPHCLK_SPDIFRX)
 763              		.loc 1 514 5 view .LVU257
 764              		.loc 1 514 23 is_stmt 0 view .LVU258
 765 0404 2368     		ldr	r3, [r4]
 766              		.loc 1 514 7 view .LVU259
 767 0406 13F0807F 		tst	r3, #16777216
 768 040a 11D0     		beq	.L43
 515:Drivers/STM32F7xx_HAL_Driver/Src/stm32f7xx_hal_rcc_ex.c ****     {
 516:Drivers/STM32F7xx_HAL_Driver/Src/stm32f7xx_hal_rcc_ex.c ****       /* check for Parameters */
 517:Drivers/STM32F7xx_HAL_Driver/Src/stm32f7xx_hal_rcc_ex.c ****       assert_param(IS_RCC_PLLI2SP_VALUE(PeriphClkInit->PLLI2S.PLLI2SP));
 769              		.loc 1 517 7 is_stmt 1 view .LVU260
 518:Drivers/STM32F7xx_HAL_Driver/Src/stm32f7xx_hal_rcc_ex.c **** 
 519:Drivers/STM32F7xx_HAL_Driver/Src/stm32f7xx_hal_rcc_ex.c ****      /* Read PLLI2SR value from PLLI2SCFGR register (this value is not needed for SPDIF-RX configur
 520:Drivers/STM32F7xx_HAL_Driver/Src/stm32f7xx_hal_rcc_ex.c ****       tmpreg0 = ((RCC->PLLI2SCFGR & RCC_PLLI2SCFGR_PLLI2SQ) >> RCC_PLLI2SCFGR_PLLI2SQ_Pos);
 770              		.loc 1 520 7 view .LVU261
 771              		.loc 1 520 22 is_stmt 0 view .LVU262
 772 040c 284A     		ldr	r2, .L86
 773 040e D2F88400 		ldr	r0, [r2, #132]
 774              	.LVL47:
 521:Drivers/STM32F7xx_HAL_Driver/Src/stm32f7xx_hal_rcc_ex.c ****       tmpreg1 = ((RCC->PLLI2SCFGR & RCC_PLLI2SCFGR_PLLI2SR) >> RCC_PLLI2SCFGR_PLLI2SR_Pos);
 775              		.loc 1 521 7 is_stmt 1 view .LVU263
 776              		.loc 1 521 22 is_stmt 0 view .LVU264
 777 0412 D2F88410 		ldr	r1, [r2, #132]
 778              	.LVL48:
 522:Drivers/STM32F7xx_HAL_Driver/Src/stm32f7xx_hal_rcc_ex.c ****       /* Configure the PLLI2S division factors */
 523:Drivers/STM32F7xx_HAL_Driver/Src/stm32f7xx_hal_rcc_ex.c ****       /* PLLI2S_VCO = f(VCO clock) = f(PLLI2S clock input) x (PLLI2SN/PLLM) */
ARM GAS  C:\Users\arist\AppData\Local\Temp\ccTacmMD.s 			page 25


 524:Drivers/STM32F7xx_HAL_Driver/Src/stm32f7xx_hal_rcc_ex.c ****       /* SPDIFCLK = f(PLLI2S clock output) = f(VCO clock) / PLLI2SP */
 525:Drivers/STM32F7xx_HAL_Driver/Src/stm32f7xx_hal_rcc_ex.c ****       __HAL_RCC_PLLI2S_CONFIG(PeriphClkInit->PLLI2S.PLLI2SN , PeriphClkInit->PLLI2S.PLLI2SP, tmpreg
 779              		.loc 1 525 7 is_stmt 1 view .LVU265
 780 0416 6668     		ldr	r6, [r4, #4]
 781              	.LVL49:
 782              		.loc 1 525 7 is_stmt 0 view .LVU266
 783 0418 2369     		ldr	r3, [r4, #16]
 784 041a 1B04     		lsls	r3, r3, #16
 785 041c 43EA8613 		orr	r3, r3, r6, lsl #6
 786 0420 00F07060 		and	r0, r0, #251658240
 787              	.LVL50:
 788              		.loc 1 525 7 view .LVU267
 789 0424 0343     		orrs	r3, r3, r0
 790 0426 01F0E041 		and	r1, r1, #1879048192
 791              	.LVL51:
 792              		.loc 1 525 7 view .LVU268
 793 042a 0B43     		orrs	r3, r3, r1
 794 042c C2F88430 		str	r3, [r2, #132]
 795              	.LVL52:
 796              	.L43:
 526:Drivers/STM32F7xx_HAL_Driver/Src/stm32f7xx_hal_rcc_ex.c ****     }
 527:Drivers/STM32F7xx_HAL_Driver/Src/stm32f7xx_hal_rcc_ex.c **** 
 528:Drivers/STM32F7xx_HAL_Driver/Src/stm32f7xx_hal_rcc_ex.c ****     /*----------------- In Case of PLLI2S is just selected  -----------------*/
 529:Drivers/STM32F7xx_HAL_Driver/Src/stm32f7xx_hal_rcc_ex.c ****     if((PeriphClkInit->PeriphClockSelection & RCC_PERIPHCLK_PLLI2S) == RCC_PERIPHCLK_PLLI2S)
 797              		.loc 1 529 5 is_stmt 1 view .LVU269
 798              		.loc 1 529 22 is_stmt 0 view .LVU270
 799 0430 2368     		ldr	r3, [r4]
 800              		.loc 1 529 7 view .LVU271
 801 0432 13F0007F 		tst	r3, #33554432
 802 0436 0DD0     		beq	.L44
 530:Drivers/STM32F7xx_HAL_Driver/Src/stm32f7xx_hal_rcc_ex.c ****     {
 531:Drivers/STM32F7xx_HAL_Driver/Src/stm32f7xx_hal_rcc_ex.c ****       /* Check for Parameters */
 532:Drivers/STM32F7xx_HAL_Driver/Src/stm32f7xx_hal_rcc_ex.c ****       assert_param(IS_RCC_PLLI2SP_VALUE(PeriphClkInit->PLLI2S.PLLI2SP));
 803              		.loc 1 532 7 is_stmt 1 view .LVU272
 533:Drivers/STM32F7xx_HAL_Driver/Src/stm32f7xx_hal_rcc_ex.c ****       assert_param(IS_RCC_PLLI2SR_VALUE(PeriphClkInit->PLLI2S.PLLI2SR));
 804              		.loc 1 533 7 view .LVU273
 534:Drivers/STM32F7xx_HAL_Driver/Src/stm32f7xx_hal_rcc_ex.c ****       assert_param(IS_RCC_PLLI2SQ_VALUE(PeriphClkInit->PLLI2S.PLLI2SQ));
 805              		.loc 1 534 7 view .LVU274
 535:Drivers/STM32F7xx_HAL_Driver/Src/stm32f7xx_hal_rcc_ex.c **** 
 536:Drivers/STM32F7xx_HAL_Driver/Src/stm32f7xx_hal_rcc_ex.c ****       /* Configure the PLLI2S division factors */
 537:Drivers/STM32F7xx_HAL_Driver/Src/stm32f7xx_hal_rcc_ex.c ****       /* PLLI2S_VCO = f(VCO clock) = f(PLLI2S clock input) x (PLLI2SN/PLLI2SM) */
 538:Drivers/STM32F7xx_HAL_Driver/Src/stm32f7xx_hal_rcc_ex.c ****       /* SPDIFRXCLK = f(PLLI2S clock output) = f(VCO clock) / PLLI2SP */
 539:Drivers/STM32F7xx_HAL_Driver/Src/stm32f7xx_hal_rcc_ex.c ****       __HAL_RCC_PLLI2S_CONFIG(PeriphClkInit->PLLI2S.PLLI2SN , PeriphClkInit->PLLI2S.PLLI2SP, Periph
 806              		.loc 1 539 7 view .LVU275
 807 0438 6268     		ldr	r2, [r4, #4]
 808 043a 2369     		ldr	r3, [r4, #16]
 809 043c 1B04     		lsls	r3, r3, #16
 810 043e 43EA8213 		orr	r3, r3, r2, lsl #6
 811 0442 E268     		ldr	r2, [r4, #12]
 812 0444 43EA0263 		orr	r3, r3, r2, lsl #24
 813 0448 A268     		ldr	r2, [r4, #8]
 814 044a 43EA0273 		orr	r3, r3, r2, lsl #28
 815 044e 184A     		ldr	r2, .L86
 816 0450 C2F88430 		str	r3, [r2, #132]
 817              	.L44:
 540:Drivers/STM32F7xx_HAL_Driver/Src/stm32f7xx_hal_rcc_ex.c ****     }
 541:Drivers/STM32F7xx_HAL_Driver/Src/stm32f7xx_hal_rcc_ex.c **** 
ARM GAS  C:\Users\arist\AppData\Local\Temp\ccTacmMD.s 			page 26


 542:Drivers/STM32F7xx_HAL_Driver/Src/stm32f7xx_hal_rcc_ex.c ****     /* Enable the PLLI2S */
 543:Drivers/STM32F7xx_HAL_Driver/Src/stm32f7xx_hal_rcc_ex.c ****     __HAL_RCC_PLLI2S_ENABLE();
 818              		.loc 1 543 5 view .LVU276
 819 0454 164A     		ldr	r2, .L86
 820 0456 1368     		ldr	r3, [r2]
 821 0458 43F08063 		orr	r3, r3, #67108864
 822 045c 1360     		str	r3, [r2]
 544:Drivers/STM32F7xx_HAL_Driver/Src/stm32f7xx_hal_rcc_ex.c **** 
 545:Drivers/STM32F7xx_HAL_Driver/Src/stm32f7xx_hal_rcc_ex.c ****     /* Get Start Tick*/
 546:Drivers/STM32F7xx_HAL_Driver/Src/stm32f7xx_hal_rcc_ex.c ****     tickstart = HAL_GetTick();
 823              		.loc 1 546 5 view .LVU277
 824              		.loc 1 546 17 is_stmt 0 view .LVU278
 825 045e FFF7FEFF 		bl	HAL_GetTick
 826              	.LVL53:
 827 0462 0646     		mov	r6, r0
 828              	.LVL54:
 547:Drivers/STM32F7xx_HAL_Driver/Src/stm32f7xx_hal_rcc_ex.c **** 
 548:Drivers/STM32F7xx_HAL_Driver/Src/stm32f7xx_hal_rcc_ex.c ****     /* Wait till PLLI2S is ready */
 549:Drivers/STM32F7xx_HAL_Driver/Src/stm32f7xx_hal_rcc_ex.c ****     while(__HAL_RCC_GET_FLAG(RCC_FLAG_PLLI2SRDY)  == RESET)
 829              		.loc 1 549 5 is_stmt 1 view .LVU279
 830              	.L45:
 831              		.loc 1 549 51 view .LVU280
 832              		.loc 1 549 11 is_stmt 0 view .LVU281
 833 0464 124B     		ldr	r3, .L86
 834 0466 1B68     		ldr	r3, [r3]
 835              		.loc 1 549 51 view .LVU282
 836 0468 13F0006F 		tst	r3, #134217728
 837 046c 06D1     		bne	.L36
 550:Drivers/STM32F7xx_HAL_Driver/Src/stm32f7xx_hal_rcc_ex.c ****     {
 551:Drivers/STM32F7xx_HAL_Driver/Src/stm32f7xx_hal_rcc_ex.c ****       if((HAL_GetTick() - tickstart) > PLLI2S_TIMEOUT_VALUE)
 838              		.loc 1 551 7 is_stmt 1 view .LVU283
 839              		.loc 1 551 11 is_stmt 0 view .LVU284
 840 046e FFF7FEFF 		bl	HAL_GetTick
 841              	.LVL55:
 842              		.loc 1 551 25 view .LVU285
 843 0472 801B     		subs	r0, r0, r6
 844              		.loc 1 551 9 view .LVU286
 845 0474 6428     		cmp	r0, #100
 846 0476 F5D9     		bls	.L45
 552:Drivers/STM32F7xx_HAL_Driver/Src/stm32f7xx_hal_rcc_ex.c ****       {
 553:Drivers/STM32F7xx_HAL_Driver/Src/stm32f7xx_hal_rcc_ex.c ****         /* return in case of Timeout detected */
 554:Drivers/STM32F7xx_HAL_Driver/Src/stm32f7xx_hal_rcc_ex.c ****         return HAL_TIMEOUT;
 847              		.loc 1 554 16 view .LVU287
 848 0478 0320     		movs	r0, #3
 849 047a 02E0     		b	.L10
 850              	.LVL56:
 851              	.L36:
 555:Drivers/STM32F7xx_HAL_Driver/Src/stm32f7xx_hal_rcc_ex.c ****       }
 556:Drivers/STM32F7xx_HAL_Driver/Src/stm32f7xx_hal_rcc_ex.c ****     }
 557:Drivers/STM32F7xx_HAL_Driver/Src/stm32f7xx_hal_rcc_ex.c ****   }
 558:Drivers/STM32F7xx_HAL_Driver/Src/stm32f7xx_hal_rcc_ex.c **** 
 559:Drivers/STM32F7xx_HAL_Driver/Src/stm32f7xx_hal_rcc_ex.c ****   /*-------------------------------------- PLLSAI Configuration ---------------------------------*/
 560:Drivers/STM32F7xx_HAL_Driver/Src/stm32f7xx_hal_rcc_ex.c ****   /* PLLSAI is configured when a peripheral will use it as source clock : SAI1, SAI2, LTDC or CK48 
 561:Drivers/STM32F7xx_HAL_Driver/Src/stm32f7xx_hal_rcc_ex.c ****   if(pllsaiused == 1)
 852              		.loc 1 561 3 is_stmt 1 view .LVU288
 853              		.loc 1 561 5 is_stmt 0 view .LVU289
 854 047c 012D     		cmp	r5, #1
ARM GAS  C:\Users\arist\AppData\Local\Temp\ccTacmMD.s 			page 27


 855 047e 02D0     		beq	.L80
 562:Drivers/STM32F7xx_HAL_Driver/Src/stm32f7xx_hal_rcc_ex.c ****   {
 563:Drivers/STM32F7xx_HAL_Driver/Src/stm32f7xx_hal_rcc_ex.c ****     /* Disable PLLSAI Clock */
 564:Drivers/STM32F7xx_HAL_Driver/Src/stm32f7xx_hal_rcc_ex.c ****     __HAL_RCC_PLLSAI_DISABLE();
 565:Drivers/STM32F7xx_HAL_Driver/Src/stm32f7xx_hal_rcc_ex.c **** 
 566:Drivers/STM32F7xx_HAL_Driver/Src/stm32f7xx_hal_rcc_ex.c ****     /* Get Start Tick*/
 567:Drivers/STM32F7xx_HAL_Driver/Src/stm32f7xx_hal_rcc_ex.c ****     tickstart = HAL_GetTick();
 568:Drivers/STM32F7xx_HAL_Driver/Src/stm32f7xx_hal_rcc_ex.c **** 
 569:Drivers/STM32F7xx_HAL_Driver/Src/stm32f7xx_hal_rcc_ex.c ****     /* Wait till PLLSAI is disabled */
 570:Drivers/STM32F7xx_HAL_Driver/Src/stm32f7xx_hal_rcc_ex.c ****     while(__HAL_RCC_PLLSAI_GET_FLAG() != RESET)
 571:Drivers/STM32F7xx_HAL_Driver/Src/stm32f7xx_hal_rcc_ex.c ****     {
 572:Drivers/STM32F7xx_HAL_Driver/Src/stm32f7xx_hal_rcc_ex.c ****       if((HAL_GetTick() - tickstart) > PLLSAI_TIMEOUT_VALUE)
 573:Drivers/STM32F7xx_HAL_Driver/Src/stm32f7xx_hal_rcc_ex.c ****       {
 574:Drivers/STM32F7xx_HAL_Driver/Src/stm32f7xx_hal_rcc_ex.c ****         /* return in case of Timeout detected */
 575:Drivers/STM32F7xx_HAL_Driver/Src/stm32f7xx_hal_rcc_ex.c ****         return HAL_TIMEOUT;
 576:Drivers/STM32F7xx_HAL_Driver/Src/stm32f7xx_hal_rcc_ex.c ****       }
 577:Drivers/STM32F7xx_HAL_Driver/Src/stm32f7xx_hal_rcc_ex.c ****     }
 578:Drivers/STM32F7xx_HAL_Driver/Src/stm32f7xx_hal_rcc_ex.c **** 
 579:Drivers/STM32F7xx_HAL_Driver/Src/stm32f7xx_hal_rcc_ex.c ****     /* Check the PLLSAI division factors */
 580:Drivers/STM32F7xx_HAL_Driver/Src/stm32f7xx_hal_rcc_ex.c ****     assert_param(IS_RCC_PLLSAIN_VALUE(PeriphClkInit->PLLSAI.PLLSAIN));
 581:Drivers/STM32F7xx_HAL_Driver/Src/stm32f7xx_hal_rcc_ex.c **** 
 582:Drivers/STM32F7xx_HAL_Driver/Src/stm32f7xx_hal_rcc_ex.c ****     /*----------------- In Case of PLLSAI is selected as source clock for SAI -------------------*/
 583:Drivers/STM32F7xx_HAL_Driver/Src/stm32f7xx_hal_rcc_ex.c ****     if(((((PeriphClkInit->PeriphClockSelection) & RCC_PERIPHCLK_SAI1) == RCC_PERIPHCLK_SAI1) && (Pe
 584:Drivers/STM32F7xx_HAL_Driver/Src/stm32f7xx_hal_rcc_ex.c ****        ((((PeriphClkInit->PeriphClockSelection) & RCC_PERIPHCLK_SAI2) == RCC_PERIPHCLK_SAI2) && (Pe
 585:Drivers/STM32F7xx_HAL_Driver/Src/stm32f7xx_hal_rcc_ex.c ****     {
 586:Drivers/STM32F7xx_HAL_Driver/Src/stm32f7xx_hal_rcc_ex.c ****       /* check for PLLSAIQ Parameter */
 587:Drivers/STM32F7xx_HAL_Driver/Src/stm32f7xx_hal_rcc_ex.c ****       assert_param(IS_RCC_PLLSAIQ_VALUE(PeriphClkInit->PLLSAI.PLLSAIQ));
 588:Drivers/STM32F7xx_HAL_Driver/Src/stm32f7xx_hal_rcc_ex.c ****       /* check for PLLSAI/DIVQ Parameter */
 589:Drivers/STM32F7xx_HAL_Driver/Src/stm32f7xx_hal_rcc_ex.c ****       assert_param(IS_RCC_PLLSAI_DIVQ_VALUE(PeriphClkInit->PLLSAIDivQ));
 590:Drivers/STM32F7xx_HAL_Driver/Src/stm32f7xx_hal_rcc_ex.c **** 
 591:Drivers/STM32F7xx_HAL_Driver/Src/stm32f7xx_hal_rcc_ex.c ****       /* Read PLLSAIP value from PLLSAICFGR register (this value is not needed for SAI configuratio
 592:Drivers/STM32F7xx_HAL_Driver/Src/stm32f7xx_hal_rcc_ex.c ****       tmpreg0 = ((RCC->PLLSAICFGR & RCC_PLLSAICFGR_PLLSAIP) >> RCC_PLLSAICFGR_PLLSAIP_Pos);
 593:Drivers/STM32F7xx_HAL_Driver/Src/stm32f7xx_hal_rcc_ex.c ****       tmpreg1 = ((RCC->PLLSAICFGR & RCC_PLLI2SCFGR_PLLI2SR) >> RCC_PLLSAICFGR_PLLSAIR_Pos);
 594:Drivers/STM32F7xx_HAL_Driver/Src/stm32f7xx_hal_rcc_ex.c ****       /* PLLSAI_VCO Input  = PLL_SOURCE/PLLM */
 595:Drivers/STM32F7xx_HAL_Driver/Src/stm32f7xx_hal_rcc_ex.c ****       /* PLLSAI_VCO Output = PLLSAI_VCO Input * PLLSAIN */
 596:Drivers/STM32F7xx_HAL_Driver/Src/stm32f7xx_hal_rcc_ex.c ****       /* SAI_CLK(first level) = PLLSAI_VCO Output/PLLSAIQ */
 597:Drivers/STM32F7xx_HAL_Driver/Src/stm32f7xx_hal_rcc_ex.c ****       __HAL_RCC_PLLSAI_CONFIG(PeriphClkInit->PLLSAI.PLLSAIN , tmpreg0, PeriphClkInit->PLLSAI.PLLSAI
 598:Drivers/STM32F7xx_HAL_Driver/Src/stm32f7xx_hal_rcc_ex.c **** 
 599:Drivers/STM32F7xx_HAL_Driver/Src/stm32f7xx_hal_rcc_ex.c ****       /* SAI_CLK_x = SAI_CLK(first level)/PLLSAIDIVQ */
 600:Drivers/STM32F7xx_HAL_Driver/Src/stm32f7xx_hal_rcc_ex.c ****       __HAL_RCC_PLLSAI_PLLSAICLKDIVQ_CONFIG(PeriphClkInit->PLLSAIDivQ);
 601:Drivers/STM32F7xx_HAL_Driver/Src/stm32f7xx_hal_rcc_ex.c ****     }
 602:Drivers/STM32F7xx_HAL_Driver/Src/stm32f7xx_hal_rcc_ex.c **** 
 603:Drivers/STM32F7xx_HAL_Driver/Src/stm32f7xx_hal_rcc_ex.c ****     /*----------------- In Case of PLLSAI is selected as source clock for CLK48 -------------------
 604:Drivers/STM32F7xx_HAL_Driver/Src/stm32f7xx_hal_rcc_ex.c ****     /* In Case of PLLI2S is selected as source clock for CK48 */
 605:Drivers/STM32F7xx_HAL_Driver/Src/stm32f7xx_hal_rcc_ex.c ****     if((((PeriphClkInit->PeriphClockSelection) & RCC_PERIPHCLK_CLK48) == RCC_PERIPHCLK_CLK48) && (P
 606:Drivers/STM32F7xx_HAL_Driver/Src/stm32f7xx_hal_rcc_ex.c ****     {
 607:Drivers/STM32F7xx_HAL_Driver/Src/stm32f7xx_hal_rcc_ex.c ****       /* check for Parameters */
 608:Drivers/STM32F7xx_HAL_Driver/Src/stm32f7xx_hal_rcc_ex.c ****       assert_param(IS_RCC_PLLSAIP_VALUE(PeriphClkInit->PLLSAI.PLLSAIP));
 609:Drivers/STM32F7xx_HAL_Driver/Src/stm32f7xx_hal_rcc_ex.c ****       /* Read PLLSAIQ and PLLSAIR value from PLLSAICFGR register (this value is not needed for CK48
 610:Drivers/STM32F7xx_HAL_Driver/Src/stm32f7xx_hal_rcc_ex.c ****       tmpreg0 = ((RCC->PLLSAICFGR & RCC_PLLSAICFGR_PLLSAIQ) >> RCC_PLLSAICFGR_PLLSAIQ_Pos);
 611:Drivers/STM32F7xx_HAL_Driver/Src/stm32f7xx_hal_rcc_ex.c ****       tmpreg1 = ((RCC->PLLSAICFGR & RCC_PLLSAICFGR_PLLSAIR) >> RCC_PLLSAICFGR_PLLSAIR_Pos);
 612:Drivers/STM32F7xx_HAL_Driver/Src/stm32f7xx_hal_rcc_ex.c **** 
 613:Drivers/STM32F7xx_HAL_Driver/Src/stm32f7xx_hal_rcc_ex.c ****       /* Configure the PLLSAI division factors */
 614:Drivers/STM32F7xx_HAL_Driver/Src/stm32f7xx_hal_rcc_ex.c ****       /* PLLSAI_VCO = f(VCO clock) = f(PLLSAI clock input) x (PLLI2SN/PLLM) */
 615:Drivers/STM32F7xx_HAL_Driver/Src/stm32f7xx_hal_rcc_ex.c ****       /* 48CLK = f(PLLSAI clock output) = f(VCO clock) / PLLSAIP */
 616:Drivers/STM32F7xx_HAL_Driver/Src/stm32f7xx_hal_rcc_ex.c ****       __HAL_RCC_PLLSAI_CONFIG(PeriphClkInit->PLLSAI.PLLSAIN , PeriphClkInit->PLLSAI.PLLSAIP, tmpreg
 617:Drivers/STM32F7xx_HAL_Driver/Src/stm32f7xx_hal_rcc_ex.c ****     }
ARM GAS  C:\Users\arist\AppData\Local\Temp\ccTacmMD.s 			page 28


 618:Drivers/STM32F7xx_HAL_Driver/Src/stm32f7xx_hal_rcc_ex.c **** 
 619:Drivers/STM32F7xx_HAL_Driver/Src/stm32f7xx_hal_rcc_ex.c **** #if defined(STM32F746xx) || defined(STM32F756xx) || defined (STM32F767xx) || defined (STM32F769xx) 
 620:Drivers/STM32F7xx_HAL_Driver/Src/stm32f7xx_hal_rcc_ex.c ****     /*---------------------------- LTDC configuration -------------------------------*/
 621:Drivers/STM32F7xx_HAL_Driver/Src/stm32f7xx_hal_rcc_ex.c ****     if(((PeriphClkInit->PeriphClockSelection) & RCC_PERIPHCLK_LTDC) == (RCC_PERIPHCLK_LTDC))
 622:Drivers/STM32F7xx_HAL_Driver/Src/stm32f7xx_hal_rcc_ex.c ****     {
 623:Drivers/STM32F7xx_HAL_Driver/Src/stm32f7xx_hal_rcc_ex.c ****       assert_param(IS_RCC_PLLSAIR_VALUE(PeriphClkInit->PLLSAI.PLLSAIR));
 624:Drivers/STM32F7xx_HAL_Driver/Src/stm32f7xx_hal_rcc_ex.c ****       assert_param(IS_RCC_PLLSAI_DIVR_VALUE(PeriphClkInit->PLLSAIDivR));
 625:Drivers/STM32F7xx_HAL_Driver/Src/stm32f7xx_hal_rcc_ex.c **** 
 626:Drivers/STM32F7xx_HAL_Driver/Src/stm32f7xx_hal_rcc_ex.c ****       /* Read PLLSAIP and PLLSAIQ value from PLLSAICFGR register (these value are not needed for LT
 627:Drivers/STM32F7xx_HAL_Driver/Src/stm32f7xx_hal_rcc_ex.c ****       tmpreg0 = ((RCC->PLLSAICFGR & RCC_PLLSAICFGR_PLLSAIQ) >> RCC_PLLSAICFGR_PLLSAIQ_Pos);
 628:Drivers/STM32F7xx_HAL_Driver/Src/stm32f7xx_hal_rcc_ex.c ****       tmpreg1 = ((RCC->PLLSAICFGR & RCC_PLLSAICFGR_PLLSAIP) >> RCC_PLLSAICFGR_PLLSAIP_Pos);
 629:Drivers/STM32F7xx_HAL_Driver/Src/stm32f7xx_hal_rcc_ex.c **** 
 630:Drivers/STM32F7xx_HAL_Driver/Src/stm32f7xx_hal_rcc_ex.c ****       /* PLLSAI_VCO Input  = PLL_SOURCE/PLLM */
 631:Drivers/STM32F7xx_HAL_Driver/Src/stm32f7xx_hal_rcc_ex.c ****       /* PLLSAI_VCO Output = PLLSAI_VCO Input * PLLSAIN */
 632:Drivers/STM32F7xx_HAL_Driver/Src/stm32f7xx_hal_rcc_ex.c ****       /* LTDC_CLK(first level) = PLLSAI_VCO Output/PLLSAIR */
 633:Drivers/STM32F7xx_HAL_Driver/Src/stm32f7xx_hal_rcc_ex.c ****       __HAL_RCC_PLLSAI_CONFIG(PeriphClkInit->PLLSAI.PLLSAIN , tmpreg1, tmpreg0, PeriphClkInit->PLLS
 634:Drivers/STM32F7xx_HAL_Driver/Src/stm32f7xx_hal_rcc_ex.c **** 
 635:Drivers/STM32F7xx_HAL_Driver/Src/stm32f7xx_hal_rcc_ex.c ****       /* LTDC_CLK = LTDC_CLK(first level)/PLLSAIDIVR */
 636:Drivers/STM32F7xx_HAL_Driver/Src/stm32f7xx_hal_rcc_ex.c ****       __HAL_RCC_PLLSAI_PLLSAICLKDIVR_CONFIG(PeriphClkInit->PLLSAIDivR);
 637:Drivers/STM32F7xx_HAL_Driver/Src/stm32f7xx_hal_rcc_ex.c ****     }
 638:Drivers/STM32F7xx_HAL_Driver/Src/stm32f7xx_hal_rcc_ex.c **** #endif /* STM32F746xx || STM32F756xx || STM32F767xx || STM32F769xx || STM32F777xx || STM32F779xx ||
 639:Drivers/STM32F7xx_HAL_Driver/Src/stm32f7xx_hal_rcc_ex.c **** 
 640:Drivers/STM32F7xx_HAL_Driver/Src/stm32f7xx_hal_rcc_ex.c ****     /* Enable PLLSAI Clock */
 641:Drivers/STM32F7xx_HAL_Driver/Src/stm32f7xx_hal_rcc_ex.c ****     __HAL_RCC_PLLSAI_ENABLE();
 642:Drivers/STM32F7xx_HAL_Driver/Src/stm32f7xx_hal_rcc_ex.c **** 
 643:Drivers/STM32F7xx_HAL_Driver/Src/stm32f7xx_hal_rcc_ex.c ****     /* Get Start Tick*/
 644:Drivers/STM32F7xx_HAL_Driver/Src/stm32f7xx_hal_rcc_ex.c ****     tickstart = HAL_GetTick();
 645:Drivers/STM32F7xx_HAL_Driver/Src/stm32f7xx_hal_rcc_ex.c **** 
 646:Drivers/STM32F7xx_HAL_Driver/Src/stm32f7xx_hal_rcc_ex.c ****     /* Wait till PLLSAI is ready */
 647:Drivers/STM32F7xx_HAL_Driver/Src/stm32f7xx_hal_rcc_ex.c ****     while(__HAL_RCC_PLLSAI_GET_FLAG() == RESET)
 648:Drivers/STM32F7xx_HAL_Driver/Src/stm32f7xx_hal_rcc_ex.c ****     {
 649:Drivers/STM32F7xx_HAL_Driver/Src/stm32f7xx_hal_rcc_ex.c ****       if((HAL_GetTick() - tickstart) > PLLSAI_TIMEOUT_VALUE)
 650:Drivers/STM32F7xx_HAL_Driver/Src/stm32f7xx_hal_rcc_ex.c ****       {
 651:Drivers/STM32F7xx_HAL_Driver/Src/stm32f7xx_hal_rcc_ex.c ****         /* return in case of Timeout detected */
 652:Drivers/STM32F7xx_HAL_Driver/Src/stm32f7xx_hal_rcc_ex.c ****         return HAL_TIMEOUT;
 653:Drivers/STM32F7xx_HAL_Driver/Src/stm32f7xx_hal_rcc_ex.c ****       }
 654:Drivers/STM32F7xx_HAL_Driver/Src/stm32f7xx_hal_rcc_ex.c ****     }
 655:Drivers/STM32F7xx_HAL_Driver/Src/stm32f7xx_hal_rcc_ex.c ****   }
 656:Drivers/STM32F7xx_HAL_Driver/Src/stm32f7xx_hal_rcc_ex.c ****   return HAL_OK;
 856              		.loc 1 656 10 view .LVU290
 857 0480 0020     		movs	r0, #0
 858              	.LVL57:
 859              	.L10:
 657:Drivers/STM32F7xx_HAL_Driver/Src/stm32f7xx_hal_rcc_ex.c **** }
 860              		.loc 1 657 1 view .LVU291
 861 0482 03B0     		add	sp, sp, #12
 862              		.cfi_remember_state
 863              		.cfi_def_cfa_offset 20
 864              		@ sp needed
 865 0484 F0BD     		pop	{r4, r5, r6, r7, pc}
 866              	.LVL58:
 867              	.L80:
 868              		.cfi_restore_state
 564:Drivers/STM32F7xx_HAL_Driver/Src/stm32f7xx_hal_rcc_ex.c **** 
 869              		.loc 1 564 5 is_stmt 1 view .LVU292
 870 0486 0A4A     		ldr	r2, .L86
 871 0488 1368     		ldr	r3, [r2]
ARM GAS  C:\Users\arist\AppData\Local\Temp\ccTacmMD.s 			page 29


 872 048a 23F08053 		bic	r3, r3, #268435456
 873 048e 1360     		str	r3, [r2]
 567:Drivers/STM32F7xx_HAL_Driver/Src/stm32f7xx_hal_rcc_ex.c **** 
 874              		.loc 1 567 5 view .LVU293
 567:Drivers/STM32F7xx_HAL_Driver/Src/stm32f7xx_hal_rcc_ex.c **** 
 875              		.loc 1 567 17 is_stmt 0 view .LVU294
 876 0490 FFF7FEFF 		bl	HAL_GetTick
 877              	.LVL59:
 878 0494 0546     		mov	r5, r0
 879              	.LVL60:
 570:Drivers/STM32F7xx_HAL_Driver/Src/stm32f7xx_hal_rcc_ex.c ****     {
 880              		.loc 1 570 5 is_stmt 1 view .LVU295
 881              	.L47:
 570:Drivers/STM32F7xx_HAL_Driver/Src/stm32f7xx_hal_rcc_ex.c ****     {
 882              		.loc 1 570 39 view .LVU296
 570:Drivers/STM32F7xx_HAL_Driver/Src/stm32f7xx_hal_rcc_ex.c ****     {
 883              		.loc 1 570 11 is_stmt 0 view .LVU297
 884 0496 064B     		ldr	r3, .L86
 885 0498 1B68     		ldr	r3, [r3]
 570:Drivers/STM32F7xx_HAL_Driver/Src/stm32f7xx_hal_rcc_ex.c ****     {
 886              		.loc 1 570 39 view .LVU298
 887 049a 13F0005F 		tst	r3, #536870912
 888 049e 0DD0     		beq	.L81
 572:Drivers/STM32F7xx_HAL_Driver/Src/stm32f7xx_hal_rcc_ex.c ****       {
 889              		.loc 1 572 7 is_stmt 1 view .LVU299
 572:Drivers/STM32F7xx_HAL_Driver/Src/stm32f7xx_hal_rcc_ex.c ****       {
 890              		.loc 1 572 11 is_stmt 0 view .LVU300
 891 04a0 FFF7FEFF 		bl	HAL_GetTick
 892              	.LVL61:
 572:Drivers/STM32F7xx_HAL_Driver/Src/stm32f7xx_hal_rcc_ex.c ****       {
 893              		.loc 1 572 25 view .LVU301
 894 04a4 401B     		subs	r0, r0, r5
 572:Drivers/STM32F7xx_HAL_Driver/Src/stm32f7xx_hal_rcc_ex.c ****       {
 895              		.loc 1 572 9 view .LVU302
 896 04a6 6428     		cmp	r0, #100
 897 04a8 F5D9     		bls	.L47
 575:Drivers/STM32F7xx_HAL_Driver/Src/stm32f7xx_hal_rcc_ex.c ****       }
 898              		.loc 1 575 16 view .LVU303
 899 04aa 0320     		movs	r0, #3
 900 04ac E9E7     		b	.L10
 901              	.L87:
 902 04ae 00BF     		.align	2
 903              	.L86:
 904 04b0 00380240 		.word	1073887232
 905 04b4 00700040 		.word	1073770496
 906 04b8 FFFCFF0F 		.word	268434687
 907              	.L81:
 580:Drivers/STM32F7xx_HAL_Driver/Src/stm32f7xx_hal_rcc_ex.c **** 
 908              		.loc 1 580 5 is_stmt 1 view .LVU304
 583:Drivers/STM32F7xx_HAL_Driver/Src/stm32f7xx_hal_rcc_ex.c ****        ((((PeriphClkInit->PeriphClockSelection) & RCC_PERIPHCLK_SAI2) == RCC_PERIPHCLK_SAI2) && (Pe
 909              		.loc 1 583 5 view .LVU305
 583:Drivers/STM32F7xx_HAL_Driver/Src/stm32f7xx_hal_rcc_ex.c ****        ((((PeriphClkInit->PeriphClockSelection) & RCC_PERIPHCLK_SAI2) == RCC_PERIPHCLK_SAI2) && (Pe
 910              		.loc 1 583 25 is_stmt 0 view .LVU306
 911 04bc 2368     		ldr	r3, [r4]
 583:Drivers/STM32F7xx_HAL_Driver/Src/stm32f7xx_hal_rcc_ex.c ****        ((((PeriphClkInit->PeriphClockSelection) & RCC_PERIPHCLK_SAI2) == RCC_PERIPHCLK_SAI2) && (Pe
 912              		.loc 1 583 7 view .LVU307
 913 04be 13F4002F 		tst	r3, #524288
ARM GAS  C:\Users\arist\AppData\Local\Temp\ccTacmMD.s 			page 30


 914 04c2 01D0     		beq	.L49
 583:Drivers/STM32F7xx_HAL_Driver/Src/stm32f7xx_hal_rcc_ex.c ****        ((((PeriphClkInit->PeriphClockSelection) & RCC_PERIPHCLK_SAI2) == RCC_PERIPHCLK_SAI2) && (Pe
 915              		.loc 1 583 111 discriminator 1 view .LVU308
 916 04c4 E26B     		ldr	r2, [r4, #60]
 583:Drivers/STM32F7xx_HAL_Driver/Src/stm32f7xx_hal_rcc_ex.c ****        ((((PeriphClkInit->PeriphClockSelection) & RCC_PERIPHCLK_SAI2) == RCC_PERIPHCLK_SAI2) && (Pe
 917              		.loc 1 583 94 discriminator 1 view .LVU309
 918 04c6 22B1     		cbz	r2, .L50
 919              	.L49:
 583:Drivers/STM32F7xx_HAL_Driver/Src/stm32f7xx_hal_rcc_ex.c ****        ((((PeriphClkInit->PeriphClockSelection) & RCC_PERIPHCLK_SAI2) == RCC_PERIPHCLK_SAI2) && (Pe
 920              		.loc 1 583 162 discriminator 3 view .LVU310
 921 04c8 13F4801F 		tst	r3, #1048576
 922 04cc 1DD0     		beq	.L51
 584:Drivers/STM32F7xx_HAL_Driver/Src/stm32f7xx_hal_rcc_ex.c ****     {
 923              		.loc 1 584 111 view .LVU311
 924 04ce 236C     		ldr	r3, [r4, #64]
 584:Drivers/STM32F7xx_HAL_Driver/Src/stm32f7xx_hal_rcc_ex.c ****     {
 925              		.loc 1 584 94 view .LVU312
 926 04d0 DBB9     		cbnz	r3, .L51
 927              	.L50:
 587:Drivers/STM32F7xx_HAL_Driver/Src/stm32f7xx_hal_rcc_ex.c ****       /* check for PLLSAI/DIVQ Parameter */
 928              		.loc 1 587 7 is_stmt 1 view .LVU313
 589:Drivers/STM32F7xx_HAL_Driver/Src/stm32f7xx_hal_rcc_ex.c **** 
 929              		.loc 1 589 7 view .LVU314
 592:Drivers/STM32F7xx_HAL_Driver/Src/stm32f7xx_hal_rcc_ex.c ****       tmpreg1 = ((RCC->PLLSAICFGR & RCC_PLLI2SCFGR_PLLI2SR) >> RCC_PLLSAICFGR_PLLSAIR_Pos);
 930              		.loc 1 592 7 view .LVU315
 592:Drivers/STM32F7xx_HAL_Driver/Src/stm32f7xx_hal_rcc_ex.c ****       tmpreg1 = ((RCC->PLLSAICFGR & RCC_PLLI2SCFGR_PLLI2SR) >> RCC_PLLSAICFGR_PLLSAIR_Pos);
 931              		.loc 1 592 22 is_stmt 0 view .LVU316
 932 04d2 354A     		ldr	r2, .L88
 933 04d4 D2F88830 		ldr	r3, [r2, #136]
 934              	.LVL62:
 593:Drivers/STM32F7xx_HAL_Driver/Src/stm32f7xx_hal_rcc_ex.c ****       /* PLLSAI_VCO Input  = PLL_SOURCE/PLLM */
 935              		.loc 1 593 7 is_stmt 1 view .LVU317
 593:Drivers/STM32F7xx_HAL_Driver/Src/stm32f7xx_hal_rcc_ex.c ****       /* PLLSAI_VCO Input  = PLL_SOURCE/PLLM */
 936              		.loc 1 593 22 is_stmt 0 view .LVU318
 937 04d8 D2F88810 		ldr	r1, [r2, #136]
 938              	.LVL63:
 597:Drivers/STM32F7xx_HAL_Driver/Src/stm32f7xx_hal_rcc_ex.c **** 
 939              		.loc 1 597 7 is_stmt 1 view .LVU319
 940 04dc 6069     		ldr	r0, [r4, #20]
 941 04de 03F44033 		and	r3, r3, #196608
 942              	.LVL64:
 597:Drivers/STM32F7xx_HAL_Driver/Src/stm32f7xx_hal_rcc_ex.c **** 
 943              		.loc 1 597 7 is_stmt 0 view .LVU320
 944 04e2 43EA8013 		orr	r3, r3, r0, lsl #6
 945 04e6 A069     		ldr	r0, [r4, #24]
 946 04e8 43EA0063 		orr	r3, r3, r0, lsl #24
 947 04ec 01F0E041 		and	r1, r1, #1879048192
 948              	.LVL65:
 597:Drivers/STM32F7xx_HAL_Driver/Src/stm32f7xx_hal_rcc_ex.c **** 
 949              		.loc 1 597 7 view .LVU321
 950 04f0 0B43     		orrs	r3, r3, r1
 951 04f2 C2F88830 		str	r3, [r2, #136]
 600:Drivers/STM32F7xx_HAL_Driver/Src/stm32f7xx_hal_rcc_ex.c ****     }
 952              		.loc 1 600 7 is_stmt 1 view .LVU322
 953 04f6 D2F88C30 		ldr	r3, [r2, #140]
 954 04fa 23F4F853 		bic	r3, r3, #7936
 955 04fe A16A     		ldr	r1, [r4, #40]
ARM GAS  C:\Users\arist\AppData\Local\Temp\ccTacmMD.s 			page 31


 956 0500 0139     		subs	r1, r1, #1
 957 0502 43EA0123 		orr	r3, r3, r1, lsl #8
 958 0506 C2F88C30 		str	r3, [r2, #140]
 959              	.LVL66:
 960              	.L51:
 605:Drivers/STM32F7xx_HAL_Driver/Src/stm32f7xx_hal_rcc_ex.c ****     {
 961              		.loc 1 605 5 view .LVU323
 605:Drivers/STM32F7xx_HAL_Driver/Src/stm32f7xx_hal_rcc_ex.c ****     {
 962              		.loc 1 605 24 is_stmt 0 view .LVU324
 963 050a 2368     		ldr	r3, [r4]
 605:Drivers/STM32F7xx_HAL_Driver/Src/stm32f7xx_hal_rcc_ex.c ****     {
 964              		.loc 1 605 7 view .LVU325
 965 050c 13F4001F 		tst	r3, #2097152
 966 0510 03D0     		beq	.L52
 605:Drivers/STM32F7xx_HAL_Driver/Src/stm32f7xx_hal_rcc_ex.c ****     {
 967              		.loc 1 605 112 discriminator 1 view .LVU326
 968 0512 E36F     		ldr	r3, [r4, #124]
 605:Drivers/STM32F7xx_HAL_Driver/Src/stm32f7xx_hal_rcc_ex.c ****     {
 969              		.loc 1 605 95 discriminator 1 view .LVU327
 970 0514 B3F1006F 		cmp	r3, #134217728
 971 0518 31D0     		beq	.L82
 972              	.LVL67:
 973              	.L52:
 621:Drivers/STM32F7xx_HAL_Driver/Src/stm32f7xx_hal_rcc_ex.c ****     {
 974              		.loc 1 621 5 is_stmt 1 view .LVU328
 621:Drivers/STM32F7xx_HAL_Driver/Src/stm32f7xx_hal_rcc_ex.c ****     {
 975              		.loc 1 621 23 is_stmt 0 view .LVU329
 976 051a 2368     		ldr	r3, [r4]
 621:Drivers/STM32F7xx_HAL_Driver/Src/stm32f7xx_hal_rcc_ex.c ****     {
 977              		.loc 1 621 7 view .LVU330
 978 051c 13F0080F 		tst	r3, #8
 979 0520 19D0     		beq	.L53
 623:Drivers/STM32F7xx_HAL_Driver/Src/stm32f7xx_hal_rcc_ex.c ****       assert_param(IS_RCC_PLLSAI_DIVR_VALUE(PeriphClkInit->PLLSAIDivR));
 980              		.loc 1 623 7 is_stmt 1 view .LVU331
 624:Drivers/STM32F7xx_HAL_Driver/Src/stm32f7xx_hal_rcc_ex.c **** 
 981              		.loc 1 624 7 view .LVU332
 627:Drivers/STM32F7xx_HAL_Driver/Src/stm32f7xx_hal_rcc_ex.c ****       tmpreg1 = ((RCC->PLLSAICFGR & RCC_PLLSAICFGR_PLLSAIP) >> RCC_PLLSAICFGR_PLLSAIP_Pos);
 982              		.loc 1 627 7 view .LVU333
 627:Drivers/STM32F7xx_HAL_Driver/Src/stm32f7xx_hal_rcc_ex.c ****       tmpreg1 = ((RCC->PLLSAICFGR & RCC_PLLSAICFGR_PLLSAIP) >> RCC_PLLSAICFGR_PLLSAIP_Pos);
 983              		.loc 1 627 22 is_stmt 0 view .LVU334
 984 0522 214A     		ldr	r2, .L88
 985 0524 D2F88810 		ldr	r1, [r2, #136]
 986              	.LVL68:
 628:Drivers/STM32F7xx_HAL_Driver/Src/stm32f7xx_hal_rcc_ex.c **** 
 987              		.loc 1 628 7 is_stmt 1 view .LVU335
 628:Drivers/STM32F7xx_HAL_Driver/Src/stm32f7xx_hal_rcc_ex.c **** 
 988              		.loc 1 628 22 is_stmt 0 view .LVU336
 989 0528 D2F88830 		ldr	r3, [r2, #136]
 990              	.LVL69:
 633:Drivers/STM32F7xx_HAL_Driver/Src/stm32f7xx_hal_rcc_ex.c **** 
 991              		.loc 1 633 7 is_stmt 1 view .LVU337
 992 052c 6069     		ldr	r0, [r4, #20]
 993 052e 03F44033 		and	r3, r3, #196608
 994              	.LVL70:
 633:Drivers/STM32F7xx_HAL_Driver/Src/stm32f7xx_hal_rcc_ex.c **** 
 995              		.loc 1 633 7 is_stmt 0 view .LVU338
 996 0532 43EA8013 		orr	r3, r3, r0, lsl #6
ARM GAS  C:\Users\arist\AppData\Local\Temp\ccTacmMD.s 			page 32


 997 0536 01F07061 		and	r1, r1, #251658240
 998              	.LVL71:
 633:Drivers/STM32F7xx_HAL_Driver/Src/stm32f7xx_hal_rcc_ex.c **** 
 999              		.loc 1 633 7 view .LVU339
 1000 053a 0B43     		orrs	r3, r3, r1
 1001 053c E169     		ldr	r1, [r4, #28]
 1002 053e 43EA0173 		orr	r3, r3, r1, lsl #28
 1003 0542 C2F88830 		str	r3, [r2, #136]
 636:Drivers/STM32F7xx_HAL_Driver/Src/stm32f7xx_hal_rcc_ex.c ****     }
 1004              		.loc 1 636 7 is_stmt 1 view .LVU340
 1005 0546 D2F88C30 		ldr	r3, [r2, #140]
 1006 054a 23F44033 		bic	r3, r3, #196608
 1007 054e E16A     		ldr	r1, [r4, #44]
 1008 0550 0B43     		orrs	r3, r3, r1
 1009 0552 C2F88C30 		str	r3, [r2, #140]
 1010              	.LVL72:
 1011              	.L53:
 641:Drivers/STM32F7xx_HAL_Driver/Src/stm32f7xx_hal_rcc_ex.c **** 
 1012              		.loc 1 641 5 view .LVU341
 1013 0556 144A     		ldr	r2, .L88
 1014 0558 1368     		ldr	r3, [r2]
 1015 055a 43F08053 		orr	r3, r3, #268435456
 1016 055e 1360     		str	r3, [r2]
 644:Drivers/STM32F7xx_HAL_Driver/Src/stm32f7xx_hal_rcc_ex.c **** 
 1017              		.loc 1 644 5 view .LVU342
 644:Drivers/STM32F7xx_HAL_Driver/Src/stm32f7xx_hal_rcc_ex.c **** 
 1018              		.loc 1 644 17 is_stmt 0 view .LVU343
 1019 0560 FFF7FEFF 		bl	HAL_GetTick
 1020              	.LVL73:
 1021 0564 0446     		mov	r4, r0
 1022              	.LVL74:
 647:Drivers/STM32F7xx_HAL_Driver/Src/stm32f7xx_hal_rcc_ex.c ****     {
 1023              		.loc 1 647 5 is_stmt 1 view .LVU344
 1024              	.L54:
 647:Drivers/STM32F7xx_HAL_Driver/Src/stm32f7xx_hal_rcc_ex.c ****     {
 1025              		.loc 1 647 39 view .LVU345
 647:Drivers/STM32F7xx_HAL_Driver/Src/stm32f7xx_hal_rcc_ex.c ****     {
 1026              		.loc 1 647 11 is_stmt 0 view .LVU346
 1027 0566 104B     		ldr	r3, .L88
 1028 0568 1B68     		ldr	r3, [r3]
 647:Drivers/STM32F7xx_HAL_Driver/Src/stm32f7xx_hal_rcc_ex.c ****     {
 1029              		.loc 1 647 39 view .LVU347
 1030 056a 13F0005F 		tst	r3, #536870912
 1031 056e 19D1     		bne	.L83
 649:Drivers/STM32F7xx_HAL_Driver/Src/stm32f7xx_hal_rcc_ex.c ****       {
 1032              		.loc 1 649 7 is_stmt 1 view .LVU348
 649:Drivers/STM32F7xx_HAL_Driver/Src/stm32f7xx_hal_rcc_ex.c ****       {
 1033              		.loc 1 649 11 is_stmt 0 view .LVU349
 1034 0570 FFF7FEFF 		bl	HAL_GetTick
 1035              	.LVL75:
 649:Drivers/STM32F7xx_HAL_Driver/Src/stm32f7xx_hal_rcc_ex.c ****       {
 1036              		.loc 1 649 25 view .LVU350
 1037 0574 001B     		subs	r0, r0, r4
 649:Drivers/STM32F7xx_HAL_Driver/Src/stm32f7xx_hal_rcc_ex.c ****       {
 1038              		.loc 1 649 9 view .LVU351
 1039 0576 6428     		cmp	r0, #100
 1040 0578 F5D9     		bls	.L54
ARM GAS  C:\Users\arist\AppData\Local\Temp\ccTacmMD.s 			page 33


 652:Drivers/STM32F7xx_HAL_Driver/Src/stm32f7xx_hal_rcc_ex.c ****       }
 1041              		.loc 1 652 16 view .LVU352
 1042 057a 0320     		movs	r0, #3
 1043 057c 81E7     		b	.L10
 1044              	.LVL76:
 1045              	.L82:
 608:Drivers/STM32F7xx_HAL_Driver/Src/stm32f7xx_hal_rcc_ex.c ****       /* Read PLLSAIQ and PLLSAIR value from PLLSAICFGR register (this value is not needed for CK48
 1046              		.loc 1 608 7 is_stmt 1 view .LVU353
 610:Drivers/STM32F7xx_HAL_Driver/Src/stm32f7xx_hal_rcc_ex.c ****       tmpreg1 = ((RCC->PLLSAICFGR & RCC_PLLSAICFGR_PLLSAIR) >> RCC_PLLSAICFGR_PLLSAIR_Pos);
 1047              		.loc 1 610 7 view .LVU354
 610:Drivers/STM32F7xx_HAL_Driver/Src/stm32f7xx_hal_rcc_ex.c ****       tmpreg1 = ((RCC->PLLSAICFGR & RCC_PLLSAICFGR_PLLSAIR) >> RCC_PLLSAICFGR_PLLSAIR_Pos);
 1048              		.loc 1 610 22 is_stmt 0 view .LVU355
 1049 057e 0A4A     		ldr	r2, .L88
 1050 0580 D2F88800 		ldr	r0, [r2, #136]
 1051              	.LVL77:
 611:Drivers/STM32F7xx_HAL_Driver/Src/stm32f7xx_hal_rcc_ex.c **** 
 1052              		.loc 1 611 7 is_stmt 1 view .LVU356
 611:Drivers/STM32F7xx_HAL_Driver/Src/stm32f7xx_hal_rcc_ex.c **** 
 1053              		.loc 1 611 22 is_stmt 0 view .LVU357
 1054 0584 D2F88810 		ldr	r1, [r2, #136]
 1055              	.LVL78:
 616:Drivers/STM32F7xx_HAL_Driver/Src/stm32f7xx_hal_rcc_ex.c ****     }
 1056              		.loc 1 616 7 is_stmt 1 view .LVU358
 1057 0588 6569     		ldr	r5, [r4, #20]
 1058              	.LVL79:
 616:Drivers/STM32F7xx_HAL_Driver/Src/stm32f7xx_hal_rcc_ex.c ****     }
 1059              		.loc 1 616 7 is_stmt 0 view .LVU359
 1060 058a 236A     		ldr	r3, [r4, #32]
 1061 058c 1B04     		lsls	r3, r3, #16
 1062 058e 43EA8513 		orr	r3, r3, r5, lsl #6
 1063 0592 00F07060 		and	r0, r0, #251658240
 1064              	.LVL80:
 616:Drivers/STM32F7xx_HAL_Driver/Src/stm32f7xx_hal_rcc_ex.c ****     }
 1065              		.loc 1 616 7 view .LVU360
 1066 0596 0343     		orrs	r3, r3, r0
 1067 0598 01F0E041 		and	r1, r1, #1879048192
 1068              	.LVL81:
 616:Drivers/STM32F7xx_HAL_Driver/Src/stm32f7xx_hal_rcc_ex.c ****     }
 1069              		.loc 1 616 7 view .LVU361
 1070 059c 0B43     		orrs	r3, r3, r1
 1071 059e C2F88830 		str	r3, [r2, #136]
 1072 05a2 BAE7     		b	.L52
 1073              	.LVL82:
 1074              	.L83:
 656:Drivers/STM32F7xx_HAL_Driver/Src/stm32f7xx_hal_rcc_ex.c **** }
 1075              		.loc 1 656 10 view .LVU362
 1076 05a4 0020     		movs	r0, #0
 1077 05a6 6CE7     		b	.L10
 1078              	.L89:
 1079              		.align	2
 1080              	.L88:
 1081 05a8 00380240 		.word	1073887232
 1082              		.cfi_endproc
 1083              	.LFE141:
 1085              		.section	.text.HAL_RCCEx_GetPeriphCLKConfig,"ax",%progbits
 1086              		.align	1
 1087              		.global	HAL_RCCEx_GetPeriphCLKConfig
ARM GAS  C:\Users\arist\AppData\Local\Temp\ccTacmMD.s 			page 34


 1088              		.syntax unified
 1089              		.thumb
 1090              		.thumb_func
 1092              	HAL_RCCEx_GetPeriphCLKConfig:
 1093              	.LVL83:
 1094              	.LFB142:
 658:Drivers/STM32F7xx_HAL_Driver/Src/stm32f7xx_hal_rcc_ex.c **** 
 659:Drivers/STM32F7xx_HAL_Driver/Src/stm32f7xx_hal_rcc_ex.c **** /**
 660:Drivers/STM32F7xx_HAL_Driver/Src/stm32f7xx_hal_rcc_ex.c ****   * @brief  Get the RCC_PeriphCLKInitTypeDef according to the internal
 661:Drivers/STM32F7xx_HAL_Driver/Src/stm32f7xx_hal_rcc_ex.c ****   *         RCC configuration registers.
 662:Drivers/STM32F7xx_HAL_Driver/Src/stm32f7xx_hal_rcc_ex.c ****   * @param  PeriphClkInit pointer to the configured RCC_PeriphCLKInitTypeDef structure
 663:Drivers/STM32F7xx_HAL_Driver/Src/stm32f7xx_hal_rcc_ex.c ****   * @retval None
 664:Drivers/STM32F7xx_HAL_Driver/Src/stm32f7xx_hal_rcc_ex.c ****   */
 665:Drivers/STM32F7xx_HAL_Driver/Src/stm32f7xx_hal_rcc_ex.c **** void HAL_RCCEx_GetPeriphCLKConfig(RCC_PeriphCLKInitTypeDef  *PeriphClkInit)
 666:Drivers/STM32F7xx_HAL_Driver/Src/stm32f7xx_hal_rcc_ex.c **** {
 1095              		.loc 1 666 1 is_stmt 1 view -0
 1096              		.cfi_startproc
 1097              		@ args = 0, pretend = 0, frame = 0
 1098              		@ frame_needed = 0, uses_anonymous_args = 0
 1099              		@ link register save eliminated.
 667:Drivers/STM32F7xx_HAL_Driver/Src/stm32f7xx_hal_rcc_ex.c ****   uint32_t tempreg = 0;
 1100              		.loc 1 667 3 view .LVU364
 668:Drivers/STM32F7xx_HAL_Driver/Src/stm32f7xx_hal_rcc_ex.c **** 
 669:Drivers/STM32F7xx_HAL_Driver/Src/stm32f7xx_hal_rcc_ex.c ****   /* Set all possible values for the extended clock type parameter------------*/
 670:Drivers/STM32F7xx_HAL_Driver/Src/stm32f7xx_hal_rcc_ex.c **** #if defined (STM32F765xx) || defined (STM32F767xx) || defined (STM32F769xx) || defined (STM32F777xx
 671:Drivers/STM32F7xx_HAL_Driver/Src/stm32f7xx_hal_rcc_ex.c ****   PeriphClkInit->PeriphClockSelection = RCC_PERIPHCLK_I2S      | RCC_PERIPHCLK_LPTIM1   |\
 672:Drivers/STM32F7xx_HAL_Driver/Src/stm32f7xx_hal_rcc_ex.c ****                                         RCC_PERIPHCLK_SAI1     | RCC_PERIPHCLK_SAI2     |\
 673:Drivers/STM32F7xx_HAL_Driver/Src/stm32f7xx_hal_rcc_ex.c ****                                         RCC_PERIPHCLK_TIM      | RCC_PERIPHCLK_RTC      |\
 674:Drivers/STM32F7xx_HAL_Driver/Src/stm32f7xx_hal_rcc_ex.c ****                                         RCC_PERIPHCLK_CEC      | RCC_PERIPHCLK_I2C4     |\
 675:Drivers/STM32F7xx_HAL_Driver/Src/stm32f7xx_hal_rcc_ex.c ****                                         RCC_PERIPHCLK_I2C1     | RCC_PERIPHCLK_I2C2     |\
 676:Drivers/STM32F7xx_HAL_Driver/Src/stm32f7xx_hal_rcc_ex.c ****                                         RCC_PERIPHCLK_I2C3     | RCC_PERIPHCLK_USART1   |\
 677:Drivers/STM32F7xx_HAL_Driver/Src/stm32f7xx_hal_rcc_ex.c ****                                         RCC_PERIPHCLK_USART2   | RCC_PERIPHCLK_USART3   |\
 678:Drivers/STM32F7xx_HAL_Driver/Src/stm32f7xx_hal_rcc_ex.c ****                                         RCC_PERIPHCLK_UART4    | RCC_PERIPHCLK_UART5    |\
 679:Drivers/STM32F7xx_HAL_Driver/Src/stm32f7xx_hal_rcc_ex.c ****                                         RCC_PERIPHCLK_USART6   | RCC_PERIPHCLK_UART7    |\
 680:Drivers/STM32F7xx_HAL_Driver/Src/stm32f7xx_hal_rcc_ex.c ****                                         RCC_PERIPHCLK_UART8    | RCC_PERIPHCLK_SDMMC1   |\
 681:Drivers/STM32F7xx_HAL_Driver/Src/stm32f7xx_hal_rcc_ex.c ****                                         RCC_PERIPHCLK_CLK48    | RCC_PERIPHCLK_SDMMC2   |\
 682:Drivers/STM32F7xx_HAL_Driver/Src/stm32f7xx_hal_rcc_ex.c ****                                         RCC_PERIPHCLK_DFSDM1   | RCC_PERIPHCLK_DFSDM1_AUDIO;
 683:Drivers/STM32F7xx_HAL_Driver/Src/stm32f7xx_hal_rcc_ex.c **** #else
 684:Drivers/STM32F7xx_HAL_Driver/Src/stm32f7xx_hal_rcc_ex.c ****   PeriphClkInit->PeriphClockSelection = RCC_PERIPHCLK_I2S      | RCC_PERIPHCLK_LPTIM1   |\
 1101              		.loc 1 684 3 view .LVU365
 1102              		.loc 1 684 39 is_stmt 0 view .LVU366
 1103 0000 564B     		ldr	r3, .L93
 1104 0002 0360     		str	r3, [r0]
 685:Drivers/STM32F7xx_HAL_Driver/Src/stm32f7xx_hal_rcc_ex.c ****                                         RCC_PERIPHCLK_SAI1     | RCC_PERIPHCLK_SAI2     |\
 686:Drivers/STM32F7xx_HAL_Driver/Src/stm32f7xx_hal_rcc_ex.c ****                                         RCC_PERIPHCLK_TIM      | RCC_PERIPHCLK_RTC      |\
 687:Drivers/STM32F7xx_HAL_Driver/Src/stm32f7xx_hal_rcc_ex.c ****                                         RCC_PERIPHCLK_CEC      | RCC_PERIPHCLK_I2C4     |\
 688:Drivers/STM32F7xx_HAL_Driver/Src/stm32f7xx_hal_rcc_ex.c ****                                         RCC_PERIPHCLK_I2C1     | RCC_PERIPHCLK_I2C2     |\
 689:Drivers/STM32F7xx_HAL_Driver/Src/stm32f7xx_hal_rcc_ex.c ****                                         RCC_PERIPHCLK_I2C3     | RCC_PERIPHCLK_USART1   |\
 690:Drivers/STM32F7xx_HAL_Driver/Src/stm32f7xx_hal_rcc_ex.c ****                                         RCC_PERIPHCLK_USART2   | RCC_PERIPHCLK_USART3   |\
 691:Drivers/STM32F7xx_HAL_Driver/Src/stm32f7xx_hal_rcc_ex.c ****                                         RCC_PERIPHCLK_UART4    | RCC_PERIPHCLK_UART5    |\
 692:Drivers/STM32F7xx_HAL_Driver/Src/stm32f7xx_hal_rcc_ex.c ****                                         RCC_PERIPHCLK_USART6   | RCC_PERIPHCLK_UART7    |\
 693:Drivers/STM32F7xx_HAL_Driver/Src/stm32f7xx_hal_rcc_ex.c ****                                         RCC_PERIPHCLK_UART8    | RCC_PERIPHCLK_SDMMC1   |\
 694:Drivers/STM32F7xx_HAL_Driver/Src/stm32f7xx_hal_rcc_ex.c ****                                         RCC_PERIPHCLK_CLK48;
 695:Drivers/STM32F7xx_HAL_Driver/Src/stm32f7xx_hal_rcc_ex.c **** #endif /* STM32F767xx || STM32F769xx || STM32F777xx || STM32F779xx */
 696:Drivers/STM32F7xx_HAL_Driver/Src/stm32f7xx_hal_rcc_ex.c **** 
 697:Drivers/STM32F7xx_HAL_Driver/Src/stm32f7xx_hal_rcc_ex.c ****   /* Get the PLLI2S Clock configuration -----------------------------------------------*/
 698:Drivers/STM32F7xx_HAL_Driver/Src/stm32f7xx_hal_rcc_ex.c ****   PeriphClkInit->PLLI2S.PLLI2SN = (uint32_t)((RCC->PLLI2SCFGR & RCC_PLLI2SCFGR_PLLI2SN) >> RCC_PLLI
ARM GAS  C:\Users\arist\AppData\Local\Temp\ccTacmMD.s 			page 35


 1105              		.loc 1 698 3 is_stmt 1 view .LVU367
 1106              		.loc 1 698 50 is_stmt 0 view .LVU368
 1107 0004 564B     		ldr	r3, .L93+4
 1108 0006 D3F88420 		ldr	r2, [r3, #132]
 1109              		.loc 1 698 35 view .LVU369
 1110 000a C2F38812 		ubfx	r2, r2, #6, #9
 1111              		.loc 1 698 33 view .LVU370
 1112 000e 4260     		str	r2, [r0, #4]
 699:Drivers/STM32F7xx_HAL_Driver/Src/stm32f7xx_hal_rcc_ex.c ****   PeriphClkInit->PLLI2S.PLLI2SP = (uint32_t)((RCC->PLLI2SCFGR & RCC_PLLI2SCFGR_PLLI2SP) >> RCC_PLLI
 1113              		.loc 1 699 3 is_stmt 1 view .LVU371
 1114              		.loc 1 699 50 is_stmt 0 view .LVU372
 1115 0010 D3F88420 		ldr	r2, [r3, #132]
 1116              		.loc 1 699 35 view .LVU373
 1117 0014 C2F30142 		ubfx	r2, r2, #16, #2
 1118              		.loc 1 699 33 view .LVU374
 1119 0018 0261     		str	r2, [r0, #16]
 700:Drivers/STM32F7xx_HAL_Driver/Src/stm32f7xx_hal_rcc_ex.c ****   PeriphClkInit->PLLI2S.PLLI2SQ = (uint32_t)((RCC->PLLI2SCFGR & RCC_PLLI2SCFGR_PLLI2SQ) >> RCC_PLLI
 1120              		.loc 1 700 3 is_stmt 1 view .LVU375
 1121              		.loc 1 700 50 is_stmt 0 view .LVU376
 1122 001a D3F88420 		ldr	r2, [r3, #132]
 1123              		.loc 1 700 35 view .LVU377
 1124 001e C2F30362 		ubfx	r2, r2, #24, #4
 1125              		.loc 1 700 33 view .LVU378
 1126 0022 C260     		str	r2, [r0, #12]
 701:Drivers/STM32F7xx_HAL_Driver/Src/stm32f7xx_hal_rcc_ex.c ****   PeriphClkInit->PLLI2S.PLLI2SR = (uint32_t)((RCC->PLLI2SCFGR & RCC_PLLI2SCFGR_PLLI2SR) >> RCC_PLLI
 1127              		.loc 1 701 3 is_stmt 1 view .LVU379
 1128              		.loc 1 701 50 is_stmt 0 view .LVU380
 1129 0024 D3F88420 		ldr	r2, [r3, #132]
 1130              		.loc 1 701 35 view .LVU381
 1131 0028 C2F30272 		ubfx	r2, r2, #28, #3
 1132              		.loc 1 701 33 view .LVU382
 1133 002c 8260     		str	r2, [r0, #8]
 702:Drivers/STM32F7xx_HAL_Driver/Src/stm32f7xx_hal_rcc_ex.c **** 
 703:Drivers/STM32F7xx_HAL_Driver/Src/stm32f7xx_hal_rcc_ex.c ****   /* Get the PLLSAI Clock configuration -----------------------------------------------*/
 704:Drivers/STM32F7xx_HAL_Driver/Src/stm32f7xx_hal_rcc_ex.c ****   PeriphClkInit->PLLSAI.PLLSAIN = (uint32_t)((RCC->PLLSAICFGR & RCC_PLLSAICFGR_PLLSAIN) >> RCC_PLLS
 1134              		.loc 1 704 3 is_stmt 1 view .LVU383
 1135              		.loc 1 704 50 is_stmt 0 view .LVU384
 1136 002e D3F88820 		ldr	r2, [r3, #136]
 1137              		.loc 1 704 35 view .LVU385
 1138 0032 C2F38812 		ubfx	r2, r2, #6, #9
 1139              		.loc 1 704 33 view .LVU386
 1140 0036 4261     		str	r2, [r0, #20]
 705:Drivers/STM32F7xx_HAL_Driver/Src/stm32f7xx_hal_rcc_ex.c ****   PeriphClkInit->PLLSAI.PLLSAIP = (uint32_t)((RCC->PLLSAICFGR & RCC_PLLSAICFGR_PLLSAIP) >> RCC_PLLS
 1141              		.loc 1 705 3 is_stmt 1 view .LVU387
 1142              		.loc 1 705 50 is_stmt 0 view .LVU388
 1143 0038 D3F88820 		ldr	r2, [r3, #136]
 1144              		.loc 1 705 35 view .LVU389
 1145 003c C2F30142 		ubfx	r2, r2, #16, #2
 1146              		.loc 1 705 33 view .LVU390
 1147 0040 0262     		str	r2, [r0, #32]
 706:Drivers/STM32F7xx_HAL_Driver/Src/stm32f7xx_hal_rcc_ex.c ****   PeriphClkInit->PLLSAI.PLLSAIQ = (uint32_t)((RCC->PLLSAICFGR & RCC_PLLSAICFGR_PLLSAIQ) >> RCC_PLLS
 1148              		.loc 1 706 3 is_stmt 1 view .LVU391
 1149              		.loc 1 706 50 is_stmt 0 view .LVU392
 1150 0042 D3F88820 		ldr	r2, [r3, #136]
 1151              		.loc 1 706 35 view .LVU393
 1152 0046 C2F30362 		ubfx	r2, r2, #24, #4
 1153              		.loc 1 706 33 view .LVU394
ARM GAS  C:\Users\arist\AppData\Local\Temp\ccTacmMD.s 			page 36


 1154 004a 8261     		str	r2, [r0, #24]
 707:Drivers/STM32F7xx_HAL_Driver/Src/stm32f7xx_hal_rcc_ex.c ****   PeriphClkInit->PLLSAI.PLLSAIR = (uint32_t)((RCC->PLLSAICFGR & RCC_PLLSAICFGR_PLLSAIR) >> RCC_PLLS
 1155              		.loc 1 707 3 is_stmt 1 view .LVU395
 1156              		.loc 1 707 50 is_stmt 0 view .LVU396
 1157 004c D3F88820 		ldr	r2, [r3, #136]
 1158              		.loc 1 707 35 view .LVU397
 1159 0050 C2F30272 		ubfx	r2, r2, #28, #3
 1160              		.loc 1 707 33 view .LVU398
 1161 0054 C261     		str	r2, [r0, #28]
 708:Drivers/STM32F7xx_HAL_Driver/Src/stm32f7xx_hal_rcc_ex.c **** 
 709:Drivers/STM32F7xx_HAL_Driver/Src/stm32f7xx_hal_rcc_ex.c ****   /* Get the PLLSAI/PLLI2S division factors -------------------------------------------*/
 710:Drivers/STM32F7xx_HAL_Driver/Src/stm32f7xx_hal_rcc_ex.c ****   PeriphClkInit->PLLI2SDivQ = (uint32_t)((RCC->DCKCFGR1 & RCC_DCKCFGR1_PLLI2SDIVQ) >> RCC_DCKCFGR1_
 1162              		.loc 1 710 3 is_stmt 1 view .LVU399
 1163              		.loc 1 710 46 is_stmt 0 view .LVU400
 1164 0056 D3F88C20 		ldr	r2, [r3, #140]
 1165              		.loc 1 710 31 view .LVU401
 1166 005a 02F01F02 		and	r2, r2, #31
 1167              		.loc 1 710 29 view .LVU402
 1168 005e 4262     		str	r2, [r0, #36]
 711:Drivers/STM32F7xx_HAL_Driver/Src/stm32f7xx_hal_rcc_ex.c ****   PeriphClkInit->PLLSAIDivQ = (uint32_t)((RCC->DCKCFGR1 & RCC_DCKCFGR1_PLLSAIDIVQ) >> RCC_DCKCFGR1_
 1169              		.loc 1 711 3 is_stmt 1 view .LVU403
 1170              		.loc 1 711 46 is_stmt 0 view .LVU404
 1171 0060 D3F88C20 		ldr	r2, [r3, #140]
 1172              		.loc 1 711 31 view .LVU405
 1173 0064 C2F30422 		ubfx	r2, r2, #8, #5
 1174              		.loc 1 711 29 view .LVU406
 1175 0068 8262     		str	r2, [r0, #40]
 712:Drivers/STM32F7xx_HAL_Driver/Src/stm32f7xx_hal_rcc_ex.c ****   PeriphClkInit->PLLSAIDivR = (uint32_t)((RCC->DCKCFGR1 & RCC_DCKCFGR1_PLLSAIDIVR) >> RCC_DCKCFGR1_
 1176              		.loc 1 712 3 is_stmt 1 view .LVU407
 1177              		.loc 1 712 46 is_stmt 0 view .LVU408
 1178 006a D3F88C20 		ldr	r2, [r3, #140]
 1179              		.loc 1 712 31 view .LVU409
 1180 006e C2F30142 		ubfx	r2, r2, #16, #2
 1181              		.loc 1 712 29 view .LVU410
 1182 0072 C262     		str	r2, [r0, #44]
 713:Drivers/STM32F7xx_HAL_Driver/Src/stm32f7xx_hal_rcc_ex.c **** 
 714:Drivers/STM32F7xx_HAL_Driver/Src/stm32f7xx_hal_rcc_ex.c ****   /* Get the SAI1 clock configuration ----------------------------------------------*/
 715:Drivers/STM32F7xx_HAL_Driver/Src/stm32f7xx_hal_rcc_ex.c ****   PeriphClkInit->Sai1ClockSelection = __HAL_RCC_GET_SAI1_SOURCE();
 1183              		.loc 1 715 3 is_stmt 1 view .LVU411
 1184              		.loc 1 715 39 is_stmt 0 view .LVU412
 1185 0074 D3F88C20 		ldr	r2, [r3, #140]
 1186 0078 02F44012 		and	r2, r2, #3145728
 1187              		.loc 1 715 37 view .LVU413
 1188 007c C263     		str	r2, [r0, #60]
 716:Drivers/STM32F7xx_HAL_Driver/Src/stm32f7xx_hal_rcc_ex.c **** 
 717:Drivers/STM32F7xx_HAL_Driver/Src/stm32f7xx_hal_rcc_ex.c ****   /* Get the SAI2 clock configuration ----------------------------------------------*/
 718:Drivers/STM32F7xx_HAL_Driver/Src/stm32f7xx_hal_rcc_ex.c ****   PeriphClkInit->Sai2ClockSelection = __HAL_RCC_GET_SAI2_SOURCE();
 1189              		.loc 1 718 3 is_stmt 1 view .LVU414
 1190              		.loc 1 718 39 is_stmt 0 view .LVU415
 1191 007e D3F88C20 		ldr	r2, [r3, #140]
 1192 0082 02F44002 		and	r2, r2, #12582912
 1193              		.loc 1 718 37 view .LVU416
 1194 0086 0264     		str	r2, [r0, #64]
 719:Drivers/STM32F7xx_HAL_Driver/Src/stm32f7xx_hal_rcc_ex.c **** 
 720:Drivers/STM32F7xx_HAL_Driver/Src/stm32f7xx_hal_rcc_ex.c ****   /* Get the I2S clock configuration ------------------------------------------*/
 721:Drivers/STM32F7xx_HAL_Driver/Src/stm32f7xx_hal_rcc_ex.c ****   PeriphClkInit->I2sClockSelection = __HAL_RCC_GET_I2SCLKSOURCE();
 1195              		.loc 1 721 3 is_stmt 1 view .LVU417
ARM GAS  C:\Users\arist\AppData\Local\Temp\ccTacmMD.s 			page 37


 1196              		.loc 1 721 38 is_stmt 0 view .LVU418
 1197 0088 9A68     		ldr	r2, [r3, #8]
 1198 008a 02F40002 		and	r2, r2, #8388608
 1199              		.loc 1 721 36 view .LVU419
 1200 008e 4263     		str	r2, [r0, #52]
 722:Drivers/STM32F7xx_HAL_Driver/Src/stm32f7xx_hal_rcc_ex.c **** 
 723:Drivers/STM32F7xx_HAL_Driver/Src/stm32f7xx_hal_rcc_ex.c ****   /* Get the I2C1 clock configuration ------------------------------------------*/
 724:Drivers/STM32F7xx_HAL_Driver/Src/stm32f7xx_hal_rcc_ex.c ****   PeriphClkInit->I2c1ClockSelection = __HAL_RCC_GET_I2C1_SOURCE();
 1201              		.loc 1 724 3 is_stmt 1 view .LVU420
 1202              		.loc 1 724 39 is_stmt 0 view .LVU421
 1203 0090 D3F89020 		ldr	r2, [r3, #144]
 1204 0094 02F44032 		and	r2, r2, #196608
 1205              		.loc 1 724 37 view .LVU422
 1206 0098 4266     		str	r2, [r0, #100]
 725:Drivers/STM32F7xx_HAL_Driver/Src/stm32f7xx_hal_rcc_ex.c **** 
 726:Drivers/STM32F7xx_HAL_Driver/Src/stm32f7xx_hal_rcc_ex.c ****   /* Get the I2C2 clock configuration ------------------------------------------*/
 727:Drivers/STM32F7xx_HAL_Driver/Src/stm32f7xx_hal_rcc_ex.c ****   PeriphClkInit->I2c2ClockSelection = __HAL_RCC_GET_I2C2_SOURCE();
 1207              		.loc 1 727 3 is_stmt 1 view .LVU423
 1208              		.loc 1 727 39 is_stmt 0 view .LVU424
 1209 009a D3F89020 		ldr	r2, [r3, #144]
 1210 009e 02F44022 		and	r2, r2, #786432
 1211              		.loc 1 727 37 view .LVU425
 1212 00a2 8266     		str	r2, [r0, #104]
 728:Drivers/STM32F7xx_HAL_Driver/Src/stm32f7xx_hal_rcc_ex.c **** 
 729:Drivers/STM32F7xx_HAL_Driver/Src/stm32f7xx_hal_rcc_ex.c ****   /* Get the I2C3 clock configuration ------------------------------------------*/
 730:Drivers/STM32F7xx_HAL_Driver/Src/stm32f7xx_hal_rcc_ex.c ****   PeriphClkInit->I2c3ClockSelection = __HAL_RCC_GET_I2C3_SOURCE();
 1213              		.loc 1 730 3 is_stmt 1 view .LVU426
 1214              		.loc 1 730 39 is_stmt 0 view .LVU427
 1215 00a4 D3F89020 		ldr	r2, [r3, #144]
 1216 00a8 02F44012 		and	r2, r2, #3145728
 1217              		.loc 1 730 37 view .LVU428
 1218 00ac C266     		str	r2, [r0, #108]
 731:Drivers/STM32F7xx_HAL_Driver/Src/stm32f7xx_hal_rcc_ex.c **** 
 732:Drivers/STM32F7xx_HAL_Driver/Src/stm32f7xx_hal_rcc_ex.c ****   /* Get the I2C4 clock configuration ------------------------------------------*/
 733:Drivers/STM32F7xx_HAL_Driver/Src/stm32f7xx_hal_rcc_ex.c ****   PeriphClkInit->I2c4ClockSelection = __HAL_RCC_GET_I2C4_SOURCE();
 1219              		.loc 1 733 3 is_stmt 1 view .LVU429
 1220              		.loc 1 733 39 is_stmt 0 view .LVU430
 1221 00ae D3F89020 		ldr	r2, [r3, #144]
 1222 00b2 02F44002 		and	r2, r2, #12582912
 1223              		.loc 1 733 37 view .LVU431
 1224 00b6 0267     		str	r2, [r0, #112]
 734:Drivers/STM32F7xx_HAL_Driver/Src/stm32f7xx_hal_rcc_ex.c **** 
 735:Drivers/STM32F7xx_HAL_Driver/Src/stm32f7xx_hal_rcc_ex.c ****   /* Get the USART1 clock configuration ------------------------------------------*/
 736:Drivers/STM32F7xx_HAL_Driver/Src/stm32f7xx_hal_rcc_ex.c ****   PeriphClkInit->Usart1ClockSelection = __HAL_RCC_GET_USART1_SOURCE();
 1225              		.loc 1 736 3 is_stmt 1 view .LVU432
 1226              		.loc 1 736 41 is_stmt 0 view .LVU433
 1227 00b8 D3F89020 		ldr	r2, [r3, #144]
 1228 00bc 02F00302 		and	r2, r2, #3
 1229              		.loc 1 736 39 view .LVU434
 1230 00c0 4264     		str	r2, [r0, #68]
 737:Drivers/STM32F7xx_HAL_Driver/Src/stm32f7xx_hal_rcc_ex.c **** 
 738:Drivers/STM32F7xx_HAL_Driver/Src/stm32f7xx_hal_rcc_ex.c ****   /* Get the USART2 clock configuration ------------------------------------------*/
 739:Drivers/STM32F7xx_HAL_Driver/Src/stm32f7xx_hal_rcc_ex.c ****   PeriphClkInit->Usart2ClockSelection = __HAL_RCC_GET_USART2_SOURCE();
 1231              		.loc 1 739 3 is_stmt 1 view .LVU435
 1232              		.loc 1 739 41 is_stmt 0 view .LVU436
 1233 00c2 D3F89020 		ldr	r2, [r3, #144]
 1234 00c6 02F00C02 		and	r2, r2, #12
ARM GAS  C:\Users\arist\AppData\Local\Temp\ccTacmMD.s 			page 38


 1235              		.loc 1 739 39 view .LVU437
 1236 00ca 8264     		str	r2, [r0, #72]
 740:Drivers/STM32F7xx_HAL_Driver/Src/stm32f7xx_hal_rcc_ex.c **** 
 741:Drivers/STM32F7xx_HAL_Driver/Src/stm32f7xx_hal_rcc_ex.c ****   /* Get the USART3 clock configuration ------------------------------------------*/
 742:Drivers/STM32F7xx_HAL_Driver/Src/stm32f7xx_hal_rcc_ex.c ****   PeriphClkInit->Usart3ClockSelection = __HAL_RCC_GET_USART3_SOURCE();
 1237              		.loc 1 742 3 is_stmt 1 view .LVU438
 1238              		.loc 1 742 41 is_stmt 0 view .LVU439
 1239 00cc D3F89020 		ldr	r2, [r3, #144]
 1240 00d0 02F03002 		and	r2, r2, #48
 1241              		.loc 1 742 39 view .LVU440
 1242 00d4 C264     		str	r2, [r0, #76]
 743:Drivers/STM32F7xx_HAL_Driver/Src/stm32f7xx_hal_rcc_ex.c **** 
 744:Drivers/STM32F7xx_HAL_Driver/Src/stm32f7xx_hal_rcc_ex.c ****   /* Get the UART4 clock configuration ------------------------------------------*/
 745:Drivers/STM32F7xx_HAL_Driver/Src/stm32f7xx_hal_rcc_ex.c ****   PeriphClkInit->Uart4ClockSelection = __HAL_RCC_GET_UART4_SOURCE();
 1243              		.loc 1 745 3 is_stmt 1 view .LVU441
 1244              		.loc 1 745 40 is_stmt 0 view .LVU442
 1245 00d6 D3F89020 		ldr	r2, [r3, #144]
 1246 00da 02F0C002 		and	r2, r2, #192
 1247              		.loc 1 745 38 view .LVU443
 1248 00de 0265     		str	r2, [r0, #80]
 746:Drivers/STM32F7xx_HAL_Driver/Src/stm32f7xx_hal_rcc_ex.c **** 
 747:Drivers/STM32F7xx_HAL_Driver/Src/stm32f7xx_hal_rcc_ex.c ****   /* Get the UART5 clock configuration ------------------------------------------*/
 748:Drivers/STM32F7xx_HAL_Driver/Src/stm32f7xx_hal_rcc_ex.c ****   PeriphClkInit->Uart5ClockSelection = __HAL_RCC_GET_UART5_SOURCE();
 1249              		.loc 1 748 3 is_stmt 1 view .LVU444
 1250              		.loc 1 748 40 is_stmt 0 view .LVU445
 1251 00e0 D3F89020 		ldr	r2, [r3, #144]
 1252 00e4 02F44072 		and	r2, r2, #768
 1253              		.loc 1 748 38 view .LVU446
 1254 00e8 4265     		str	r2, [r0, #84]
 749:Drivers/STM32F7xx_HAL_Driver/Src/stm32f7xx_hal_rcc_ex.c **** 
 750:Drivers/STM32F7xx_HAL_Driver/Src/stm32f7xx_hal_rcc_ex.c ****   /* Get the USART6 clock configuration ------------------------------------------*/
 751:Drivers/STM32F7xx_HAL_Driver/Src/stm32f7xx_hal_rcc_ex.c ****   PeriphClkInit->Usart6ClockSelection = __HAL_RCC_GET_USART6_SOURCE();
 1255              		.loc 1 751 3 is_stmt 1 view .LVU447
 1256              		.loc 1 751 41 is_stmt 0 view .LVU448
 1257 00ea D3F89020 		ldr	r2, [r3, #144]
 1258 00ee 02F44062 		and	r2, r2, #3072
 1259              		.loc 1 751 39 view .LVU449
 1260 00f2 8265     		str	r2, [r0, #88]
 752:Drivers/STM32F7xx_HAL_Driver/Src/stm32f7xx_hal_rcc_ex.c **** 
 753:Drivers/STM32F7xx_HAL_Driver/Src/stm32f7xx_hal_rcc_ex.c ****   /* Get the UART7 clock configuration ------------------------------------------*/
 754:Drivers/STM32F7xx_HAL_Driver/Src/stm32f7xx_hal_rcc_ex.c ****   PeriphClkInit->Uart7ClockSelection = __HAL_RCC_GET_UART7_SOURCE();
 1261              		.loc 1 754 3 is_stmt 1 view .LVU450
 1262              		.loc 1 754 40 is_stmt 0 view .LVU451
 1263 00f4 D3F89020 		ldr	r2, [r3, #144]
 1264 00f8 02F44052 		and	r2, r2, #12288
 1265              		.loc 1 754 38 view .LVU452
 1266 00fc C265     		str	r2, [r0, #92]
 755:Drivers/STM32F7xx_HAL_Driver/Src/stm32f7xx_hal_rcc_ex.c **** 
 756:Drivers/STM32F7xx_HAL_Driver/Src/stm32f7xx_hal_rcc_ex.c ****   /* Get the UART8 clock configuration ------------------------------------------*/
 757:Drivers/STM32F7xx_HAL_Driver/Src/stm32f7xx_hal_rcc_ex.c ****   PeriphClkInit->Uart8ClockSelection = __HAL_RCC_GET_UART8_SOURCE();
 1267              		.loc 1 757 3 is_stmt 1 view .LVU453
 1268              		.loc 1 757 40 is_stmt 0 view .LVU454
 1269 00fe D3F89020 		ldr	r2, [r3, #144]
 1270 0102 02F44042 		and	r2, r2, #49152
 1271              		.loc 1 757 38 view .LVU455
 1272 0106 0266     		str	r2, [r0, #96]
 758:Drivers/STM32F7xx_HAL_Driver/Src/stm32f7xx_hal_rcc_ex.c **** 
ARM GAS  C:\Users\arist\AppData\Local\Temp\ccTacmMD.s 			page 39


 759:Drivers/STM32F7xx_HAL_Driver/Src/stm32f7xx_hal_rcc_ex.c ****   /* Get the LPTIM1 clock configuration ------------------------------------------*/
 760:Drivers/STM32F7xx_HAL_Driver/Src/stm32f7xx_hal_rcc_ex.c ****   PeriphClkInit->Lptim1ClockSelection = __HAL_RCC_GET_LPTIM1_SOURCE();
 1273              		.loc 1 760 3 is_stmt 1 view .LVU456
 1274              		.loc 1 760 41 is_stmt 0 view .LVU457
 1275 0108 D3F89020 		ldr	r2, [r3, #144]
 1276 010c 02F04072 		and	r2, r2, #50331648
 1277              		.loc 1 760 39 view .LVU458
 1278 0110 4267     		str	r2, [r0, #116]
 761:Drivers/STM32F7xx_HAL_Driver/Src/stm32f7xx_hal_rcc_ex.c **** 
 762:Drivers/STM32F7xx_HAL_Driver/Src/stm32f7xx_hal_rcc_ex.c ****   /* Get the CEC clock configuration -----------------------------------------------*/
 763:Drivers/STM32F7xx_HAL_Driver/Src/stm32f7xx_hal_rcc_ex.c ****   PeriphClkInit->CecClockSelection = __HAL_RCC_GET_CEC_SOURCE();
 1279              		.loc 1 763 3 is_stmt 1 view .LVU459
 1280              		.loc 1 763 38 is_stmt 0 view .LVU460
 1281 0112 D3F89020 		ldr	r2, [r3, #144]
 1282 0116 02F08062 		and	r2, r2, #67108864
 1283              		.loc 1 763 36 view .LVU461
 1284 011a 8267     		str	r2, [r0, #120]
 764:Drivers/STM32F7xx_HAL_Driver/Src/stm32f7xx_hal_rcc_ex.c **** 
 765:Drivers/STM32F7xx_HAL_Driver/Src/stm32f7xx_hal_rcc_ex.c ****   /* Get the CK48 clock configuration -----------------------------------------------*/
 766:Drivers/STM32F7xx_HAL_Driver/Src/stm32f7xx_hal_rcc_ex.c ****   PeriphClkInit->Clk48ClockSelection = __HAL_RCC_GET_CLK48_SOURCE();
 1285              		.loc 1 766 3 is_stmt 1 view .LVU462
 1286              		.loc 1 766 40 is_stmt 0 view .LVU463
 1287 011c D3F89020 		ldr	r2, [r3, #144]
 1288 0120 02F00062 		and	r2, r2, #134217728
 1289              		.loc 1 766 38 view .LVU464
 1290 0124 C267     		str	r2, [r0, #124]
 767:Drivers/STM32F7xx_HAL_Driver/Src/stm32f7xx_hal_rcc_ex.c **** 
 768:Drivers/STM32F7xx_HAL_Driver/Src/stm32f7xx_hal_rcc_ex.c ****   /* Get the SDMMC1 clock configuration -----------------------------------------------*/
 769:Drivers/STM32F7xx_HAL_Driver/Src/stm32f7xx_hal_rcc_ex.c ****   PeriphClkInit->Sdmmc1ClockSelection = __HAL_RCC_GET_SDMMC1_SOURCE();
 1291              		.loc 1 769 3 is_stmt 1 view .LVU465
 1292              		.loc 1 769 41 is_stmt 0 view .LVU466
 1293 0126 D3F89020 		ldr	r2, [r3, #144]
 1294 012a 02F08052 		and	r2, r2, #268435456
 1295              		.loc 1 769 39 view .LVU467
 1296 012e C0F88020 		str	r2, [r0, #128]
 770:Drivers/STM32F7xx_HAL_Driver/Src/stm32f7xx_hal_rcc_ex.c **** 
 771:Drivers/STM32F7xx_HAL_Driver/Src/stm32f7xx_hal_rcc_ex.c **** #if defined (STM32F765xx) || defined (STM32F767xx) || defined (STM32F769xx) || defined (STM32F777xx
 772:Drivers/STM32F7xx_HAL_Driver/Src/stm32f7xx_hal_rcc_ex.c ****   /* Get the SDMMC2 clock configuration -----------------------------------------------*/
 773:Drivers/STM32F7xx_HAL_Driver/Src/stm32f7xx_hal_rcc_ex.c ****   PeriphClkInit->Sdmmc2ClockSelection = __HAL_RCC_GET_SDMMC2_SOURCE();
 774:Drivers/STM32F7xx_HAL_Driver/Src/stm32f7xx_hal_rcc_ex.c **** 
 775:Drivers/STM32F7xx_HAL_Driver/Src/stm32f7xx_hal_rcc_ex.c ****   /* Get the DFSDM clock configuration -----------------------------------------------*/
 776:Drivers/STM32F7xx_HAL_Driver/Src/stm32f7xx_hal_rcc_ex.c ****   PeriphClkInit->Dfsdm1ClockSelection = __HAL_RCC_GET_DFSDM1_SOURCE();
 777:Drivers/STM32F7xx_HAL_Driver/Src/stm32f7xx_hal_rcc_ex.c **** 
 778:Drivers/STM32F7xx_HAL_Driver/Src/stm32f7xx_hal_rcc_ex.c ****   /* Get the DFSDM AUDIO clock configuration -----------------------------------------------*/
 779:Drivers/STM32F7xx_HAL_Driver/Src/stm32f7xx_hal_rcc_ex.c ****   PeriphClkInit->Dfsdm1AudioClockSelection = __HAL_RCC_GET_DFSDM1AUDIO_SOURCE();
 780:Drivers/STM32F7xx_HAL_Driver/Src/stm32f7xx_hal_rcc_ex.c **** #endif /* STM32F767xx || STM32F769xx || STM32F777xx || STM32F779xx */
 781:Drivers/STM32F7xx_HAL_Driver/Src/stm32f7xx_hal_rcc_ex.c **** 
 782:Drivers/STM32F7xx_HAL_Driver/Src/stm32f7xx_hal_rcc_ex.c ****   /* Get the RTC Clock configuration -----------------------------------------------*/
 783:Drivers/STM32F7xx_HAL_Driver/Src/stm32f7xx_hal_rcc_ex.c ****   tempreg = (RCC->CFGR & RCC_CFGR_RTCPRE);
 1297              		.loc 1 783 3 is_stmt 1 view .LVU468
 1298              		.loc 1 783 17 is_stmt 0 view .LVU469
 1299 0132 9968     		ldr	r1, [r3, #8]
 1300              		.loc 1 783 11 view .LVU470
 1301 0134 01F4F811 		and	r1, r1, #2031616
 1302              	.LVL84:
 784:Drivers/STM32F7xx_HAL_Driver/Src/stm32f7xx_hal_rcc_ex.c ****   PeriphClkInit->RTCClockSelection = (uint32_t)((tempreg) | (RCC->BDCR & RCC_BDCR_RTCSEL));
 1303              		.loc 1 784 3 is_stmt 1 view .LVU471
ARM GAS  C:\Users\arist\AppData\Local\Temp\ccTacmMD.s 			page 40


 1304              		.loc 1 784 65 is_stmt 0 view .LVU472
 1305 0138 1A6F     		ldr	r2, [r3, #112]
 1306              		.loc 1 784 72 view .LVU473
 1307 013a 02F44072 		and	r2, r2, #768
 1308              		.loc 1 784 38 view .LVU474
 1309 013e 0A43     		orrs	r2, r2, r1
 1310              		.loc 1 784 36 view .LVU475
 1311 0140 0263     		str	r2, [r0, #48]
 785:Drivers/STM32F7xx_HAL_Driver/Src/stm32f7xx_hal_rcc_ex.c **** 
 786:Drivers/STM32F7xx_HAL_Driver/Src/stm32f7xx_hal_rcc_ex.c ****   /* Get the TIM Prescaler configuration --------------------------------------------*/
 787:Drivers/STM32F7xx_HAL_Driver/Src/stm32f7xx_hal_rcc_ex.c ****   if ((RCC->DCKCFGR1 & RCC_DCKCFGR1_TIMPRE) == RESET)
 1312              		.loc 1 787 3 is_stmt 1 view .LVU476
 1313              		.loc 1 787 11 is_stmt 0 view .LVU477
 1314 0142 D3F88C30 		ldr	r3, [r3, #140]
 1315              		.loc 1 787 6 view .LVU478
 1316 0146 13F0807F 		tst	r3, #16777216
 1317 014a 02D1     		bne	.L91
 788:Drivers/STM32F7xx_HAL_Driver/Src/stm32f7xx_hal_rcc_ex.c ****   {
 789:Drivers/STM32F7xx_HAL_Driver/Src/stm32f7xx_hal_rcc_ex.c ****     PeriphClkInit->TIMPresSelection = RCC_TIMPRES_DESACTIVATED;
 1318              		.loc 1 789 5 is_stmt 1 view .LVU479
 1319              		.loc 1 789 37 is_stmt 0 view .LVU480
 1320 014c 0023     		movs	r3, #0
 1321 014e 8363     		str	r3, [r0, #56]
 1322 0150 7047     		bx	lr
 1323              	.L91:
 790:Drivers/STM32F7xx_HAL_Driver/Src/stm32f7xx_hal_rcc_ex.c ****   }
 791:Drivers/STM32F7xx_HAL_Driver/Src/stm32f7xx_hal_rcc_ex.c ****   else
 792:Drivers/STM32F7xx_HAL_Driver/Src/stm32f7xx_hal_rcc_ex.c ****   {
 793:Drivers/STM32F7xx_HAL_Driver/Src/stm32f7xx_hal_rcc_ex.c ****     PeriphClkInit->TIMPresSelection = RCC_TIMPRES_ACTIVATED;
 1324              		.loc 1 793 5 is_stmt 1 view .LVU481
 1325              		.loc 1 793 37 is_stmt 0 view .LVU482
 1326 0152 4FF08073 		mov	r3, #16777216
 1327 0156 8363     		str	r3, [r0, #56]
 794:Drivers/STM32F7xx_HAL_Driver/Src/stm32f7xx_hal_rcc_ex.c ****   }
 795:Drivers/STM32F7xx_HAL_Driver/Src/stm32f7xx_hal_rcc_ex.c **** }
 1328              		.loc 1 795 1 view .LVU483
 1329 0158 7047     		bx	lr
 1330              	.L94:
 1331 015a 00BF     		.align	2
 1332              	.L93:
 1333 015c F1FFFF00 		.word	16777201
 1334 0160 00380240 		.word	1073887232
 1335              		.cfi_endproc
 1336              	.LFE142:
 1338              		.section	.text.HAL_RCCEx_GetPeriphCLKFreq,"ax",%progbits
 1339              		.align	1
 1340              		.global	HAL_RCCEx_GetPeriphCLKFreq
 1341              		.syntax unified
 1342              		.thumb
 1343              		.thumb_func
 1345              	HAL_RCCEx_GetPeriphCLKFreq:
 1346              	.LVL85:
 1347              	.LFB143:
 796:Drivers/STM32F7xx_HAL_Driver/Src/stm32f7xx_hal_rcc_ex.c **** #endif /* STM32F745xx || STM32F746xx || STM32F756xx || STM32F765xx || STM32F767xx || STM32F769xx ||
 797:Drivers/STM32F7xx_HAL_Driver/Src/stm32f7xx_hal_rcc_ex.c **** 
 798:Drivers/STM32F7xx_HAL_Driver/Src/stm32f7xx_hal_rcc_ex.c **** #if defined (STM32F722xx) || defined (STM32F723xx) || defined (STM32F732xx) || defined (STM32F733xx
 799:Drivers/STM32F7xx_HAL_Driver/Src/stm32f7xx_hal_rcc_ex.c **** /**
ARM GAS  C:\Users\arist\AppData\Local\Temp\ccTacmMD.s 			page 41


 800:Drivers/STM32F7xx_HAL_Driver/Src/stm32f7xx_hal_rcc_ex.c ****   * @brief  Initializes the RCC extended peripherals clocks according to the specified
 801:Drivers/STM32F7xx_HAL_Driver/Src/stm32f7xx_hal_rcc_ex.c ****   *         parameters in the RCC_PeriphCLKInitTypeDef.
 802:Drivers/STM32F7xx_HAL_Driver/Src/stm32f7xx_hal_rcc_ex.c ****   * @param  PeriphClkInit pointer to an RCC_PeriphCLKInitTypeDef structure that
 803:Drivers/STM32F7xx_HAL_Driver/Src/stm32f7xx_hal_rcc_ex.c ****   *         contains the configuration information for the Extended Peripherals
 804:Drivers/STM32F7xx_HAL_Driver/Src/stm32f7xx_hal_rcc_ex.c ****   *         clocks(I2S, SAI, RTC, TIM, UARTs, USARTs, LTPIM, SDMMC...).
 805:Drivers/STM32F7xx_HAL_Driver/Src/stm32f7xx_hal_rcc_ex.c ****   *
 806:Drivers/STM32F7xx_HAL_Driver/Src/stm32f7xx_hal_rcc_ex.c ****   * @note   Care must be taken when HAL_RCCEx_PeriphCLKConfig() is used to select
 807:Drivers/STM32F7xx_HAL_Driver/Src/stm32f7xx_hal_rcc_ex.c ****   *         the RTC clock source; in this case the Backup domain will be reset in
 808:Drivers/STM32F7xx_HAL_Driver/Src/stm32f7xx_hal_rcc_ex.c ****   *         order to modify the RTC Clock source, as consequence RTC registers (including
 809:Drivers/STM32F7xx_HAL_Driver/Src/stm32f7xx_hal_rcc_ex.c ****   *         the backup registers) are set to their reset values.
 810:Drivers/STM32F7xx_HAL_Driver/Src/stm32f7xx_hal_rcc_ex.c ****   *
 811:Drivers/STM32F7xx_HAL_Driver/Src/stm32f7xx_hal_rcc_ex.c ****   * @retval HAL status
 812:Drivers/STM32F7xx_HAL_Driver/Src/stm32f7xx_hal_rcc_ex.c ****   */
 813:Drivers/STM32F7xx_HAL_Driver/Src/stm32f7xx_hal_rcc_ex.c **** HAL_StatusTypeDef HAL_RCCEx_PeriphCLKConfig(RCC_PeriphCLKInitTypeDef  *PeriphClkInit)
 814:Drivers/STM32F7xx_HAL_Driver/Src/stm32f7xx_hal_rcc_ex.c **** {
 815:Drivers/STM32F7xx_HAL_Driver/Src/stm32f7xx_hal_rcc_ex.c ****   uint32_t tickstart = 0;
 816:Drivers/STM32F7xx_HAL_Driver/Src/stm32f7xx_hal_rcc_ex.c ****   uint32_t tmpreg0 = 0;
 817:Drivers/STM32F7xx_HAL_Driver/Src/stm32f7xx_hal_rcc_ex.c ****   uint32_t plli2sused = 0;
 818:Drivers/STM32F7xx_HAL_Driver/Src/stm32f7xx_hal_rcc_ex.c ****   uint32_t pllsaiused = 0;
 819:Drivers/STM32F7xx_HAL_Driver/Src/stm32f7xx_hal_rcc_ex.c **** 
 820:Drivers/STM32F7xx_HAL_Driver/Src/stm32f7xx_hal_rcc_ex.c ****   /* Check the parameters */
 821:Drivers/STM32F7xx_HAL_Driver/Src/stm32f7xx_hal_rcc_ex.c ****   assert_param(IS_RCC_PERIPHCLOCK(PeriphClkInit->PeriphClockSelection));
 822:Drivers/STM32F7xx_HAL_Driver/Src/stm32f7xx_hal_rcc_ex.c **** 
 823:Drivers/STM32F7xx_HAL_Driver/Src/stm32f7xx_hal_rcc_ex.c ****   /*----------------------------------- I2S configuration ----------------------------------*/
 824:Drivers/STM32F7xx_HAL_Driver/Src/stm32f7xx_hal_rcc_ex.c ****   if(((PeriphClkInit->PeriphClockSelection) & RCC_PERIPHCLK_I2S) == (RCC_PERIPHCLK_I2S))
 825:Drivers/STM32F7xx_HAL_Driver/Src/stm32f7xx_hal_rcc_ex.c ****   {
 826:Drivers/STM32F7xx_HAL_Driver/Src/stm32f7xx_hal_rcc_ex.c ****     /* Check the parameters */
 827:Drivers/STM32F7xx_HAL_Driver/Src/stm32f7xx_hal_rcc_ex.c ****     assert_param(IS_RCC_I2SCLKSOURCE(PeriphClkInit->I2sClockSelection));
 828:Drivers/STM32F7xx_HAL_Driver/Src/stm32f7xx_hal_rcc_ex.c **** 
 829:Drivers/STM32F7xx_HAL_Driver/Src/stm32f7xx_hal_rcc_ex.c ****     /* Configure I2S Clock source */
 830:Drivers/STM32F7xx_HAL_Driver/Src/stm32f7xx_hal_rcc_ex.c ****     __HAL_RCC_I2S_CONFIG(PeriphClkInit->I2sClockSelection);
 831:Drivers/STM32F7xx_HAL_Driver/Src/stm32f7xx_hal_rcc_ex.c **** 
 832:Drivers/STM32F7xx_HAL_Driver/Src/stm32f7xx_hal_rcc_ex.c ****     /* Enable the PLLI2S when it's used as clock source for I2S */
 833:Drivers/STM32F7xx_HAL_Driver/Src/stm32f7xx_hal_rcc_ex.c ****     if(PeriphClkInit->I2sClockSelection == RCC_I2SCLKSOURCE_PLLI2S)
 834:Drivers/STM32F7xx_HAL_Driver/Src/stm32f7xx_hal_rcc_ex.c ****     {
 835:Drivers/STM32F7xx_HAL_Driver/Src/stm32f7xx_hal_rcc_ex.c ****       plli2sused = 1;
 836:Drivers/STM32F7xx_HAL_Driver/Src/stm32f7xx_hal_rcc_ex.c ****     }
 837:Drivers/STM32F7xx_HAL_Driver/Src/stm32f7xx_hal_rcc_ex.c ****   }
 838:Drivers/STM32F7xx_HAL_Driver/Src/stm32f7xx_hal_rcc_ex.c **** 
 839:Drivers/STM32F7xx_HAL_Driver/Src/stm32f7xx_hal_rcc_ex.c ****   /*------------------------------------ SAI1 configuration --------------------------------------*
 840:Drivers/STM32F7xx_HAL_Driver/Src/stm32f7xx_hal_rcc_ex.c ****   if(((PeriphClkInit->PeriphClockSelection) & RCC_PERIPHCLK_SAI1) == (RCC_PERIPHCLK_SAI1))
 841:Drivers/STM32F7xx_HAL_Driver/Src/stm32f7xx_hal_rcc_ex.c ****   {
 842:Drivers/STM32F7xx_HAL_Driver/Src/stm32f7xx_hal_rcc_ex.c ****     /* Check the parameters */
 843:Drivers/STM32F7xx_HAL_Driver/Src/stm32f7xx_hal_rcc_ex.c ****     assert_param(IS_RCC_SAI1CLKSOURCE(PeriphClkInit->Sai1ClockSelection));
 844:Drivers/STM32F7xx_HAL_Driver/Src/stm32f7xx_hal_rcc_ex.c **** 
 845:Drivers/STM32F7xx_HAL_Driver/Src/stm32f7xx_hal_rcc_ex.c ****     /* Configure SAI1 Clock source */
 846:Drivers/STM32F7xx_HAL_Driver/Src/stm32f7xx_hal_rcc_ex.c ****     __HAL_RCC_SAI1_CONFIG(PeriphClkInit->Sai1ClockSelection);
 847:Drivers/STM32F7xx_HAL_Driver/Src/stm32f7xx_hal_rcc_ex.c ****     /* Enable the PLLI2S when it's used as clock source for SAI */
 848:Drivers/STM32F7xx_HAL_Driver/Src/stm32f7xx_hal_rcc_ex.c ****     if(PeriphClkInit->Sai1ClockSelection == RCC_SAI1CLKSOURCE_PLLI2S)
 849:Drivers/STM32F7xx_HAL_Driver/Src/stm32f7xx_hal_rcc_ex.c ****     {
 850:Drivers/STM32F7xx_HAL_Driver/Src/stm32f7xx_hal_rcc_ex.c ****       plli2sused = 1;
 851:Drivers/STM32F7xx_HAL_Driver/Src/stm32f7xx_hal_rcc_ex.c ****     }
 852:Drivers/STM32F7xx_HAL_Driver/Src/stm32f7xx_hal_rcc_ex.c ****     /* Enable the PLLSAI when it's used as clock source for SAI */
 853:Drivers/STM32F7xx_HAL_Driver/Src/stm32f7xx_hal_rcc_ex.c ****     if(PeriphClkInit->Sai1ClockSelection == RCC_SAI1CLKSOURCE_PLLSAI)
 854:Drivers/STM32F7xx_HAL_Driver/Src/stm32f7xx_hal_rcc_ex.c ****     {
 855:Drivers/STM32F7xx_HAL_Driver/Src/stm32f7xx_hal_rcc_ex.c ****       pllsaiused = 1;
 856:Drivers/STM32F7xx_HAL_Driver/Src/stm32f7xx_hal_rcc_ex.c ****     }
ARM GAS  C:\Users\arist\AppData\Local\Temp\ccTacmMD.s 			page 42


 857:Drivers/STM32F7xx_HAL_Driver/Src/stm32f7xx_hal_rcc_ex.c ****   }
 858:Drivers/STM32F7xx_HAL_Driver/Src/stm32f7xx_hal_rcc_ex.c **** 
 859:Drivers/STM32F7xx_HAL_Driver/Src/stm32f7xx_hal_rcc_ex.c ****   /*------------------------------------ SAI2 configuration --------------------------------------*
 860:Drivers/STM32F7xx_HAL_Driver/Src/stm32f7xx_hal_rcc_ex.c ****   if(((PeriphClkInit->PeriphClockSelection) & RCC_PERIPHCLK_SAI2) == (RCC_PERIPHCLK_SAI2))
 861:Drivers/STM32F7xx_HAL_Driver/Src/stm32f7xx_hal_rcc_ex.c ****   {
 862:Drivers/STM32F7xx_HAL_Driver/Src/stm32f7xx_hal_rcc_ex.c ****     /* Check the parameters */
 863:Drivers/STM32F7xx_HAL_Driver/Src/stm32f7xx_hal_rcc_ex.c ****     assert_param(IS_RCC_SAI2CLKSOURCE(PeriphClkInit->Sai2ClockSelection));
 864:Drivers/STM32F7xx_HAL_Driver/Src/stm32f7xx_hal_rcc_ex.c **** 
 865:Drivers/STM32F7xx_HAL_Driver/Src/stm32f7xx_hal_rcc_ex.c ****     /* Configure SAI2 Clock source */
 866:Drivers/STM32F7xx_HAL_Driver/Src/stm32f7xx_hal_rcc_ex.c ****     __HAL_RCC_SAI2_CONFIG(PeriphClkInit->Sai2ClockSelection);
 867:Drivers/STM32F7xx_HAL_Driver/Src/stm32f7xx_hal_rcc_ex.c **** 
 868:Drivers/STM32F7xx_HAL_Driver/Src/stm32f7xx_hal_rcc_ex.c ****     /* Enable the PLLI2S when it's used as clock source for SAI */
 869:Drivers/STM32F7xx_HAL_Driver/Src/stm32f7xx_hal_rcc_ex.c ****     if(PeriphClkInit->Sai2ClockSelection == RCC_SAI2CLKSOURCE_PLLI2S)
 870:Drivers/STM32F7xx_HAL_Driver/Src/stm32f7xx_hal_rcc_ex.c ****     {
 871:Drivers/STM32F7xx_HAL_Driver/Src/stm32f7xx_hal_rcc_ex.c ****       plli2sused = 1;
 872:Drivers/STM32F7xx_HAL_Driver/Src/stm32f7xx_hal_rcc_ex.c ****     }
 873:Drivers/STM32F7xx_HAL_Driver/Src/stm32f7xx_hal_rcc_ex.c ****     /* Enable the PLLSAI when it's used as clock source for SAI */
 874:Drivers/STM32F7xx_HAL_Driver/Src/stm32f7xx_hal_rcc_ex.c ****     if(PeriphClkInit->Sai2ClockSelection == RCC_SAI2CLKSOURCE_PLLSAI)
 875:Drivers/STM32F7xx_HAL_Driver/Src/stm32f7xx_hal_rcc_ex.c ****     {
 876:Drivers/STM32F7xx_HAL_Driver/Src/stm32f7xx_hal_rcc_ex.c ****       pllsaiused = 1;
 877:Drivers/STM32F7xx_HAL_Driver/Src/stm32f7xx_hal_rcc_ex.c ****     }
 878:Drivers/STM32F7xx_HAL_Driver/Src/stm32f7xx_hal_rcc_ex.c ****   }
 879:Drivers/STM32F7xx_HAL_Driver/Src/stm32f7xx_hal_rcc_ex.c **** 
 880:Drivers/STM32F7xx_HAL_Driver/Src/stm32f7xx_hal_rcc_ex.c ****   /*------------------------------------ RTC configuration --------------------------------------*/
 881:Drivers/STM32F7xx_HAL_Driver/Src/stm32f7xx_hal_rcc_ex.c ****   if(((PeriphClkInit->PeriphClockSelection) & RCC_PERIPHCLK_RTC) == (RCC_PERIPHCLK_RTC))
 882:Drivers/STM32F7xx_HAL_Driver/Src/stm32f7xx_hal_rcc_ex.c ****   {
 883:Drivers/STM32F7xx_HAL_Driver/Src/stm32f7xx_hal_rcc_ex.c ****     /* Check for RTC Parameters used to output RTCCLK */
 884:Drivers/STM32F7xx_HAL_Driver/Src/stm32f7xx_hal_rcc_ex.c ****     assert_param(IS_RCC_RTCCLKSOURCE(PeriphClkInit->RTCClockSelection));
 885:Drivers/STM32F7xx_HAL_Driver/Src/stm32f7xx_hal_rcc_ex.c **** 
 886:Drivers/STM32F7xx_HAL_Driver/Src/stm32f7xx_hal_rcc_ex.c ****     /* Enable Power Clock*/
 887:Drivers/STM32F7xx_HAL_Driver/Src/stm32f7xx_hal_rcc_ex.c ****     __HAL_RCC_PWR_CLK_ENABLE();
 888:Drivers/STM32F7xx_HAL_Driver/Src/stm32f7xx_hal_rcc_ex.c **** 
 889:Drivers/STM32F7xx_HAL_Driver/Src/stm32f7xx_hal_rcc_ex.c ****     /* Enable write access to Backup domain */
 890:Drivers/STM32F7xx_HAL_Driver/Src/stm32f7xx_hal_rcc_ex.c ****     PWR->CR1 |= PWR_CR1_DBP;
 891:Drivers/STM32F7xx_HAL_Driver/Src/stm32f7xx_hal_rcc_ex.c **** 
 892:Drivers/STM32F7xx_HAL_Driver/Src/stm32f7xx_hal_rcc_ex.c ****     /* Get Start Tick*/
 893:Drivers/STM32F7xx_HAL_Driver/Src/stm32f7xx_hal_rcc_ex.c ****     tickstart = HAL_GetTick();
 894:Drivers/STM32F7xx_HAL_Driver/Src/stm32f7xx_hal_rcc_ex.c **** 
 895:Drivers/STM32F7xx_HAL_Driver/Src/stm32f7xx_hal_rcc_ex.c ****     /* Wait for Backup domain Write protection disable */
 896:Drivers/STM32F7xx_HAL_Driver/Src/stm32f7xx_hal_rcc_ex.c ****     while((PWR->CR1 & PWR_CR1_DBP) == RESET)
 897:Drivers/STM32F7xx_HAL_Driver/Src/stm32f7xx_hal_rcc_ex.c ****     {
 898:Drivers/STM32F7xx_HAL_Driver/Src/stm32f7xx_hal_rcc_ex.c ****       if((HAL_GetTick() - tickstart) > RCC_DBP_TIMEOUT_VALUE)
 899:Drivers/STM32F7xx_HAL_Driver/Src/stm32f7xx_hal_rcc_ex.c ****       {
 900:Drivers/STM32F7xx_HAL_Driver/Src/stm32f7xx_hal_rcc_ex.c ****         return HAL_TIMEOUT;
 901:Drivers/STM32F7xx_HAL_Driver/Src/stm32f7xx_hal_rcc_ex.c ****       }
 902:Drivers/STM32F7xx_HAL_Driver/Src/stm32f7xx_hal_rcc_ex.c ****     }
 903:Drivers/STM32F7xx_HAL_Driver/Src/stm32f7xx_hal_rcc_ex.c **** 
 904:Drivers/STM32F7xx_HAL_Driver/Src/stm32f7xx_hal_rcc_ex.c ****     /* Reset the Backup domain only if the RTC Clock source selection is modified */
 905:Drivers/STM32F7xx_HAL_Driver/Src/stm32f7xx_hal_rcc_ex.c ****     tmpreg0 = (RCC->BDCR & RCC_BDCR_RTCSEL);
 906:Drivers/STM32F7xx_HAL_Driver/Src/stm32f7xx_hal_rcc_ex.c **** 
 907:Drivers/STM32F7xx_HAL_Driver/Src/stm32f7xx_hal_rcc_ex.c ****     if((tmpreg0 != 0x00000000U) && (tmpreg0 != (PeriphClkInit->RTCClockSelection & RCC_BDCR_RTCSEL)
 908:Drivers/STM32F7xx_HAL_Driver/Src/stm32f7xx_hal_rcc_ex.c ****     {
 909:Drivers/STM32F7xx_HAL_Driver/Src/stm32f7xx_hal_rcc_ex.c ****       /* Store the content of BDCR register before the reset of Backup Domain */
 910:Drivers/STM32F7xx_HAL_Driver/Src/stm32f7xx_hal_rcc_ex.c ****       tmpreg0 = (RCC->BDCR & ~(RCC_BDCR_RTCSEL));
 911:Drivers/STM32F7xx_HAL_Driver/Src/stm32f7xx_hal_rcc_ex.c **** 
 912:Drivers/STM32F7xx_HAL_Driver/Src/stm32f7xx_hal_rcc_ex.c ****       /* RTC Clock selection can be changed only if the Backup Domain is reset */
 913:Drivers/STM32F7xx_HAL_Driver/Src/stm32f7xx_hal_rcc_ex.c ****       __HAL_RCC_BACKUPRESET_FORCE();
ARM GAS  C:\Users\arist\AppData\Local\Temp\ccTacmMD.s 			page 43


 914:Drivers/STM32F7xx_HAL_Driver/Src/stm32f7xx_hal_rcc_ex.c ****       __HAL_RCC_BACKUPRESET_RELEASE();
 915:Drivers/STM32F7xx_HAL_Driver/Src/stm32f7xx_hal_rcc_ex.c **** 
 916:Drivers/STM32F7xx_HAL_Driver/Src/stm32f7xx_hal_rcc_ex.c ****       /* Restore the Content of BDCR register */
 917:Drivers/STM32F7xx_HAL_Driver/Src/stm32f7xx_hal_rcc_ex.c ****       RCC->BDCR = tmpreg0;
 918:Drivers/STM32F7xx_HAL_Driver/Src/stm32f7xx_hal_rcc_ex.c **** 
 919:Drivers/STM32F7xx_HAL_Driver/Src/stm32f7xx_hal_rcc_ex.c ****       /* Wait for LSE reactivation if LSE was enable prior to Backup Domain reset */
 920:Drivers/STM32F7xx_HAL_Driver/Src/stm32f7xx_hal_rcc_ex.c ****       if (HAL_IS_BIT_SET(RCC->BDCR, RCC_BDCR_LSEON))
 921:Drivers/STM32F7xx_HAL_Driver/Src/stm32f7xx_hal_rcc_ex.c ****       {
 922:Drivers/STM32F7xx_HAL_Driver/Src/stm32f7xx_hal_rcc_ex.c ****         /* Get Start Tick*/
 923:Drivers/STM32F7xx_HAL_Driver/Src/stm32f7xx_hal_rcc_ex.c ****         tickstart = HAL_GetTick();
 924:Drivers/STM32F7xx_HAL_Driver/Src/stm32f7xx_hal_rcc_ex.c **** 
 925:Drivers/STM32F7xx_HAL_Driver/Src/stm32f7xx_hal_rcc_ex.c ****         /* Wait till LSE is ready */
 926:Drivers/STM32F7xx_HAL_Driver/Src/stm32f7xx_hal_rcc_ex.c ****         while(__HAL_RCC_GET_FLAG(RCC_FLAG_LSERDY) == RESET)
 927:Drivers/STM32F7xx_HAL_Driver/Src/stm32f7xx_hal_rcc_ex.c ****         {
 928:Drivers/STM32F7xx_HAL_Driver/Src/stm32f7xx_hal_rcc_ex.c ****           if((HAL_GetTick() - tickstart ) > RCC_LSE_TIMEOUT_VALUE)
 929:Drivers/STM32F7xx_HAL_Driver/Src/stm32f7xx_hal_rcc_ex.c ****           {
 930:Drivers/STM32F7xx_HAL_Driver/Src/stm32f7xx_hal_rcc_ex.c ****             return HAL_TIMEOUT;
 931:Drivers/STM32F7xx_HAL_Driver/Src/stm32f7xx_hal_rcc_ex.c ****           }
 932:Drivers/STM32F7xx_HAL_Driver/Src/stm32f7xx_hal_rcc_ex.c ****         }
 933:Drivers/STM32F7xx_HAL_Driver/Src/stm32f7xx_hal_rcc_ex.c ****       }
 934:Drivers/STM32F7xx_HAL_Driver/Src/stm32f7xx_hal_rcc_ex.c ****     }
 935:Drivers/STM32F7xx_HAL_Driver/Src/stm32f7xx_hal_rcc_ex.c ****     __HAL_RCC_RTC_CONFIG(PeriphClkInit->RTCClockSelection);
 936:Drivers/STM32F7xx_HAL_Driver/Src/stm32f7xx_hal_rcc_ex.c ****   }
 937:Drivers/STM32F7xx_HAL_Driver/Src/stm32f7xx_hal_rcc_ex.c **** 
 938:Drivers/STM32F7xx_HAL_Driver/Src/stm32f7xx_hal_rcc_ex.c ****   /*------------------------------------ TIM configuration --------------------------------------*/
 939:Drivers/STM32F7xx_HAL_Driver/Src/stm32f7xx_hal_rcc_ex.c ****   if(((PeriphClkInit->PeriphClockSelection) & RCC_PERIPHCLK_TIM) == (RCC_PERIPHCLK_TIM))
 940:Drivers/STM32F7xx_HAL_Driver/Src/stm32f7xx_hal_rcc_ex.c ****   {
 941:Drivers/STM32F7xx_HAL_Driver/Src/stm32f7xx_hal_rcc_ex.c ****     /* Check the parameters */
 942:Drivers/STM32F7xx_HAL_Driver/Src/stm32f7xx_hal_rcc_ex.c ****     assert_param(IS_RCC_TIMPRES(PeriphClkInit->TIMPresSelection));
 943:Drivers/STM32F7xx_HAL_Driver/Src/stm32f7xx_hal_rcc_ex.c **** 
 944:Drivers/STM32F7xx_HAL_Driver/Src/stm32f7xx_hal_rcc_ex.c ****     /* Configure Timer Prescaler */
 945:Drivers/STM32F7xx_HAL_Driver/Src/stm32f7xx_hal_rcc_ex.c ****     __HAL_RCC_TIMCLKPRESCALER(PeriphClkInit->TIMPresSelection);
 946:Drivers/STM32F7xx_HAL_Driver/Src/stm32f7xx_hal_rcc_ex.c ****   }
 947:Drivers/STM32F7xx_HAL_Driver/Src/stm32f7xx_hal_rcc_ex.c **** 
 948:Drivers/STM32F7xx_HAL_Driver/Src/stm32f7xx_hal_rcc_ex.c ****   /*-------------------------------------- I2C1 Configuration -----------------------------------*/
 949:Drivers/STM32F7xx_HAL_Driver/Src/stm32f7xx_hal_rcc_ex.c ****   if(((PeriphClkInit->PeriphClockSelection) & RCC_PERIPHCLK_I2C1) == RCC_PERIPHCLK_I2C1)
 950:Drivers/STM32F7xx_HAL_Driver/Src/stm32f7xx_hal_rcc_ex.c ****   {
 951:Drivers/STM32F7xx_HAL_Driver/Src/stm32f7xx_hal_rcc_ex.c ****     /* Check the parameters */
 952:Drivers/STM32F7xx_HAL_Driver/Src/stm32f7xx_hal_rcc_ex.c ****     assert_param(IS_RCC_I2C1CLKSOURCE(PeriphClkInit->I2c1ClockSelection));
 953:Drivers/STM32F7xx_HAL_Driver/Src/stm32f7xx_hal_rcc_ex.c **** 
 954:Drivers/STM32F7xx_HAL_Driver/Src/stm32f7xx_hal_rcc_ex.c ****     /* Configure the I2C1 clock source */
 955:Drivers/STM32F7xx_HAL_Driver/Src/stm32f7xx_hal_rcc_ex.c ****     __HAL_RCC_I2C1_CONFIG(PeriphClkInit->I2c1ClockSelection);
 956:Drivers/STM32F7xx_HAL_Driver/Src/stm32f7xx_hal_rcc_ex.c ****   }
 957:Drivers/STM32F7xx_HAL_Driver/Src/stm32f7xx_hal_rcc_ex.c **** 
 958:Drivers/STM32F7xx_HAL_Driver/Src/stm32f7xx_hal_rcc_ex.c ****   /*-------------------------------------- I2C2 Configuration -----------------------------------*/
 959:Drivers/STM32F7xx_HAL_Driver/Src/stm32f7xx_hal_rcc_ex.c ****   if(((PeriphClkInit->PeriphClockSelection) & RCC_PERIPHCLK_I2C2) == RCC_PERIPHCLK_I2C2)
 960:Drivers/STM32F7xx_HAL_Driver/Src/stm32f7xx_hal_rcc_ex.c ****   {
 961:Drivers/STM32F7xx_HAL_Driver/Src/stm32f7xx_hal_rcc_ex.c ****     /* Check the parameters */
 962:Drivers/STM32F7xx_HAL_Driver/Src/stm32f7xx_hal_rcc_ex.c ****     assert_param(IS_RCC_I2C2CLKSOURCE(PeriphClkInit->I2c2ClockSelection));
 963:Drivers/STM32F7xx_HAL_Driver/Src/stm32f7xx_hal_rcc_ex.c **** 
 964:Drivers/STM32F7xx_HAL_Driver/Src/stm32f7xx_hal_rcc_ex.c ****     /* Configure the I2C2 clock source */
 965:Drivers/STM32F7xx_HAL_Driver/Src/stm32f7xx_hal_rcc_ex.c ****     __HAL_RCC_I2C2_CONFIG(PeriphClkInit->I2c2ClockSelection);
 966:Drivers/STM32F7xx_HAL_Driver/Src/stm32f7xx_hal_rcc_ex.c ****   }
 967:Drivers/STM32F7xx_HAL_Driver/Src/stm32f7xx_hal_rcc_ex.c **** 
 968:Drivers/STM32F7xx_HAL_Driver/Src/stm32f7xx_hal_rcc_ex.c ****   /*-------------------------------------- I2C3 Configuration -----------------------------------*/
 969:Drivers/STM32F7xx_HAL_Driver/Src/stm32f7xx_hal_rcc_ex.c ****   if(((PeriphClkInit->PeriphClockSelection) & RCC_PERIPHCLK_I2C3) == RCC_PERIPHCLK_I2C3)
 970:Drivers/STM32F7xx_HAL_Driver/Src/stm32f7xx_hal_rcc_ex.c ****   {
ARM GAS  C:\Users\arist\AppData\Local\Temp\ccTacmMD.s 			page 44


 971:Drivers/STM32F7xx_HAL_Driver/Src/stm32f7xx_hal_rcc_ex.c ****     /* Check the parameters */
 972:Drivers/STM32F7xx_HAL_Driver/Src/stm32f7xx_hal_rcc_ex.c ****     assert_param(IS_RCC_I2C3CLKSOURCE(PeriphClkInit->I2c3ClockSelection));
 973:Drivers/STM32F7xx_HAL_Driver/Src/stm32f7xx_hal_rcc_ex.c **** 
 974:Drivers/STM32F7xx_HAL_Driver/Src/stm32f7xx_hal_rcc_ex.c ****     /* Configure the I2C3 clock source */
 975:Drivers/STM32F7xx_HAL_Driver/Src/stm32f7xx_hal_rcc_ex.c ****     __HAL_RCC_I2C3_CONFIG(PeriphClkInit->I2c3ClockSelection);
 976:Drivers/STM32F7xx_HAL_Driver/Src/stm32f7xx_hal_rcc_ex.c ****   }
 977:Drivers/STM32F7xx_HAL_Driver/Src/stm32f7xx_hal_rcc_ex.c **** 
 978:Drivers/STM32F7xx_HAL_Driver/Src/stm32f7xx_hal_rcc_ex.c ****   /*-------------------------------------- USART1 Configuration -----------------------------------
 979:Drivers/STM32F7xx_HAL_Driver/Src/stm32f7xx_hal_rcc_ex.c ****   if(((PeriphClkInit->PeriphClockSelection) & RCC_PERIPHCLK_USART1) == RCC_PERIPHCLK_USART1)
 980:Drivers/STM32F7xx_HAL_Driver/Src/stm32f7xx_hal_rcc_ex.c ****   {
 981:Drivers/STM32F7xx_HAL_Driver/Src/stm32f7xx_hal_rcc_ex.c ****     /* Check the parameters */
 982:Drivers/STM32F7xx_HAL_Driver/Src/stm32f7xx_hal_rcc_ex.c ****     assert_param(IS_RCC_USART1CLKSOURCE(PeriphClkInit->Usart1ClockSelection));
 983:Drivers/STM32F7xx_HAL_Driver/Src/stm32f7xx_hal_rcc_ex.c **** 
 984:Drivers/STM32F7xx_HAL_Driver/Src/stm32f7xx_hal_rcc_ex.c ****     /* Configure the USART1 clock source */
 985:Drivers/STM32F7xx_HAL_Driver/Src/stm32f7xx_hal_rcc_ex.c ****     __HAL_RCC_USART1_CONFIG(PeriphClkInit->Usart1ClockSelection);
 986:Drivers/STM32F7xx_HAL_Driver/Src/stm32f7xx_hal_rcc_ex.c ****   }
 987:Drivers/STM32F7xx_HAL_Driver/Src/stm32f7xx_hal_rcc_ex.c **** 
 988:Drivers/STM32F7xx_HAL_Driver/Src/stm32f7xx_hal_rcc_ex.c ****   /*-------------------------------------- USART2 Configuration -----------------------------------
 989:Drivers/STM32F7xx_HAL_Driver/Src/stm32f7xx_hal_rcc_ex.c ****   if(((PeriphClkInit->PeriphClockSelection) & RCC_PERIPHCLK_USART2) == RCC_PERIPHCLK_USART2)
 990:Drivers/STM32F7xx_HAL_Driver/Src/stm32f7xx_hal_rcc_ex.c ****   {
 991:Drivers/STM32F7xx_HAL_Driver/Src/stm32f7xx_hal_rcc_ex.c ****     /* Check the parameters */
 992:Drivers/STM32F7xx_HAL_Driver/Src/stm32f7xx_hal_rcc_ex.c ****     assert_param(IS_RCC_USART2CLKSOURCE(PeriphClkInit->Usart2ClockSelection));
 993:Drivers/STM32F7xx_HAL_Driver/Src/stm32f7xx_hal_rcc_ex.c **** 
 994:Drivers/STM32F7xx_HAL_Driver/Src/stm32f7xx_hal_rcc_ex.c ****     /* Configure the USART2 clock source */
 995:Drivers/STM32F7xx_HAL_Driver/Src/stm32f7xx_hal_rcc_ex.c ****     __HAL_RCC_USART2_CONFIG(PeriphClkInit->Usart2ClockSelection);
 996:Drivers/STM32F7xx_HAL_Driver/Src/stm32f7xx_hal_rcc_ex.c ****   }
 997:Drivers/STM32F7xx_HAL_Driver/Src/stm32f7xx_hal_rcc_ex.c **** 
 998:Drivers/STM32F7xx_HAL_Driver/Src/stm32f7xx_hal_rcc_ex.c ****   /*-------------------------------------- USART3 Configuration -----------------------------------
 999:Drivers/STM32F7xx_HAL_Driver/Src/stm32f7xx_hal_rcc_ex.c ****   if(((PeriphClkInit->PeriphClockSelection) & RCC_PERIPHCLK_USART3) == RCC_PERIPHCLK_USART3)
1000:Drivers/STM32F7xx_HAL_Driver/Src/stm32f7xx_hal_rcc_ex.c ****   {
1001:Drivers/STM32F7xx_HAL_Driver/Src/stm32f7xx_hal_rcc_ex.c ****     /* Check the parameters */
1002:Drivers/STM32F7xx_HAL_Driver/Src/stm32f7xx_hal_rcc_ex.c ****     assert_param(IS_RCC_USART3CLKSOURCE(PeriphClkInit->Usart3ClockSelection));
1003:Drivers/STM32F7xx_HAL_Driver/Src/stm32f7xx_hal_rcc_ex.c **** 
1004:Drivers/STM32F7xx_HAL_Driver/Src/stm32f7xx_hal_rcc_ex.c ****     /* Configure the USART3 clock source */
1005:Drivers/STM32F7xx_HAL_Driver/Src/stm32f7xx_hal_rcc_ex.c ****     __HAL_RCC_USART3_CONFIG(PeriphClkInit->Usart3ClockSelection);
1006:Drivers/STM32F7xx_HAL_Driver/Src/stm32f7xx_hal_rcc_ex.c ****   }
1007:Drivers/STM32F7xx_HAL_Driver/Src/stm32f7xx_hal_rcc_ex.c **** 
1008:Drivers/STM32F7xx_HAL_Driver/Src/stm32f7xx_hal_rcc_ex.c ****   /*-------------------------------------- UART4 Configuration -----------------------------------*
1009:Drivers/STM32F7xx_HAL_Driver/Src/stm32f7xx_hal_rcc_ex.c ****   if(((PeriphClkInit->PeriphClockSelection) & RCC_PERIPHCLK_UART4) == RCC_PERIPHCLK_UART4)
1010:Drivers/STM32F7xx_HAL_Driver/Src/stm32f7xx_hal_rcc_ex.c ****   {
1011:Drivers/STM32F7xx_HAL_Driver/Src/stm32f7xx_hal_rcc_ex.c ****     /* Check the parameters */
1012:Drivers/STM32F7xx_HAL_Driver/Src/stm32f7xx_hal_rcc_ex.c ****     assert_param(IS_RCC_UART4CLKSOURCE(PeriphClkInit->Uart4ClockSelection));
1013:Drivers/STM32F7xx_HAL_Driver/Src/stm32f7xx_hal_rcc_ex.c **** 
1014:Drivers/STM32F7xx_HAL_Driver/Src/stm32f7xx_hal_rcc_ex.c ****     /* Configure the UART4 clock source */
1015:Drivers/STM32F7xx_HAL_Driver/Src/stm32f7xx_hal_rcc_ex.c ****     __HAL_RCC_UART4_CONFIG(PeriphClkInit->Uart4ClockSelection);
1016:Drivers/STM32F7xx_HAL_Driver/Src/stm32f7xx_hal_rcc_ex.c ****   }
1017:Drivers/STM32F7xx_HAL_Driver/Src/stm32f7xx_hal_rcc_ex.c **** 
1018:Drivers/STM32F7xx_HAL_Driver/Src/stm32f7xx_hal_rcc_ex.c ****   /*-------------------------------------- UART5 Configuration -----------------------------------*
1019:Drivers/STM32F7xx_HAL_Driver/Src/stm32f7xx_hal_rcc_ex.c ****   if(((PeriphClkInit->PeriphClockSelection) & RCC_PERIPHCLK_UART5) == RCC_PERIPHCLK_UART5)
1020:Drivers/STM32F7xx_HAL_Driver/Src/stm32f7xx_hal_rcc_ex.c ****   {
1021:Drivers/STM32F7xx_HAL_Driver/Src/stm32f7xx_hal_rcc_ex.c ****     /* Check the parameters */
1022:Drivers/STM32F7xx_HAL_Driver/Src/stm32f7xx_hal_rcc_ex.c ****     assert_param(IS_RCC_UART5CLKSOURCE(PeriphClkInit->Uart5ClockSelection));
1023:Drivers/STM32F7xx_HAL_Driver/Src/stm32f7xx_hal_rcc_ex.c **** 
1024:Drivers/STM32F7xx_HAL_Driver/Src/stm32f7xx_hal_rcc_ex.c ****     /* Configure the UART5 clock source */
1025:Drivers/STM32F7xx_HAL_Driver/Src/stm32f7xx_hal_rcc_ex.c ****     __HAL_RCC_UART5_CONFIG(PeriphClkInit->Uart5ClockSelection);
1026:Drivers/STM32F7xx_HAL_Driver/Src/stm32f7xx_hal_rcc_ex.c ****   }
1027:Drivers/STM32F7xx_HAL_Driver/Src/stm32f7xx_hal_rcc_ex.c **** 
ARM GAS  C:\Users\arist\AppData\Local\Temp\ccTacmMD.s 			page 45


1028:Drivers/STM32F7xx_HAL_Driver/Src/stm32f7xx_hal_rcc_ex.c ****   /*-------------------------------------- USART6 Configuration -----------------------------------
1029:Drivers/STM32F7xx_HAL_Driver/Src/stm32f7xx_hal_rcc_ex.c ****   if(((PeriphClkInit->PeriphClockSelection) & RCC_PERIPHCLK_USART6) == RCC_PERIPHCLK_USART6)
1030:Drivers/STM32F7xx_HAL_Driver/Src/stm32f7xx_hal_rcc_ex.c ****   {
1031:Drivers/STM32F7xx_HAL_Driver/Src/stm32f7xx_hal_rcc_ex.c ****     /* Check the parameters */
1032:Drivers/STM32F7xx_HAL_Driver/Src/stm32f7xx_hal_rcc_ex.c ****     assert_param(IS_RCC_USART6CLKSOURCE(PeriphClkInit->Usart6ClockSelection));
1033:Drivers/STM32F7xx_HAL_Driver/Src/stm32f7xx_hal_rcc_ex.c **** 
1034:Drivers/STM32F7xx_HAL_Driver/Src/stm32f7xx_hal_rcc_ex.c ****     /* Configure the USART6 clock source */
1035:Drivers/STM32F7xx_HAL_Driver/Src/stm32f7xx_hal_rcc_ex.c ****     __HAL_RCC_USART6_CONFIG(PeriphClkInit->Usart6ClockSelection);
1036:Drivers/STM32F7xx_HAL_Driver/Src/stm32f7xx_hal_rcc_ex.c ****   }
1037:Drivers/STM32F7xx_HAL_Driver/Src/stm32f7xx_hal_rcc_ex.c **** 
1038:Drivers/STM32F7xx_HAL_Driver/Src/stm32f7xx_hal_rcc_ex.c ****   /*-------------------------------------- UART7 Configuration -----------------------------------*
1039:Drivers/STM32F7xx_HAL_Driver/Src/stm32f7xx_hal_rcc_ex.c ****   if(((PeriphClkInit->PeriphClockSelection) & RCC_PERIPHCLK_UART7) == RCC_PERIPHCLK_UART7)
1040:Drivers/STM32F7xx_HAL_Driver/Src/stm32f7xx_hal_rcc_ex.c ****   {
1041:Drivers/STM32F7xx_HAL_Driver/Src/stm32f7xx_hal_rcc_ex.c ****     /* Check the parameters */
1042:Drivers/STM32F7xx_HAL_Driver/Src/stm32f7xx_hal_rcc_ex.c ****     assert_param(IS_RCC_UART7CLKSOURCE(PeriphClkInit->Uart7ClockSelection));
1043:Drivers/STM32F7xx_HAL_Driver/Src/stm32f7xx_hal_rcc_ex.c **** 
1044:Drivers/STM32F7xx_HAL_Driver/Src/stm32f7xx_hal_rcc_ex.c ****     /* Configure the UART7 clock source */
1045:Drivers/STM32F7xx_HAL_Driver/Src/stm32f7xx_hal_rcc_ex.c ****     __HAL_RCC_UART7_CONFIG(PeriphClkInit->Uart7ClockSelection);
1046:Drivers/STM32F7xx_HAL_Driver/Src/stm32f7xx_hal_rcc_ex.c ****   }
1047:Drivers/STM32F7xx_HAL_Driver/Src/stm32f7xx_hal_rcc_ex.c **** 
1048:Drivers/STM32F7xx_HAL_Driver/Src/stm32f7xx_hal_rcc_ex.c ****   /*-------------------------------------- UART8 Configuration -----------------------------------*
1049:Drivers/STM32F7xx_HAL_Driver/Src/stm32f7xx_hal_rcc_ex.c ****   if(((PeriphClkInit->PeriphClockSelection) & RCC_PERIPHCLK_UART8) == RCC_PERIPHCLK_UART8)
1050:Drivers/STM32F7xx_HAL_Driver/Src/stm32f7xx_hal_rcc_ex.c ****   {
1051:Drivers/STM32F7xx_HAL_Driver/Src/stm32f7xx_hal_rcc_ex.c ****     /* Check the parameters */
1052:Drivers/STM32F7xx_HAL_Driver/Src/stm32f7xx_hal_rcc_ex.c ****     assert_param(IS_RCC_UART8CLKSOURCE(PeriphClkInit->Uart8ClockSelection));
1053:Drivers/STM32F7xx_HAL_Driver/Src/stm32f7xx_hal_rcc_ex.c **** 
1054:Drivers/STM32F7xx_HAL_Driver/Src/stm32f7xx_hal_rcc_ex.c ****     /* Configure the UART8 clock source */
1055:Drivers/STM32F7xx_HAL_Driver/Src/stm32f7xx_hal_rcc_ex.c ****     __HAL_RCC_UART8_CONFIG(PeriphClkInit->Uart8ClockSelection);
1056:Drivers/STM32F7xx_HAL_Driver/Src/stm32f7xx_hal_rcc_ex.c ****   }
1057:Drivers/STM32F7xx_HAL_Driver/Src/stm32f7xx_hal_rcc_ex.c **** 
1058:Drivers/STM32F7xx_HAL_Driver/Src/stm32f7xx_hal_rcc_ex.c ****   /*-------------------------------------- CK48 Configuration -----------------------------------*/
1059:Drivers/STM32F7xx_HAL_Driver/Src/stm32f7xx_hal_rcc_ex.c ****   if(((PeriphClkInit->PeriphClockSelection) & RCC_PERIPHCLK_CLK48) == RCC_PERIPHCLK_CLK48)
1060:Drivers/STM32F7xx_HAL_Driver/Src/stm32f7xx_hal_rcc_ex.c ****   {
1061:Drivers/STM32F7xx_HAL_Driver/Src/stm32f7xx_hal_rcc_ex.c ****     /* Check the parameters */
1062:Drivers/STM32F7xx_HAL_Driver/Src/stm32f7xx_hal_rcc_ex.c ****     assert_param(IS_RCC_CLK48SOURCE(PeriphClkInit->Clk48ClockSelection));
1063:Drivers/STM32F7xx_HAL_Driver/Src/stm32f7xx_hal_rcc_ex.c **** 
1064:Drivers/STM32F7xx_HAL_Driver/Src/stm32f7xx_hal_rcc_ex.c ****     /* Configure the CLK48 source */
1065:Drivers/STM32F7xx_HAL_Driver/Src/stm32f7xx_hal_rcc_ex.c ****     __HAL_RCC_CLK48_CONFIG(PeriphClkInit->Clk48ClockSelection);
1066:Drivers/STM32F7xx_HAL_Driver/Src/stm32f7xx_hal_rcc_ex.c **** 
1067:Drivers/STM32F7xx_HAL_Driver/Src/stm32f7xx_hal_rcc_ex.c ****     /* Enable the PLLSAI when it's used as clock source for CK48 */
1068:Drivers/STM32F7xx_HAL_Driver/Src/stm32f7xx_hal_rcc_ex.c ****     if(PeriphClkInit->Clk48ClockSelection == RCC_CLK48SOURCE_PLLSAIP)
1069:Drivers/STM32F7xx_HAL_Driver/Src/stm32f7xx_hal_rcc_ex.c ****     {
1070:Drivers/STM32F7xx_HAL_Driver/Src/stm32f7xx_hal_rcc_ex.c ****       pllsaiused = 1;
1071:Drivers/STM32F7xx_HAL_Driver/Src/stm32f7xx_hal_rcc_ex.c ****     }
1072:Drivers/STM32F7xx_HAL_Driver/Src/stm32f7xx_hal_rcc_ex.c ****   }
1073:Drivers/STM32F7xx_HAL_Driver/Src/stm32f7xx_hal_rcc_ex.c **** 
1074:Drivers/STM32F7xx_HAL_Driver/Src/stm32f7xx_hal_rcc_ex.c ****   /*-------------------------------------- LPTIM1 Configuration -----------------------------------
1075:Drivers/STM32F7xx_HAL_Driver/Src/stm32f7xx_hal_rcc_ex.c ****   if(((PeriphClkInit->PeriphClockSelection) & RCC_PERIPHCLK_LPTIM1) == RCC_PERIPHCLK_LPTIM1)
1076:Drivers/STM32F7xx_HAL_Driver/Src/stm32f7xx_hal_rcc_ex.c ****   {
1077:Drivers/STM32F7xx_HAL_Driver/Src/stm32f7xx_hal_rcc_ex.c ****     /* Check the parameters */
1078:Drivers/STM32F7xx_HAL_Driver/Src/stm32f7xx_hal_rcc_ex.c ****     assert_param(IS_RCC_LPTIM1CLK(PeriphClkInit->Lptim1ClockSelection));
1079:Drivers/STM32F7xx_HAL_Driver/Src/stm32f7xx_hal_rcc_ex.c **** 
1080:Drivers/STM32F7xx_HAL_Driver/Src/stm32f7xx_hal_rcc_ex.c ****     /* Configure the LTPIM1 clock source */
1081:Drivers/STM32F7xx_HAL_Driver/Src/stm32f7xx_hal_rcc_ex.c ****     __HAL_RCC_LPTIM1_CONFIG(PeriphClkInit->Lptim1ClockSelection);
1082:Drivers/STM32F7xx_HAL_Driver/Src/stm32f7xx_hal_rcc_ex.c ****    }
1083:Drivers/STM32F7xx_HAL_Driver/Src/stm32f7xx_hal_rcc_ex.c **** 
1084:Drivers/STM32F7xx_HAL_Driver/Src/stm32f7xx_hal_rcc_ex.c ****   /*------------------------------------- SDMMC1 Configuration ------------------------------------
ARM GAS  C:\Users\arist\AppData\Local\Temp\ccTacmMD.s 			page 46


1085:Drivers/STM32F7xx_HAL_Driver/Src/stm32f7xx_hal_rcc_ex.c ****   if(((PeriphClkInit->PeriphClockSelection) & RCC_PERIPHCLK_SDMMC1) == RCC_PERIPHCLK_SDMMC1)
1086:Drivers/STM32F7xx_HAL_Driver/Src/stm32f7xx_hal_rcc_ex.c ****   {
1087:Drivers/STM32F7xx_HAL_Driver/Src/stm32f7xx_hal_rcc_ex.c ****     /* Check the parameters */
1088:Drivers/STM32F7xx_HAL_Driver/Src/stm32f7xx_hal_rcc_ex.c ****     assert_param(IS_RCC_SDMMC1CLKSOURCE(PeriphClkInit->Sdmmc1ClockSelection));
1089:Drivers/STM32F7xx_HAL_Driver/Src/stm32f7xx_hal_rcc_ex.c **** 
1090:Drivers/STM32F7xx_HAL_Driver/Src/stm32f7xx_hal_rcc_ex.c ****     /* Configure the SDMMC1 clock source */
1091:Drivers/STM32F7xx_HAL_Driver/Src/stm32f7xx_hal_rcc_ex.c ****     __HAL_RCC_SDMMC1_CONFIG(PeriphClkInit->Sdmmc1ClockSelection);
1092:Drivers/STM32F7xx_HAL_Driver/Src/stm32f7xx_hal_rcc_ex.c ****   }
1093:Drivers/STM32F7xx_HAL_Driver/Src/stm32f7xx_hal_rcc_ex.c **** 
1094:Drivers/STM32F7xx_HAL_Driver/Src/stm32f7xx_hal_rcc_ex.c ****   /*------------------------------------- SDMMC2 Configuration ------------------------------------
1095:Drivers/STM32F7xx_HAL_Driver/Src/stm32f7xx_hal_rcc_ex.c ****   if(((PeriphClkInit->PeriphClockSelection) & RCC_PERIPHCLK_SDMMC2) == RCC_PERIPHCLK_SDMMC2)
1096:Drivers/STM32F7xx_HAL_Driver/Src/stm32f7xx_hal_rcc_ex.c ****   {
1097:Drivers/STM32F7xx_HAL_Driver/Src/stm32f7xx_hal_rcc_ex.c ****     /* Check the parameters */
1098:Drivers/STM32F7xx_HAL_Driver/Src/stm32f7xx_hal_rcc_ex.c ****     assert_param(IS_RCC_SDMMC2CLKSOURCE(PeriphClkInit->Sdmmc2ClockSelection));
1099:Drivers/STM32F7xx_HAL_Driver/Src/stm32f7xx_hal_rcc_ex.c **** 
1100:Drivers/STM32F7xx_HAL_Driver/Src/stm32f7xx_hal_rcc_ex.c ****     /* Configure the SDMMC2 clock source */
1101:Drivers/STM32F7xx_HAL_Driver/Src/stm32f7xx_hal_rcc_ex.c ****     __HAL_RCC_SDMMC2_CONFIG(PeriphClkInit->Sdmmc2ClockSelection);
1102:Drivers/STM32F7xx_HAL_Driver/Src/stm32f7xx_hal_rcc_ex.c ****   }
1103:Drivers/STM32F7xx_HAL_Driver/Src/stm32f7xx_hal_rcc_ex.c **** 
1104:Drivers/STM32F7xx_HAL_Driver/Src/stm32f7xx_hal_rcc_ex.c ****   /*-------------------------------------- PLLI2S Configuration ---------------------------------*/
1105:Drivers/STM32F7xx_HAL_Driver/Src/stm32f7xx_hal_rcc_ex.c ****   /* PLLI2S is configured when a peripheral will use it as source clock : SAI1, SAI2 or I2S */
1106:Drivers/STM32F7xx_HAL_Driver/Src/stm32f7xx_hal_rcc_ex.c ****   if((plli2sused == 1) || ((PeriphClkInit->PeriphClockSelection & RCC_PERIPHCLK_PLLI2S) == RCC_PERI
1107:Drivers/STM32F7xx_HAL_Driver/Src/stm32f7xx_hal_rcc_ex.c ****   {
1108:Drivers/STM32F7xx_HAL_Driver/Src/stm32f7xx_hal_rcc_ex.c ****     /* Disable the PLLI2S */
1109:Drivers/STM32F7xx_HAL_Driver/Src/stm32f7xx_hal_rcc_ex.c ****     __HAL_RCC_PLLI2S_DISABLE();
1110:Drivers/STM32F7xx_HAL_Driver/Src/stm32f7xx_hal_rcc_ex.c **** 
1111:Drivers/STM32F7xx_HAL_Driver/Src/stm32f7xx_hal_rcc_ex.c ****     /* Get Start Tick*/
1112:Drivers/STM32F7xx_HAL_Driver/Src/stm32f7xx_hal_rcc_ex.c ****     tickstart = HAL_GetTick();
1113:Drivers/STM32F7xx_HAL_Driver/Src/stm32f7xx_hal_rcc_ex.c **** 
1114:Drivers/STM32F7xx_HAL_Driver/Src/stm32f7xx_hal_rcc_ex.c ****     /* Wait till PLLI2S is disabled */
1115:Drivers/STM32F7xx_HAL_Driver/Src/stm32f7xx_hal_rcc_ex.c ****     while(__HAL_RCC_GET_FLAG(RCC_FLAG_PLLI2SRDY)  != RESET)
1116:Drivers/STM32F7xx_HAL_Driver/Src/stm32f7xx_hal_rcc_ex.c ****     {
1117:Drivers/STM32F7xx_HAL_Driver/Src/stm32f7xx_hal_rcc_ex.c ****       if((HAL_GetTick() - tickstart) > PLLI2S_TIMEOUT_VALUE)
1118:Drivers/STM32F7xx_HAL_Driver/Src/stm32f7xx_hal_rcc_ex.c ****       {
1119:Drivers/STM32F7xx_HAL_Driver/Src/stm32f7xx_hal_rcc_ex.c ****         /* return in case of Timeout detected */
1120:Drivers/STM32F7xx_HAL_Driver/Src/stm32f7xx_hal_rcc_ex.c ****         return HAL_TIMEOUT;
1121:Drivers/STM32F7xx_HAL_Driver/Src/stm32f7xx_hal_rcc_ex.c ****       }
1122:Drivers/STM32F7xx_HAL_Driver/Src/stm32f7xx_hal_rcc_ex.c ****     }
1123:Drivers/STM32F7xx_HAL_Driver/Src/stm32f7xx_hal_rcc_ex.c **** 
1124:Drivers/STM32F7xx_HAL_Driver/Src/stm32f7xx_hal_rcc_ex.c ****     /* check for common PLLI2S Parameters */
1125:Drivers/STM32F7xx_HAL_Driver/Src/stm32f7xx_hal_rcc_ex.c ****     assert_param(IS_RCC_PLLI2SN_VALUE(PeriphClkInit->PLLI2S.PLLI2SN));
1126:Drivers/STM32F7xx_HAL_Driver/Src/stm32f7xx_hal_rcc_ex.c **** 
1127:Drivers/STM32F7xx_HAL_Driver/Src/stm32f7xx_hal_rcc_ex.c ****     /*----------------- In Case of PLLI2S is selected as source clock for I2S -------------------*/
1128:Drivers/STM32F7xx_HAL_Driver/Src/stm32f7xx_hal_rcc_ex.c ****     if(((((PeriphClkInit->PeriphClockSelection) & RCC_PERIPHCLK_I2S) == RCC_PERIPHCLK_I2S) && (Peri
1129:Drivers/STM32F7xx_HAL_Driver/Src/stm32f7xx_hal_rcc_ex.c ****     {
1130:Drivers/STM32F7xx_HAL_Driver/Src/stm32f7xx_hal_rcc_ex.c ****       /* check for Parameters */
1131:Drivers/STM32F7xx_HAL_Driver/Src/stm32f7xx_hal_rcc_ex.c ****       assert_param(IS_RCC_PLLI2SR_VALUE(PeriphClkInit->PLLI2S.PLLI2SR));
1132:Drivers/STM32F7xx_HAL_Driver/Src/stm32f7xx_hal_rcc_ex.c **** 
1133:Drivers/STM32F7xx_HAL_Driver/Src/stm32f7xx_hal_rcc_ex.c ****       /* Read PLLI2SQ value from PLLI2SCFGR register (this value is not needed for I2S configuratio
1134:Drivers/STM32F7xx_HAL_Driver/Src/stm32f7xx_hal_rcc_ex.c ****       tmpreg0 = ((RCC->PLLI2SCFGR & RCC_PLLI2SCFGR_PLLI2SQ) >> RCC_PLLI2SCFGR_PLLI2SQ_Pos);
1135:Drivers/STM32F7xx_HAL_Driver/Src/stm32f7xx_hal_rcc_ex.c ****       /* Configure the PLLI2S division factors */
1136:Drivers/STM32F7xx_HAL_Driver/Src/stm32f7xx_hal_rcc_ex.c ****       /* PLLI2S_VCO = f(VCO clock) = f(PLLI2S clock input) x (PLLI2SN/PLLM) */
1137:Drivers/STM32F7xx_HAL_Driver/Src/stm32f7xx_hal_rcc_ex.c ****       /* I2SCLK = f(PLLI2S clock output) = f(VCO clock) / PLLI2SR */
1138:Drivers/STM32F7xx_HAL_Driver/Src/stm32f7xx_hal_rcc_ex.c ****       __HAL_RCC_PLLI2S_CONFIG(PeriphClkInit->PLLI2S.PLLI2SN , tmpreg0, PeriphClkInit->PLLI2S.PLLI2S
1139:Drivers/STM32F7xx_HAL_Driver/Src/stm32f7xx_hal_rcc_ex.c ****     }
1140:Drivers/STM32F7xx_HAL_Driver/Src/stm32f7xx_hal_rcc_ex.c **** 
1141:Drivers/STM32F7xx_HAL_Driver/Src/stm32f7xx_hal_rcc_ex.c ****     /*----------------- In Case of PLLI2S is selected as source clock for SAI -------------------*/
ARM GAS  C:\Users\arist\AppData\Local\Temp\ccTacmMD.s 			page 47


1142:Drivers/STM32F7xx_HAL_Driver/Src/stm32f7xx_hal_rcc_ex.c ****     if(((((PeriphClkInit->PeriphClockSelection) & RCC_PERIPHCLK_SAI1) == RCC_PERIPHCLK_SAI1) && (Pe
1143:Drivers/STM32F7xx_HAL_Driver/Src/stm32f7xx_hal_rcc_ex.c ****        ((((PeriphClkInit->PeriphClockSelection) & RCC_PERIPHCLK_SAI2) == RCC_PERIPHCLK_SAI2) && (Pe
1144:Drivers/STM32F7xx_HAL_Driver/Src/stm32f7xx_hal_rcc_ex.c ****     {
1145:Drivers/STM32F7xx_HAL_Driver/Src/stm32f7xx_hal_rcc_ex.c ****       /* Check for PLLI2S Parameters */
1146:Drivers/STM32F7xx_HAL_Driver/Src/stm32f7xx_hal_rcc_ex.c ****       assert_param(IS_RCC_PLLI2SQ_VALUE(PeriphClkInit->PLLI2S.PLLI2SQ));
1147:Drivers/STM32F7xx_HAL_Driver/Src/stm32f7xx_hal_rcc_ex.c ****       /* Check for PLLI2S/DIVQ parameters */
1148:Drivers/STM32F7xx_HAL_Driver/Src/stm32f7xx_hal_rcc_ex.c ****       assert_param(IS_RCC_PLLI2S_DIVQ_VALUE(PeriphClkInit->PLLI2SDivQ));
1149:Drivers/STM32F7xx_HAL_Driver/Src/stm32f7xx_hal_rcc_ex.c **** 
1150:Drivers/STM32F7xx_HAL_Driver/Src/stm32f7xx_hal_rcc_ex.c ****       /* Read PLLI2SP and PLLI2SR values from PLLI2SCFGR register (this value is not needed for SAI
1151:Drivers/STM32F7xx_HAL_Driver/Src/stm32f7xx_hal_rcc_ex.c ****       tmpreg0 = ((RCC->PLLI2SCFGR & RCC_PLLI2SCFGR_PLLI2SR) >> RCC_PLLI2SCFGR_PLLI2SR_Pos);
1152:Drivers/STM32F7xx_HAL_Driver/Src/stm32f7xx_hal_rcc_ex.c ****       /* Configure the PLLI2S division factors */
1153:Drivers/STM32F7xx_HAL_Driver/Src/stm32f7xx_hal_rcc_ex.c ****       /* PLLI2S_VCO Input  = PLL_SOURCE/PLLM */
1154:Drivers/STM32F7xx_HAL_Driver/Src/stm32f7xx_hal_rcc_ex.c ****       /* PLLI2S_VCO Output = PLLI2S_VCO Input * PLLI2SN */
1155:Drivers/STM32F7xx_HAL_Driver/Src/stm32f7xx_hal_rcc_ex.c ****       /* SAI_CLK(first level) = PLLI2S_VCO Output/PLLI2SQ */
1156:Drivers/STM32F7xx_HAL_Driver/Src/stm32f7xx_hal_rcc_ex.c ****       __HAL_RCC_PLLI2S_CONFIG(PeriphClkInit->PLLI2S.PLLI2SN, PeriphClkInit->PLLI2S.PLLI2SQ, tmpreg0
1157:Drivers/STM32F7xx_HAL_Driver/Src/stm32f7xx_hal_rcc_ex.c **** 
1158:Drivers/STM32F7xx_HAL_Driver/Src/stm32f7xx_hal_rcc_ex.c ****       /* SAI_CLK_x = SAI_CLK(first level)/PLLI2SDIVQ */
1159:Drivers/STM32F7xx_HAL_Driver/Src/stm32f7xx_hal_rcc_ex.c ****       __HAL_RCC_PLLI2S_PLLSAICLKDIVQ_CONFIG(PeriphClkInit->PLLI2SDivQ);
1160:Drivers/STM32F7xx_HAL_Driver/Src/stm32f7xx_hal_rcc_ex.c ****     }
1161:Drivers/STM32F7xx_HAL_Driver/Src/stm32f7xx_hal_rcc_ex.c **** 
1162:Drivers/STM32F7xx_HAL_Driver/Src/stm32f7xx_hal_rcc_ex.c ****     /*----------------- In Case of PLLI2S is just selected  -----------------*/
1163:Drivers/STM32F7xx_HAL_Driver/Src/stm32f7xx_hal_rcc_ex.c ****     if((PeriphClkInit->PeriphClockSelection & RCC_PERIPHCLK_PLLI2S) == RCC_PERIPHCLK_PLLI2S)
1164:Drivers/STM32F7xx_HAL_Driver/Src/stm32f7xx_hal_rcc_ex.c ****     {
1165:Drivers/STM32F7xx_HAL_Driver/Src/stm32f7xx_hal_rcc_ex.c ****       /* Check for Parameters */
1166:Drivers/STM32F7xx_HAL_Driver/Src/stm32f7xx_hal_rcc_ex.c ****       assert_param(IS_RCC_PLLI2SR_VALUE(PeriphClkInit->PLLI2S.PLLI2SR));
1167:Drivers/STM32F7xx_HAL_Driver/Src/stm32f7xx_hal_rcc_ex.c ****       assert_param(IS_RCC_PLLI2SQ_VALUE(PeriphClkInit->PLLI2S.PLLI2SQ));
1168:Drivers/STM32F7xx_HAL_Driver/Src/stm32f7xx_hal_rcc_ex.c **** 
1169:Drivers/STM32F7xx_HAL_Driver/Src/stm32f7xx_hal_rcc_ex.c ****       /* Configure the PLLI2S division factors */
1170:Drivers/STM32F7xx_HAL_Driver/Src/stm32f7xx_hal_rcc_ex.c ****       /* PLLI2S_VCO = f(VCO clock) = f(PLLI2S clock input) x (PLLI2SN/PLLI2SM) */
1171:Drivers/STM32F7xx_HAL_Driver/Src/stm32f7xx_hal_rcc_ex.c ****       __HAL_RCC_PLLI2S_CONFIG(PeriphClkInit->PLLI2S.PLLI2SN , PeriphClkInit->PLLI2S.PLLI2SQ, Periph
1172:Drivers/STM32F7xx_HAL_Driver/Src/stm32f7xx_hal_rcc_ex.c ****     }
1173:Drivers/STM32F7xx_HAL_Driver/Src/stm32f7xx_hal_rcc_ex.c **** 
1174:Drivers/STM32F7xx_HAL_Driver/Src/stm32f7xx_hal_rcc_ex.c ****     /* Enable the PLLI2S */
1175:Drivers/STM32F7xx_HAL_Driver/Src/stm32f7xx_hal_rcc_ex.c ****     __HAL_RCC_PLLI2S_ENABLE();
1176:Drivers/STM32F7xx_HAL_Driver/Src/stm32f7xx_hal_rcc_ex.c **** 
1177:Drivers/STM32F7xx_HAL_Driver/Src/stm32f7xx_hal_rcc_ex.c ****     /* Get Start Tick*/
1178:Drivers/STM32F7xx_HAL_Driver/Src/stm32f7xx_hal_rcc_ex.c ****     tickstart = HAL_GetTick();
1179:Drivers/STM32F7xx_HAL_Driver/Src/stm32f7xx_hal_rcc_ex.c **** 
1180:Drivers/STM32F7xx_HAL_Driver/Src/stm32f7xx_hal_rcc_ex.c ****     /* Wait till PLLI2S is ready */
1181:Drivers/STM32F7xx_HAL_Driver/Src/stm32f7xx_hal_rcc_ex.c ****     while(__HAL_RCC_GET_FLAG(RCC_FLAG_PLLI2SRDY)  == RESET)
1182:Drivers/STM32F7xx_HAL_Driver/Src/stm32f7xx_hal_rcc_ex.c ****     {
1183:Drivers/STM32F7xx_HAL_Driver/Src/stm32f7xx_hal_rcc_ex.c ****       if((HAL_GetTick() - tickstart) > PLLI2S_TIMEOUT_VALUE)
1184:Drivers/STM32F7xx_HAL_Driver/Src/stm32f7xx_hal_rcc_ex.c ****       {
1185:Drivers/STM32F7xx_HAL_Driver/Src/stm32f7xx_hal_rcc_ex.c ****         /* return in case of Timeout detected */
1186:Drivers/STM32F7xx_HAL_Driver/Src/stm32f7xx_hal_rcc_ex.c ****         return HAL_TIMEOUT;
1187:Drivers/STM32F7xx_HAL_Driver/Src/stm32f7xx_hal_rcc_ex.c ****       }
1188:Drivers/STM32F7xx_HAL_Driver/Src/stm32f7xx_hal_rcc_ex.c ****     }
1189:Drivers/STM32F7xx_HAL_Driver/Src/stm32f7xx_hal_rcc_ex.c ****   }
1190:Drivers/STM32F7xx_HAL_Driver/Src/stm32f7xx_hal_rcc_ex.c **** 
1191:Drivers/STM32F7xx_HAL_Driver/Src/stm32f7xx_hal_rcc_ex.c ****   /*-------------------------------------- PLLSAI Configuration ---------------------------------*/
1192:Drivers/STM32F7xx_HAL_Driver/Src/stm32f7xx_hal_rcc_ex.c ****   /* PLLSAI is configured when a peripheral will use it as source clock : SAI1, SAI2, LTDC or CK48 
1193:Drivers/STM32F7xx_HAL_Driver/Src/stm32f7xx_hal_rcc_ex.c ****   if(pllsaiused == 1)
1194:Drivers/STM32F7xx_HAL_Driver/Src/stm32f7xx_hal_rcc_ex.c ****   {
1195:Drivers/STM32F7xx_HAL_Driver/Src/stm32f7xx_hal_rcc_ex.c ****     /* Disable PLLSAI Clock */
1196:Drivers/STM32F7xx_HAL_Driver/Src/stm32f7xx_hal_rcc_ex.c ****     __HAL_RCC_PLLSAI_DISABLE();
1197:Drivers/STM32F7xx_HAL_Driver/Src/stm32f7xx_hal_rcc_ex.c **** 
1198:Drivers/STM32F7xx_HAL_Driver/Src/stm32f7xx_hal_rcc_ex.c ****     /* Get Start Tick*/
ARM GAS  C:\Users\arist\AppData\Local\Temp\ccTacmMD.s 			page 48


1199:Drivers/STM32F7xx_HAL_Driver/Src/stm32f7xx_hal_rcc_ex.c ****     tickstart = HAL_GetTick();
1200:Drivers/STM32F7xx_HAL_Driver/Src/stm32f7xx_hal_rcc_ex.c **** 
1201:Drivers/STM32F7xx_HAL_Driver/Src/stm32f7xx_hal_rcc_ex.c ****     /* Wait till PLLSAI is disabled */
1202:Drivers/STM32F7xx_HAL_Driver/Src/stm32f7xx_hal_rcc_ex.c ****     while(__HAL_RCC_PLLSAI_GET_FLAG() != RESET)
1203:Drivers/STM32F7xx_HAL_Driver/Src/stm32f7xx_hal_rcc_ex.c ****     {
1204:Drivers/STM32F7xx_HAL_Driver/Src/stm32f7xx_hal_rcc_ex.c ****       if((HAL_GetTick() - tickstart) > PLLSAI_TIMEOUT_VALUE)
1205:Drivers/STM32F7xx_HAL_Driver/Src/stm32f7xx_hal_rcc_ex.c ****       {
1206:Drivers/STM32F7xx_HAL_Driver/Src/stm32f7xx_hal_rcc_ex.c ****         /* return in case of Timeout detected */
1207:Drivers/STM32F7xx_HAL_Driver/Src/stm32f7xx_hal_rcc_ex.c ****         return HAL_TIMEOUT;
1208:Drivers/STM32F7xx_HAL_Driver/Src/stm32f7xx_hal_rcc_ex.c ****       }
1209:Drivers/STM32F7xx_HAL_Driver/Src/stm32f7xx_hal_rcc_ex.c ****     }
1210:Drivers/STM32F7xx_HAL_Driver/Src/stm32f7xx_hal_rcc_ex.c **** 
1211:Drivers/STM32F7xx_HAL_Driver/Src/stm32f7xx_hal_rcc_ex.c ****     /* Check the PLLSAI division factors */
1212:Drivers/STM32F7xx_HAL_Driver/Src/stm32f7xx_hal_rcc_ex.c ****     assert_param(IS_RCC_PLLSAIN_VALUE(PeriphClkInit->PLLSAI.PLLSAIN));
1213:Drivers/STM32F7xx_HAL_Driver/Src/stm32f7xx_hal_rcc_ex.c **** 
1214:Drivers/STM32F7xx_HAL_Driver/Src/stm32f7xx_hal_rcc_ex.c ****     /*----------------- In Case of PLLSAI is selected as source clock for SAI -------------------*/
1215:Drivers/STM32F7xx_HAL_Driver/Src/stm32f7xx_hal_rcc_ex.c ****     if(((((PeriphClkInit->PeriphClockSelection) & RCC_PERIPHCLK_SAI1) == RCC_PERIPHCLK_SAI1) && (Pe
1216:Drivers/STM32F7xx_HAL_Driver/Src/stm32f7xx_hal_rcc_ex.c ****        ((((PeriphClkInit->PeriphClockSelection) & RCC_PERIPHCLK_SAI2) == RCC_PERIPHCLK_SAI2) && (Pe
1217:Drivers/STM32F7xx_HAL_Driver/Src/stm32f7xx_hal_rcc_ex.c ****     {
1218:Drivers/STM32F7xx_HAL_Driver/Src/stm32f7xx_hal_rcc_ex.c ****       /* check for PLLSAIQ Parameter */
1219:Drivers/STM32F7xx_HAL_Driver/Src/stm32f7xx_hal_rcc_ex.c ****       assert_param(IS_RCC_PLLSAIQ_VALUE(PeriphClkInit->PLLSAI.PLLSAIQ));
1220:Drivers/STM32F7xx_HAL_Driver/Src/stm32f7xx_hal_rcc_ex.c ****       /* check for PLLSAI/DIVQ Parameter */
1221:Drivers/STM32F7xx_HAL_Driver/Src/stm32f7xx_hal_rcc_ex.c ****       assert_param(IS_RCC_PLLSAI_DIVQ_VALUE(PeriphClkInit->PLLSAIDivQ));
1222:Drivers/STM32F7xx_HAL_Driver/Src/stm32f7xx_hal_rcc_ex.c **** 
1223:Drivers/STM32F7xx_HAL_Driver/Src/stm32f7xx_hal_rcc_ex.c ****       /* Read PLLSAIP value from PLLSAICFGR register (this value is not needed for SAI configuratio
1224:Drivers/STM32F7xx_HAL_Driver/Src/stm32f7xx_hal_rcc_ex.c ****       tmpreg0 = ((RCC->PLLSAICFGR & RCC_PLLSAICFGR_PLLSAIP) >> RCC_PLLSAICFGR_PLLSAIP_Pos);
1225:Drivers/STM32F7xx_HAL_Driver/Src/stm32f7xx_hal_rcc_ex.c ****       /* PLLSAI_VCO Input  = PLL_SOURCE/PLLM */
1226:Drivers/STM32F7xx_HAL_Driver/Src/stm32f7xx_hal_rcc_ex.c ****       /* PLLSAI_VCO Output = PLLSAI_VCO Input * PLLSAIN */
1227:Drivers/STM32F7xx_HAL_Driver/Src/stm32f7xx_hal_rcc_ex.c ****       /* SAI_CLK(first level) = PLLSAI_VCO Output/PLLSAIQ */
1228:Drivers/STM32F7xx_HAL_Driver/Src/stm32f7xx_hal_rcc_ex.c ****       __HAL_RCC_PLLSAI_CONFIG(PeriphClkInit->PLLSAI.PLLSAIN , tmpreg0, PeriphClkInit->PLLSAI.PLLSAI
1229:Drivers/STM32F7xx_HAL_Driver/Src/stm32f7xx_hal_rcc_ex.c **** 
1230:Drivers/STM32F7xx_HAL_Driver/Src/stm32f7xx_hal_rcc_ex.c ****       /* SAI_CLK_x = SAI_CLK(first level)/PLLSAIDIVQ */
1231:Drivers/STM32F7xx_HAL_Driver/Src/stm32f7xx_hal_rcc_ex.c ****       __HAL_RCC_PLLSAI_PLLSAICLKDIVQ_CONFIG(PeriphClkInit->PLLSAIDivQ);
1232:Drivers/STM32F7xx_HAL_Driver/Src/stm32f7xx_hal_rcc_ex.c ****     }
1233:Drivers/STM32F7xx_HAL_Driver/Src/stm32f7xx_hal_rcc_ex.c **** 
1234:Drivers/STM32F7xx_HAL_Driver/Src/stm32f7xx_hal_rcc_ex.c ****     /*----------------- In Case of PLLSAI is selected as source clock for CLK48 -------------------
1235:Drivers/STM32F7xx_HAL_Driver/Src/stm32f7xx_hal_rcc_ex.c ****     /* In Case of PLLI2S is selected as source clock for CK48 */
1236:Drivers/STM32F7xx_HAL_Driver/Src/stm32f7xx_hal_rcc_ex.c ****     if((((PeriphClkInit->PeriphClockSelection) & RCC_PERIPHCLK_CLK48) == RCC_PERIPHCLK_CLK48) && (P
1237:Drivers/STM32F7xx_HAL_Driver/Src/stm32f7xx_hal_rcc_ex.c ****     {
1238:Drivers/STM32F7xx_HAL_Driver/Src/stm32f7xx_hal_rcc_ex.c ****       /* check for Parameters */
1239:Drivers/STM32F7xx_HAL_Driver/Src/stm32f7xx_hal_rcc_ex.c ****       assert_param(IS_RCC_PLLSAIP_VALUE(PeriphClkInit->PLLSAI.PLLSAIP));
1240:Drivers/STM32F7xx_HAL_Driver/Src/stm32f7xx_hal_rcc_ex.c ****       /* Read PLLSAIQ and PLLSAIR value from PLLSAICFGR register (this value is not needed for CK48
1241:Drivers/STM32F7xx_HAL_Driver/Src/stm32f7xx_hal_rcc_ex.c ****       tmpreg0 = ((RCC->PLLSAICFGR & RCC_PLLSAICFGR_PLLSAIQ) >> RCC_PLLSAICFGR_PLLSAIQ_Pos);
1242:Drivers/STM32F7xx_HAL_Driver/Src/stm32f7xx_hal_rcc_ex.c **** 
1243:Drivers/STM32F7xx_HAL_Driver/Src/stm32f7xx_hal_rcc_ex.c ****       /* Configure the PLLSAI division factors */
1244:Drivers/STM32F7xx_HAL_Driver/Src/stm32f7xx_hal_rcc_ex.c ****       /* PLLSAI_VCO = f(VCO clock) = f(PLLSAI clock input) x (PLLI2SN/PLLM) */
1245:Drivers/STM32F7xx_HAL_Driver/Src/stm32f7xx_hal_rcc_ex.c ****       /* 48CLK = f(PLLSAI clock output) = f(VCO clock) / PLLSAIP */
1246:Drivers/STM32F7xx_HAL_Driver/Src/stm32f7xx_hal_rcc_ex.c ****       __HAL_RCC_PLLSAI_CONFIG(PeriphClkInit->PLLSAI.PLLSAIN , PeriphClkInit->PLLSAI.PLLSAIP, tmpreg
1247:Drivers/STM32F7xx_HAL_Driver/Src/stm32f7xx_hal_rcc_ex.c ****     }
1248:Drivers/STM32F7xx_HAL_Driver/Src/stm32f7xx_hal_rcc_ex.c **** 
1249:Drivers/STM32F7xx_HAL_Driver/Src/stm32f7xx_hal_rcc_ex.c ****     /* Enable PLLSAI Clock */
1250:Drivers/STM32F7xx_HAL_Driver/Src/stm32f7xx_hal_rcc_ex.c ****     __HAL_RCC_PLLSAI_ENABLE();
1251:Drivers/STM32F7xx_HAL_Driver/Src/stm32f7xx_hal_rcc_ex.c **** 
1252:Drivers/STM32F7xx_HAL_Driver/Src/stm32f7xx_hal_rcc_ex.c ****     /* Get Start Tick*/
1253:Drivers/STM32F7xx_HAL_Driver/Src/stm32f7xx_hal_rcc_ex.c ****     tickstart = HAL_GetTick();
1254:Drivers/STM32F7xx_HAL_Driver/Src/stm32f7xx_hal_rcc_ex.c **** 
1255:Drivers/STM32F7xx_HAL_Driver/Src/stm32f7xx_hal_rcc_ex.c ****     /* Wait till PLLSAI is ready */
ARM GAS  C:\Users\arist\AppData\Local\Temp\ccTacmMD.s 			page 49


1256:Drivers/STM32F7xx_HAL_Driver/Src/stm32f7xx_hal_rcc_ex.c ****     while(__HAL_RCC_PLLSAI_GET_FLAG() == RESET)
1257:Drivers/STM32F7xx_HAL_Driver/Src/stm32f7xx_hal_rcc_ex.c ****     {
1258:Drivers/STM32F7xx_HAL_Driver/Src/stm32f7xx_hal_rcc_ex.c ****       if((HAL_GetTick() - tickstart) > PLLSAI_TIMEOUT_VALUE)
1259:Drivers/STM32F7xx_HAL_Driver/Src/stm32f7xx_hal_rcc_ex.c ****       {
1260:Drivers/STM32F7xx_HAL_Driver/Src/stm32f7xx_hal_rcc_ex.c ****         /* return in case of Timeout detected */
1261:Drivers/STM32F7xx_HAL_Driver/Src/stm32f7xx_hal_rcc_ex.c ****         return HAL_TIMEOUT;
1262:Drivers/STM32F7xx_HAL_Driver/Src/stm32f7xx_hal_rcc_ex.c ****       }
1263:Drivers/STM32F7xx_HAL_Driver/Src/stm32f7xx_hal_rcc_ex.c ****     }
1264:Drivers/STM32F7xx_HAL_Driver/Src/stm32f7xx_hal_rcc_ex.c ****   }
1265:Drivers/STM32F7xx_HAL_Driver/Src/stm32f7xx_hal_rcc_ex.c ****   return HAL_OK;
1266:Drivers/STM32F7xx_HAL_Driver/Src/stm32f7xx_hal_rcc_ex.c **** }
1267:Drivers/STM32F7xx_HAL_Driver/Src/stm32f7xx_hal_rcc_ex.c **** 
1268:Drivers/STM32F7xx_HAL_Driver/Src/stm32f7xx_hal_rcc_ex.c **** /**
1269:Drivers/STM32F7xx_HAL_Driver/Src/stm32f7xx_hal_rcc_ex.c ****   * @brief  Get the RCC_PeriphCLKInitTypeDef according to the internal
1270:Drivers/STM32F7xx_HAL_Driver/Src/stm32f7xx_hal_rcc_ex.c ****   *         RCC configuration registers.
1271:Drivers/STM32F7xx_HAL_Driver/Src/stm32f7xx_hal_rcc_ex.c ****   * @param  PeriphClkInit pointer to the configured RCC_PeriphCLKInitTypeDef structure
1272:Drivers/STM32F7xx_HAL_Driver/Src/stm32f7xx_hal_rcc_ex.c ****   * @retval None
1273:Drivers/STM32F7xx_HAL_Driver/Src/stm32f7xx_hal_rcc_ex.c ****   */
1274:Drivers/STM32F7xx_HAL_Driver/Src/stm32f7xx_hal_rcc_ex.c **** void HAL_RCCEx_GetPeriphCLKConfig(RCC_PeriphCLKInitTypeDef  *PeriphClkInit)
1275:Drivers/STM32F7xx_HAL_Driver/Src/stm32f7xx_hal_rcc_ex.c **** {
1276:Drivers/STM32F7xx_HAL_Driver/Src/stm32f7xx_hal_rcc_ex.c ****   uint32_t tempreg = 0;
1277:Drivers/STM32F7xx_HAL_Driver/Src/stm32f7xx_hal_rcc_ex.c **** 
1278:Drivers/STM32F7xx_HAL_Driver/Src/stm32f7xx_hal_rcc_ex.c ****   /* Set all possible values for the extended clock type parameter------------*/
1279:Drivers/STM32F7xx_HAL_Driver/Src/stm32f7xx_hal_rcc_ex.c ****   PeriphClkInit->PeriphClockSelection = RCC_PERIPHCLK_I2S      | RCC_PERIPHCLK_LPTIM1   |\
1280:Drivers/STM32F7xx_HAL_Driver/Src/stm32f7xx_hal_rcc_ex.c ****                                         RCC_PERIPHCLK_SAI1     | RCC_PERIPHCLK_SAI2     |\
1281:Drivers/STM32F7xx_HAL_Driver/Src/stm32f7xx_hal_rcc_ex.c ****                                         RCC_PERIPHCLK_TIM      | RCC_PERIPHCLK_RTC      |\
1282:Drivers/STM32F7xx_HAL_Driver/Src/stm32f7xx_hal_rcc_ex.c ****                                         RCC_PERIPHCLK_I2C1     | RCC_PERIPHCLK_I2C2     |\
1283:Drivers/STM32F7xx_HAL_Driver/Src/stm32f7xx_hal_rcc_ex.c ****                                         RCC_PERIPHCLK_I2C3     | RCC_PERIPHCLK_USART1   |\
1284:Drivers/STM32F7xx_HAL_Driver/Src/stm32f7xx_hal_rcc_ex.c ****                                         RCC_PERIPHCLK_USART2   | RCC_PERIPHCLK_USART3   |\
1285:Drivers/STM32F7xx_HAL_Driver/Src/stm32f7xx_hal_rcc_ex.c ****                                         RCC_PERIPHCLK_UART4    | RCC_PERIPHCLK_UART5    |\
1286:Drivers/STM32F7xx_HAL_Driver/Src/stm32f7xx_hal_rcc_ex.c ****                                         RCC_PERIPHCLK_USART6   | RCC_PERIPHCLK_UART7    |\
1287:Drivers/STM32F7xx_HAL_Driver/Src/stm32f7xx_hal_rcc_ex.c ****                                         RCC_PERIPHCLK_UART8    | RCC_PERIPHCLK_SDMMC1   |\
1288:Drivers/STM32F7xx_HAL_Driver/Src/stm32f7xx_hal_rcc_ex.c ****                                         RCC_PERIPHCLK_CLK48    | RCC_PERIPHCLK_SDMMC2;
1289:Drivers/STM32F7xx_HAL_Driver/Src/stm32f7xx_hal_rcc_ex.c **** 
1290:Drivers/STM32F7xx_HAL_Driver/Src/stm32f7xx_hal_rcc_ex.c ****   /* Get the PLLI2S Clock configuration -----------------------------------------------*/
1291:Drivers/STM32F7xx_HAL_Driver/Src/stm32f7xx_hal_rcc_ex.c ****   PeriphClkInit->PLLI2S.PLLI2SN = (uint32_t)((RCC->PLLI2SCFGR & RCC_PLLI2SCFGR_PLLI2SN) >> RCC_PLLI
1292:Drivers/STM32F7xx_HAL_Driver/Src/stm32f7xx_hal_rcc_ex.c ****   PeriphClkInit->PLLI2S.PLLI2SQ = (uint32_t)((RCC->PLLI2SCFGR & RCC_PLLI2SCFGR_PLLI2SQ) >> RCC_PLLI
1293:Drivers/STM32F7xx_HAL_Driver/Src/stm32f7xx_hal_rcc_ex.c ****   PeriphClkInit->PLLI2S.PLLI2SR = (uint32_t)((RCC->PLLI2SCFGR & RCC_PLLI2SCFGR_PLLI2SR) >> RCC_PLLI
1294:Drivers/STM32F7xx_HAL_Driver/Src/stm32f7xx_hal_rcc_ex.c **** 
1295:Drivers/STM32F7xx_HAL_Driver/Src/stm32f7xx_hal_rcc_ex.c ****   /* Get the PLLSAI Clock configuration -----------------------------------------------*/
1296:Drivers/STM32F7xx_HAL_Driver/Src/stm32f7xx_hal_rcc_ex.c ****   PeriphClkInit->PLLSAI.PLLSAIN = (uint32_t)((RCC->PLLSAICFGR & RCC_PLLSAICFGR_PLLSAIN) >> RCC_PLLS
1297:Drivers/STM32F7xx_HAL_Driver/Src/stm32f7xx_hal_rcc_ex.c ****   PeriphClkInit->PLLSAI.PLLSAIP = (uint32_t)((RCC->PLLSAICFGR & RCC_PLLSAICFGR_PLLSAIP) >> RCC_PLLS
1298:Drivers/STM32F7xx_HAL_Driver/Src/stm32f7xx_hal_rcc_ex.c ****   PeriphClkInit->PLLSAI.PLLSAIQ = (uint32_t)((RCC->PLLSAICFGR & RCC_PLLSAICFGR_PLLSAIQ) >> RCC_PLLS
1299:Drivers/STM32F7xx_HAL_Driver/Src/stm32f7xx_hal_rcc_ex.c **** 
1300:Drivers/STM32F7xx_HAL_Driver/Src/stm32f7xx_hal_rcc_ex.c ****   /* Get the PLLSAI/PLLI2S division factors -------------------------------------------*/
1301:Drivers/STM32F7xx_HAL_Driver/Src/stm32f7xx_hal_rcc_ex.c ****   PeriphClkInit->PLLI2SDivQ = (uint32_t)((RCC->DCKCFGR1 & RCC_DCKCFGR1_PLLI2SDIVQ) >> RCC_DCKCFGR1_
1302:Drivers/STM32F7xx_HAL_Driver/Src/stm32f7xx_hal_rcc_ex.c ****   PeriphClkInit->PLLSAIDivQ = (uint32_t)((RCC->DCKCFGR1 & RCC_DCKCFGR1_PLLSAIDIVQ) >> RCC_DCKCFGR1_
1303:Drivers/STM32F7xx_HAL_Driver/Src/stm32f7xx_hal_rcc_ex.c **** 
1304:Drivers/STM32F7xx_HAL_Driver/Src/stm32f7xx_hal_rcc_ex.c ****   /* Get the SAI1 clock configuration ----------------------------------------------*/
1305:Drivers/STM32F7xx_HAL_Driver/Src/stm32f7xx_hal_rcc_ex.c ****   PeriphClkInit->Sai1ClockSelection = __HAL_RCC_GET_SAI1_SOURCE();
1306:Drivers/STM32F7xx_HAL_Driver/Src/stm32f7xx_hal_rcc_ex.c **** 
1307:Drivers/STM32F7xx_HAL_Driver/Src/stm32f7xx_hal_rcc_ex.c ****   /* Get the SAI2 clock configuration ----------------------------------------------*/
1308:Drivers/STM32F7xx_HAL_Driver/Src/stm32f7xx_hal_rcc_ex.c ****   PeriphClkInit->Sai2ClockSelection = __HAL_RCC_GET_SAI2_SOURCE();
1309:Drivers/STM32F7xx_HAL_Driver/Src/stm32f7xx_hal_rcc_ex.c **** 
1310:Drivers/STM32F7xx_HAL_Driver/Src/stm32f7xx_hal_rcc_ex.c ****   /* Get the I2S clock configuration ------------------------------------------*/
1311:Drivers/STM32F7xx_HAL_Driver/Src/stm32f7xx_hal_rcc_ex.c ****   PeriphClkInit->I2sClockSelection = __HAL_RCC_GET_I2SCLKSOURCE();
1312:Drivers/STM32F7xx_HAL_Driver/Src/stm32f7xx_hal_rcc_ex.c **** 
ARM GAS  C:\Users\arist\AppData\Local\Temp\ccTacmMD.s 			page 50


1313:Drivers/STM32F7xx_HAL_Driver/Src/stm32f7xx_hal_rcc_ex.c ****   /* Get the I2C1 clock configuration ------------------------------------------*/
1314:Drivers/STM32F7xx_HAL_Driver/Src/stm32f7xx_hal_rcc_ex.c ****   PeriphClkInit->I2c1ClockSelection = __HAL_RCC_GET_I2C1_SOURCE();
1315:Drivers/STM32F7xx_HAL_Driver/Src/stm32f7xx_hal_rcc_ex.c **** 
1316:Drivers/STM32F7xx_HAL_Driver/Src/stm32f7xx_hal_rcc_ex.c ****   /* Get the I2C2 clock configuration ------------------------------------------*/
1317:Drivers/STM32F7xx_HAL_Driver/Src/stm32f7xx_hal_rcc_ex.c ****   PeriphClkInit->I2c2ClockSelection = __HAL_RCC_GET_I2C2_SOURCE();
1318:Drivers/STM32F7xx_HAL_Driver/Src/stm32f7xx_hal_rcc_ex.c **** 
1319:Drivers/STM32F7xx_HAL_Driver/Src/stm32f7xx_hal_rcc_ex.c ****   /* Get the I2C3 clock configuration ------------------------------------------*/
1320:Drivers/STM32F7xx_HAL_Driver/Src/stm32f7xx_hal_rcc_ex.c ****   PeriphClkInit->I2c3ClockSelection = __HAL_RCC_GET_I2C3_SOURCE();
1321:Drivers/STM32F7xx_HAL_Driver/Src/stm32f7xx_hal_rcc_ex.c **** 
1322:Drivers/STM32F7xx_HAL_Driver/Src/stm32f7xx_hal_rcc_ex.c ****   /* Get the USART1 clock configuration ------------------------------------------*/
1323:Drivers/STM32F7xx_HAL_Driver/Src/stm32f7xx_hal_rcc_ex.c ****   PeriphClkInit->Usart1ClockSelection = __HAL_RCC_GET_USART1_SOURCE();
1324:Drivers/STM32F7xx_HAL_Driver/Src/stm32f7xx_hal_rcc_ex.c **** 
1325:Drivers/STM32F7xx_HAL_Driver/Src/stm32f7xx_hal_rcc_ex.c ****   /* Get the USART2 clock configuration ------------------------------------------*/
1326:Drivers/STM32F7xx_HAL_Driver/Src/stm32f7xx_hal_rcc_ex.c ****   PeriphClkInit->Usart2ClockSelection = __HAL_RCC_GET_USART2_SOURCE();
1327:Drivers/STM32F7xx_HAL_Driver/Src/stm32f7xx_hal_rcc_ex.c **** 
1328:Drivers/STM32F7xx_HAL_Driver/Src/stm32f7xx_hal_rcc_ex.c ****   /* Get the USART3 clock configuration ------------------------------------------*/
1329:Drivers/STM32F7xx_HAL_Driver/Src/stm32f7xx_hal_rcc_ex.c ****   PeriphClkInit->Usart3ClockSelection = __HAL_RCC_GET_USART3_SOURCE();
1330:Drivers/STM32F7xx_HAL_Driver/Src/stm32f7xx_hal_rcc_ex.c **** 
1331:Drivers/STM32F7xx_HAL_Driver/Src/stm32f7xx_hal_rcc_ex.c ****   /* Get the UART4 clock configuration ------------------------------------------*/
1332:Drivers/STM32F7xx_HAL_Driver/Src/stm32f7xx_hal_rcc_ex.c ****   PeriphClkInit->Uart4ClockSelection = __HAL_RCC_GET_UART4_SOURCE();
1333:Drivers/STM32F7xx_HAL_Driver/Src/stm32f7xx_hal_rcc_ex.c **** 
1334:Drivers/STM32F7xx_HAL_Driver/Src/stm32f7xx_hal_rcc_ex.c ****   /* Get the UART5 clock configuration ------------------------------------------*/
1335:Drivers/STM32F7xx_HAL_Driver/Src/stm32f7xx_hal_rcc_ex.c ****   PeriphClkInit->Uart5ClockSelection = __HAL_RCC_GET_UART5_SOURCE();
1336:Drivers/STM32F7xx_HAL_Driver/Src/stm32f7xx_hal_rcc_ex.c **** 
1337:Drivers/STM32F7xx_HAL_Driver/Src/stm32f7xx_hal_rcc_ex.c ****   /* Get the USART6 clock configuration ------------------------------------------*/
1338:Drivers/STM32F7xx_HAL_Driver/Src/stm32f7xx_hal_rcc_ex.c ****   PeriphClkInit->Usart6ClockSelection = __HAL_RCC_GET_USART6_SOURCE();
1339:Drivers/STM32F7xx_HAL_Driver/Src/stm32f7xx_hal_rcc_ex.c **** 
1340:Drivers/STM32F7xx_HAL_Driver/Src/stm32f7xx_hal_rcc_ex.c ****   /* Get the UART7 clock configuration ------------------------------------------*/
1341:Drivers/STM32F7xx_HAL_Driver/Src/stm32f7xx_hal_rcc_ex.c ****   PeriphClkInit->Uart7ClockSelection = __HAL_RCC_GET_UART7_SOURCE();
1342:Drivers/STM32F7xx_HAL_Driver/Src/stm32f7xx_hal_rcc_ex.c **** 
1343:Drivers/STM32F7xx_HAL_Driver/Src/stm32f7xx_hal_rcc_ex.c ****   /* Get the UART8 clock configuration ------------------------------------------*/
1344:Drivers/STM32F7xx_HAL_Driver/Src/stm32f7xx_hal_rcc_ex.c ****   PeriphClkInit->Uart8ClockSelection = __HAL_RCC_GET_UART8_SOURCE();
1345:Drivers/STM32F7xx_HAL_Driver/Src/stm32f7xx_hal_rcc_ex.c **** 
1346:Drivers/STM32F7xx_HAL_Driver/Src/stm32f7xx_hal_rcc_ex.c ****   /* Get the LPTIM1 clock configuration ------------------------------------------*/
1347:Drivers/STM32F7xx_HAL_Driver/Src/stm32f7xx_hal_rcc_ex.c ****   PeriphClkInit->Lptim1ClockSelection = __HAL_RCC_GET_LPTIM1_SOURCE();
1348:Drivers/STM32F7xx_HAL_Driver/Src/stm32f7xx_hal_rcc_ex.c **** 
1349:Drivers/STM32F7xx_HAL_Driver/Src/stm32f7xx_hal_rcc_ex.c ****   /* Get the CK48 clock configuration -----------------------------------------------*/
1350:Drivers/STM32F7xx_HAL_Driver/Src/stm32f7xx_hal_rcc_ex.c ****   PeriphClkInit->Clk48ClockSelection = __HAL_RCC_GET_CLK48_SOURCE();
1351:Drivers/STM32F7xx_HAL_Driver/Src/stm32f7xx_hal_rcc_ex.c **** 
1352:Drivers/STM32F7xx_HAL_Driver/Src/stm32f7xx_hal_rcc_ex.c ****   /* Get the SDMMC1 clock configuration -----------------------------------------------*/
1353:Drivers/STM32F7xx_HAL_Driver/Src/stm32f7xx_hal_rcc_ex.c ****   PeriphClkInit->Sdmmc1ClockSelection = __HAL_RCC_GET_SDMMC1_SOURCE();
1354:Drivers/STM32F7xx_HAL_Driver/Src/stm32f7xx_hal_rcc_ex.c **** 
1355:Drivers/STM32F7xx_HAL_Driver/Src/stm32f7xx_hal_rcc_ex.c ****   /* Get the SDMMC2 clock configuration -----------------------------------------------*/
1356:Drivers/STM32F7xx_HAL_Driver/Src/stm32f7xx_hal_rcc_ex.c ****   PeriphClkInit->Sdmmc2ClockSelection = __HAL_RCC_GET_SDMMC2_SOURCE();
1357:Drivers/STM32F7xx_HAL_Driver/Src/stm32f7xx_hal_rcc_ex.c **** 
1358:Drivers/STM32F7xx_HAL_Driver/Src/stm32f7xx_hal_rcc_ex.c ****   /* Get the RTC Clock configuration -----------------------------------------------*/
1359:Drivers/STM32F7xx_HAL_Driver/Src/stm32f7xx_hal_rcc_ex.c ****   tempreg = (RCC->CFGR & RCC_CFGR_RTCPRE);
1360:Drivers/STM32F7xx_HAL_Driver/Src/stm32f7xx_hal_rcc_ex.c ****   PeriphClkInit->RTCClockSelection = (uint32_t)((tempreg) | (RCC->BDCR & RCC_BDCR_RTCSEL));
1361:Drivers/STM32F7xx_HAL_Driver/Src/stm32f7xx_hal_rcc_ex.c **** 
1362:Drivers/STM32F7xx_HAL_Driver/Src/stm32f7xx_hal_rcc_ex.c ****   /* Get the TIM Prescaler configuration --------------------------------------------*/
1363:Drivers/STM32F7xx_HAL_Driver/Src/stm32f7xx_hal_rcc_ex.c ****   if ((RCC->DCKCFGR1 & RCC_DCKCFGR1_TIMPRE) == RESET)
1364:Drivers/STM32F7xx_HAL_Driver/Src/stm32f7xx_hal_rcc_ex.c ****   {
1365:Drivers/STM32F7xx_HAL_Driver/Src/stm32f7xx_hal_rcc_ex.c ****     PeriphClkInit->TIMPresSelection = RCC_TIMPRES_DESACTIVATED;
1366:Drivers/STM32F7xx_HAL_Driver/Src/stm32f7xx_hal_rcc_ex.c ****   }
1367:Drivers/STM32F7xx_HAL_Driver/Src/stm32f7xx_hal_rcc_ex.c ****   else
1368:Drivers/STM32F7xx_HAL_Driver/Src/stm32f7xx_hal_rcc_ex.c ****   {
1369:Drivers/STM32F7xx_HAL_Driver/Src/stm32f7xx_hal_rcc_ex.c ****     PeriphClkInit->TIMPresSelection = RCC_TIMPRES_ACTIVATED;
ARM GAS  C:\Users\arist\AppData\Local\Temp\ccTacmMD.s 			page 51


1370:Drivers/STM32F7xx_HAL_Driver/Src/stm32f7xx_hal_rcc_ex.c ****   }
1371:Drivers/STM32F7xx_HAL_Driver/Src/stm32f7xx_hal_rcc_ex.c **** }
1372:Drivers/STM32F7xx_HAL_Driver/Src/stm32f7xx_hal_rcc_ex.c **** #endif /* STM32F722xx || STM32F723xx || STM32F732xx || STM32F733xx || STM32F730xx */
1373:Drivers/STM32F7xx_HAL_Driver/Src/stm32f7xx_hal_rcc_ex.c **** 
1374:Drivers/STM32F7xx_HAL_Driver/Src/stm32f7xx_hal_rcc_ex.c **** /**
1375:Drivers/STM32F7xx_HAL_Driver/Src/stm32f7xx_hal_rcc_ex.c ****   * @brief  Return the peripheral clock frequency for a given peripheral(SAI..)
1376:Drivers/STM32F7xx_HAL_Driver/Src/stm32f7xx_hal_rcc_ex.c ****   * @note   Return 0 if peripheral clock identifier not managed by this API
1377:Drivers/STM32F7xx_HAL_Driver/Src/stm32f7xx_hal_rcc_ex.c ****   * @param  PeriphClk Peripheral clock identifier
1378:Drivers/STM32F7xx_HAL_Driver/Src/stm32f7xx_hal_rcc_ex.c ****   *         This parameter can be one of the following values:
1379:Drivers/STM32F7xx_HAL_Driver/Src/stm32f7xx_hal_rcc_ex.c ****   *            @arg RCC_PERIPHCLK_SAI1: SAI1 peripheral clock
1380:Drivers/STM32F7xx_HAL_Driver/Src/stm32f7xx_hal_rcc_ex.c ****   *            @arg RCC_PERIPHCLK_SAI2: SAI2 peripheral clock
1381:Drivers/STM32F7xx_HAL_Driver/Src/stm32f7xx_hal_rcc_ex.c ****   * @retval Frequency in KHz
1382:Drivers/STM32F7xx_HAL_Driver/Src/stm32f7xx_hal_rcc_ex.c ****   */
1383:Drivers/STM32F7xx_HAL_Driver/Src/stm32f7xx_hal_rcc_ex.c **** uint32_t HAL_RCCEx_GetPeriphCLKFreq(uint32_t PeriphClk)
1384:Drivers/STM32F7xx_HAL_Driver/Src/stm32f7xx_hal_rcc_ex.c **** {
 1348              		.loc 1 1384 1 is_stmt 1 view -0
 1349              		.cfi_startproc
 1350              		@ args = 0, pretend = 0, frame = 0
 1351              		@ frame_needed = 0, uses_anonymous_args = 0
 1352              		@ link register save eliminated.
 1353              		.loc 1 1384 1 is_stmt 0 view .LVU485
 1354 0000 0246     		mov	r2, r0
1385:Drivers/STM32F7xx_HAL_Driver/Src/stm32f7xx_hal_rcc_ex.c ****   uint32_t tmpreg = 0;
 1355              		.loc 1 1385 3 is_stmt 1 view .LVU486
 1356              	.LVL86:
1386:Drivers/STM32F7xx_HAL_Driver/Src/stm32f7xx_hal_rcc_ex.c ****   /* This variable is used to store the SAI clock frequency (value in Hz) */
1387:Drivers/STM32F7xx_HAL_Driver/Src/stm32f7xx_hal_rcc_ex.c ****   uint32_t frequency = 0;
 1357              		.loc 1 1387 3 view .LVU487
1388:Drivers/STM32F7xx_HAL_Driver/Src/stm32f7xx_hal_rcc_ex.c ****   /* This variable is used to store the VCO Input (value in Hz) */
1389:Drivers/STM32F7xx_HAL_Driver/Src/stm32f7xx_hal_rcc_ex.c ****   uint32_t vcoinput = 0;
 1358              		.loc 1 1389 3 view .LVU488
1390:Drivers/STM32F7xx_HAL_Driver/Src/stm32f7xx_hal_rcc_ex.c ****   /* This variable is used to store the SAI clock source */
1391:Drivers/STM32F7xx_HAL_Driver/Src/stm32f7xx_hal_rcc_ex.c ****   uint32_t saiclocksource = 0;
 1359              		.loc 1 1391 3 view .LVU489
1392:Drivers/STM32F7xx_HAL_Driver/Src/stm32f7xx_hal_rcc_ex.c **** 
1393:Drivers/STM32F7xx_HAL_Driver/Src/stm32f7xx_hal_rcc_ex.c ****   if (PeriphClk == RCC_PERIPHCLK_SAI1)
 1360              		.loc 1 1393 3 view .LVU490
 1361              		.loc 1 1393 6 is_stmt 0 view .LVU491
 1362 0002 B0F5002F 		cmp	r0, #524288
 1363 0006 04D0     		beq	.L112
1387:Drivers/STM32F7xx_HAL_Driver/Src/stm32f7xx_hal_rcc_ex.c ****   /* This variable is used to store the VCO Input (value in Hz) */
 1364              		.loc 1 1387 12 view .LVU492
 1365 0008 0020     		movs	r0, #0
 1366              	.LVL87:
 1367              	.L96:
1394:Drivers/STM32F7xx_HAL_Driver/Src/stm32f7xx_hal_rcc_ex.c ****   {
1395:Drivers/STM32F7xx_HAL_Driver/Src/stm32f7xx_hal_rcc_ex.c ****     saiclocksource = RCC->DCKCFGR1;
1396:Drivers/STM32F7xx_HAL_Driver/Src/stm32f7xx_hal_rcc_ex.c ****     saiclocksource &= RCC_DCKCFGR1_SAI1SEL;
1397:Drivers/STM32F7xx_HAL_Driver/Src/stm32f7xx_hal_rcc_ex.c ****     switch (saiclocksource)
1398:Drivers/STM32F7xx_HAL_Driver/Src/stm32f7xx_hal_rcc_ex.c ****     {
1399:Drivers/STM32F7xx_HAL_Driver/Src/stm32f7xx_hal_rcc_ex.c ****     case 0: /* PLLSAI is the clock source for SAI1 */
1400:Drivers/STM32F7xx_HAL_Driver/Src/stm32f7xx_hal_rcc_ex.c ****       {
1401:Drivers/STM32F7xx_HAL_Driver/Src/stm32f7xx_hal_rcc_ex.c ****         /* Configure the PLLSAI division factor */
1402:Drivers/STM32F7xx_HAL_Driver/Src/stm32f7xx_hal_rcc_ex.c ****         /* PLLSAI_VCO Input  = PLL_SOURCE/PLLM */
1403:Drivers/STM32F7xx_HAL_Driver/Src/stm32f7xx_hal_rcc_ex.c ****         if((RCC->PLLCFGR & RCC_PLLCFGR_PLLSRC) == RCC_PLLSOURCE_HSI)
1404:Drivers/STM32F7xx_HAL_Driver/Src/stm32f7xx_hal_rcc_ex.c ****         {
1405:Drivers/STM32F7xx_HAL_Driver/Src/stm32f7xx_hal_rcc_ex.c ****           /* In Case the PLL Source is HSI (Internal Clock) */
ARM GAS  C:\Users\arist\AppData\Local\Temp\ccTacmMD.s 			page 52


1406:Drivers/STM32F7xx_HAL_Driver/Src/stm32f7xx_hal_rcc_ex.c ****           vcoinput = (HSI_VALUE / (uint32_t)(RCC->PLLCFGR & RCC_PLLCFGR_PLLM));
1407:Drivers/STM32F7xx_HAL_Driver/Src/stm32f7xx_hal_rcc_ex.c ****         }
1408:Drivers/STM32F7xx_HAL_Driver/Src/stm32f7xx_hal_rcc_ex.c ****         else
1409:Drivers/STM32F7xx_HAL_Driver/Src/stm32f7xx_hal_rcc_ex.c ****         {
1410:Drivers/STM32F7xx_HAL_Driver/Src/stm32f7xx_hal_rcc_ex.c ****           /* In Case the PLL Source is HSE (External Clock) */
1411:Drivers/STM32F7xx_HAL_Driver/Src/stm32f7xx_hal_rcc_ex.c ****           vcoinput = ((HSE_VALUE / (uint32_t)(RCC->PLLCFGR & RCC_PLLCFGR_PLLM)));
1412:Drivers/STM32F7xx_HAL_Driver/Src/stm32f7xx_hal_rcc_ex.c ****         }
1413:Drivers/STM32F7xx_HAL_Driver/Src/stm32f7xx_hal_rcc_ex.c ****         /* PLLSAI_VCO Output = PLLSAI_VCO Input * PLLSAIN */
1414:Drivers/STM32F7xx_HAL_Driver/Src/stm32f7xx_hal_rcc_ex.c ****         /* SAI_CLK(first level) = PLLSAI_VCO Output/PLLSAIQ */
1415:Drivers/STM32F7xx_HAL_Driver/Src/stm32f7xx_hal_rcc_ex.c ****         tmpreg = (RCC->PLLSAICFGR & RCC_PLLSAICFGR_PLLSAIQ) >> 24;
1416:Drivers/STM32F7xx_HAL_Driver/Src/stm32f7xx_hal_rcc_ex.c ****         frequency = (vcoinput * ((RCC->PLLSAICFGR & RCC_PLLSAICFGR_PLLSAIN) >> 6))/(tmpreg);
1417:Drivers/STM32F7xx_HAL_Driver/Src/stm32f7xx_hal_rcc_ex.c **** 
1418:Drivers/STM32F7xx_HAL_Driver/Src/stm32f7xx_hal_rcc_ex.c ****         /* SAI_CLK_x = SAI_CLK(first level)/PLLSAIDIVQ */
1419:Drivers/STM32F7xx_HAL_Driver/Src/stm32f7xx_hal_rcc_ex.c ****         tmpreg = (((RCC->DCKCFGR1 & RCC_DCKCFGR1_PLLSAIDIVQ) >> 8) + 1);
1420:Drivers/STM32F7xx_HAL_Driver/Src/stm32f7xx_hal_rcc_ex.c ****         frequency = frequency/(tmpreg);
1421:Drivers/STM32F7xx_HAL_Driver/Src/stm32f7xx_hal_rcc_ex.c ****         break;
1422:Drivers/STM32F7xx_HAL_Driver/Src/stm32f7xx_hal_rcc_ex.c ****       }
1423:Drivers/STM32F7xx_HAL_Driver/Src/stm32f7xx_hal_rcc_ex.c ****     case RCC_DCKCFGR1_SAI1SEL_0: /* PLLI2S is the clock source for SAI1 */
1424:Drivers/STM32F7xx_HAL_Driver/Src/stm32f7xx_hal_rcc_ex.c ****       {
1425:Drivers/STM32F7xx_HAL_Driver/Src/stm32f7xx_hal_rcc_ex.c ****         /* Configure the PLLI2S division factor */
1426:Drivers/STM32F7xx_HAL_Driver/Src/stm32f7xx_hal_rcc_ex.c ****         /* PLLI2S_VCO Input  = PLL_SOURCE/PLLM */
1427:Drivers/STM32F7xx_HAL_Driver/Src/stm32f7xx_hal_rcc_ex.c ****         if((RCC->PLLCFGR & RCC_PLLCFGR_PLLSRC) == RCC_PLLSOURCE_HSI)
1428:Drivers/STM32F7xx_HAL_Driver/Src/stm32f7xx_hal_rcc_ex.c ****         {
1429:Drivers/STM32F7xx_HAL_Driver/Src/stm32f7xx_hal_rcc_ex.c ****           /* In Case the PLL Source is HSI (Internal Clock) */
1430:Drivers/STM32F7xx_HAL_Driver/Src/stm32f7xx_hal_rcc_ex.c ****           vcoinput = (HSI_VALUE / (uint32_t)(RCC->PLLCFGR & RCC_PLLCFGR_PLLM));
1431:Drivers/STM32F7xx_HAL_Driver/Src/stm32f7xx_hal_rcc_ex.c ****         }
1432:Drivers/STM32F7xx_HAL_Driver/Src/stm32f7xx_hal_rcc_ex.c ****         else
1433:Drivers/STM32F7xx_HAL_Driver/Src/stm32f7xx_hal_rcc_ex.c ****         {
1434:Drivers/STM32F7xx_HAL_Driver/Src/stm32f7xx_hal_rcc_ex.c ****           /* In Case the PLL Source is HSE (External Clock) */
1435:Drivers/STM32F7xx_HAL_Driver/Src/stm32f7xx_hal_rcc_ex.c ****           vcoinput = ((HSE_VALUE / (uint32_t)(RCC->PLLCFGR & RCC_PLLCFGR_PLLM)));
1436:Drivers/STM32F7xx_HAL_Driver/Src/stm32f7xx_hal_rcc_ex.c ****         }
1437:Drivers/STM32F7xx_HAL_Driver/Src/stm32f7xx_hal_rcc_ex.c **** 
1438:Drivers/STM32F7xx_HAL_Driver/Src/stm32f7xx_hal_rcc_ex.c ****         /* PLLI2S_VCO Output = PLLI2S_VCO Input * PLLI2SN */
1439:Drivers/STM32F7xx_HAL_Driver/Src/stm32f7xx_hal_rcc_ex.c ****         /* SAI_CLK(first level) = PLLI2S_VCO Output/PLLI2SQ */
1440:Drivers/STM32F7xx_HAL_Driver/Src/stm32f7xx_hal_rcc_ex.c ****         tmpreg = (RCC->PLLI2SCFGR & RCC_PLLI2SCFGR_PLLI2SQ) >> 24;
1441:Drivers/STM32F7xx_HAL_Driver/Src/stm32f7xx_hal_rcc_ex.c ****         frequency = (vcoinput * ((RCC->PLLI2SCFGR & RCC_PLLI2SCFGR_PLLI2SN) >> 6))/(tmpreg);
1442:Drivers/STM32F7xx_HAL_Driver/Src/stm32f7xx_hal_rcc_ex.c **** 
1443:Drivers/STM32F7xx_HAL_Driver/Src/stm32f7xx_hal_rcc_ex.c ****         /* SAI_CLK_x = SAI_CLK(first level)/PLLI2SDIVQ */
1444:Drivers/STM32F7xx_HAL_Driver/Src/stm32f7xx_hal_rcc_ex.c ****         tmpreg = ((RCC->DCKCFGR1 & RCC_DCKCFGR1_PLLI2SDIVQ) + 1);
1445:Drivers/STM32F7xx_HAL_Driver/Src/stm32f7xx_hal_rcc_ex.c ****         frequency = frequency/(tmpreg);
1446:Drivers/STM32F7xx_HAL_Driver/Src/stm32f7xx_hal_rcc_ex.c ****         break;
1447:Drivers/STM32F7xx_HAL_Driver/Src/stm32f7xx_hal_rcc_ex.c ****       }
1448:Drivers/STM32F7xx_HAL_Driver/Src/stm32f7xx_hal_rcc_ex.c ****     case RCC_DCKCFGR1_SAI1SEL_1: /* External clock is the clock source for SAI1 */
1449:Drivers/STM32F7xx_HAL_Driver/Src/stm32f7xx_hal_rcc_ex.c ****       {
1450:Drivers/STM32F7xx_HAL_Driver/Src/stm32f7xx_hal_rcc_ex.c ****         frequency = EXTERNAL_CLOCK_VALUE;
1451:Drivers/STM32F7xx_HAL_Driver/Src/stm32f7xx_hal_rcc_ex.c ****         break;
1452:Drivers/STM32F7xx_HAL_Driver/Src/stm32f7xx_hal_rcc_ex.c ****       }
1453:Drivers/STM32F7xx_HAL_Driver/Src/stm32f7xx_hal_rcc_ex.c **** #if defined (STM32F765xx) || defined (STM32F767xx) || defined (STM32F769xx) || defined (STM32F777xx
1454:Drivers/STM32F7xx_HAL_Driver/Src/stm32f7xx_hal_rcc_ex.c ****     case RCC_DCKCFGR1_SAI1SEL: /* HSI or HSE is the clock source for SAI*/
1455:Drivers/STM32F7xx_HAL_Driver/Src/stm32f7xx_hal_rcc_ex.c ****       {
1456:Drivers/STM32F7xx_HAL_Driver/Src/stm32f7xx_hal_rcc_ex.c ****         if((RCC->PLLCFGR & RCC_PLLCFGR_PLLSRC) == RCC_PLLSOURCE_HSI)
1457:Drivers/STM32F7xx_HAL_Driver/Src/stm32f7xx_hal_rcc_ex.c ****         {
1458:Drivers/STM32F7xx_HAL_Driver/Src/stm32f7xx_hal_rcc_ex.c ****           /* In Case the main PLL Source is HSI */
1459:Drivers/STM32F7xx_HAL_Driver/Src/stm32f7xx_hal_rcc_ex.c ****           frequency = HSI_VALUE;
1460:Drivers/STM32F7xx_HAL_Driver/Src/stm32f7xx_hal_rcc_ex.c ****         }
1461:Drivers/STM32F7xx_HAL_Driver/Src/stm32f7xx_hal_rcc_ex.c ****         else
1462:Drivers/STM32F7xx_HAL_Driver/Src/stm32f7xx_hal_rcc_ex.c ****         {
ARM GAS  C:\Users\arist\AppData\Local\Temp\ccTacmMD.s 			page 53


1463:Drivers/STM32F7xx_HAL_Driver/Src/stm32f7xx_hal_rcc_ex.c ****           /* In Case the main PLL Source is HSE */
1464:Drivers/STM32F7xx_HAL_Driver/Src/stm32f7xx_hal_rcc_ex.c ****           frequency = HSE_VALUE;
1465:Drivers/STM32F7xx_HAL_Driver/Src/stm32f7xx_hal_rcc_ex.c ****         }
1466:Drivers/STM32F7xx_HAL_Driver/Src/stm32f7xx_hal_rcc_ex.c ****         break;
1467:Drivers/STM32F7xx_HAL_Driver/Src/stm32f7xx_hal_rcc_ex.c ****       }
1468:Drivers/STM32F7xx_HAL_Driver/Src/stm32f7xx_hal_rcc_ex.c **** #endif /* STM32F767xx || STM32F769xx || STM32F777xx || STM32F779xx */
1469:Drivers/STM32F7xx_HAL_Driver/Src/stm32f7xx_hal_rcc_ex.c ****     default :
1470:Drivers/STM32F7xx_HAL_Driver/Src/stm32f7xx_hal_rcc_ex.c ****       {
1471:Drivers/STM32F7xx_HAL_Driver/Src/stm32f7xx_hal_rcc_ex.c ****         break;
1472:Drivers/STM32F7xx_HAL_Driver/Src/stm32f7xx_hal_rcc_ex.c ****       }
1473:Drivers/STM32F7xx_HAL_Driver/Src/stm32f7xx_hal_rcc_ex.c ****     }
1474:Drivers/STM32F7xx_HAL_Driver/Src/stm32f7xx_hal_rcc_ex.c ****   }
1475:Drivers/STM32F7xx_HAL_Driver/Src/stm32f7xx_hal_rcc_ex.c **** 
1476:Drivers/STM32F7xx_HAL_Driver/Src/stm32f7xx_hal_rcc_ex.c ****   if (PeriphClk == RCC_PERIPHCLK_SAI2)
 1368              		.loc 1 1476 3 is_stmt 1 view .LVU493
 1369              		.loc 1 1476 6 is_stmt 0 view .LVU494
 1370 000a B2F5801F 		cmp	r2, #1048576
 1371 000e 62D0     		beq	.L113
 1372              	.LVL88:
 1373              	.L95:
1477:Drivers/STM32F7xx_HAL_Driver/Src/stm32f7xx_hal_rcc_ex.c ****   {
1478:Drivers/STM32F7xx_HAL_Driver/Src/stm32f7xx_hal_rcc_ex.c ****     saiclocksource = RCC->DCKCFGR1;
1479:Drivers/STM32F7xx_HAL_Driver/Src/stm32f7xx_hal_rcc_ex.c ****     saiclocksource &= RCC_DCKCFGR1_SAI2SEL;
1480:Drivers/STM32F7xx_HAL_Driver/Src/stm32f7xx_hal_rcc_ex.c ****     switch (saiclocksource)
1481:Drivers/STM32F7xx_HAL_Driver/Src/stm32f7xx_hal_rcc_ex.c ****     {
1482:Drivers/STM32F7xx_HAL_Driver/Src/stm32f7xx_hal_rcc_ex.c ****     case 0: /* PLLSAI is the clock source for SAI*/
1483:Drivers/STM32F7xx_HAL_Driver/Src/stm32f7xx_hal_rcc_ex.c ****       {
1484:Drivers/STM32F7xx_HAL_Driver/Src/stm32f7xx_hal_rcc_ex.c ****         /* Configure the PLLSAI division factor */
1485:Drivers/STM32F7xx_HAL_Driver/Src/stm32f7xx_hal_rcc_ex.c ****         /* PLLSAI_VCO Input  = PLL_SOURCE/PLLM */
1486:Drivers/STM32F7xx_HAL_Driver/Src/stm32f7xx_hal_rcc_ex.c ****         if((RCC->PLLCFGR & RCC_PLLCFGR_PLLSRC) == RCC_PLLSOURCE_HSI)
1487:Drivers/STM32F7xx_HAL_Driver/Src/stm32f7xx_hal_rcc_ex.c ****         {
1488:Drivers/STM32F7xx_HAL_Driver/Src/stm32f7xx_hal_rcc_ex.c ****           /* In Case the PLL Source is HSI (Internal Clock) */
1489:Drivers/STM32F7xx_HAL_Driver/Src/stm32f7xx_hal_rcc_ex.c ****           vcoinput = (HSI_VALUE / (uint32_t)(RCC->PLLCFGR & RCC_PLLCFGR_PLLM));
1490:Drivers/STM32F7xx_HAL_Driver/Src/stm32f7xx_hal_rcc_ex.c ****         }
1491:Drivers/STM32F7xx_HAL_Driver/Src/stm32f7xx_hal_rcc_ex.c ****         else
1492:Drivers/STM32F7xx_HAL_Driver/Src/stm32f7xx_hal_rcc_ex.c ****         {
1493:Drivers/STM32F7xx_HAL_Driver/Src/stm32f7xx_hal_rcc_ex.c ****           /* In Case the PLL Source is HSE (External Clock) */
1494:Drivers/STM32F7xx_HAL_Driver/Src/stm32f7xx_hal_rcc_ex.c ****           vcoinput = ((HSE_VALUE / (uint32_t)(RCC->PLLCFGR & RCC_PLLCFGR_PLLM)));
1495:Drivers/STM32F7xx_HAL_Driver/Src/stm32f7xx_hal_rcc_ex.c ****         }
1496:Drivers/STM32F7xx_HAL_Driver/Src/stm32f7xx_hal_rcc_ex.c ****         /* PLLSAI_VCO Output = PLLSAI_VCO Input * PLLSAIN */
1497:Drivers/STM32F7xx_HAL_Driver/Src/stm32f7xx_hal_rcc_ex.c ****         /* SAI_CLK(first level) = PLLSAI_VCO Output/PLLSAIQ */
1498:Drivers/STM32F7xx_HAL_Driver/Src/stm32f7xx_hal_rcc_ex.c ****         tmpreg = (RCC->PLLSAICFGR & RCC_PLLSAICFGR_PLLSAIQ) >> 24;
1499:Drivers/STM32F7xx_HAL_Driver/Src/stm32f7xx_hal_rcc_ex.c ****         frequency = (vcoinput * ((RCC->PLLSAICFGR & RCC_PLLSAICFGR_PLLSAIN) >> 6))/(tmpreg);
1500:Drivers/STM32F7xx_HAL_Driver/Src/stm32f7xx_hal_rcc_ex.c **** 
1501:Drivers/STM32F7xx_HAL_Driver/Src/stm32f7xx_hal_rcc_ex.c ****         /* SAI_CLK_x = SAI_CLK(first level)/PLLSAIDIVQ */
1502:Drivers/STM32F7xx_HAL_Driver/Src/stm32f7xx_hal_rcc_ex.c ****         tmpreg = (((RCC->DCKCFGR1 & RCC_DCKCFGR1_PLLSAIDIVQ) >> 8) + 1);
1503:Drivers/STM32F7xx_HAL_Driver/Src/stm32f7xx_hal_rcc_ex.c ****         frequency = frequency/(tmpreg);
1504:Drivers/STM32F7xx_HAL_Driver/Src/stm32f7xx_hal_rcc_ex.c ****         break;
1505:Drivers/STM32F7xx_HAL_Driver/Src/stm32f7xx_hal_rcc_ex.c ****       }
1506:Drivers/STM32F7xx_HAL_Driver/Src/stm32f7xx_hal_rcc_ex.c ****     case RCC_DCKCFGR1_SAI2SEL_0: /* PLLI2S is the clock source for SAI2 */
1507:Drivers/STM32F7xx_HAL_Driver/Src/stm32f7xx_hal_rcc_ex.c ****       {
1508:Drivers/STM32F7xx_HAL_Driver/Src/stm32f7xx_hal_rcc_ex.c ****         /* Configure the PLLI2S division factor */
1509:Drivers/STM32F7xx_HAL_Driver/Src/stm32f7xx_hal_rcc_ex.c ****         /* PLLI2S_VCO Input  = PLL_SOURCE/PLLM */
1510:Drivers/STM32F7xx_HAL_Driver/Src/stm32f7xx_hal_rcc_ex.c ****         if((RCC->PLLCFGR & RCC_PLLCFGR_PLLSRC) == RCC_PLLSOURCE_HSI)
1511:Drivers/STM32F7xx_HAL_Driver/Src/stm32f7xx_hal_rcc_ex.c ****         {
1512:Drivers/STM32F7xx_HAL_Driver/Src/stm32f7xx_hal_rcc_ex.c ****           /* In Case the PLL Source is HSI (Internal Clock) */
1513:Drivers/STM32F7xx_HAL_Driver/Src/stm32f7xx_hal_rcc_ex.c ****           vcoinput = (HSI_VALUE / (uint32_t)(RCC->PLLCFGR & RCC_PLLCFGR_PLLM));
ARM GAS  C:\Users\arist\AppData\Local\Temp\ccTacmMD.s 			page 54


1514:Drivers/STM32F7xx_HAL_Driver/Src/stm32f7xx_hal_rcc_ex.c ****         }
1515:Drivers/STM32F7xx_HAL_Driver/Src/stm32f7xx_hal_rcc_ex.c ****         else
1516:Drivers/STM32F7xx_HAL_Driver/Src/stm32f7xx_hal_rcc_ex.c ****         {
1517:Drivers/STM32F7xx_HAL_Driver/Src/stm32f7xx_hal_rcc_ex.c ****           /* In Case the PLL Source is HSE (External Clock) */
1518:Drivers/STM32F7xx_HAL_Driver/Src/stm32f7xx_hal_rcc_ex.c ****           vcoinput = ((HSE_VALUE / (uint32_t)(RCC->PLLCFGR & RCC_PLLCFGR_PLLM)));
1519:Drivers/STM32F7xx_HAL_Driver/Src/stm32f7xx_hal_rcc_ex.c ****         }
1520:Drivers/STM32F7xx_HAL_Driver/Src/stm32f7xx_hal_rcc_ex.c **** 
1521:Drivers/STM32F7xx_HAL_Driver/Src/stm32f7xx_hal_rcc_ex.c ****         /* PLLI2S_VCO Output = PLLI2S_VCO Input * PLLI2SN */
1522:Drivers/STM32F7xx_HAL_Driver/Src/stm32f7xx_hal_rcc_ex.c ****         /* SAI_CLK(first level) = PLLI2S_VCO Output/PLLI2SQ */
1523:Drivers/STM32F7xx_HAL_Driver/Src/stm32f7xx_hal_rcc_ex.c ****         tmpreg = (RCC->PLLI2SCFGR & RCC_PLLI2SCFGR_PLLI2SQ) >> 24;
1524:Drivers/STM32F7xx_HAL_Driver/Src/stm32f7xx_hal_rcc_ex.c ****         frequency = (vcoinput * ((RCC->PLLI2SCFGR & RCC_PLLI2SCFGR_PLLI2SN) >> 6))/(tmpreg);
1525:Drivers/STM32F7xx_HAL_Driver/Src/stm32f7xx_hal_rcc_ex.c **** 
1526:Drivers/STM32F7xx_HAL_Driver/Src/stm32f7xx_hal_rcc_ex.c ****         /* SAI_CLK_x = SAI_CLK(first level)/PLLI2SDIVQ */
1527:Drivers/STM32F7xx_HAL_Driver/Src/stm32f7xx_hal_rcc_ex.c ****         tmpreg = ((RCC->DCKCFGR1 & RCC_DCKCFGR1_PLLI2SDIVQ) + 1);
1528:Drivers/STM32F7xx_HAL_Driver/Src/stm32f7xx_hal_rcc_ex.c ****         frequency = frequency/(tmpreg);
1529:Drivers/STM32F7xx_HAL_Driver/Src/stm32f7xx_hal_rcc_ex.c ****         break;
1530:Drivers/STM32F7xx_HAL_Driver/Src/stm32f7xx_hal_rcc_ex.c ****       }
1531:Drivers/STM32F7xx_HAL_Driver/Src/stm32f7xx_hal_rcc_ex.c ****     case RCC_DCKCFGR1_SAI2SEL_1: /* External clock is the clock source for SAI2 */
1532:Drivers/STM32F7xx_HAL_Driver/Src/stm32f7xx_hal_rcc_ex.c ****       {
1533:Drivers/STM32F7xx_HAL_Driver/Src/stm32f7xx_hal_rcc_ex.c ****         frequency = EXTERNAL_CLOCK_VALUE;
1534:Drivers/STM32F7xx_HAL_Driver/Src/stm32f7xx_hal_rcc_ex.c ****         break;
1535:Drivers/STM32F7xx_HAL_Driver/Src/stm32f7xx_hal_rcc_ex.c ****       }
1536:Drivers/STM32F7xx_HAL_Driver/Src/stm32f7xx_hal_rcc_ex.c **** #if defined (STM32F765xx) || defined (STM32F767xx) || defined (STM32F769xx) || defined (STM32F777xx
1537:Drivers/STM32F7xx_HAL_Driver/Src/stm32f7xx_hal_rcc_ex.c ****     case RCC_DCKCFGR1_SAI2SEL: /* HSI or HSE is the clock source for SAI2 */
1538:Drivers/STM32F7xx_HAL_Driver/Src/stm32f7xx_hal_rcc_ex.c ****       {
1539:Drivers/STM32F7xx_HAL_Driver/Src/stm32f7xx_hal_rcc_ex.c ****         if((RCC->PLLCFGR & RCC_PLLCFGR_PLLSRC) == RCC_PLLSOURCE_HSI)
1540:Drivers/STM32F7xx_HAL_Driver/Src/stm32f7xx_hal_rcc_ex.c ****         {
1541:Drivers/STM32F7xx_HAL_Driver/Src/stm32f7xx_hal_rcc_ex.c ****           /* In Case the main PLL Source is HSI */
1542:Drivers/STM32F7xx_HAL_Driver/Src/stm32f7xx_hal_rcc_ex.c ****           frequency = HSI_VALUE;
1543:Drivers/STM32F7xx_HAL_Driver/Src/stm32f7xx_hal_rcc_ex.c ****         }
1544:Drivers/STM32F7xx_HAL_Driver/Src/stm32f7xx_hal_rcc_ex.c ****         else
1545:Drivers/STM32F7xx_HAL_Driver/Src/stm32f7xx_hal_rcc_ex.c ****         {
1546:Drivers/STM32F7xx_HAL_Driver/Src/stm32f7xx_hal_rcc_ex.c ****           /* In Case the main PLL Source is HSE */
1547:Drivers/STM32F7xx_HAL_Driver/Src/stm32f7xx_hal_rcc_ex.c ****           frequency = HSE_VALUE;
1548:Drivers/STM32F7xx_HAL_Driver/Src/stm32f7xx_hal_rcc_ex.c ****         }
1549:Drivers/STM32F7xx_HAL_Driver/Src/stm32f7xx_hal_rcc_ex.c ****         break;
1550:Drivers/STM32F7xx_HAL_Driver/Src/stm32f7xx_hal_rcc_ex.c ****       }
1551:Drivers/STM32F7xx_HAL_Driver/Src/stm32f7xx_hal_rcc_ex.c **** #endif /* STM32F767xx || STM32F769xx || STM32F777xx || STM32F779xx */
1552:Drivers/STM32F7xx_HAL_Driver/Src/stm32f7xx_hal_rcc_ex.c ****     default :
1553:Drivers/STM32F7xx_HAL_Driver/Src/stm32f7xx_hal_rcc_ex.c ****       {
1554:Drivers/STM32F7xx_HAL_Driver/Src/stm32f7xx_hal_rcc_ex.c ****         break;
1555:Drivers/STM32F7xx_HAL_Driver/Src/stm32f7xx_hal_rcc_ex.c ****       }
1556:Drivers/STM32F7xx_HAL_Driver/Src/stm32f7xx_hal_rcc_ex.c ****     }
1557:Drivers/STM32F7xx_HAL_Driver/Src/stm32f7xx_hal_rcc_ex.c ****   }
1558:Drivers/STM32F7xx_HAL_Driver/Src/stm32f7xx_hal_rcc_ex.c **** 
1559:Drivers/STM32F7xx_HAL_Driver/Src/stm32f7xx_hal_rcc_ex.c ****   return frequency;
1560:Drivers/STM32F7xx_HAL_Driver/Src/stm32f7xx_hal_rcc_ex.c **** }
 1374              		.loc 1 1560 1 view .LVU495
 1375 0010 7047     		bx	lr
 1376              	.LVL89:
 1377              	.L112:
1395:Drivers/STM32F7xx_HAL_Driver/Src/stm32f7xx_hal_rcc_ex.c ****     saiclocksource &= RCC_DCKCFGR1_SAI1SEL;
 1378              		.loc 1 1395 5 is_stmt 1 view .LVU496
1395:Drivers/STM32F7xx_HAL_Driver/Src/stm32f7xx_hal_rcc_ex.c ****     saiclocksource &= RCC_DCKCFGR1_SAI1SEL;
 1379              		.loc 1 1395 20 is_stmt 0 view .LVU497
 1380 0012 614B     		ldr	r3, .L115
 1381 0014 D3F88C30 		ldr	r3, [r3, #140]
ARM GAS  C:\Users\arist\AppData\Local\Temp\ccTacmMD.s 			page 55


 1382              	.LVL90:
1396:Drivers/STM32F7xx_HAL_Driver/Src/stm32f7xx_hal_rcc_ex.c ****     switch (saiclocksource)
 1383              		.loc 1 1396 5 is_stmt 1 view .LVU498
1396:Drivers/STM32F7xx_HAL_Driver/Src/stm32f7xx_hal_rcc_ex.c ****     switch (saiclocksource)
 1384              		.loc 1 1396 20 is_stmt 0 view .LVU499
 1385 0018 03F44013 		and	r3, r3, #3145728
 1386              	.LVL91:
1397:Drivers/STM32F7xx_HAL_Driver/Src/stm32f7xx_hal_rcc_ex.c ****     {
 1387              		.loc 1 1397 5 is_stmt 1 view .LVU500
 1388 001c B3F5801F 		cmp	r3, #1048576
 1389 0020 2ED0     		beq	.L97
 1390 0022 B3F5001F 		cmp	r3, #2097152
 1391 0026 54D0     		beq	.L109
 1392 0028 0BB1     		cbz	r3, .L114
 1393 002a 0020     		movs	r0, #0
 1394              	.LVL92:
1397:Drivers/STM32F7xx_HAL_Driver/Src/stm32f7xx_hal_rcc_ex.c ****     {
 1395              		.loc 1 1397 5 is_stmt 0 view .LVU501
 1396 002c EDE7     		b	.L96
 1397              	.LVL93:
 1398              	.L114:
1403:Drivers/STM32F7xx_HAL_Driver/Src/stm32f7xx_hal_rcc_ex.c ****         {
 1399              		.loc 1 1403 9 is_stmt 1 view .LVU502
1403:Drivers/STM32F7xx_HAL_Driver/Src/stm32f7xx_hal_rcc_ex.c ****         {
 1400              		.loc 1 1403 16 is_stmt 0 view .LVU503
 1401 002e 5A4B     		ldr	r3, .L115
 1402              	.LVL94:
1403:Drivers/STM32F7xx_HAL_Driver/Src/stm32f7xx_hal_rcc_ex.c ****         {
 1403              		.loc 1 1403 16 view .LVU504
 1404 0030 5B68     		ldr	r3, [r3, #4]
1403:Drivers/STM32F7xx_HAL_Driver/Src/stm32f7xx_hal_rcc_ex.c ****         {
 1405              		.loc 1 1403 11 view .LVU505
 1406 0032 13F4800F 		tst	r3, #4194304
 1407 0036 1BD1     		bne	.L98
1406:Drivers/STM32F7xx_HAL_Driver/Src/stm32f7xx_hal_rcc_ex.c ****         }
 1408              		.loc 1 1406 11 is_stmt 1 view .LVU506
1406:Drivers/STM32F7xx_HAL_Driver/Src/stm32f7xx_hal_rcc_ex.c ****         }
 1409              		.loc 1 1406 49 is_stmt 0 view .LVU507
 1410 0038 574B     		ldr	r3, .L115
 1411 003a 5968     		ldr	r1, [r3, #4]
1406:Drivers/STM32F7xx_HAL_Driver/Src/stm32f7xx_hal_rcc_ex.c ****         }
 1412              		.loc 1 1406 35 view .LVU508
 1413 003c 01F03F01 		and	r1, r1, #63
1406:Drivers/STM32F7xx_HAL_Driver/Src/stm32f7xx_hal_rcc_ex.c ****         }
 1414              		.loc 1 1406 20 view .LVU509
 1415 0040 564B     		ldr	r3, .L115+4
 1416 0042 B3FBF1FC 		udiv	ip, r3, r1
 1417              	.LVL95:
 1418              	.L99:
1415:Drivers/STM32F7xx_HAL_Driver/Src/stm32f7xx_hal_rcc_ex.c ****         frequency = (vcoinput * ((RCC->PLLSAICFGR & RCC_PLLSAICFGR_PLLSAIN) >> 6))/(tmpreg);
 1419              		.loc 1 1415 9 is_stmt 1 view .LVU510
1415:Drivers/STM32F7xx_HAL_Driver/Src/stm32f7xx_hal_rcc_ex.c ****         frequency = (vcoinput * ((RCC->PLLSAICFGR & RCC_PLLSAICFGR_PLLSAIN) >> 6))/(tmpreg);
 1420              		.loc 1 1415 22 is_stmt 0 view .LVU511
 1421 0046 5449     		ldr	r1, .L115
 1422 0048 D1F88800 		ldr	r0, [r1, #136]
 1423              	.LVL96:
1415:Drivers/STM32F7xx_HAL_Driver/Src/stm32f7xx_hal_rcc_ex.c ****         frequency = (vcoinput * ((RCC->PLLSAICFGR & RCC_PLLSAICFGR_PLLSAIN) >> 6))/(tmpreg);
ARM GAS  C:\Users\arist\AppData\Local\Temp\ccTacmMD.s 			page 56


 1424              		.loc 1 1415 16 view .LVU512
 1425 004c C0F30360 		ubfx	r0, r0, #24, #4
 1426              	.LVL97:
1416:Drivers/STM32F7xx_HAL_Driver/Src/stm32f7xx_hal_rcc_ex.c **** 
 1427              		.loc 1 1416 9 is_stmt 1 view .LVU513
1416:Drivers/STM32F7xx_HAL_Driver/Src/stm32f7xx_hal_rcc_ex.c **** 
 1428              		.loc 1 1416 38 is_stmt 0 view .LVU514
 1429 0050 D1F88830 		ldr	r3, [r1, #136]
1416:Drivers/STM32F7xx_HAL_Driver/Src/stm32f7xx_hal_rcc_ex.c **** 
 1430              		.loc 1 1416 77 view .LVU515
 1431 0054 C3F38813 		ubfx	r3, r3, #6, #9
1416:Drivers/STM32F7xx_HAL_Driver/Src/stm32f7xx_hal_rcc_ex.c **** 
 1432              		.loc 1 1416 31 view .LVU516
 1433 0058 0CFB03F3 		mul	r3, ip, r3
1416:Drivers/STM32F7xx_HAL_Driver/Src/stm32f7xx_hal_rcc_ex.c **** 
 1434              		.loc 1 1416 19 view .LVU517
 1435 005c B3FBF0F3 		udiv	r3, r3, r0
 1436              	.LVL98:
1419:Drivers/STM32F7xx_HAL_Driver/Src/stm32f7xx_hal_rcc_ex.c ****         frequency = frequency/(tmpreg);
 1437              		.loc 1 1419 9 is_stmt 1 view .LVU518
1419:Drivers/STM32F7xx_HAL_Driver/Src/stm32f7xx_hal_rcc_ex.c ****         frequency = frequency/(tmpreg);
 1438              		.loc 1 1419 24 is_stmt 0 view .LVU519
 1439 0060 D1F88C10 		ldr	r1, [r1, #140]
1419:Drivers/STM32F7xx_HAL_Driver/Src/stm32f7xx_hal_rcc_ex.c ****         frequency = frequency/(tmpreg);
 1440              		.loc 1 1419 62 view .LVU520
 1441 0064 C1F30421 		ubfx	r1, r1, #8, #5
1419:Drivers/STM32F7xx_HAL_Driver/Src/stm32f7xx_hal_rcc_ex.c ****         frequency = frequency/(tmpreg);
 1442              		.loc 1 1419 16 view .LVU521
 1443 0068 0131     		adds	r1, r1, #1
 1444              	.LVL99:
1420:Drivers/STM32F7xx_HAL_Driver/Src/stm32f7xx_hal_rcc_ex.c ****         break;
 1445              		.loc 1 1420 9 is_stmt 1 view .LVU522
1420:Drivers/STM32F7xx_HAL_Driver/Src/stm32f7xx_hal_rcc_ex.c ****         break;
 1446              		.loc 1 1420 19 is_stmt 0 view .LVU523
 1447 006a B3FBF1F0 		udiv	r0, r3, r1
 1448              	.LVL100:
1421:Drivers/STM32F7xx_HAL_Driver/Src/stm32f7xx_hal_rcc_ex.c ****       }
 1449              		.loc 1 1421 9 is_stmt 1 view .LVU524
 1450 006e CCE7     		b	.L96
 1451              	.LVL101:
 1452              	.L98:
1411:Drivers/STM32F7xx_HAL_Driver/Src/stm32f7xx_hal_rcc_ex.c ****         }
 1453              		.loc 1 1411 11 view .LVU525
1411:Drivers/STM32F7xx_HAL_Driver/Src/stm32f7xx_hal_rcc_ex.c ****         }
 1454              		.loc 1 1411 50 is_stmt 0 view .LVU526
 1455 0070 494B     		ldr	r3, .L115
 1456 0072 5968     		ldr	r1, [r3, #4]
1411:Drivers/STM32F7xx_HAL_Driver/Src/stm32f7xx_hal_rcc_ex.c ****         }
 1457              		.loc 1 1411 36 view .LVU527
 1458 0074 01F03F01 		and	r1, r1, #63
1411:Drivers/STM32F7xx_HAL_Driver/Src/stm32f7xx_hal_rcc_ex.c ****         }
 1459              		.loc 1 1411 20 view .LVU528
 1460 0078 494B     		ldr	r3, .L115+8
 1461 007a B3FBF1FC 		udiv	ip, r3, r1
 1462              	.LVL102:
1411:Drivers/STM32F7xx_HAL_Driver/Src/stm32f7xx_hal_rcc_ex.c ****         }
 1463              		.loc 1 1411 20 view .LVU529
ARM GAS  C:\Users\arist\AppData\Local\Temp\ccTacmMD.s 			page 57


 1464 007e E2E7     		b	.L99
 1465              	.LVL103:
 1466              	.L97:
1427:Drivers/STM32F7xx_HAL_Driver/Src/stm32f7xx_hal_rcc_ex.c ****         {
 1467              		.loc 1 1427 9 is_stmt 1 view .LVU530
1427:Drivers/STM32F7xx_HAL_Driver/Src/stm32f7xx_hal_rcc_ex.c ****         {
 1468              		.loc 1 1427 16 is_stmt 0 view .LVU531
 1469 0080 454B     		ldr	r3, .L115
 1470              	.LVL104:
1427:Drivers/STM32F7xx_HAL_Driver/Src/stm32f7xx_hal_rcc_ex.c ****         {
 1471              		.loc 1 1427 16 view .LVU532
 1472 0082 5B68     		ldr	r3, [r3, #4]
1427:Drivers/STM32F7xx_HAL_Driver/Src/stm32f7xx_hal_rcc_ex.c ****         {
 1473              		.loc 1 1427 11 view .LVU533
 1474 0084 13F4800F 		tst	r3, #4194304
 1475 0088 1BD1     		bne	.L100
1430:Drivers/STM32F7xx_HAL_Driver/Src/stm32f7xx_hal_rcc_ex.c ****         }
 1476              		.loc 1 1430 11 is_stmt 1 view .LVU534
1430:Drivers/STM32F7xx_HAL_Driver/Src/stm32f7xx_hal_rcc_ex.c ****         }
 1477              		.loc 1 1430 49 is_stmt 0 view .LVU535
 1478 008a 434B     		ldr	r3, .L115
 1479 008c 5968     		ldr	r1, [r3, #4]
1430:Drivers/STM32F7xx_HAL_Driver/Src/stm32f7xx_hal_rcc_ex.c ****         }
 1480              		.loc 1 1430 35 view .LVU536
 1481 008e 01F03F01 		and	r1, r1, #63
1430:Drivers/STM32F7xx_HAL_Driver/Src/stm32f7xx_hal_rcc_ex.c ****         }
 1482              		.loc 1 1430 20 view .LVU537
 1483 0092 424B     		ldr	r3, .L115+4
